 CS1.6 data collector

 Timestamp is 6104140a (Fri Jul 30 23:00:26 2021)

 Preferred load address is 10000000

 Start         Length     Name                   Class
 0001:00000000 00000c50H .text                   CODE
 0001:00000c50 00000350H .text$di                CODE
 0001:00000fa0 00061cf0H .text$mn                CODE
 0001:00062c90 00002bf0H .text$x                 CODE
 0001:00065880 00000107H .text$yd                CODE
 0002:00000000 0000024cH .idata$5                DATA
 0002:0000024c 00000004H .00cfg                  DATA
 0002:00000250 00000004H .CRT$XCA                DATA
 0002:00000254 0000000cH .CRT$XCC                DATA
 0002:00000260 00000008H .CRT$XCL                DATA
 0002:00000268 00000044H .CRT$XCU                DATA
 0002:000002ac 00000004H .CRT$XCZ                DATA
 0002:000002b0 00000004H .CRT$XIA                DATA
 0002:000002b4 00000018H .CRT$XIC                DATA
 0002:000002cc 00000004H .CRT$XIZ                DATA
 0002:000002d0 00000004H .CRT$XLA                DATA
 0002:000002d4 00000004H .CRT$XLZ                DATA
 0002:000002d8 00000004H .CRT$XPA                DATA
 0002:000002dc 00000008H .CRT$XPX                DATA
 0002:000002e4 00000004H .CRT$XPXA               DATA
 0002:000002e8 00000004H .CRT$XPZ                DATA
 0002:000002ec 00000004H .CRT$XTA                DATA
 0002:000002f0 00000010H .CRT$XTZ                DATA
 0002:000002f4 00000000H .gfids$y                DATA
 0002:00000300 0004aa40H .rdata                  DATA
 0002:0004ad40 00000000H .rdata$CastGuardVftablesA DATA
 0002:0004ad40 00000000H .rdata$CastGuardVftablesC DATA
 0002:0004ad40 00000018H .rdata$T                DATA
 0002:0004ad58 00000ec8H .rdata$r                DATA
 0002:0004bc20 00000408H .rdata$zzzdbg           DATA
 0002:0004c028 00000004H .rtc$IAA                DATA
 0002:0004c02c 00000004H .rtc$IZZ                DATA
 0002:0004c030 00000004H .rtc$TAA                DATA
 0002:0004c034 00000004H .rtc$TZZ                DATA
 0002:0004c038 00000004H .tls                    DATA
 0002:0004c03c 00000004H .tls$                   DATA
 0002:0004c040 00000008H .tls$ZZZ                DATA
 0002:0004c048 00003198H .xdata$x                DATA
 0002:0004f1e0 00000060H .edata                  DATA
 0002:0004f240 0000008cH .idata$2                DATA
 0002:0004f2cc 00000014H .idata$3                DATA
 0002:0004f2e0 0000024cH .idata$4                DATA
 0002:0004f52c 000009f2H .idata$6                DATA
 0003:00000000 000014e0H .data                   DATA
 0003:000014e0 00000238H .data$r                 DATA
 0003:00001718 00000628H .data$rs                DATA
 0003:00001d40 00023090H .bss                    DATA
 0004:00000000 00000060H .rsrc$01                DATA
 0004:00000060 00000180H .rsrc$02                DATA

  Address         Publics by Value              Rva+Base       Lib:Object

 0000:00000000       ___guard_longjmp_table     00000000     <absolute>
 0000:00000000       ___arm64x_extra_rfe_table  00000000     <absolute>
 0000:00000000       ___arm64x_redirection_metadata 00000000     <absolute>
 0000:00000000       ___guard_eh_cont_count     00000000     <absolute>
 0000:00000000       ___arm64x_native_entrypoint 00000000     <absolute>
 0000:00000000       ___safe_se_handler_table   00000000     <absolute>
 0000:00000000       ___guard_fids_count        00000000     <absolute>
 0000:00000000       ___hybrid_code_map_count   00000000     <absolute>
 0000:00000000       ___guard_eh_cont_table     00000000     <absolute>
 0000:00000000       ___x64_code_ranges_to_entry_points 00000000     <absolute>
 0000:00000000       ___guard_iat_count         00000000     <absolute>
 0000:00000000       __except_list              00000000     <absolute>
 0000:00000000       ___x64_code_ranges_to_entry_points_count 00000000     <absolute>
 0000:00000000       ___volatile_metadata       00000000     <absolute>
 0000:00000000       ___hybrid_code_map         00000000     <absolute>
 0000:00000000       ___guard_iat_table         00000000     <absolute>
 0000:00000000       ___arm64x_extra_rfe_table_size 00000000     <absolute>
 0000:00000000       ___safe_se_handler_count   00000000     <absolute>
 0000:00000000       ___guard_longjmp_count     00000000     <absolute>
 0000:00000000       ___guard_check_icall_a64n_fptr 00000000     <absolute>
 0000:00000000       ___arm64x_redirection_metadata_count 00000000     <absolute>
 0000:00000000       ___hybrid_auxiliary_iat    00000000     <absolute>
 0000:00000000       ___dynamic_value_reloc_table 00000000     <absolute>
 0000:00000000       ___AbsoluteZero            00000000     <absolute>
 0000:00000000       ___enclave_config          00000000     <absolute>
 0000:00000000       ___guard_fids_table        00000000     <absolute>
 0000:00000000       ___hybrid_auxiliary_iat_copy 00000000     <absolute>
 0000:0000002c       __tls_array                0000002c     <absolute>
 0000:00000100       ___guard_flags             00000100     <absolute>
 0000:00000000       ___ImageBase               10000000     <linker-defined>
 0001:00000000       ??0CDetourEnableWriteOnCodePage@@QAE@PAEJ@Z 10001000 f i detours:detours.obj
 0001:00000080       ??1CDetourEnableWriteOnCodePage@@QAE@XZ 10001080 f i detours:detours.obj
 0001:000000f0       _DetourFunction@8          100010f0 f   detours:detours.obj
 0001:000003e0       ?SetPermission@CDetourEnableWriteOnCodePage@@QAEHK@Z 100013e0 f i detours:detours.obj
 0001:00000420       ?IsValid@CDetourEnableWriteOnCodePage@@QAEHXZ 10001420 f i detours:detours.obj
 0001:000004c0       ?DetourGenJmp@@YAPAEPAE00@Z 100014c0 f i detours:detours.obj
 0001:00000500       ?DetourGenBreak@@YAPAEPAE@Z 10001500 f i detours:detours.obj
 0001:00000520       _DetourGetFinalCode@8      10001520 f   detours:detours.obj
 0001:00000590       _DetourCopyInstruction@12  10001590 f   detours:disasm.obj
 0001:000005c0       ??0CDetourDis@@QAE@PAPAEPAJ@Z 100015c0 f   detours:disasm.obj
 0001:00000640       ?Set16BitOperand@CDetourDis@@IAEXXZ 10001640 f   detours:disasm.obj
 0001:00000660       ?Set32BitOperand@CDetourDis@@IAEXXZ 10001660 f   detours:disasm.obj
 0001:00000680       ?Set16BitAddress@CDetourDis@@IAEXXZ 10001680 f   detours:disasm.obj
 0001:000006a0       ?CopyInstruction@CDetourDis@@QAEPAEPAE0@Z 100016a0 f   detours:disasm.obj
 0001:00000700       ?CopyBytes@CDetourDis@@IAEPAEPBUCOPYENTRY@1@PAE1@Z 10001700 f   detours:disasm.obj
 0001:000008e0       ?CopyBytesPrefix@CDetourDis@@IAEPAEPBUCOPYENTRY@1@PAE1@Z 100018e0 f   detours:disasm.obj
 0001:00000930       ?AdjustTarget@CDetourDis@@IAEPAEPAE0JJ@Z 10001930 f   detours:disasm.obj
 0001:00000a10       ?Invalid@CDetourDis@@IAEPAEPBUCOPYENTRY@1@PAE1@Z 10001a10 f   detours:disasm.obj
 0001:00000a30       ?Copy0F@CDetourDis@@IAEPAEPBUCOPYENTRY@1@PAE1@Z 10001a30 f   detours:disasm.obj
 0001:00000a80       ?Copy66@CDetourDis@@IAEPAEPBUCOPYENTRY@1@PAE1@Z 10001a80 f   detours:disasm.obj
 0001:00000ab0       ?Copy67@CDetourDis@@IAEPAEPBUCOPYENTRY@1@PAE1@Z 10001ab0 f   detours:disasm.obj
 0001:00000ae0       ?CopyF6@CDetourDis@@IAEPAEPBUCOPYENTRY@1@PAE1@Z 10001ae0 f   detours:disasm.obj
 0001:00000b40       ?CopyF7@CDetourDis@@IAEPAEPBUCOPYENTRY@1@PAE1@Z 10001b40 f   detours:disasm.obj
 0001:00000ba0       ?CopyFF@CDetourDis@@IAEPAEPBUCOPYENTRY@1@PAE1@Z 10001ba0 f   detours:disasm.obj
 0001:00000fa0       ??0QAngle@@QAE@XZ          10001fa0 f i Aimbot.obj
 0001:00000fa0       ??0Vector@@QAE@XZ          10001fa0 f i Client.obj
 0001:00000fd0       ??0QAngle@@QAE@MMM@Z       10001fd0 f i Aimbot.obj
 0001:00000fd0       ??0Vector@@QAE@MMM@Z       10001fd0 f i Client.obj
 0001:00001010       ??4QAngle@@QAEAAV0@ABV0@@Z 10002010 f i Aimbot.obj
 0001:00001010       ??0Vector@@QAE@ABV0@@Z     10002010 f i Client.obj
 0001:00001010       ??4Vector@@QAEAAV0@ABV0@@Z 10002010 f i Client.obj
 0001:00001050       ?_Orphan_all@_Container_base12@std@@QAEXXZ 10002050 f i Aimbot.obj
 0001:00001050       ?Init@CFunctions@@QAEXXZ   10002050 f i Cvars.obj
 0001:00001050       ?_Lock@?$basic_streambuf@DU?$char_traits@D@std@@@std@@UAEXXZ 10002050 f i World.obj
 0001:00001050       ??1_Bxty@?$_String_val@U?$_Simple_types@D@std@@@std@@QAE@XZ 10002050 f i Cvars.obj
 0001:00001050       ??1error_category@std@@UAE@XZ 10002050 f i Menu.obj
 0001:00001050       ?_Unlock@?$basic_streambuf@DU?$char_traits@D@std@@@std@@UAEXXZ 10002050 f i World.obj
 0001:00001050       ?_Orphan_all@_Container_base0@std@@QAEXXZ 10002050 f i Cvars.obj
 0001:00001050       ?_Release@_Fake_proxy_ptr_impl@std@@QAEXXZ 10002050 f i Cvars.obj
 0001:00001050       ??1Vector@@QAE@XZ          10002050 f i Client.obj
 0001:00001050       ??1QAngle@@QAE@XZ          10002050 f i Aimbot.obj
 0001:00001060       ?_Get_data@?$deque@Umy_sound_t@@V?$allocator@Umy_sound_t@@@std@@@std@@AAEAAV?$_Deque_val@U?$_Deque_simple_types@Umy_sound_t@@@std@@@2@XZ 10002060 f i Sounds.obj
 0001:00001060       ?_Get_first@?$_Compressed_pair@V?$allocator@V?$basic_config@Ujson_args@configor@@@configor@@@std@@V?$_Vector_val@U?$_Simple_types@V?$basic_config@Ujson_args@configor@@@configor@@@std@@@2@$00@std@@QAEAAV?$allocator@V?$basic_config@Ujson_args@configor@@@configor@@@2@XZ 10002060 f i Pipi_edit.obj
 0001:00001060       ?_Get_data@?$deque@Umy_sound_t@@V?$allocator@Umy_sound_t@@@std@@@std@@ABEABV?$_Deque_val@U?$_Deque_simple_types@Umy_sound_t@@@std@@@2@XZ 10002060 f i Sounds.obj
 0001:00001060       ?_Get_first@?$_Compressed_pair@V?$allocator@I@std@@V?$_Deque_val@U?$_Deque_simple_types@I@std@@@2@$00@std@@QBEABV?$allocator@I@2@XZ 10002060 f i Aimbot.obj
 0001:00001060       ??0?$allocator@V?$vector@V?$basic_config@Ujson_args@configor@@@configor@@V?$allocator@V?$basic_config@Ujson_args@configor@@@configor@@@std@@@std@@@std@@QAE@XZ 10002060 f i Pipi_edit.obj
 0001:00001060       ?_Get_first@?$_Compressed_pair@V?$allocator@VVector@@@std@@V?$_Deque_val@U?$_Deque_simple_types@VVector@@@std@@@2@$00@std@@QBEABV?$allocator@VVector@@@2@XZ 10002060 f i Visuals.obj
 0001:00001060       ?_Get_first@?$_Compressed_pair@V?$allocator@U?$_Tree_node@U?$pair@$$CBV?$basic_string@DU?$char_traits@D@std@@V?$allocator@D@2@@std@@V?$basic_config@Ujson_args@configor@@@configor@@@std@@PAX@std@@@std@@V?$_Tree_val@U?$_Tree_simple_types@U?$pair@$$CBV?$basic_string@DU?$char_traits@D@std@@V?$allocator@D@2@@std@@V?$basic_config@Ujson_args@configor@@@configor@@@std@@@std@@@2@$00@std@@QAEAAV?$allocator@U?$_Tree_node@U?$pair@$$CBV?$basic_string@DU?$char_traits@D@std@@V?$allocator@D@2@@std@@V?$basic_config@Ujson_args@configor@@@configor@@@std@@PAX@std@@@2@XZ 10002060 f i Pipi_edit.obj
 0001:00001060       ?_Get_first@?$_Compressed_pair@V?$allocator@V?$basic_config@Ujson_args@configor@@@configor@@@std@@V?$_Vector_val@U?$_Simple_types@V?$basic_config@Ujson_args@configor@@@configor@@@std@@@2@$00@std@@QBEABV?$allocator@V?$basic_config@Ujson_args@configor@@@configor@@@2@XZ 10002060 f i Pipi_edit.obj
 0001:00001060       ??0?$allocator@V?$basic_string@DU?$char_traits@D@std@@V?$allocator@D@2@@std@@@std@@QAE@XZ 10002060 f i Pipi_edit.obj
 0001:00001060       ?_Get_first@?$_Compressed_pair@V?$allocator@U?$_Tree_node@U?$pair@$$CBV?$basic_string@DU?$char_traits@D@std@@V?$allocator@D@2@@std@@V?$basic_config@Ujson_args@configor@@@configor@@@std@@PAX@std@@@std@@V?$_Tree_val@U?$_Tree_simple_types@U?$pair@$$CBV?$basic_string@DU?$char_traits@D@std@@V?$allocator@D@2@@std@@V?$basic_config@Ujson_args@configor@@@configor@@@std@@@std@@@2@$00@std@@QBEABV?$allocator@U?$_Tree_node@U?$pair@$$CBV?$basic_string@DU?$char_traits@D@std@@V?$allocator@D@2@@std@@V?$basic_config@Ujson_args@configor@@@configor@@@std@@PAX@std@@@2@XZ 10002060 f i Pipi_edit.obj
 0001:00001060       ??E?$ostreambuf_iterator@DU?$char_traits@D@std@@@std@@QAEAAV01@XZ 10002060 f i Pipi_edit.obj
 0001:00001060       ??0?$allocator@V?$map@V?$basic_string@DU?$char_traits@D@std@@V?$allocator@D@2@@std@@V?$basic_config@Ujson_args@configor@@@configor@@U?$less@V?$basic_string@DU?$char_traits@D@std@@V?$allocator@D@2@@std@@@2@V?$allocator@U?$pair@$$CBV?$basic_string@DU?$char_traits@D@std@@V?$allocator@D@2@@std@@V?$basic_config@Ujson_args@configor@@@configor@@@std@@@2@@std@@@std@@QAE@XZ 10002060 f i Pipi_edit.obj
 0001:00001060       ?raw_value@?$basic_config@Ujson_args@configor@@@configor@@QBEABU?$config_value@V?$basic_config@Ujson_args@configor@@@configor@@@detail@2@XZ 10002060 f i Pipi_edit.obj
 0001:00001060       ?_Get_first@?$_Compressed_pair@U?$default_delete@V_Facet_base@std@@@std@@PAV_Facet_base@2@$00@std@@QAEAAU?$default_delete@V_Facet_base@std@@@2@XZ 10002060 f i World.obj
 0001:00001060       ?_Get_data@?$deque@IV?$allocator@I@std@@@std@@AAEAAV?$_Deque_val@U?$_Deque_simple_types@I@std@@@2@XZ 10002060 f i Aimbot.obj
 0001:00001060       ?_Get_data@?$deque@IV?$allocator@I@std@@@std@@ABEABV?$_Deque_val@U?$_Deque_simple_types@I@std@@@2@XZ 10002060 f i Aimbot.obj
 0001:00001060       ??0?$allocator@D@std@@QAE@XZ 10002060 f i Cvars.obj
 0001:00001060       ?_Get_data@?$deque@VVector@@V?$allocator@VVector@@@std@@@std@@ABEABV?$_Deque_val@U?$_Deque_simple_types@VVector@@@std@@@2@XZ 10002060 f i Visuals.obj
 0001:00001060       ??0?$allocator@VVector@@@std@@QAE@XZ 10002060 f i Visuals.obj
 0001:00001060       ?_Get_first@?$_Compressed_pair@V?$allocator@Umy_sound_t@@@std@@V?$_Deque_val@U?$_Deque_simple_types@Umy_sound_t@@@std@@@2@$00@std@@QAEAAV?$allocator@Umy_sound_t@@@2@XZ 10002060 f i Sounds.obj
 0001:00001060       ??D?$ostreambuf_iterator@DU?$char_traits@D@std@@@std@@QAEAAV01@XZ 10002060 f i Pipi_edit.obj
 0001:00001060       ??0?$allocator@V?$basic_config@Ujson_args@configor@@@configor@@@std@@QAE@XZ 10002060 f i Pipi_edit.obj
 0001:00001060       ?_Get_first@?$_Compressed_pair@V?$allocator@Umy_sound_t@@@std@@V?$_Deque_val@U?$_Deque_simple_types@Umy_sound_t@@@std@@@2@$00@std@@QBEABV?$allocator@Umy_sound_t@@@2@XZ 10002060 f i Sounds.obj
 0001:00001060       ?_Get_first@?$_Compressed_pair@U?$less@V?$basic_string@DU?$char_traits@D@std@@V?$allocator@D@2@@std@@@std@@V?$_Compressed_pair@V?$allocator@U?$_Tree_node@U?$pair@$$CBV?$basic_string@DU?$char_traits@D@std@@V?$allocator@D@2@@std@@V?$basic_config@Ujson_args@configor@@@configor@@@std@@PAX@std@@@std@@V?$_Tree_val@U?$_Tree_simple_types@U?$pair@$$CBV?$basic_string@DU?$char_traits@D@std@@V?$allocator@D@2@@std@@V?$basic_config@Ujson_args@configor@@@configor@@@std@@@std@@@2@$00@2@$00@std@@QBEABU?$less@V?$basic_string@DU?$char_traits@D@std@@V?$allocator@D@2@@std@@@2@XZ 10002060 f i Pipi_edit.obj
 0001:00001060       ??BVector@@QAEPAMXZ        10002060 f i Client.obj
 0001:00001060       ??0?$allocator@Umy_sound_t@@@std@@QAE@XZ 10002060 f i Sounds.obj
 0001:00001060       ?_Get_first@?$_Compressed_pair@V?$allocator@I@std@@V?$_Deque_val@U?$_Deque_simple_types@I@std@@@2@$00@std@@QAEAAV?$allocator@I@2@XZ 10002060 f i Aimbot.obj
 0001:00001060       ??0?$allocator@I@std@@QAE@XZ 10002060 f i Aimbot.obj
 0001:00001060       ?_Get_first@?$_Compressed_pair@V?$allocator@VVector@@@std@@V?$_Deque_val@U?$_Deque_simple_types@VVector@@@std@@@2@$00@std@@QAEAAV?$allocator@VVector@@@2@XZ 10002060 f i Visuals.obj
 0001:00001060       ?_Get_data@?$deque@VVector@@V?$allocator@VVector@@@std@@@std@@AAEAAV?$_Deque_val@U?$_Deque_simple_types@VVector@@@std@@@2@XZ 10002060 f i Visuals.obj
 0001:00001060       ?_Get_first@?$_Compressed_pair@V?$allocator@D@std@@V?$_String_val@U?$_Simple_types@D@std@@@2@$00@std@@QAEAAV?$allocator@D@2@XZ 10002060 f i Cvars.obj
 0001:00001060       ??0?$allocator@U?$_Tree_node@U?$pair@$$CBV?$basic_string@DU?$char_traits@D@std@@V?$allocator@D@2@@std@@V?$basic_config@Ujson_args@configor@@@configor@@@std@@PAX@std@@@std@@QAE@XZ 10002060 f i Pipi_edit.obj
 0001:00001060       ??BQAngle@@QAEPAMXZ        10002060 f i Aimbot.obj
 0001:00001060       ?_Get_first@?$_Compressed_pair@V?$allocator@D@std@@V?$_String_val@U?$_Simple_types@D@std@@@2@$00@std@@QBEABV?$allocator@D@2@XZ 10002060 f i Cvars.obj
 0001:00001070       ??4QAngle@@QAEAAV0@PAM@Z   10002070 f i Aimbot.obj
 0001:00001070       ??4Vector@@QAEAAV0@PAM@Z   10002070 f i Client.obj
 0001:000010f0       ??AVector@@QBEAAMH@Z       100020f0 f i Client.obj
 0001:000010f0       ??AQAngle@@QBEAAMH@Z       100020f0 f i Aimbot.obj
 0001:00001120       ??HVector@@QBE?AV0@ABV0@@Z 10002120 f i Client.obj
 0001:00001190       ??DVector@@QBE?AV0@M@Z     10002190 f i Client.obj
 0001:00001200       ?AntiSnapshot@@YAXXZ       10002200 f   Client.obj
 0001:00001210       ?AntiScreenshot@@YAXXZ     10002210 f   Client.obj
 0001:00001220       ?AntiScreen@@YAXXZ         10002220 f   Client.obj
 0001:00001290       ?PaintTraversePanel@@YGXPAVIPanel@vgui@@_N1@Z 10002290 f   Client.obj
 0001:00001510       ?CL_CreateMove@@YAXMPAUusercmd_s@@H@Z 10002510 f   Client.obj
 0001:00001880       ??0pmtrace_s@@QAE@XZ       10002880 f i Client.obj
 0001:000018f0       ??0CBomb@@QAE@XZ           100028f0 f i World.obj
 0001:000018f0       ??0pmplane_t@@QAE@XZ       100028f0 f i Client.obj
 0001:000018f0       ??0my_sound_t@@QAE@XZ      100028f0 f i Sounds.obj
 0001:00001910       ??1pmtrace_s@@QAE@XZ       10002910 f i Client.obj
 0001:00001940       ??1pmplane_t@@QAE@XZ       10002940 f i Client.obj
 0001:00001940       ??1_Iostream_error_category2@std@@UAE@XZ 10002940 f i World.obj
 0001:00001940       ??1CBomb@@QAE@XZ           10002940 f i World.obj
 0001:00001940       ??1my_sound_t@@QAE@XZ      10002940 f i Sounds.obj
 0001:00001940       ??1?$_String_val@U?$_Simple_types@D@std@@@std@@QAE@XZ 10002940 f i Cvars.obj
 0001:00001960       ?HUD_PostRunCmd@@YAXPAUlocal_state_s@@0PAUusercmd_s@@HNI@Z 10002960 f   Client.obj
 0001:000019c0       ?V_CalcRefdef@@YAXPAUref_params_s@@@Z 100029c0 f   Client.obj
 0001:00001a50       ?HUD_Frame@@YAXN@Z         10002a50 f   Client.obj
 0001:00001aa0       ?HUD_Frame_init@@YAXN@Z    10002aa0 f   Client.obj
 0001:00001c10       ?CL_IsThirdPerson@@YAHXZ   10002c10 f   Client.obj
 0001:00001c60       ?HUD_PlayerMoveInit@@YAXPAUplayermove_s@@@Z 10002c60 f   Client.obj
 0001:00001c80       ?StudioCheckBBox@@YAHXZ    10002c80 f   Client.obj
 0001:00001c90       ?StudioSetRemapColors@@YAXHH@Z 10002c90 f   Client.obj
 0001:00001cc0       ?pfnDrawUnicodeCharacter@@YAHHHFHHHK@Z 10002cc0 f   Client.obj
 0001:00001d20       ?HUD_AddEntity@@YAHHPAUcl_entity_s@@PBD@Z 10002d20 f   Client.obj
 0001:000026b0       ?HookUserMessages@@YAXXZ   100036b0 f   Client.obj
 0001:00002770       ?HUD_GetHullBounds@@YAHHPAM0@Z 10003770 f   Client.obj
 0001:000027a0       ?CL_Move@@YAXXZ            100037a0 f   Client.obj
 0001:000027c0       ?HUD_ProcessPlayerState@@YAXPAUentity_state_s@@PBU1@@Z 100037c0 f   Client.obj
 0001:00002890       ?HookClient@@YAXXZ         10003890 f   Client.obj
 0001:000029b0       ??2@YAPAXIPAX@Z            100039b0 f i Aimbot.obj
 0001:000029c0       ?fpclassify@@YAHM@Z        100039c0 f i Aimbot.obj
 0001:000029e0       _acosf                     100039e0 f i Aimbot.obj
 0001:00002a00       _sqrtf                     10003a00 f i Aimbot.obj
 0001:00002a20       ?acos@@YAMM@Z              10003a20 f i Aimbot.obj
 0001:00002a40       ?sqrt@@YAMM@Z              10003a40 f i Aimbot.obj
 0001:00002a60       ??0exception@std@@QAE@QBDH@Z 10003a60 f i Aimbot.obj
 0001:00002a90       ??0exception@std@@QAE@ABV01@@Z 10003a90 f i Aimbot.obj
 0001:00002ad0       ??1exception@std@@UAE@XZ   10003ad0 f i Aimbot.obj
 0001:00002b00       ?what@exception@std@@UBEPBDXZ 10003b00 f i Aimbot.obj
 0001:00002b30       ??_Eexception@std@@UAEPAXI@Z 10003b30 f i * CIL library *:* CIL module *
 0001:00002b30       ??_Gexception@std@@UAEPAXI@Z 10003b30 f i Aimbot.obj
 0001:00002b60       ??0bad_alloc@std@@AAE@QBD@Z 10003b60 f i Aimbot.obj
 0001:00002b90       ??_Gruntime_error@std@@UAEPAXI@Z 10003b90 f i Menu.obj
 0001:00002b90       ??_Gbad_cast@std@@UAEPAXI@Z 10003b90 f i World.obj
 0001:00002b90       ??_Eruntime_error@std@@UAEPAXI@Z 10003b90 f i * CIL library *:* CIL module *
 0001:00002b90       ??_Ebad_alloc@std@@UAEPAXI@Z 10003b90 f i * CIL library *:* CIL module *
 0001:00002b90       ??_Gbad_alloc@std@@UAEPAXI@Z 10003b90 f i Aimbot.obj
 0001:00002b90       ??_Elogic_error@std@@UAEPAXI@Z 10003b90 f i * CIL library *:* CIL module *
 0001:00002b90       ??_Ebad_cast@std@@UAEPAXI@Z 10003b90 f i * CIL library *:* CIL module *
 0001:00002b90       ??_Glogic_error@std@@UAEPAXI@Z 10003b90 f i Pipi_edit.obj
 0001:00002bc0       ??1bad_cast@std@@UAE@XZ    10003bc0 f i World.obj
 0001:00002bc0       ??1logic_error@std@@UAE@XZ 10003bc0 f i Pipi_edit.obj
 0001:00002bc0       ??1bad_alloc@std@@UAE@XZ   10003bc0 f i Aimbot.obj
 0001:00002bc0       ??1runtime_error@std@@UAE@XZ 10003bc0 f i Menu.obj
 0001:00002be0       ??0bad_array_new_length@std@@QAE@XZ 10003be0 f i Aimbot.obj
 0001:00002c10       ??_Gbad_array_new_length@std@@UAEPAXI@Z 10003c10 f i Aimbot.obj
 0001:00002c10       ??_Ebad_array_new_length@std@@UAEPAXI@Z 10003c10 f i * CIL library *:* CIL module *
 0001:00002c10       ??_Econfigor_exception@configor@@UAEPAXI@Z 10003c10 f i * CIL library *:* CIL module *
 0001:00002c10       ??_Gout_of_range@std@@UAEPAXI@Z 10003c10 f i Pipi_edit.obj
 0001:00002c10       ??_Gconfigor_exception@configor@@UAEPAXI@Z 10003c10 f i Pipi_edit.obj
 0001:00002c10       ??_Eout_of_range@std@@UAEPAXI@Z 10003c10 f i * CIL library *:* CIL module *
 0001:00002c40       ??1out_of_range@std@@UAE@XZ 10003c40 f i Pipi_edit.obj
 0001:00002c40       ??1_System_error@std@@UAE@XZ 10003c40 f i Menu.obj
 0001:00002c40       ??1bad_array_new_length@std@@UAE@XZ 10003c40 f i Aimbot.obj
 0001:00002c40       ??1configor_exception@configor@@UAE@XZ 10003c40 f i Pipi_edit.obj
 0001:00002c60       ?_Throw_bad_array_new_length@std@@YAXXZ 10003c60 f i Aimbot.obj
 0001:00002c80       ??0bad_array_new_length@std@@QAE@ABV01@@Z 10003c80 f i Aimbot.obj
 0001:00002cb0       ??0bad_alloc@std@@QAE@ABV01@@Z 10003cb0 f i Aimbot.obj
 0001:00002ce0       ?max@?$numeric_limits@H@std@@SAHXZ 10003ce0 f i Aimbot.obj
 0001:00002cf0       ?_Allocate@_Default_allocate_traits@std@@SAPAXI@Z 10003cf0 f i Aimbot.obj
 0001:00002d10       ?_Adjust_manually_vector_aligned@std@@YAXAAPAXAAI@Z 10003d10 f i Aimbot.obj
 0001:00002d80       ??0_Container_proxy@std@@QAE@PAU_Container_base12@1@@Z 10003d80 f i Aimbot.obj
 0001:00002d80       ??0?$_Alloc_construct_ptr@V?$allocator@U?$_Tree_node@U?$pair@$$CBV?$basic_string@DU?$char_traits@D@std@@V?$allocator@D@2@@std@@V?$basic_config@Ujson_args@configor@@@configor@@@std@@PAX@std@@@std@@@std@@QAE@AAV?$allocator@U?$_Tree_node@U?$pair@$$CBV?$basic_string@DU?$char_traits@D@std@@V?$allocator@D@2@@std@@V?$basic_config@Ujson_args@configor@@@configor@@@std@@PAX@std@@@1@@Z 10003d80 f i Pipi_edit.obj
 0001:00002db0       ??0QAngle@@QAE@PAM@Z       10003db0 f i Aimbot.obj
 0001:00002db0       ?Init@QAngle@@QAEAAV1@PAM@Z 10003db0 f i NoSpread.obj
 0001:00002db0       ??0Vector@@QAE@PAM@Z       10003db0 f i Aimbot.obj
 0001:00002dd0       ?IsZero@Vector@@QBE_NXZ    10003dd0 f i Aimbot.obj
 0001:00002e30       ?IsZero2D@Vector@@QAE_NXZ  10003e30 f i Aimbot.obj
 0001:00002e80       ?Dot@Vector@@QAEMABV1@@Z   10003e80 f i Aimbot.obj
 0001:00002ed0       ?Length@Vector@@QAEMXZ     10003ed0 f i Aimbot.obj
 0001:00002f00       ?LengthSqr@Vector@@QAEMXZ  10003f00 f i Aimbot.obj
 0001:00002f50       ?Normalize@Vector@@QAEMXZ  10003f50 f i Aimbot.obj
 0001:00002fd0       ?AngleBetween@Vector@@QAEMAAV1@@Z 10003fd0 f i Aimbot.obj
 0001:00003040       ??YVector@@QAEAAV0@ABV0@@Z 10004040 f i Aimbot.obj
 0001:000030a0       ??_0Vector@@QAEAAV0@M@Z    100040a0 f i Aimbot.obj
 0001:00003100       ??GVector@@QBE?AV0@ABV0@@Z 10004100 f i Aimbot.obj
 0001:00003170       ??0QAngle@@QAE@AAV0@@Z     10004170 f i Aimbot.obj
 0001:00003190       ?Normalize@QAngle@@QAEAAV1@XZ 10004190 f i Aimbot.obj
 0001:00003230       ??YQAngle@@QAEAAV0@PAM@Z   10004230 f i Aimbot.obj
 0001:000032a0       ??HQAngle@@QBE?AV0@PAM@Z   100042a0 f i Aimbot.obj
 0001:00003380       ??GQAngle@@QBE?AV0@ABV0@@Z 10004380 f i Aimbot.obj
 0001:00003450       ?SmoothAimAngles@@YAXVQAngle@@0AAV1@M_NMM@Z 10004450 f   Aimbot.obj
 0001:00003650       ?Run@CAimBot@@QAEXPAUusercmd_s@@@Z 10004650 f   Aimbot.obj
 0001:00003690       ?Trigger@CAimBot@@QAEXPAUusercmd_s@@@Z 10004690 f   Aimbot.obj
 0001:00003d30       ?__autoclassinit2@?$deque@IV?$allocator@I@std@@@std@@QAEXI@Z 10004d30 f i Aimbot.obj
 0001:00003d30       ?__autoclassinit2@?$basic_ofstream@DU?$char_traits@D@std@@@std@@QAEXI@Z 10004d30 f i Pipi_edit.obj
 0001:00003d30       ?__autoclassinit2@exception_ptr@std@@QAEXI@Z 10004d30 f i Pipi_edit.obj
 0001:00003d30       ?__autoclassinit2@locale@std@@QAEXI@Z 10004d30 f i World.obj
 0001:00003d30       ?__autoclassinit2@?$_Deque_unchecked_iterator@V?$_Deque_val@U?$_Deque_simple_types@Umy_sound_t@@@std@@@std@@@std@@QAEXI@Z 10004d30 f i Visuals.obj
 0001:00003d30       ?__autoclassinit2@?$_Deque_unchecked_iterator@V?$_Deque_val@U?$_Deque_simple_types@I@std@@@std@@@std@@QAEXI@Z 10004d30 f i Aimbot.obj
 0001:00003d30       ?__autoclassinit2@?$basic_istream@DU?$char_traits@D@std@@@std@@QAEXI@Z 10004d30 f i Pipi_edit.obj
 0001:00003d30       ?__autoclassinit2@?$fast_basic_ostringstream@D@detail@configor@@QAEXI@Z 10004d30 f i Pipi_edit.obj
 0001:00003d30       ?__autoclassinit2@CCvars@@QAEXI@Z 10004d30 f i Cvars.obj
 0001:00003d30       ?__autoclassinit2@?$_Deque_unchecked_iterator@V?$_Deque_val@U?$_Deque_simple_types@VVector@@@std@@@std@@@std@@QAEXI@Z 10004d30 f i Visuals.obj
 0001:00003d30       ?__autoclassinit2@?$numpunct@D@std@@QAEXI@Z 10004d30 f i Pipi_edit.obj
 0001:00003d30       ?__autoclassinit2@?$_Tree_const_iterator@V?$_Tree_val@U?$_Tree_simple_types@U?$pair@$$CBV?$basic_string@DU?$char_traits@D@std@@V?$allocator@D@2@@std@@V?$basic_config@Ujson_args@configor@@@configor@@@std@@@std@@@std@@@std@@QAEXI@Z 10004d30 f i Pipi_edit.obj
 0001:00003d30       ?__autoclassinit2@?$unique_ptr@V_Facet_base@std@@U?$default_delete@V_Facet_base@std@@@2@@std@@QAEXI@Z 10004d30 f i World.obj
 0001:00003d30       ?__autoclassinit2@?$fast_string_istreambuf@D@detail@configor@@QAEXI@Z 10004d30 f i Pipi_edit.obj
 0001:00003d30       ?__autoclassinit2@?$_Uninitialized_backout_al@V?$allocator@V?$basic_config@Ujson_args@configor@@@configor@@@std@@@std@@QAEXI@Z 10004d30 f i Pipi_edit.obj
 0001:00003d30       ?__autoclassinit2@?$json_serializer@V?$basic_config@Ujson_args@configor@@@configor@@@detail@configor@@QAEXI@Z 10004d30 f i Pipi_edit.obj
 0001:00003d30       ?__autoclassinit2@?$basic_ifstream@DU?$char_traits@D@std@@@std@@QAEXI@Z 10004d30 f i World.obj
 0001:00003d30       ?__autoclassinit2@?$deque@Umy_sound_t@@V?$allocator@Umy_sound_t@@@std@@@std@@QAEXI@Z 10004d30 f i Sounds.obj
 0001:00003d50       ?LegitAimbot@CAimBot@@AAEXPAUusercmd_s@@@Z 10004d50 f   Aimbot.obj
 0001:00005120       ?RageAimbot@CAimBot@@AAEXPAUusercmd_s@@@Z 10006120 f   Aimbot.obj
 0001:00005a80       ??E?$_Deque_unchecked_iterator@V?$_Deque_val@U?$_Deque_simple_types@I@std@@@std@@@std@@QAEAAV01@XZ 10006a80 f i Aimbot.obj
 0001:00005a80       ??E?$_Deque_unchecked_iterator@V?$_Deque_val@U?$_Deque_simple_types@Umy_sound_t@@@std@@@std@@@std@@QAEAAV01@XZ 10006a80 f i Visuals.obj
 0001:00005aa0       ??D?$_Deque_unchecked_iterator@V?$_Deque_val@U?$_Deque_simple_types@I@std@@@std@@@std@@QBEAAIXZ 10006aa0 f i Aimbot.obj
 0001:00005ac0       ??9?$_Deque_unchecked_const_iterator@V?$_Deque_val@U?$_Deque_simple_types@Umy_sound_t@@@std@@@std@@@std@@QBE_NABV01@@Z 10006ac0 f i Visuals.obj
 0001:00005ac0       ??9?$_Deque_unchecked_const_iterator@V?$_Deque_val@U?$_Deque_simple_types@I@std@@@std@@@std@@QBE_NABV01@@Z 10006ac0 f i Aimbot.obj
 0001:00005b00       ?push_back@?$deque@IV?$allocator@I@std@@@std@@QAEXABI@Z 10006b00 f i Aimbot.obj
 0001:00005b30       ?push_front@?$deque@IV?$allocator@I@std@@@std@@QAEXABI@Z 10006b30 f i Aimbot.obj
 0001:00005b50       ??$emplace_front@ABI@?$deque@IV?$allocator@I@std@@@std@@QAE?A_TABI@Z 10006b50 f i Aimbot.obj
 0001:00005cc0       ??A?$deque@IV?$allocator@I@std@@@std@@QAEAAII@Z 10006cc0 f i Aimbot.obj
 0001:00005d00       ?empty@?$deque@VVector@@V?$allocator@VVector@@@std@@@std@@QBE_NXZ 10006d00 f i Visuals.obj
 0001:00005d00       ?empty@?$deque@Umy_sound_t@@V?$allocator@Umy_sound_t@@@std@@@std@@QBE_NXZ 10006d00 f i Sounds.obj
 0001:00005d00       ?empty@?$deque@IV?$allocator@I@std@@@std@@QBE_NXZ 10006d00 f i Aimbot.obj
 0001:00005d30       ?size@?$deque@Umy_sound_t@@V?$allocator@Umy_sound_t@@@std@@@std@@QBEIXZ 10006d30 f i Visuals.obj
 0001:00005d30       ?size@?$deque@VVector@@V?$allocator@VVector@@@std@@@std@@QBEIXZ 10006d30 f i Visuals.obj
 0001:00005d30       ?size@?$deque@IV?$allocator@I@std@@@std@@QBEIXZ 10006d30 f i Aimbot.obj
 0001:00005d50       ?_Unchecked_end@?$deque@IV?$allocator@I@std@@@std@@QAE?AV?$_Deque_unchecked_iterator@V?$_Deque_val@U?$_Deque_simple_types@I@std@@@std@@@2@XZ 10006d50 f i Aimbot.obj
 0001:00005d50       ?_Unchecked_end@?$deque@Umy_sound_t@@V?$allocator@Umy_sound_t@@@std@@@std@@QAE?AV?$_Deque_unchecked_iterator@V?$_Deque_val@U?$_Deque_simple_types@Umy_sound_t@@@std@@@std@@@2@XZ 10006d50 f i Visuals.obj
 0001:00005da0       ?_Unchecked_begin@?$deque@Umy_sound_t@@V?$allocator@Umy_sound_t@@@std@@@std@@QAE?AV?$_Deque_unchecked_iterator@V?$_Deque_val@U?$_Deque_simple_types@Umy_sound_t@@@std@@@std@@@2@XZ 10006da0 f i Visuals.obj
 0001:00005da0       ?_Unchecked_begin@?$deque@IV?$allocator@I@std@@@std@@QAE?AV?$_Deque_unchecked_iterator@V?$_Deque_val@U?$_Deque_simple_types@I@std@@@std@@@2@XZ 10006da0 f i Aimbot.obj
 0001:00005da0       ?_Unchecked_begin@?$deque@VVector@@V?$allocator@VVector@@@std@@@std@@QAE?AV?$_Deque_unchecked_iterator@V?$_Deque_val@U?$_Deque_simple_types@VVector@@@std@@@std@@@2@XZ 10006da0 f i Visuals.obj
 0001:00005de0       ??1?$deque@IV?$allocator@I@std@@@std@@QAE@XZ 10006de0 f i Aimbot.obj
 0001:00005e50       ?push_back@?$deque@IV?$allocator@I@std@@@std@@QAEX$$QAI@Z 10006e50 f i Aimbot.obj
 0001:00005e80       ??0?$deque@VVector@@V?$allocator@VVector@@@std@@@std@@QAE@XZ 10006e80 f i Visuals.obj
 0001:00005e80       ??0?$deque@Umy_sound_t@@V?$allocator@Umy_sound_t@@@std@@@std@@QAE@XZ 10006e80 f i Sounds.obj
 0001:00005e80       ??0?$deque@IV?$allocator@I@std@@@std@@QAE@XZ 10006e80 f i Aimbot.obj
 0001:00005ec0       ??0?$_Deque_unchecked_iterator@V?$_Deque_val@U?$_Deque_simple_types@VVector@@@std@@@std@@@std@@QAE@IPBU_Container_base12@1@@Z 10006ec0 f i Visuals.obj
 0001:00005ec0       ??0?$_Deque_unchecked_iterator@V?$_Deque_val@U?$_Deque_simple_types@Umy_sound_t@@@std@@@std@@@std@@QAE@IPBU_Container_base12@1@@Z 10006ec0 f i Visuals.obj
 0001:00005ec0       ??0?$_Deque_unchecked_iterator@V?$_Deque_val@U?$_Deque_simple_types@I@std@@@std@@@std@@QAE@IPBU_Container_base12@1@@Z 10006ec0 f i Aimbot.obj
 0001:00005ee0       ??H?$_Deque_unchecked_iterator@V?$_Deque_val@U?$_Deque_simple_types@I@std@@@std@@@std@@QBE?AV01@H@Z 10006ee0 f i Aimbot.obj
 0001:00005ee0       ??H?$_Deque_unchecked_iterator@V?$_Deque_val@U?$_Deque_simple_types@VVector@@@std@@@std@@@std@@QBE?AV01@H@Z 10006ee0 f i Visuals.obj
 0001:00005f40       ??8?$_Deque_unchecked_const_iterator@V?$_Deque_val@U?$_Deque_simple_types@Umy_sound_t@@@std@@@std@@@std@@QBE_NABV01@@Z 10006f40 f i Visuals.obj
 0001:00005f40       ??8?$_Deque_unchecked_const_iterator@V?$_Deque_val@U?$_Deque_simple_types@I@std@@@std@@@std@@QBE_NABV01@@Z 10006f40 f i Aimbot.obj
 0001:00005f40       ??8error_category@std@@QBE_NABV01@@Z 10006f40 f i Menu.obj
 0001:00005f70       ??E?$_Deque_unchecked_const_iterator@V?$_Deque_val@U?$_Deque_simple_types@I@std@@@std@@@std@@QAEAAV01@XZ 10006f70 f i Aimbot.obj
 0001:00005f70       ??E?$_Deque_unchecked_const_iterator@V?$_Deque_val@U?$_Deque_simple_types@Umy_sound_t@@@std@@@std@@@std@@QAEAAV01@XZ 10006f70 f i Visuals.obj
 0001:00005f90       ??D?$_Deque_unchecked_const_iterator@V?$_Deque_val@U?$_Deque_simple_types@I@std@@@std@@@std@@QBEABIXZ 10006f90 f i Aimbot.obj
 0001:00005fe0       ??0?$_Deque_unchecked_const_iterator@V?$_Deque_val@U?$_Deque_simple_types@I@std@@@std@@@std@@QAE@IPBU_Container_base12@1@@Z 10006fe0 f i Aimbot.obj
 0001:00005fe0       ??0?$_Deque_unchecked_const_iterator@V?$_Deque_val@U?$_Deque_simple_types@Umy_sound_t@@@std@@@std@@@std@@QAE@IPBU_Container_base12@1@@Z 10006fe0 f i Visuals.obj
 0001:00005fe0       ??0?$_Deque_unchecked_const_iterator@V?$_Deque_val@U?$_Deque_simple_types@VVector@@@std@@@std@@@std@@QAE@IPBU_Container_base12@1@@Z 10006fe0 f i Visuals.obj
 0001:00006010       ?_Mysize@?$deque@IV?$allocator@I@std@@@std@@ABEABIXZ 10007010 f i Aimbot.obj
 0001:00006010       ?_Mysize@?$deque@IV?$allocator@I@std@@@std@@AAEAAIXZ 10007010 f i Aimbot.obj
 0001:00006010       ?_Mysize@?$deque@Umy_sound_t@@V?$allocator@Umy_sound_t@@@std@@@std@@AAEAAIXZ 10007010 f i Sounds.obj
 0001:00006010       ?_Mysize@?$deque@Umy_sound_t@@V?$allocator@Umy_sound_t@@@std@@@std@@ABEABIXZ 10007010 f i Sounds.obj
 0001:00006010       ?_Mysize@?$deque@VVector@@V?$allocator@VVector@@@std@@@std@@AAEAAIXZ 10007010 f i Visuals.obj
 0001:00006010       ?_Mysize@?$deque@VVector@@V?$allocator@VVector@@@std@@@std@@ABEABIXZ 10007010 f i Visuals.obj
 0001:00006030       ?_Myoff@?$deque@IV?$allocator@I@std@@@std@@AAEAAIXZ 10007030 f i Aimbot.obj
 0001:00006030       ?_Myoff@?$deque@Umy_sound_t@@V?$allocator@Umy_sound_t@@@std@@@std@@AAEAAIXZ 10007030 f i Sounds.obj
 0001:00006030       ?_Myoff@?$deque@VVector@@V?$allocator@VVector@@@std@@@std@@AAEAAIXZ 10007030 f i Visuals.obj
 0001:00006050       ?_Mapsize@?$deque@IV?$allocator@I@std@@@std@@AAEAAIXZ 10007050 f i Aimbot.obj
 0001:00006050       ?_Mapsize@?$deque@VVector@@V?$allocator@VVector@@@std@@@std@@AAEAAIXZ 10007050 f i Visuals.obj
 0001:00006050       ?_Mapsize@?$deque@Umy_sound_t@@V?$allocator@Umy_sound_t@@@std@@@std@@AAEAAIXZ 10007050 f i Sounds.obj
 0001:00006070       ?_Map@?$deque@VVector@@V?$allocator@VVector@@@std@@@std@@AAEAAPAPAVVector@@XZ 10007070 f i Visuals.obj
 0001:00006070       ?_Map@?$deque@IV?$allocator@I@std@@@std@@AAEAAPAPAIXZ 10007070 f i Aimbot.obj
 0001:00006070       ?_Map@?$deque@Umy_sound_t@@V?$allocator@Umy_sound_t@@@std@@@std@@AAEAAPAPAUmy_sound_t@@XZ 10007070 f i Sounds.obj
 0001:00006090       ?_Getal@?$basic_string@DU?$char_traits@D@std@@V?$allocator@D@2@@std@@ABEABV?$allocator@D@2@XZ 10007090 f i Cvars.obj
 0001:00006090       ?_Getal@?$vector@V?$basic_config@Ujson_args@configor@@@configor@@V?$allocator@V?$basic_config@Ujson_args@configor@@@configor@@@std@@@std@@AAEAAV?$allocator@V?$basic_config@Ujson_args@configor@@@configor@@@2@XZ 10007090 f i Pipi_edit.obj
 0001:00006090       ?_Getal@?$deque@IV?$allocator@I@std@@@std@@AAEAAV?$allocator@I@2@XZ 10007090 f i Aimbot.obj
 0001:00006090       ?_Getal@?$_Tree@V?$_Tmap_traits@V?$basic_string@DU?$char_traits@D@std@@V?$allocator@D@2@@std@@V?$basic_config@Ujson_args@configor@@@configor@@U?$less@V?$basic_string@DU?$char_traits@D@std@@V?$allocator@D@2@@std@@@2@V?$allocator@U?$pair@$$CBV?$basic_string@DU?$char_traits@D@std@@V?$allocator@D@2@@std@@V?$basic_config@Ujson_args@configor@@@configor@@@std@@@2@$0A@@std@@@std@@IAEAAV?$allocator@U?$_Tree_node@U?$pair@$$CBV?$basic_string@DU?$char_traits@D@std@@V?$allocator@D@2@@std@@V?$basic_config@Ujson_args@configor@@@configor@@@std@@PAX@std@@@2@XZ 10007090 f i Pipi_edit.obj
 0001:00006090       ?_Getal@?$deque@VVector@@V?$allocator@VVector@@@std@@@std@@ABEABV?$allocator@VVector@@@2@XZ 10007090 f i Visuals.obj
 0001:00006090       ?_Getal@?$deque@Umy_sound_t@@V?$allocator@Umy_sound_t@@@std@@@std@@AAEAAV?$allocator@Umy_sound_t@@@2@XZ 10007090 f i Sounds.obj
 0001:00006090       ?_Getal@?$deque@IV?$allocator@I@std@@@std@@ABEABV?$allocator@I@2@XZ 10007090 f i Aimbot.obj
 0001:00006090       ?_Getal@?$vector@V?$basic_config@Ujson_args@configor@@@configor@@V?$allocator@V?$basic_config@Ujson_args@configor@@@configor@@@std@@@std@@ABEABV?$allocator@V?$basic_config@Ujson_args@configor@@@configor@@@2@XZ 10007090 f i Pipi_edit.obj
 0001:00006090       ?_Getal@?$basic_string@DU?$char_traits@D@std@@V?$allocator@D@2@@std@@AAEAAV?$allocator@D@2@XZ 10007090 f i Cvars.obj
 0001:00006090       ?_Getal@?$deque@Umy_sound_t@@V?$allocator@Umy_sound_t@@@std@@@std@@ABEABV?$allocator@Umy_sound_t@@@2@XZ 10007090 f i Sounds.obj
 0001:00006090       ?_Getal@?$deque@VVector@@V?$allocator@VVector@@@std@@@std@@AAEAAV?$allocator@VVector@@@2@XZ 10007090 f i Visuals.obj
 0001:00006090       ?_Getcomp@?$_Tree@V?$_Tmap_traits@V?$basic_string@DU?$char_traits@D@std@@V?$allocator@D@2@@std@@V?$basic_config@Ujson_args@configor@@@configor@@U?$less@V?$basic_string@DU?$char_traits@D@std@@V?$allocator@D@2@@std@@@2@V?$allocator@U?$pair@$$CBV?$basic_string@DU?$char_traits@D@std@@V?$allocator@D@2@@std@@V?$basic_config@Ujson_args@configor@@@configor@@@std@@@2@$0A@@std@@@std@@IBEABU?$less@V?$basic_string@DU?$char_traits@D@std@@V?$allocator@D@2@@std@@@2@XZ 10007090 f i Pipi_edit.obj
 0001:00006090       ?_Getal@?$_Tree@V?$_Tmap_traits@V?$basic_string@DU?$char_traits@D@std@@V?$allocator@D@2@@std@@V?$basic_config@Ujson_args@configor@@@configor@@U?$less@V?$basic_string@DU?$char_traits@D@std@@V?$allocator@D@2@@std@@@2@V?$allocator@U?$pair@$$CBV?$basic_string@DU?$char_traits@D@std@@V?$allocator@D@2@@std@@V?$basic_config@Ujson_args@configor@@@configor@@@std@@@2@$0A@@std@@@std@@IBEABV?$allocator@U?$_Tree_node@U?$pair@$$CBV?$basic_string@DU?$char_traits@D@std@@V?$allocator@D@2@@std@@V?$basic_config@Ujson_args@configor@@@configor@@@std@@PAX@std@@@2@XZ 10007090 f i Pipi_edit.obj
 0001:000060b0       ?_Orphan_all@?$deque@VVector@@V?$allocator@VVector@@@std@@@std@@AAEXXZ 100070b0 f i Visuals.obj
 0001:000060b0       ?_Orphan_all@?$deque@IV?$allocator@I@std@@@std@@AAEXXZ 100070b0 f i Aimbot.obj
 0001:000060b0       ?_Orphan_all@?$deque@Umy_sound_t@@V?$allocator@Umy_sound_t@@@std@@@std@@AAEXXZ 100070b0 f i Sounds.obj
 0001:000060d0       ?_Getblock@?$deque@IV?$allocator@I@std@@@std@@ABEII@Z 100070d0 f i Aimbot.obj
 0001:000060f0       ?_Tidy@?$deque@IV?$allocator@I@std@@@std@@AAEXXZ 100070f0 f i Aimbot.obj
 0001:00006220       ?_Growmap@?$deque@IV?$allocator@I@std@@@std@@AAEXI@Z 10007220 f i Aimbot.obj
 0001:00006480       ?allocate@?$allocator@PAUmy_sound_t@@@std@@QAEPAPAUmy_sound_t@@I@Z 10007480 f i Sounds.obj
 0001:00006480       ?allocate@?$allocator@I@std@@QAEPAII@Z 10007480 f i Aimbot.obj
 0001:00006480       ?allocate@?$allocator@PAI@std@@QAEPAPAII@Z 10007480 f i Aimbot.obj
 0001:00006480       ?allocate@?$allocator@PAVVector@@@std@@QAEPAPAVVector@@I@Z 10007480 f i Visuals.obj
 0001:000064b0       ??Y?$_Deque_unchecked_iterator@V?$_Deque_val@U?$_Deque_simple_types@I@std@@@std@@@std@@QAEAAV01@H@Z 100074b0 f i Aimbot.obj
 0001:000064b0       ??Y?$_Deque_unchecked_iterator@V?$_Deque_val@U?$_Deque_simple_types@VVector@@@std@@@std@@@std@@QAEAAV01@H@Z 100074b0 f i Visuals.obj
 0001:000064d0       ?_Xlen@?$deque@IV?$allocator@I@std@@@std@@ABEXXZ 100074d0 f i Aimbot.obj
 0001:000064d0       ?_Xlen@?$deque@VVector@@V?$allocator@VVector@@@std@@@std@@ABEXXZ 100074d0 f i Visuals.obj
 0001:000064d0       ?_Xlen@?$deque@Umy_sound_t@@V?$allocator@Umy_sound_t@@@std@@@std@@ABEXXZ 100074d0 f i Sounds.obj
 0001:000064f0       ?pop_back@?$deque@IV?$allocator@I@std@@@std@@QAEXXZ 100074f0 f i Aimbot.obj
 0001:000065d0       ?max_size@?$deque@IV?$allocator@I@std@@@std@@QBEIXZ 100075d0 f i Aimbot.obj
 0001:00006610       ?_Getblock@?$_Deque_val@U?$_Deque_simple_types@I@std@@@std@@QBEII@Z 10007610 f i Aimbot.obj
 0001:00006630       ?deallocate@?$allocator@PAVVector@@@std@@QAEXQAPAVVector@@I@Z 10007630 f i Visuals.obj
 0001:00006630       ?deallocate@?$allocator@PAI@std@@QAEXQAPAII@Z 10007630 f i Aimbot.obj
 0001:00006630       ?deallocate@?$allocator@PAUmy_sound_t@@@std@@QAEXQAPAUmy_sound_t@@I@Z 10007630 f i Sounds.obj
 0001:00006630       ?deallocate@?$allocator@I@std@@QAEXQAII@Z 10007630 f i Aimbot.obj
 0001:00006650       ??Y?$_Deque_unchecked_const_iterator@V?$_Deque_val@U?$_Deque_simple_types@VVector@@@std@@@std@@@std@@QAEAAV01@H@Z 10007650 f i Visuals.obj
 0001:00006650       ??Y?$_Deque_unchecked_const_iterator@V?$_Deque_val@U?$_Deque_simple_types@I@std@@@std@@@std@@QAEAAV01@H@Z 10007650 f i Aimbot.obj
 0001:00006670       ?max_size@?$_Default_allocator_traits@V?$allocator@I@std@@@std@@SAIABV?$allocator@I@2@@Z 10007670 f i Aimbot.obj
 0001:00006680       ??$isnan@M@@YA_NM@Z        10007680 f i Aimbot.obj
 0001:000066c0       ??$_Emplace_back_internal@ABI@?$deque@IV?$allocator@I@std@@@std@@AAEXABI@Z 100076c0 f i Aimbot.obj
 0001:000066c0       ??$_Emplace_back_internal@I@?$deque@IV?$allocator@I@std@@@std@@AAEX$$QAI@Z 100076c0 f i Aimbot.obj
 0001:00006810       ??$_Kfn@$$CBV?$basic_string@DU?$char_traits@D@std@@V?$allocator@D@2@@std@@V?$basic_config@Ujson_args@configor@@@configor@@@?$_Tmap_traits@V?$basic_string@DU?$char_traits@D@std@@V?$allocator@D@2@@std@@V?$basic_config@Ujson_args@configor@@@configor@@U?$less@V?$basic_string@DU?$char_traits@D@std@@V?$allocator@D@2@@std@@@2@V?$allocator@U?$pair@$$CBV?$basic_string@DU?$char_traits@D@std@@V?$allocator@D@2@@std@@V?$basic_config@Ujson_args@configor@@@configor@@@std@@@2@$0A@@std@@SAABV?$basic_string@DU?$char_traits@D@std@@V?$allocator@D@2@@1@ABU?$pair@$$CBV?$basic_string@DU?$char_traits@D@std@@V?$allocator@D@2@@std@@V?$basic_config@Ujson_args@configor@@@configor@@@1@@Z 10007810 f i Pipi_edit.obj
 0001:00006810       ??$forward@ABU?$less@V?$basic_string@DU?$char_traits@D@std@@V?$allocator@D@2@@std@@@std@@@std@@YAABU?$less@V?$basic_string@DU?$char_traits@D@std@@V?$allocator@D@2@@std@@@0@ABU10@@Z 10007810 f i Pipi_edit.obj
 0001:00006810       ??$move@AAU?$config_value@V?$basic_config@Ujson_args@configor@@@configor@@@detail@configor@@@std@@YA$$QAU?$config_value@V?$basic_config@Ujson_args@configor@@@configor@@@detail@configor@@AAU123@@Z 10007810 f i Pipi_edit.obj
 0001:00006810       ??$_Unfancy@V?$basic_config@Ujson_args@configor@@@configor@@@std@@YAPAV?$basic_config@Ujson_args@configor@@@configor@@PAV12@@Z 10007810 f i Pipi_edit.obj
 0001:00006810       ??$move@AAI@std@@YA$$QAIAAI@Z 10007810 f i Aimbot.obj
 0001:00006810       ??$forward@AAV?$map@V?$basic_string@DU?$char_traits@D@std@@V?$allocator@D@2@@std@@V?$basic_config@Ujson_args@configor@@@configor@@U?$less@V?$basic_string@DU?$char_traits@D@std@@V?$allocator@D@2@@std@@@2@V?$allocator@U?$pair@$$CBV?$basic_string@DU?$char_traits@D@std@@V?$allocator@D@2@@std@@V?$basic_config@Ujson_args@configor@@@configor@@@std@@@2@@std@@@std@@YAAAV?$map@V?$basic_string@DU?$char_traits@D@std@@V?$allocator@D@2@@std@@V?$basic_config@Ujson_args@configor@@@configor@@U?$less@V?$basic_string@DU?$char_traits@D@std@@V?$allocator@D@2@@std@@@2@V?$allocator@U?$pair@$$CBV?$basic_string@DU?$char_traits@D@std@@V?$allocator@D@2@@std@@V?$basic_config@Ujson_args@configor@@@configor@@@std@@@2@@0@AAV10@@Z 10007810 f i Pipi_edit.obj
 0001:00006810       ??$_Unfancy@U_Container_proxy@std@@@std@@YAPAU_Container_proxy@0@PAU10@@Z 10007810 f i Aimbot.obj
 0001:00006810       ??$forward@U?$less@V?$basic_string@DU?$char_traits@D@std@@V?$allocator@D@2@@std@@@std@@@std@@YA$$QAU?$less@V?$basic_string@DU?$char_traits@D@std@@V?$allocator@D@2@@std@@@0@AAU10@@Z 10007810 f i Pipi_edit.obj
 0001:00006810       ??$addressof@PAD@std@@YAPAPADAAPAD@Z 10007810 f i Cvars.obj
 0001:00006810       ??$forward@AAV?$basic_config@Ujson_args@configor@@@configor@@@std@@YAAAV?$basic_config@Ujson_args@configor@@@configor@@AAV12@@Z 10007810 f i Pipi_edit.obj
 0001:00006810       ??$forward@V?$allocator@V?$basic_config@Ujson_args@configor@@@configor@@@std@@@std@@YA$$QAV?$allocator@V?$basic_config@Ujson_args@configor@@@configor@@@0@AAV10@@Z 10007810 f i Pipi_edit.obj
 0001:00006810       ??$forward@AAPAV_Facet_base@std@@@std@@YAAAPAV_Facet_base@0@AAPAV10@@Z 10007810 f i World.obj
 0001:00006810       ??$addressof@V?$_Deque_val@U?$_Deque_simple_types@Umy_sound_t@@@std@@@std@@@std@@YAPAV?$_Deque_val@U?$_Deque_simple_types@Umy_sound_t@@@std@@@0@AAV10@@Z 10007810 f i Visuals.obj
 0001:00006810       ??$forward@AAPAD@std@@YAAAPADAAPAD@Z 10007810 f i Menu.obj
 0001:00006810       ?select_on_container_copy_construction@?$_Default_allocator_traits@V?$allocator@D@std@@@std@@SA?AV?$allocator@D@2@ABV32@@Z 10007810 f i Menu.obj
 0001:00006810       ??$move@AAH@std@@YA$$QAHAAH@Z 10007810 f i Drawing.obj
 0001:00006810       ??$addressof@PAU?$_Tree_node@U?$pair@$$CBV?$basic_string@DU?$char_traits@D@std@@V?$allocator@D@2@@std@@V?$basic_config@Ujson_args@configor@@@configor@@@std@@PAX@std@@@std@@YAPAPAU?$_Tree_node@U?$pair@$$CBV?$basic_string@DU?$char_traits@D@std@@V?$allocator@D@2@@std@@V?$basic_config@Ujson_args@configor@@@configor@@@std@@PAX@0@AAPAU10@@Z 10007810 f i Pipi_edit.obj
 0001:00006810       ?_Extract@?$_In_place_key_extract_map@V?$basic_string@DU?$char_traits@D@std@@V?$allocator@D@2@@std@@V12@V?$basic_config@Ujson_args@configor@@@configor@@@std@@SAABV?$basic_string@DU?$char_traits@D@std@@V?$allocator@D@2@@2@ABV32@ABV?$basic_config@Ujson_args@configor@@@configor@@@Z 10007810 f i Pipi_edit.obj
 0001:00006810       ??$forward@V?$_Tree_iterator@V?$_Tree_val@U?$_Tree_simple_types@U?$pair@$$CBV?$basic_string@DU?$char_traits@D@std@@V?$allocator@D@2@@std@@V?$basic_config@Ujson_args@configor@@@configor@@@std@@@std@@@std@@@std@@@std@@YA$$QAV?$_Tree_iterator@V?$_Tree_val@U?$_Tree_simple_types@U?$pair@$$CBV?$basic_string@DU?$char_traits@D@std@@V?$allocator@D@2@@std@@V?$basic_config@Ujson_args@configor@@@configor@@@std@@@std@@@std@@@0@AAV10@@Z 10007810 f i Pipi_edit.obj
 0001:00006810       ??$_Convert_size@I@std@@YAII@Z 10007810 f i Cvars.obj
 0001:00006810       ??$forward@AAU?$pair@$$CBV?$basic_string@DU?$char_traits@D@std@@V?$allocator@D@2@@std@@V?$basic_config@Ujson_args@configor@@@configor@@@std@@@std@@YAAAU?$pair@$$CBV?$basic_string@DU?$char_traits@D@std@@V?$allocator@D@2@@std@@V?$basic_config@Ujson_args@configor@@@configor@@@0@AAU10@@Z 10007810 f i Pipi_edit.obj
 0001:00006810       ??$addressof@U?$pair@$$CBV?$basic_string@DU?$char_traits@D@std@@V?$allocator@D@2@@std@@V?$basic_config@Ujson_args@configor@@@configor@@@std@@@std@@YAPAU?$pair@$$CBV?$basic_string@DU?$char_traits@D@std@@V?$allocator@D@2@@std@@V?$basic_config@Ujson_args@configor@@@configor@@@0@AAU10@@Z 10007810 f i Pipi_edit.obj
 0001:00006810       ?select_on_container_copy_construction@?$_Default_allocator_traits@V?$allocator@V?$basic_config@Ujson_args@configor@@@configor@@@std@@@std@@SA?AV?$allocator@V?$basic_config@Ujson_args@configor@@@configor@@@2@ABV32@@Z 10007810 f i Pipi_edit.obj
 0001:00006810       ??$forward@U_One_then_variadic_args_t@std@@@std@@YA$$QAU_One_then_variadic_args_t@0@AAU10@@Z 10007810 f i Pipi_edit.obj
 0001:00006810       ??$addressof@V?$_Tree_val@U?$_Tree_simple_types@U?$pair@$$CBV?$basic_string@DU?$char_traits@D@std@@V?$allocator@D@2@@std@@V?$basic_config@Ujson_args@configor@@@configor@@@std@@@std@@@std@@@std@@YAPAV?$_Tree_val@U?$_Tree_simple_types@U?$pair@$$CBV?$basic_string@DU?$char_traits@D@std@@V?$allocator@D@2@@std@@V?$basic_config@Ujson_args@configor@@@configor@@@std@@@std@@@0@AAV10@@Z 10007810 f i Pipi_edit.obj
 0001:00006810       ??$_Voidify_iter@PAI@std@@YAPAXPAI@Z 10007810 f i Aimbot.obj
 0001:00006810       ??$_Voidify_iter@PAPAI@std@@YAPAXPAPAI@Z 10007810 f i Aimbot.obj
 0001:00006810       ??$addressof@PAI@std@@YAPAPAIAAPAI@Z 10007810 f i Aimbot.obj
 0001:00006810       ??$forward@AAPAUmy_sound_t@@@std@@YAAAPAUmy_sound_t@@AAPAU1@@Z 10007810 f i Sounds.obj
 0001:00006810       ??$_Voidify_iter@PAV?$basic_config@Ujson_args@configor@@@configor@@@std@@YAPAXPAV?$basic_config@Ujson_args@configor@@@configor@@@Z 10007810 f i Pipi_edit.obj
 0001:00006810       ??$forward@_N@std@@YA$$QA_NAA_N@Z 10007810 f i Pipi_edit.obj
 0001:00006810       ??$forward@V?$basic_config@Ujson_args@configor@@@configor@@@std@@YA$$QAV?$basic_config@Ujson_args@configor@@@configor@@AAV12@@Z 10007810 f i Pipi_edit.obj
 0001:00006810       ??$addressof@PAUmy_sound_t@@@std@@YAPAPAUmy_sound_t@@AAPAU1@@Z 10007810 f i Sounds.obj
 0001:00006810       ??$_Voidify_iter@PAVVector@@@std@@YAPAXPAVVector@@@Z 10007810 f i Visuals.obj
 0001:00006810       ??$_Unfancy@VVector@@@std@@YAPAVVector@@PAV1@@Z 10007810 f i Visuals.obj
 0001:00006810       ?select_on_container_copy_construction@?$_Default_allocator_traits@V?$allocator@U?$_Tree_node@U?$pair@$$CBV?$basic_string@DU?$char_traits@D@std@@V?$allocator@D@2@@std@@V?$basic_config@Ujson_args@configor@@@configor@@@std@@PAX@std@@@std@@@std@@SA?AV?$allocator@U?$_Tree_node@U?$pair@$$CBV?$basic_string@DU?$char_traits@D@std@@V?$allocator@D@2@@std@@V?$basic_config@Ujson_args@configor@@@configor@@@std@@PAX@std@@@2@ABV32@@Z 10007810 f i Pipi_edit.obj
 0001:00006810       ??$forward@ABUmy_sound_t@@@std@@YAABUmy_sound_t@@ABU1@@Z 10007810 f i Sounds.obj
 0001:00006810       ??$forward@U_Zero_then_variadic_args_t@std@@@std@@YA$$QAU_Zero_then_variadic_args_t@0@AAU10@@Z 10007810 f i Pipi_edit.obj
 0001:00006810       ??$forward@PAU_Container_base12@std@@@std@@YA$$QAPAU_Container_base12@0@AAPAU10@@Z 10007810 f i Aimbot.obj
 0001:00006810       ??$forward@AAH@std@@YAAAHAAH@Z 10007810 f i Pipi_edit.obj
 0001:00006810       ??$_Voidify_iter@PAPAUmy_sound_t@@@std@@YAPAXPAPAUmy_sound_t@@@Z 10007810 f i Sounds.obj
 0001:00006810       ??$forward@AAPAVVector@@@std@@YAAAPAVVector@@AAPAV1@@Z 10007810 f i Visuals.obj
 0001:00006810       ??$move@AAT<unnamed-type-data>@?$config_value@V?$basic_config@Ujson_args@configor@@@configor@@@detail@configor@@@std@@YA$$QAT<unnamed-type-data>@?$config_value@V?$basic_config@Ujson_args@configor@@@configor@@@detail@configor@@AAT1234@@Z 10007810 f i Pipi_edit.obj
 0001:00006810       ??$forward@V?$allocator@D@std@@@std@@YA$$QAV?$allocator@D@0@AAV10@@Z 10007810 f i Menu.obj
 0001:00006810       ??$forward@ABI@std@@YAABIABI@Z 10007810 f i Aimbot.obj
 0001:00006810       ??$forward@PAU?$_Tree_node@U?$pair@$$CBV?$basic_string@DU?$char_traits@D@std@@V?$allocator@D@2@@std@@V?$basic_config@Ujson_args@configor@@@configor@@@std@@PAX@std@@@std@@YA$$QAPAU?$_Tree_node@U?$pair@$$CBV?$basic_string@DU?$char_traits@D@std@@V?$allocator@D@2@@std@@V?$basic_config@Ujson_args@configor@@@configor@@@std@@PAX@0@AAPAU10@@Z 10007810 f i Pipi_edit.obj
 0001:00006810       ??$addressof@V?$basic_filebuf@DU?$char_traits@D@std@@@std@@@std@@YAPAV?$basic_filebuf@DU?$char_traits@D@std@@@0@AAV10@@Z 10007810 f i World.obj
 0001:00006810       ??$_Voidify_iter@PAUmy_sound_t@@@std@@YAPAXPAUmy_sound_t@@@Z 10007810 f i Sounds.obj
 0001:00006810       ??$forward@AAV?$basic_string@DU?$char_traits@D@std@@V?$allocator@D@2@@std@@@std@@YAAAV?$basic_string@DU?$char_traits@D@std@@V?$allocator@D@2@@0@AAV10@@Z 10007810 f i Pipi_edit.obj
 0001:00006810       ??$addressof@$$CBV?$_String_val@U?$_Simple_types@D@std@@@std@@@std@@YAPBV?$_String_val@U?$_Simple_types@D@std@@@0@ABV10@@Z 10007810 f i Menu.obj
 0001:00006810       ??$forward@V?$allocator@U?$_Tree_node@U?$pair@$$CBV?$basic_string@DU?$char_traits@D@std@@V?$allocator@D@2@@std@@V?$basic_config@Ujson_args@configor@@@configor@@@std@@PAX@std@@@std@@@std@@YA$$QAV?$allocator@U?$_Tree_node@U?$pair@$$CBV?$basic_string@DU?$char_traits@D@std@@V?$allocator@D@2@@std@@V?$basic_config@Ujson_args@configor@@@configor@@@std@@PAX@std@@@0@AAV10@@Z 10007810 f i Pipi_edit.obj
 0001:00006810       ??$forward@I@std@@YA$$QAIAAI@Z 10007810 f i Aimbot.obj
 0001:00006810       ??$_Unfancy@I@std@@YAPAIPAI@Z 10007810 f i Aimbot.obj
 0001:00006810       ??$move@AAV?$allocator@D@std@@@std@@YA$$QAV?$allocator@D@0@AAV10@@Z 10007810 f i Menu.obj
 0001:00006810       ??$_Unfancy@D@std@@YAPADPAD@Z 10007810 f i Cvars.obj
 0001:00006810       ??$_Voidify_iter@PAPAU?$_Tree_node@U?$pair@$$CBV?$basic_string@DU?$char_traits@D@std@@V?$allocator@D@2@@std@@V?$basic_config@Ujson_args@configor@@@configor@@@std@@PAX@std@@@std@@YAPAXPAPAU?$_Tree_node@U?$pair@$$CBV?$basic_string@DU?$char_traits@D@std@@V?$allocator@D@2@@std@@V?$basic_config@Ujson_args@configor@@@configor@@@std@@PAX@0@@Z 10007810 f i Pipi_edit.obj
 0001:00006810       ??$addressof@V?$basic_string@DU?$char_traits@D@std@@V?$allocator@D@2@@std@@@std@@YAPAV?$basic_string@DU?$char_traits@D@std@@V?$allocator@D@2@@0@AAV10@@Z 10007810 f i Pipi_edit.obj
 0001:00006810       ??$_Voidify_iter@PAV?$vector@V?$basic_config@Ujson_args@configor@@@configor@@V?$allocator@V?$basic_config@Ujson_args@configor@@@configor@@@std@@@std@@@std@@YAPAXPAV?$vector@V?$basic_config@Ujson_args@configor@@@configor@@V?$allocator@V?$basic_config@Ujson_args@configor@@@configor@@@std@@@0@@Z 10007810 f i Pipi_edit.obj
 0001:00006810       ??$_Voidify_iter@PAPAVVector@@@std@@YAPAXPAPAVVector@@@Z 10007810 f i Visuals.obj
 0001:00006810       ??$_Voidify_iter@PAV?$map@V?$basic_string@DU?$char_traits@D@std@@V?$allocator@D@2@@std@@V?$basic_config@Ujson_args@configor@@@configor@@U?$less@V?$basic_string@DU?$char_traits@D@std@@V?$allocator@D@2@@std@@@2@V?$allocator@U?$pair@$$CBV?$basic_string@DU?$char_traits@D@std@@V?$allocator@D@2@@std@@V?$basic_config@Ujson_args@configor@@@configor@@@std@@@2@@std@@@std@@YAPAXPAV?$map@V?$basic_string@DU?$char_traits@D@std@@V?$allocator@D@2@@std@@V?$basic_config@Ujson_args@configor@@@configor@@U?$less@V?$basic_string@DU?$char_traits@D@std@@V?$allocator@D@2@@std@@@2@V?$allocator@U?$pair@$$CBV?$basic_string@DU?$char_traits@D@std@@V?$allocator@D@2@@std@@V?$basic_config@Ujson_args@configor@@@configor@@@std@@@2@@0@@Z 10007810 f i Pipi_edit.obj
 0001:00006810       ??$addressof@V?$_Deque_val@U?$_Deque_simple_types@I@std@@@std@@@std@@YAPAV?$_Deque_val@U?$_Deque_simple_types@I@std@@@0@AAV10@@Z 10007810 f i Aimbot.obj
 0001:00006810       ??$_Get_unwrapped@AAV?$istreambuf_iterator@DU?$char_traits@D@std@@@std@@@std@@YA?A_TAAV?$istreambuf_iterator@DU?$char_traits@D@std@@@0@@Z 10007810 f i World.obj
 0001:00006810       ??$_Unfancy@Umy_sound_t@@@std@@YAPAUmy_sound_t@@PAU1@@Z 10007810 f i Sounds.obj
 0001:00006810       ??$forward@ABVVector@@@std@@YAABVVector@@ABV1@@Z 10007810 f i Visuals.obj
 0001:00006810       ??$forward@AB_N@std@@YAAB_NAB_N@Z 10007810 f i Pipi_edit.obj
 0001:00006810       ??$_Voidify_iter@PAU_Container_proxy@std@@@std@@YAPAXPAU_Container_proxy@0@@Z 10007810 f i Aimbot.obj
 0001:00006810       ??$forward@PAPAI@std@@YA$$QAPAPAIAAPAPAI@Z 10007810 f i Aimbot.obj
 0001:00006810       ??$addressof@$$CBV?$_Tree_val@U?$_Tree_simple_types@U?$pair@$$CBV?$basic_string@DU?$char_traits@D@std@@V?$allocator@D@2@@std@@V?$basic_config@Ujson_args@configor@@@configor@@@std@@@std@@@std@@@std@@YAPBV?$_Tree_val@U?$_Tree_simple_types@U?$pair@$$CBV?$basic_string@DU?$char_traits@D@std@@V?$allocator@D@2@@std@@V?$basic_config@Ujson_args@configor@@@configor@@@std@@@std@@@0@ABV10@@Z 10007810 f i Pipi_edit.obj
 0001:00006810       ??$addressof@PAVVector@@@std@@YAPAPAVVector@@AAPAV1@@Z 10007810 f i Visuals.obj
 0001:00006810       ??$addressof@U_Container_proxy@std@@@std@@YAPAU_Container_proxy@0@AAU10@@Z 10007810 f i Aimbot.obj
 0001:00006810       ??$addressof@$$CBV?$codecvt@DDU_Mbstatet@@@std@@@std@@YAPBV?$codecvt@DDU_Mbstatet@@@0@ABV10@@Z 10007810 f i World.obj
 0001:00006810       ??$move@AAV?$basic_string@DU?$char_traits@D@std@@V?$allocator@D@2@@std@@@std@@YA$$QAV?$basic_string@DU?$char_traits@D@std@@V?$allocator@D@2@@0@AAV10@@Z 10007810 f i Pipi_edit.obj
 0001:00006810       ??$_Voidify_iter@PAU?$pair@$$CBV?$basic_string@DU?$char_traits@D@std@@V?$allocator@D@2@@std@@V?$basic_config@Ujson_args@configor@@@configor@@@std@@@std@@YAPAXPAU?$pair@$$CBV?$basic_string@DU?$char_traits@D@std@@V?$allocator@D@2@@std@@V?$basic_config@Ujson_args@configor@@@configor@@@0@@Z 10007810 f i Pipi_edit.obj
 0001:00006810       ??$forward@ABQAD@std@@YAABQADABQAD@Z 10007810 f i Cvars.obj
 0001:00006810       ??$addressof@V?$_Deque_val@U?$_Deque_simple_types@VVector@@@std@@@std@@@std@@YAPAV?$_Deque_val@U?$_Deque_simple_types@VVector@@@std@@@0@AAV10@@Z 10007810 f i Visuals.obj
 0001:00006810       ??$forward@PAPAUmy_sound_t@@@std@@YA$$QAPAPAUmy_sound_t@@AAPAPAU1@@Z 10007810 f i Sounds.obj
 0001:00006810       ??$addressof@$$CBU?$pair@$$CBV?$basic_string@DU?$char_traits@D@std@@V?$allocator@D@2@@std@@V?$basic_config@Ujson_args@configor@@@configor@@@std@@@std@@YAPBU?$pair@$$CBV?$basic_string@DU?$char_traits@D@std@@V?$allocator@D@2@@std@@V?$basic_config@Ujson_args@configor@@@configor@@@0@ABU10@@Z 10007810 f i Pipi_edit.obj
 0001:00006810       ??$forward@AAY04$$CBD@std@@YAAAY04$$CBDAAY04$$CBD@Z 10007810 f i Pipi_edit.obj
 0001:00006810       ??$_Voidify_iter@PAV?$basic_string@DU?$char_traits@D@std@@V?$allocator@D@2@@std@@@std@@YAPAXPAV?$basic_string@DU?$char_traits@D@std@@V?$allocator@D@2@@0@@Z 10007810 f i Pipi_edit.obj
 0001:00006810       ??$forward@ABQAU?$_Tree_node@U?$pair@$$CBV?$basic_string@DU?$char_traits@D@std@@V?$allocator@D@2@@std@@V?$basic_config@Ujson_args@configor@@@configor@@@std@@PAX@std@@@std@@YAABQAU?$_Tree_node@U?$pair@$$CBV?$basic_string@DU?$char_traits@D@std@@V?$allocator@D@2@@std@@V?$basic_config@Ujson_args@configor@@@configor@@@std@@PAX@0@ABQAU10@@Z 10007810 f i Pipi_edit.obj
 0001:00006810       ??$forward@V?$basic_string@DU?$char_traits@D@std@@V?$allocator@D@2@@std@@@std@@YA$$QAV?$basic_string@DU?$char_traits@D@std@@V?$allocator@D@2@@0@AAV10@@Z 10007810 f i Pipi_edit.obj
 0001:00006810       ??$forward@AAY07$$CBD@std@@YAAAY07$$CBDAAY07$$CBD@Z 10007810 f i Pipi_edit.obj
 0001:00006810       ??$forward@PAPAVVector@@@std@@YA$$QAPAPAVVector@@AAPAPAV1@@Z 10007810 f i Visuals.obj
 0001:00006810       ??$forward@AAPAU?$_Tree_node@U?$pair@$$CBV?$basic_string@DU?$char_traits@D@std@@V?$allocator@D@2@@std@@V?$basic_config@Ujson_args@configor@@@configor@@@std@@PAX@std@@@std@@YAAAPAU?$_Tree_node@U?$pair@$$CBV?$basic_string@DU?$char_traits@D@std@@V?$allocator@D@2@@std@@V?$basic_config@Ujson_args@configor@@@configor@@@std@@PAX@0@AAPAU10@@Z 10007810 f i Pipi_edit.obj
 0001:00006810       ??$forward@AAPAI@std@@YAAAPAIAAPAI@Z 10007810 f i Aimbot.obj
 0001:00006810       ??$move@AAV?$basic_config@Ujson_args@configor@@@configor@@@std@@YA$$QAV?$basic_config@Ujson_args@configor@@@configor@@AAV12@@Z 10007810 f i Pipi_edit.obj
 0001:00006810       ??$forward@ABV?$allocator@D@std@@@std@@YAABV?$allocator@D@0@ABV10@@Z 10007810 f i World.obj
 0001:00006810       ??$_Voidify_iter@PAPAD@std@@YAPAXPAPAD@Z 10007810 f i Cvars.obj
 0001:00006810       ??$move@AAW4config_value_type@configor@@@std@@YA$$QAW4config_value_type@configor@@AAW412@@Z 10007810 f i Pipi_edit.obj
 0001:00006810       ??$forward@ABV?$basic_config@Ujson_args@configor@@@configor@@@std@@YAABV?$basic_config@Ujson_args@configor@@@configor@@ABV12@@Z 10007810 f i Pipi_edit.obj
 0001:00006810       ??$addressof@V?$_String_val@U?$_Simple_types@D@std@@@std@@@std@@YAPAV?$_String_val@U?$_Simple_types@D@std@@@0@AAV10@@Z 10007810 f i Menu.obj
 0001:00006810       ??$forward@ABV?$basic_string@DU?$char_traits@D@std@@V?$allocator@D@2@@std@@@std@@YAABV?$basic_string@DU?$char_traits@D@std@@V?$allocator@D@2@@0@ABV10@@Z 10007810 f i Pipi_edit.obj
 0001:00006810       ??$forward@AAV?$vector@V?$basic_config@Ujson_args@configor@@@configor@@V?$allocator@V?$basic_config@Ujson_args@configor@@@configor@@@std@@@std@@@std@@YAAAV?$vector@V?$basic_config@Ujson_args@configor@@@configor@@V?$allocator@V?$basic_config@Ujson_args@configor@@@configor@@@std@@@0@AAV10@@Z 10007810 f i Pipi_edit.obj
 0001:00006820       ??$construct@II@?$_Default_allocator_traits@V?$allocator@I@std@@@std@@SAXAAV?$allocator@I@1@QAI$$QAI@Z 10007820 f i Aimbot.obj
 0001:00006820       ??$construct@IABI@?$_Default_allocator_traits@V?$allocator@I@std@@@std@@SAXAAV?$allocator@I@1@QAIABI@Z 10007820 f i Aimbot.obj
 0001:00006860       ??$?0I@?$allocator@PAI@std@@QAE@ABV?$allocator@I@1@@Z 10007860 f i Aimbot.obj
 0001:00006860       ??$?0Umy_sound_t@@@?$allocator@PAUmy_sound_t@@@std@@QAE@ABV?$allocator@Umy_sound_t@@@1@@Z 10007860 f i Sounds.obj
 0001:00006860       ??$?0VVector@@@?$allocator@U_Container_proxy@std@@@std@@QAE@ABV?$allocator@VVector@@@1@@Z 10007860 f i Visuals.obj
 0001:00006860       ??$?0Umy_sound_t@@@?$allocator@U_Container_proxy@std@@@std@@QAE@ABV?$allocator@Umy_sound_t@@@1@@Z 10007860 f i Sounds.obj
 0001:00006860       ??$?0VVector@@@?$allocator@PAVVector@@@std@@QAE@ABV?$allocator@VVector@@@1@@Z 10007860 f i Visuals.obj
 0001:00006860       ??$?0I@?$allocator@U_Container_proxy@std@@@std@@QAE@ABV?$allocator@I@1@@Z 10007860 f i Aimbot.obj
 0001:00006870       ??$exchange@PAU?$_Tree_node@U?$pair@$$CBV?$basic_string@DU?$char_traits@D@std@@V?$allocator@D@2@@std@@V?$basic_config@Ujson_args@configor@@@configor@@@std@@PAX@std@@AAPAU12@@std@@YAPAU?$_Tree_node@U?$pair@$$CBV?$basic_string@DU?$char_traits@D@std@@V?$allocator@D@2@@std@@V?$basic_config@Ujson_args@configor@@@configor@@@std@@PAX@0@AAPAU10@0@Z 10007870 f i Pipi_edit.obj
 0001:00006870       ??$exchange@PAU_Container_proxy@std@@$$T@std@@YAPAU_Container_proxy@0@AAPAU10@$$QA$$T@Z 10007870 f i Aimbot.obj
 0001:00006870       ??$exchange@PAV_Facet_base@std@@$$T@std@@YAPAV_Facet_base@0@AAPAV10@$$QA$$T@Z 10007870 f i World.obj
 0001:00006870       ??$exchange@PAU?$_Tree_node@U?$pair@$$CBV?$basic_string@DU?$char_traits@D@std@@V?$allocator@D@2@@std@@V?$basic_config@Ujson_args@configor@@@configor@@@std@@PAX@std@@$$T@std@@YAPAU?$_Tree_node@U?$pair@$$CBV?$basic_string@DU?$char_traits@D@std@@V?$allocator@D@2@@std@@V?$basic_config@Ujson_args@configor@@@configor@@@std@@PAX@0@AAPAU10@$$QA$$T@Z 10007870 f i Pipi_edit.obj
 0001:00006890       ??$_Delete_plain_internal@V?$allocator@U_Container_proxy@std@@@std@@@std@@YAXAAV?$allocator@U_Container_proxy@std@@@0@QAU_Container_proxy@0@@Z 10007890 f i Aimbot.obj
 0001:000068b0       ??$?0$$V@?$_Compressed_pair@V?$allocator@I@std@@V?$_Deque_val@U?$_Deque_simple_types@I@std@@@2@$00@std@@QAE@U_Zero_then_variadic_args_t@1@@Z 100078b0 f i Aimbot.obj
 0001:000068b0       ??$?0$$V@?$_Compressed_pair@V?$allocator@VVector@@@std@@V?$_Deque_val@U?$_Deque_simple_types@VVector@@@std@@@2@$00@std@@QAE@U_Zero_then_variadic_args_t@1@@Z 100078b0 f i Visuals.obj
 0001:000068b0       ??$?0$$V@?$_Compressed_pair@V?$allocator@Umy_sound_t@@@std@@V?$_Deque_val@U?$_Deque_simple_types@Umy_sound_t@@@std@@@2@$00@std@@QAE@U_Zero_then_variadic_args_t@1@@Z 100078b0 f i Sounds.obj
 0001:000068d0       ??$_Alloc_proxy@V?$allocator@U_Container_proxy@std@@@std@@@_Container_base12@std@@QAEX$$QAV?$allocator@U_Container_proxy@std@@@1@@Z 100078d0 f i Aimbot.obj
 0001:00006920       ??$_Adl_verify_range@PAPAVVector@@PAPAV1@@std@@YAXABQAPAVVector@@0@Z 10007920 f i Visuals.obj
 0001:00006920       ??$_Adl_verify_range@PAPAUmy_sound_t@@PAPAU1@@std@@YAXABQAPAUmy_sound_t@@0@Z 10007920 f i Sounds.obj
 0001:00006920       ??$_Destroy_range@PAPAIPAPAI@std@@YAXPAPAIQAPAI@Z 10007920 f i Aimbot.obj
 0001:00006920       ??$_Destroy_in_place@PAU?$_Tree_node@U?$pair@$$CBV?$basic_string@DU?$char_traits@D@std@@V?$allocator@D@2@@std@@V?$basic_config@Ujson_args@configor@@@configor@@@std@@PAX@std@@@std@@YAXAAPAU?$_Tree_node@U?$pair@$$CBV?$basic_string@DU?$char_traits@D@std@@V?$allocator@D@2@@std@@V?$basic_config@Ujson_args@configor@@@configor@@@std@@PAX@0@@Z 10007920 f i Pipi_edit.obj
 0001:00006920       ??$_Destroy_range@PAPAVVector@@PAPAV1@@std@@YAXPAPAVVector@@QAPAV1@@Z 10007920 f i Visuals.obj
 0001:00006920       ??$_Adl_verify_range@PBV?$basic_config@Ujson_args@configor@@@configor@@PBV12@@std@@YAXABQBV?$basic_config@Ujson_args@configor@@@configor@@0@Z 10007920 f i Pipi_edit.obj
 0001:00006920       ??$_Adl_verify_range@PADPBD@std@@YAXABQADABQBD@Z 10007920 f i World.obj
 0001:00006920       ??$_Adl_verify_range@PAPAIPAPAI@std@@YAXABQAPAI0@Z 10007920 f i Aimbot.obj
 0001:00006920       ??$destroy@I@?$_Default_allocator_traits@V?$allocator@I@std@@@std@@SAXAAV?$allocator@I@1@QAI@Z 10007920 f i Aimbot.obj
 0001:00006920       ??$_Destroy_in_place@PAUmy_sound_t@@@std@@YAXAAPAUmy_sound_t@@@Z 10007920 f i Sounds.obj
 0001:00006920       ??$_Adl_verify_range@PBDPBD@std@@YAXABQBD0@Z 10007920 f i World.obj
 0001:00006920       ??$_Destroy_range@PAPAUmy_sound_t@@PAPAU1@@std@@YAXPAPAUmy_sound_t@@QAPAU1@@Z 10007920 f i Sounds.obj
 0001:00006920       ??$_Adl_verify_range@V?$istreambuf_iterator@DU?$char_traits@D@std@@@std@@V12@@std@@YAXABV?$istreambuf_iterator@DU?$char_traits@D@std@@@0@0@Z 10007920 f i World.obj
 0001:00006920       ??$_Destroy_in_place@PAI@std@@YAXAAPAI@Z 10007920 f i Aimbot.obj
 0001:00006920       ??$_Destroy_in_place@PAD@std@@YAXAAPAD@Z 10007920 f i Cvars.obj
 0001:00006920       ??$_Destroy_in_place@PAVVector@@@std@@YAXAAPAVVector@@@Z 10007920 f i Visuals.obj
 0001:00006930       ??$uninitialized_copy@PAPAIPAPAI@std@@YAPAPAIQAPAI0PAPAI@Z 10007930 f i Aimbot.obj
 0001:00006930       ??$uninitialized_copy@PAPAUmy_sound_t@@PAPAU1@@std@@YAPAPAUmy_sound_t@@QAPAU1@0PAPAU1@@Z 10007930 f i Sounds.obj
 0001:00006930       ??$uninitialized_copy@PAPAVVector@@PAPAV1@@std@@YAPAPAVVector@@QAPAV1@0PAPAV1@@Z 10007930 f i Visuals.obj
 0001:000069d0       ??$_Get_unwrapped@AAPBV?$basic_config@Ujson_args@configor@@@configor@@@std@@YA?A_TAAPBV?$basic_config@Ujson_args@configor@@@configor@@@Z 100079d0 f i Pipi_edit.obj
 0001:000069d0       ??$_To_address@PAPAI@std@@YA?A_PABQAPAI@Z 100079d0 f i Aimbot.obj
 0001:000069d0       ??$_To_address@PAPAVVector@@@std@@YA?A_PABQAPAVVector@@@Z 100079d0 f i Visuals.obj
 0001:000069d0       ??$_Get_unwrapped@ABQBV?$basic_config@Ujson_args@configor@@@configor@@@std@@YA?A_TABQBV?$basic_config@Ujson_args@configor@@@configor@@@Z 100079d0 f i Pipi_edit.obj
 0001:000069d0       ??$_Get_unwrapped@ABQAPAVVector@@@std@@YA?A_TABQAPAVVector@@@Z 100079d0 f i Visuals.obj
 0001:000069d0       ??$_Get_unwrapped_n@AAPAPAIH@std@@YA?A_TAAPAPAIH@Z 100079d0 f i Aimbot.obj
 0001:000069d0       ??$_Get_unwrapped@ABQAPAUmy_sound_t@@@std@@YA?A_TABQAPAUmy_sound_t@@@Z 100079d0 f i Sounds.obj
 0001:000069d0       ??$_Get_unwrapped@ABQAPAI@std@@YA?A_TABQAPAI@Z 100079d0 f i Aimbot.obj
 0001:000069d0       ??$_To_address@PAPAUmy_sound_t@@@std@@YA?A_PABQAPAUmy_sound_t@@@Z 100079d0 f i Sounds.obj
 0001:000069d0       ??$_Get_unwrapped_n@AAPAPAUmy_sound_t@@H@std@@YA?A_TAAPAPAUmy_sound_t@@H@Z 100079d0 f i Sounds.obj
 0001:000069d0       ??$_Get_unwrapped_n@AAPAPAVVector@@H@std@@YA?A_TAAPAPAVVector@@H@Z 100079d0 f i Visuals.obj
 0001:000069d0       ??$_Get_unwrapped@ABQAV?$basic_config@Ujson_args@configor@@@configor@@@std@@YA?A_TABQAV?$basic_config@Ujson_args@configor@@@configor@@@Z 100079d0 f i Pipi_edit.obj
 0001:000069e0       ??$_Idl_distance@PAPAVVector@@PAPAV1@@std@@YA?A_PABQAPAVVector@@0@Z 100079e0 f i Visuals.obj
 0001:000069e0       ??$_Idl_distance@PAPAUmy_sound_t@@PAPAU1@@std@@YA?A_PABQAPAUmy_sound_t@@0@Z 100079e0 f i Sounds.obj
 0001:000069e0       ??$_Idl_distance@PAPAIPAPAI@std@@YA?A_PABQAPAI0@Z 100079e0 f i Aimbot.obj
 0001:00006a00       ??$_Uninitialized_value_construct_n_unchecked1@PAPAII@std@@YAPAPAIPAPAII@Z 10007a00 f i Aimbot.obj
 0001:00006a00       ??$_Uninitialized_value_construct_n_unchecked1@PAPAVVector@@I@std@@YAPAPAVVector@@PAPAV1@I@Z 10007a00 f i Visuals.obj
 0001:00006a00       ??$_Uninitialized_value_construct_n_unchecked1@PAPAUmy_sound_t@@I@std@@YAPAPAUmy_sound_t@@PAPAU1@I@Z 10007a00 f i Sounds.obj
 0001:00006a20       ??$_Get_size_of_n@$03@std@@YAII@Z 10007a20 f i Aimbot.obj
 0001:00006a50       ??$_Allocate@$07U_Default_allocate_traits@std@@$0A@@std@@YAPAXI@Z 10007a50 f i Aimbot.obj
 0001:00006a90       ??$min@I@std@@YAABIABI0@Z  10007a90 f i Aimbot.obj
 0001:00006ac0       ??$_Deallocate@$07$0A@@std@@YAXPAXI@Z 10007ac0 f i Aimbot.obj
 0001:00006b20       ?allocate@?$allocator@U_Container_proxy@std@@@std@@QAEPAU_Container_proxy@2@I@Z 10007b20 f i Aimbot.obj
 0001:00006b50       ??0?$_Deque_val@U?$_Deque_simple_types@VVector@@@std@@@std@@QAE@XZ 10007b50 f i Visuals.obj
 0001:00006b50       ??0?$_Deque_val@U?$_Deque_simple_types@I@std@@@std@@QAE@XZ 10007b50 f i Aimbot.obj
 0001:00006b50       ??0?$_Deque_val@U?$_Deque_simple_types@Umy_sound_t@@@std@@@std@@QAE@XZ 10007b50 f i Sounds.obj
 0001:00006b90       ??0_Container_base12@std@@QAE@XZ 10007b90 f i Aimbot.obj
 0001:00006b90       ??0_Bxty@?$_String_val@U?$_Simple_types@D@std@@@std@@QAE@XZ 10007b90 f i Cvars.obj
 0001:00006bb0       ??$_Deallocate_plain@V?$allocator@U_Container_proxy@std@@@std@@@std@@YAXAAV?$allocator@U_Container_proxy@std@@@0@QAU_Container_proxy@0@@Z 10007bb0 f i Aimbot.obj
 0001:00006c00       ??$_Construct_in_place@U_Container_proxy@std@@PAU_Container_base12@2@@std@@YAXAAU_Container_proxy@0@$$QAPAU_Container_base12@0@@Z 10007c00 f i Aimbot.obj
 0001:00006c50       ??$_Uninitialized_copy_unchecked@PAPAUmy_sound_t@@PAPAU1@@std@@YAPAPAUmy_sound_t@@PAPAU1@QAPAU1@0@Z 10007c50 f i Sounds.obj
 0001:00006c50       ??$_Uninitialized_copy_unchecked@PAPAVVector@@PAPAV1@@std@@YAPAPAVVector@@PAPAV1@QAPAV1@0@Z 10007c50 f i Visuals.obj
 0001:00006c50       ??$_Uninitialized_copy_unchecked@PAPAIPAPAI@std@@YAPAPAIPAPAIQAPAI0@Z 10007c50 f i Aimbot.obj
 0001:00006d00       ??$_Seek_wrapped@PAPAIPAPAI@std@@YAXAAPAPAI$$QAPAPAI@Z 10007d00 f i Aimbot.obj
 0001:00006d00       ??$_Seek_wrapped@PAPAVVector@@PAPAV1@@std@@YAXAAPAPAVVector@@$$QAPAPAV1@@Z 10007d00 f i Visuals.obj
 0001:00006d00       ??$_Seek_wrapped@PAPAUmy_sound_t@@PAPAU1@@std@@YAXAAPAPAUmy_sound_t@@$$QAPAPAU1@@Z 10007d00 f i Sounds.obj
 0001:00006d20       ??$_Zero_range@PAPAVVector@@@std@@YAPAPAVVector@@QAPAV1@0@Z 10007d20 f i Visuals.obj
 0001:00006d20       ??$_Zero_range@PAPAI@std@@YAPAPAIQAPAI0@Z 10007d20 f i Aimbot.obj
 0001:00006d20       ??$_Zero_range@PAPAUmy_sound_t@@@std@@YAPAPAUmy_sound_t@@QAPAU1@0@Z 10007d20 f i Sounds.obj
 0001:00006d60       ??$_Allocate_manually_vector_aligned@U_Default_allocate_traits@std@@@std@@YAPAXI@Z 10007d60 f i Aimbot.obj
 0001:00006dd0       ??$_Get_size_of_n@$07@std@@YAII@Z 10007dd0 f i Aimbot.obj
 0001:00006e00       ?_Release@?$_Uninitialized_backout_al@V?$allocator@V?$basic_config@Ujson_args@configor@@@configor@@@std@@@std@@QAEPAV?$basic_config@Ujson_args@configor@@@configor@@XZ 10007e00 f i Pipi_edit.obj
 0001:00006e00       ?_Release@?$_Uninitialized_backout@PAPAI@std@@QAEPAPAIXZ 10007e00 f i Aimbot.obj
 0001:00006e00       ?_Release@?$_Uninitialized_backout@PAPAVVector@@@std@@QAEPAPAVVector@@XZ 10007e00 f i Visuals.obj
 0001:00006e00       ?_Release@?$_Uninitialized_backout@PAPAUmy_sound_t@@@std@@QAEPAPAUmy_sound_t@@XZ 10007e00 f i Sounds.obj
 0001:00006e20       ??1?$_Uninitialized_backout@PAPAUmy_sound_t@@@std@@QAE@XZ 10007e20 f i Sounds.obj
 0001:00006e20       ??1?$_Uninitialized_backout@PAPAVVector@@@std@@QAE@XZ 10007e20 f i Visuals.obj
 0001:00006e20       ??1?$_Uninitialized_backout@PAPAI@std@@QAE@XZ 10007e20 f i Aimbot.obj
 0001:00006e40       ??0?$_Uninitialized_backout@PAPAVVector@@@std@@QAE@PAPAVVector@@@Z 10007e40 f i Visuals.obj
 0001:00006e40       ??0?$_Uninitialized_backout@PAPAI@std@@QAE@PAPAI@Z 10007e40 f i Aimbot.obj
 0001:00006e40       ??0?$_Uninitialized_backout@PAPAUmy_sound_t@@@std@@QAE@PAPAUmy_sound_t@@@Z 10007e40 f i Sounds.obj
 0001:00006e70       ?deallocate@?$_Default_allocator_traits@V?$allocator@U_Container_proxy@std@@@std@@@std@@SAXAAV?$allocator@U_Container_proxy@std@@@2@QAU_Container_proxy@2@I@Z 10007e70 f i Aimbot.obj
 0001:00006e70       ?deallocate@?$_Default_allocator_traits@V?$allocator@V?$map@V?$basic_string@DU?$char_traits@D@std@@V?$allocator@D@2@@std@@V?$basic_config@Ujson_args@configor@@@configor@@U?$less@V?$basic_string@DU?$char_traits@D@std@@V?$allocator@D@2@@std@@@2@V?$allocator@U?$pair@$$CBV?$basic_string@DU?$char_traits@D@std@@V?$allocator@D@2@@std@@V?$basic_config@Ujson_args@configor@@@configor@@@std@@@2@@std@@@std@@@std@@SAXAAV?$allocator@V?$map@V?$basic_string@DU?$char_traits@D@std@@V?$allocator@D@2@@std@@V?$basic_config@Ujson_args@configor@@@configor@@U?$less@V?$basic_string@DU?$char_traits@D@std@@V?$allocator@D@2@@std@@@2@V?$allocator@U?$pair@$$CBV?$basic_string@DU?$char_traits@D@std@@V?$allocator@D@2@@std@@V?$basic_config@Ujson_args@configor@@@configor@@@std@@@2@@std@@@2@QAV?$map@V?$basic_string@DU?$char_traits@D@std@@V?$allocator@D@2@@std@@V?$basic_config@Ujson_args@configor@@@configor@@U?$less@V?$basic_string@DU?$char_traits@D@std@@V?$allocator@D@2@@std@@@2@V?$allocator@U?$pair@$$CBV?$basic_string@DU?$char_traits@D@std@@V?$allocator@D@2@@std@@V?$basic_config@Ujson_args@configor@@@configor@@@std@@@2@@2@I@Z 10007e70 f i Pipi_edit.obj
 0001:00006e90       ??$_Copy_memmove@PAPAIPAPAI@std@@YAPAPAIPAPAI00@Z 10007e90 f i Aimbot.obj
 0001:00006e90       ??$_Copy_memmove@PAPAUmy_sound_t@@PAPAU1@@std@@YAPAPAUmy_sound_t@@PAPAU1@00@Z 10007e90 f i Sounds.obj
 0001:00006e90       ??$_Copy_memmove@PAPAVVector@@PAPAV1@@std@@YAPAPAVVector@@PAPAV1@00@Z 10007e90 f i Visuals.obj
 0001:00006f00       ??$_Emplace_back@AAPAVVector@@@?$_Uninitialized_backout@PAPAVVector@@@std@@QAEXAAPAVVector@@@Z 10007f00 f i Visuals.obj
 0001:00006f00       ??$_Emplace_back@AAPAUmy_sound_t@@@?$_Uninitialized_backout@PAPAUmy_sound_t@@@std@@QAEXAAPAUmy_sound_t@@@Z 10007f00 f i Sounds.obj
 0001:00006f00       ??$_Emplace_back@AAPAI@?$_Uninitialized_backout@PAPAI@std@@QAEXAAPAI@Z 10007f00 f i Aimbot.obj
 0001:00006f40       ??$_Construct_in_place@PAUmy_sound_t@@AAPAU1@@std@@YAXAAPAUmy_sound_t@@0@Z 10007f40 f i Sounds.obj
 0001:00006f40       ??$_Construct_in_place@PAIAAPAI@std@@YAXAAPAI0@Z 10007f40 f i Aimbot.obj
 0001:00006f40       ??$_Construct_in_place@PAVVector@@AAPAV1@@std@@YAXAAPAVVector@@0@Z 10007f40 f i Visuals.obj
 0001:00006f40       ??$_Construct_in_place@PADABQAD@std@@YAXAAPADABQAD@Z 10007f40 f i Cvars.obj
 0001:00006f40       ??$_Construct_in_place@PADAAPAD@std@@YAXAAPAD0@Z 10007f40 f i Menu.obj
 0001:00006f40       ??$_Construct_in_place@PAU?$_Tree_node@U?$pair@$$CBV?$basic_string@DU?$char_traits@D@std@@V?$allocator@D@2@@std@@V?$basic_config@Ujson_args@configor@@@configor@@@std@@PAX@std@@AAPAU12@@std@@YAXAAPAU?$_Tree_node@U?$pair@$$CBV?$basic_string@DU?$char_traits@D@std@@V?$allocator@D@2@@std@@V?$basic_config@Ujson_args@configor@@@configor@@@std@@PAX@0@0@Z 10007f40 f i Pipi_edit.obj
 0001:00006f40       ??$_Construct_in_place@PAU?$_Tree_node@U?$pair@$$CBV?$basic_string@DU?$char_traits@D@std@@V?$allocator@D@2@@std@@V?$basic_config@Ujson_args@configor@@@configor@@@std@@PAX@std@@ABQAU12@@std@@YAXAAPAU?$_Tree_node@U?$pair@$$CBV?$basic_string@DU?$char_traits@D@std@@V?$allocator@D@2@@std@@V?$basic_config@Ujson_args@configor@@@configor@@@std@@PAX@0@ABQAU10@@Z 10007f40 f i Pipi_edit.obj
 0001:00006f80       ?fpclassify@@YAHN@Z        10007f80 f i Cvars.obj
 0001:00006fa0       ??0_Fake_proxy_ptr_impl@std@@QAE@ABU_Fake_allocator@1@ABU_Container_base0@1@@Z 10007fa0 f i Cvars.obj
 0001:00006fb0       ?_Xlen_string@std@@YAXXZ   10007fb0 f i Cvars.obj
 0001:00006fc0       ??0CCvars@@QAE@XZ          10007fc0 f i Cvars.obj
 0001:00006fe0       ?Init@CCvars@@QAEXXZ       10007fe0 f   Cvars.obj
 0001:000077c0       ?dtoa@@YAPADPADN@Z         100087c0 f   Cvars.obj
 0001:00007b60       ?LoadCvars@CFunctions@@QAEXXZ 10008b60 f   Cvars.obj
 0001:0000a090       ?c_str@?$basic_string@DU?$char_traits@D@std@@V?$allocator@D@2@@std@@QBEPBDXZ 1000b090 f i Cvars.obj
 0001:0000a090       ?data@?$basic_string@DU?$char_traits@D@std@@V?$allocator@D@2@@std@@QBEPBDXZ 1000b090 f i World.obj
 0001:0000a0b0       ?append@?$basic_string@DU?$char_traits@D@std@@V?$allocator@D@2@@std@@QAEAAV12@QBD@Z 1000b0b0 f i Cvars.obj
 0001:0000a0e0       ??1?$basic_string@DU?$char_traits@D@std@@V?$allocator@D@2@@std@@QAE@XZ 1000b0e0 f i Cvars.obj
 0001:0000a100       ??0?$basic_string@DU?$char_traits@D@std@@V?$allocator@D@2@@std@@QAE@QBD@Z 1000b100 f i Cvars.obj
 0001:0000a1a0       ??1?$_Compressed_pair@V?$allocator@D@std@@V?$_String_val@U?$_Simple_types@D@std@@@2@$00@std@@QAE@XZ 1000b1a0 f i Cvars.obj
 0001:0000a1c0       ?_Tidy_deallocate@?$basic_string@DU?$char_traits@D@std@@V?$allocator@D@2@@std@@AAEXXZ 1000b1c0 f i Cvars.obj
 0001:0000a280       ?_Tidy_init@?$basic_string@DU?$char_traits@D@std@@V?$allocator@D@2@@std@@AAEXXZ 1000b280 f i Cvars.obj
 0001:0000a2d0       ?assign@?$basic_string@DU?$char_traits@D@std@@V?$allocator@D@2@@std@@QAEAAV12@QBD@Z 1000b2d0 f i Cvars.obj
 0001:0000a300       ?assign@?$basic_string@DU?$char_traits@D@std@@V?$allocator@D@2@@std@@QAEAAV12@QBDI@Z 1000b300 f i Cvars.obj
 0001:0000a380       ??R<lambda_9366063389c5f42a00a5088cf24e69de>@@QBE@QADIQBD@Z 1000b380 f i Cvars.obj
 0001:0000a3c0       ?append@?$basic_string@DU?$char_traits@D@std@@V?$allocator@D@2@@std@@QAEAAV12@QBDI@Z 1000b3c0 f i Cvars.obj
 0001:0000a460       ??R<lambda_ab246b20b9526e2ef7792587e4298a77>@@QBE@QADQBDI1I@Z 1000b460 f i Cvars.obj
 0001:0000a4c0       ?_Myptr@?$_String_val@U?$_Simple_types@D@std@@@std@@QBEPBDXZ 1000b4c0 f i Cvars.obj
 0001:0000a4c0       ?_Myptr@?$_String_val@U?$_Simple_types@D@std@@@std@@QAEPADXZ 1000b4c0 f i Cvars.obj
 0001:0000a500       ?length@?$_Narrow_char_traits@DH@std@@SAIQBD@Z 1000b500 f i Cvars.obj
 0001:0000a540       ??$max@I@std@@YAABIABI0@Z  1000b540 f i Cvars.obj
 0001:0000a570       ?max_size@?$basic_string@DU?$char_traits@D@std@@V?$allocator@D@2@@std@@QBEIXZ 1000b570 f i Cvars.obj
 0001:0000a5f0       ?_Large_string_engaged@?$_String_val@U?$_Simple_types@D@std@@@std@@QBE_NXZ 1000b5f0 f i Cvars.obj
 0001:0000a620       ?allocate@?$allocator@D@std@@QAEPADI@Z 1000b620 f i Cvars.obj
 0001:0000a650       ?deallocate@?$allocator@D@std@@QAEXQADI@Z 1000b650 f i Cvars.obj
 0001:0000a670       ?assign@?$_Narrow_char_traits@DH@std@@SAXAADABD@Z 1000b670 f i Cvars.obj
 0001:0000a680       ?move@?$_Char_traits@DH@std@@SAPADQADQBDI@Z 1000b680 f i Cvars.obj
 0001:0000a680       ?copy@?$_Char_traits@DH@std@@SAPADQADQBDI@Z 1000b680 f i Cvars.obj
 0001:0000a6a0       ?max_size@?$_Default_allocator_traits@V?$allocator@D@std@@@std@@SAIABV?$allocator@D@2@@Z 1000b6a0 f i Cvars.obj
 0001:0000a6a0       ?eof@?$_Narrow_char_traits@DH@std@@SAHXZ 1000b6a0 f i World.obj
 0001:0000a6b0       ??$isnan@N@@YA_NN@Z        1000b6b0 f i Cvars.obj
 0001:0000a6f0       ??$isinf@N@@YA_NN@Z        1000b6f0 f i Cvars.obj
 0001:0000a730       ??$pow@NH$0A@@@YANNH@Z     1000b730 f i Cvars.obj
 0001:0000a760       ??$?0$$V@?$_Compressed_pair@V?$allocator@D@std@@V?$_String_val@U?$_Simple_types@D@std@@@2@$00@std@@QAE@U_Zero_then_variadic_args_t@1@@Z 1000b760 f i Cvars.obj
 0001:0000a780       ??$_Reallocate_for@V<lambda_9366063389c5f42a00a5088cf24e69de>@@PBD@?$basic_string@DU?$char_traits@D@std@@V?$allocator@D@2@@std@@AAEAAV01@IV<lambda_9366063389c5f42a00a5088cf24e69de>@@PBD@Z 1000b780 f i Cvars.obj
 0001:0000a870       ??$_Reallocate_grow_by@V<lambda_ab246b20b9526e2ef7792587e4298a77>@@PBDI@?$basic_string@DU?$char_traits@D@std@@V?$allocator@D@2@@std@@AAEAAV01@IV<lambda_ab246b20b9526e2ef7792587e4298a77>@@PBDI@Z 1000b870 f i Cvars.obj
 0001:0000a9b0       ??$_Get_size_of_n@$00@std@@YAII@Z 1000b9b0 f i Cvars.obj
 0001:0000a9c0       ?_Calculate_growth@?$basic_string@DU?$char_traits@D@std@@V?$allocator@D@2@@std@@ABEII@Z 1000b9c0 f i Cvars.obj
 0001:0000a9f0       ??0?$_String_val@U?$_Simple_types@D@std@@@std@@QAE@XZ 1000b9f0 f i Cvars.obj
 0001:0000aa20       ?_Calculate_growth@?$basic_string@DU?$char_traits@D@std@@V?$allocator@D@2@@std@@CAIIII@Z 1000ba20 f i Cvars.obj
 0001:0000aa90       _cosf                      1000ba90 f i Drawing.obj
 0001:0000aab0       _sinf                      1000bab0 f i Drawing.obj
 0001:0000aad0       ___local_stdio_printf_options 1000bad0 f i Drawing.obj
 0001:0000aae0       __vsnprintf_l              1000bae0 f i Drawing.obj
 0001:0000ab30       __vsnprintf                1000bb30 f i Drawing.obj
 0001:0000ab50       ?SetupFonts@CDrawing@@QAEXXZ 1000bb50 f   Drawing.obj
 0001:0000ac00       ?DrawCircle@CDrawing@@QAEXQAMMMHHHH@Z 1000bc00 f   Drawing.obj
 0001:0000adb0       ?DrawPlayerBox@CDrawing@@QAEXHHHHHHHH@Z 1000bdb0 f   Drawing.obj
 0001:0000aef0       ?DrawTexture@CDrawing@@QAEXHHHHHHHHH@Z 1000bef0 f   Drawing.obj
 0001:0000af70       ?DrawRect@CDrawing@@QAEXHHHHHHHH@Z 1000bf70 f   Drawing.obj
 0001:0000b030       ?DrawLine@CDrawing@@QAEXHHHHHHHH@Z 1000c030 f   Drawing.obj
 0001:0000b090       ?FillArea@CDrawing@@QAEXHHHHHHHH@Z 1000c090 f   Drawing.obj
 0001:0000b160       ?DrawBox@CDrawing@@QAEXHHHHHHHH@Z 1000c160 f   Drawing.obj
 0001:0000b1c0       ?DrawString@CDrawing@@QAAXKHHHHHHKPBDZZ 1000c1c0 f   Drawing.obj
 0001:0000b370       ?DrawStringACP@CDrawing@@QAAXKHHHHHHKPBDZZ 1000c370 f   Drawing.obj
 0001:0000b520       ?Box@CDrawing@@QAEXHHHHHHHHH@Z 1000c520 f   Drawing.obj
 0001:0000b5f0       ?BoxOutline@CDrawing@@QAEXMMMMMEEEE@Z 1000c5f0 f   Drawing.obj
 0001:0000b700       ?DrawCoalBox@CDrawing@@QAEXHHHHHHHHH@Z 1000c700 f   Drawing.obj
 0001:0000b8b0       ?DrawOutlineCoalBox@CDrawing@@QAEXHHHHHEEEE@Z 1000c8b0 f   Drawing.obj
 0001:0000ba80       ?BoxCorner@CDrawing@@QAEXHHHHHEEEE@Z 1000ca80 f   Drawing.obj
 0001:0000bcb0       ?BoxCornerOutline@CDrawing@@QAEXHHHHHEEEE@Z 1000ccb0 f   Drawing.obj
 0001:0000bdb0       ?DrawCrosshair@CDrawing@@QAEXHHHHHH@Z 1000cdb0 f   Drawing.obj
 0001:0000bfe0       ?DrawDot@CDrawing@@QAEXHHHHHH@Z 1000cfe0 f   Drawing.obj
 0001:0000c050       ??$swap@W4config_value_type@configor@@$0A@@std@@YAXAAW4config_value_type@configor@@0@Z 1000d050 f i Pipi_edit.obj
 0001:0000c050       ??$swap@H$0A@@std@@YAXAAH0@Z 1000d050 f i Drawing.obj
 0001:0000c0b0       ?strstr@@YAPADQADQBD@Z     1000d0b0 f i Misc.obj
 0001:0000c0d0       _fmodf                     1000d0d0 f i Misc.obj
 0001:0000c110       ?cos@@YAMM@Z               1000d110 f i Misc.obj
 0001:0000c130       ?fmod@@YAMMM@Z             1000d130 f i Misc.obj
 0001:0000c160       ?sin@@YAMM@Z               1000d160 f i Misc.obj
 0001:0000c180       ?Distance@Vector@@QAEMAAV1@@Z 1000d180 f i Misc.obj
 0001:0000c200       ?FastZoom@CMisc@@QAEXPAUusercmd_s@@@Z 1000d200 f   Misc.obj
 0001:0000c270       ?FakeLag@CMisc@@QAEXPAUusercmd_s@@@Z 1000d270 f   Misc.obj
 0001:0000c5e0       ?FakeEdge@CMisc@@QAE_NAAM@Z 1000d5e0 f   Misc.obj
 0001:0000c810       ?AntiAim@CMisc@@QAEXPAUusercmd_s@@@Z 1000d810 f   Misc.obj
 0001:0000d340       ?AutoPistol@CMisc@@QAEXPAUusercmd_s@@@Z 1000e340 f   Misc.obj
 0001:0000d3d0       ?AutoReload@CMisc@@QAEXPAUusercmd_s@@@Z 1000e3d0 f   Misc.obj
 0001:0000d430       ?_Alloc_proxy@_Container_base0@std@@QAEXABU_Fake_allocator@2@@Z 1000e430 f   Menu.obj
 0001:0000d430       ?_Swap_proxy_and_iterators@_Container_base0@std@@QAEXAAU12@@Z 1000e430 f   Menu.obj
 0001:0000d430       ?_Orphan_ptr@?$_Tree_val@U?$_Tree_simple_types@U?$pair@$$CBV?$basic_string@DU?$char_traits@D@std@@V?$allocator@D@2@@std@@V?$basic_config@Ujson_args@configor@@@configor@@@std@@@std@@@std@@QAEXQAU?$_Tree_node@U?$pair@$$CBV?$basic_string@DU?$char_traits@D@std@@V?$allocator@D@2@@std@@V?$basic_config@Ujson_args@configor@@@configor@@@std@@PAX@2@@Z 1000e430 f   Pipi_edit.obj
 0001:0000d430       ?ThirdPerson@CMisc@@QAEXPAUref_params_s@@@Z 1000e430 f   Misc.obj
 0001:0000d430       ?imbue@?$basic_streambuf@DU?$char_traits@D@std@@@std@@MAEXABVlocale@2@@Z 1000e430 f   World.obj
 0001:0000d430       ?_Adopt@_Iterator_base0@std@@QAEXPBX@Z 1000e430 f   Pipi_edit.obj
 0001:0000d430       ?_Init@?$num_put@DV?$ostreambuf_iterator@DU?$char_traits@D@std@@@std@@@std@@IAEXABV_Locinfo@2@@Z 1000e430 f   Pipi_edit.obj
 0001:0000d430       ?_Init@?$codecvt@DDU_Mbstatet@@@std@@IAEXABV_Locinfo@2@@Z 1000e430 f   World.obj
 0001:0000d440       ?change_name@@YAXPAD@Z     1000e440 f   Misc.obj
 0001:0000da20       ?NameStealer@CMisc@@QAEXXZ 1000ea20 f   Misc.obj
 0001:0000dcb0       ??$strcpy_s@$0BAA@@@YAHAAY0BAA@DPBD@Z 1000ecb0 f i Misc.obj
 0001:0000dcd0       ??$strcat_s@$0BAA@@@YAHAAY0BAA@DPBD@Z 1000ecd0 f i Misc.obj
 0001:0000dcf0       ??$strcpy_s@$0CA@@@YAHAAY0CA@DPBD@Z 1000ecf0 f i Misc.obj
 0001:0000dd10       ?Redraw@CNoFlash@@QAEXXZ   1000ed10 f   NoFlash.obj
 0001:0000dec0       ??ZVector@@QAEAAV0@ABV0@@Z 1000eec0 f i NoRecoil.obj
 0001:0000df20       ?V_CalcRefdef@CNoRecoil@@QAEXPAUref_params_s@@@Z 1000ef20 f   NoRecoil.obj
 0001:0000e0d0       ?CL_CreateMove@CNoRecoil@@QAEXPAUusercmd_s@@@Z 1000f0d0 f   NoRecoil.obj
 0001:0000e130       ?DrawRecoil@CNoRecoil@@QAEXXZ 1000f130 f   NoRecoil.obj
 0001:0000e2b0       _atan2f                    1000f2b0 f i NoSpread.obj
 0001:0000e2f0       ?abs@@YANN@Z               1000f2f0 f i NoSpread.obj
 0001:0000e2f0       _fabsl                     1000f2f0 f i Pipi_edit.obj
 0001:0000e310       ?atan2@@YAMMM@Z            1000f310 f i NoSpread.obj
 0001:0000e340       ??D@YA?AVVector@@MABV0@@Z  1000f340 f i NoSpread.obj
 0001:0000e380       ?U_Random@@YAIXZ           1000f380 f   NoSpread.obj
 0001:0000e3c0       ?U_Srand@@YAXI@Z           1000f3c0 f   NoSpread.obj
 0001:0000e3e0       ?UTIL_SharedRandomFloat@@YAMIMM@Z 1000f3e0 f   NoSpread.obj
 0001:0000e480       ?GetSpreadXY@CNoSpread@@QAEXIHPAM_N@Z 1000f480 f   NoSpread.obj
 0001:0000e670       ?GetSpreadOffset@CNoSpread@@QAEXIHPAM0@Z 1000f670 f   NoSpread.obj
 0001:0000fc20       ?CL_CreateMove@CNoSpread@@QAEXPAUusercmd_s@@@Z 10010c20 f   NoSpread.obj
 0001:0000fd40       ?DrawSpread@CNoSpread@@QAEXXZ 10010d40 f   NoSpread.obj
 0001:000100a0       ?V_CalcRefdef@CNoSpread@@QAEXPAUref_params_s@@@Z 100110a0 f   NoSpread.obj
 0001:000101a0       ?Dot2D@Vector@@QAEMABV1@@Z 100111a0 f i Systems.obj
 0001:000101e0       ?Length2D@Vector@@QAEMXZ   100111e0 f i Systems.obj
 0001:00010210       ?LengthSqr2D@Vector@@QAEMXZ 10011210 f i Systems.obj
 0001:00010250       ?SimulateKey@@YAXGH@Z      10011250 f i Systems.obj
 0001:000102b0       ?isGoodJump@@YA_NXZ        100112b0 f   Systems.obj
 0001:000105f0       ?isBadJump@@YA_NXZ         100115f0 f   Systems.obj
 0001:00010860       ?asdfg@@YA_NH@Z            10011860 f   Systems.obj
 0001:00010ba0       ?KnifeBot@CSystems@@QAEXPAUusercmd_s@@@Z 10011ba0 f   Systems.obj
 0001:00010f20       ?SimulateMouse@CSystems@@QAEXH@Z 10011f20 f   Systems.obj
 0001:00010fb0       ?BunnyHop@CSystems@@QAEXPAUusercmd_s@@@Z 10011fb0 f   Systems.obj
 0001:00011cc0       ?AutoStrafe@CSystems@@QAEXPAUusercmd_s@@M@Z 10012cc0 f   Systems.obj
 0001:00011ff0       _fabsf                     10012ff0 f i Utils.obj
 0001:00012010       _powf                      10013010 f i Utils.obj
 0001:00012040       ?fabs@@YAMM@Z              10013040 f i Utils.obj
 0001:00012060       ?pow@@YAMMM@Z              10013060 f i Utils.obj
 0001:00012090       ?round@@YAMM@Z             10013090 f i Utils.obj
 0001:000120b0       ??0CUtils@@QAE@XZ          100130b0 f i Utils.obj
 0001:00012150       ??1CUtils@@QAE@XZ          10013150 f i Utils.obj
 0001:000121a0       ?GetTextureInfo@CUtils@@QAE_NUCImageTexture@@AAI11@Z 100131a0 f   Utils.obj
 0001:000121f0       ?bSendpacket@CUtils@@QAEX_N@Z 100131f0 f   Utils.obj
 0001:00012250       ?bCalcScreen@CUtils@@QAE_NPAM0@Z 10013250 f   Utils.obj
 0001:00012390       ?bFileExists@CUtils@@QAE_NPBD@Z 10013390 f   Utils.obj
 0001:000123d0       ?cIniRead@CUtils@@QAEPADPAD000@Z 100133d0 f   Utils.obj
 0001:00012430       ?szDirFile@CUtils@@QAEPADPBD@Z 10013430 f   Utils.obj
 0001:00012500       ?IsPlayer@CUtils@@QAE_NPAUcl_entity_s@@@Z 10013500 f   Utils.obj
 0001:00012540       ?IsEntityAlive@CUtils@@QAE_NPAUcl_entity_s@@@Z 10013540 f   Utils.obj
 0001:000125c0       ?IsPlayerUpdated@CUtils@@QAE_NPAUcl_entity_s@@@Z 100135c0 f   Utils.obj
 0001:000126c0       ?IsPlayerAlive@CUtils@@QAE_NPAUcl_entity_s@@@Z 100136c0 f   Utils.obj
 0001:00012720       ?IsLocalAlive@CUtils@@QAE_NPAUcl_entity_s@@@Z 10013720 f   Utils.obj
 0001:000127e0       ?UTIL_TextureHit@@YAXVVector@@00HAAUpmtrace_s@@@Z 100137e0 f   Utils.obj
 0001:00012b20       ?FireBullets@CUtils@@QAEHVVector@@0MHHHM@Z 10013b20 f   Utils.obj
 0001:00013650       ?bPathFree@CUtils@@QAE_NPAM0@Z 10014650 f   Utils.obj
 0001:00013710       ?VectorAngles@CUtils@@QAEXPBMPAM@Z 10014710 f   Utils.obj
 0001:00013a70       ?FixMoveStart@CUtils@@QAEXPAUusercmd_s@@@Z 10014a70 f   Utils.obj
 0001:00013b90       ?FixMoveEnd@CUtils@@QAEXPAUusercmd_s@@@Z 10014b90 f   Utils.obj
 0001:00014040       ?MakeAngle@CUtils@@QAEX_NPAMPAUusercmd_s@@@Z 10015040 f   Utils.obj
 0001:00014160       ?StringReplace@CUtils@@QAEXPADPBD1@Z 10015160 f   Utils.obj
 0001:00014260       ?IsBoxIntersectingRay@CUtils@@QAE_NABVVector@@000@Z 10015260 f   Utils.obj
 0001:00014420       ?GetFirstNonSolidPoint@CUtils@@QAEXABVVector@@0AAV2@@Z 10015420 f   Utils.obj
 0001:00014700       ?NormalizeAngles@@YAXPAM@Z 10015700 f   Utils.obj
 0001:00014800       ?IsFreezePeriod@@YA_NXZ    10015800 f   Utils.obj
 0001:00014820       ??0exception@std@@QAE@QBD@Z 10015820 f i Menu.obj
 0001:00014880       ??0runtime_error@std@@QAE@ABV?$basic_string@DU?$char_traits@D@std@@V?$allocator@D@2@@1@@Z 10015880 f i Menu.obj
 0001:000148b0       ??0runtime_error@std@@QAE@ABV01@@Z 100158b0 f i Menu.obj
 0001:000148e0       ??0?$initializer_list@V?$basic_config@Ujson_args@configor@@@configor@@@std@@QAE@PBV?$basic_config@Ujson_args@configor@@@configor@@0@Z 100158e0 f i Pipi_edit.obj
 0001:000148e0       ??0?$initializer_list@D@std@@QAE@PBD0@Z 100158e0 f i Pipi_edit.obj
 0001:000148e0       ??0error_code@std@@QAE@HABVerror_category@1@@Z 100158e0 f i Menu.obj
 0001:000148e0       ??0error_condition@std@@QAE@HABVerror_category@1@@Z 100158e0 f i Menu.obj
 0001:00014910       ?type@?$basic_config@Ujson_args@configor@@@configor@@QBE?AW4config_value_type@2@XZ 10015910 f i Pipi_edit.obj
 0001:00014910       ?begin@?$initializer_list@D@std@@QBEPBDXZ 10015910 f i Pipi_edit.obj
 0001:00014910       ?value@error_condition@std@@QBEHXZ 10015910 f i Menu.obj
 0001:00014910       ?begin@?$initializer_list@V?$basic_config@Ujson_args@configor@@@configor@@@std@@QBEPBV?$basic_config@Ujson_args@configor@@@configor@@XZ 10015910 f i Pipi_edit.obj
 0001:00014910       ?value@error_code@std@@QBEHXZ 10015910 f i Menu.obj
 0001:00014920       ?category@error_condition@std@@QBEABVerror_category@2@XZ 10015920 f i Menu.obj
 0001:00014920       ?end@?$initializer_list@V?$basic_config@Ujson_args@configor@@@configor@@@std@@QBEPBV?$basic_config@Ujson_args@configor@@@configor@@XZ 10015920 f i Pipi_edit.obj
 0001:00014920       ?category@error_code@std@@QBEABVerror_category@2@XZ 10015920 f i Menu.obj
 0001:00014940       ?message@error_code@std@@QBE?AV?$basic_string@DU?$char_traits@D@std@@V?$allocator@D@2@@2@XZ 10015940 f i Menu.obj
 0001:00014990       ??8std@@YA_NABVerror_condition@0@0@Z 10015990 f i Menu.obj
 0001:000149f0       ?default_error_condition@error_category@std@@UBE?AVerror_condition@2@H@Z 100159f0 f i Menu.obj
 0001:00014a10       ?equivalent@error_category@std@@UBE_NHABVerror_condition@2@@Z 10015a10 f i Menu.obj
 0001:00014a50       ?equivalent@error_category@std@@UBE_NABVerror_code@2@H@Z 10015a50 f i Menu.obj
 0001:00014aa0       ?_Makestr@_System_error@std@@CA?AV?$basic_string@DU?$char_traits@D@std@@V?$allocator@D@2@@2@Verror_code@2@V32@@Z 10015aa0 f i Menu.obj
 0001:00014b60       ??0_System_error@std@@IAE@Verror_code@1@ABV?$basic_string@DU?$char_traits@D@std@@V?$allocator@D@2@@1@@Z 10015b60 f i Menu.obj
 0001:00014c10       ??_G_System_error@std@@UAEPAXI@Z 10015c10 f i Menu.obj
 0001:00014c10       ??_E_System_error@std@@UAEPAXI@Z 10015c10 f i * CIL library *:* CIL module *
 0001:00014c40       ??0system_error@std@@QAE@Verror_code@1@PBD@Z 10015c40 f i Menu.obj
 0001:00014cc0       ??_Esystem_error@std@@UAEPAXI@Z 10015cc0 f i * CIL library *:* CIL module *
 0001:00014cc0       ??_Gsystem_error@std@@UAEPAXI@Z 10015cc0 f i Menu.obj
 0001:00014cf0       ??1configor_serialization_error@configor@@UAE@XZ 10015cf0 f i Pipi_edit.obj
 0001:00014cf0       ??1system_error@std@@UAE@XZ 10015cf0 f i Menu.obj
 0001:00014cf0       ??1configor_invalid_key@configor@@UAE@XZ 10015cf0 f i Pipi_edit.obj
 0001:00014cf0       ??1configor_type_error@configor@@UAE@XZ 10015cf0 f i Pipi_edit.obj
 0001:00014d10       ??0system_error@std@@QAE@ABV01@@Z 10015d10 f i Menu.obj
 0001:00014d40       ??0_System_error@std@@QAE@ABV01@@Z 10015d40 f i Menu.obj
 0001:00014d80       ?Init@CMenu@@AAEXXZ        10015d80 f   Menu.obj
 0001:00014e40       ?Run@CMenu@@QAEXXZ         10015e40 f   Menu.obj
 0001:00015170       ?Tabs@CMenu@@AAEXXZ        10016170 f   Menu.obj
 0001:000154b0       ?DrawButton@CMenu@@AAE_NHHPAD@Z 100164b0 f   Menu.obj
 0001:00015760       ?Palette@CMenu@@AAEXHHAAM00@Z 10016760 f   Menu.obj
 0001:00015c30       ?SliderInPallete@CMenu@@AAEXHHMMAAMPAD_N12@Z 10016c30 f   Menu.obj
 0001:00016170       ?Drag@CMenu@@AAEXXZ        10017170 f   Menu.obj
 0001:00016380       ?Checkbox@CMenu@@AAEXHHAA_NPAD@Z 10017380 f   Menu.obj
 0001:000165a0       ?DrawBox@CMenu@@AAEXHHHH@Z 100175a0 f   Menu.obj
 0001:00016650       ?empty@?$basic_string@DU?$char_traits@D@std@@V?$allocator@D@2@@std@@QBE_NXZ 10017650 f i Menu.obj
 0001:00016680       ?append@?$basic_string@DU?$char_traits@D@std@@V?$allocator@D@2@@std@@QAEAAV12@ABV12@@Z 10017680 f i Menu.obj
 0001:000166b0       ??0?$basic_string@DU?$char_traits@D@std@@V?$allocator@D@2@@std@@QAE@$$QAV01@@Z 100176b0 f i Menu.obj
 0001:00016700       ??0?$basic_string@DU?$char_traits@D@std@@V?$allocator@D@2@@std@@QAE@QBDI@Z 10017700 f i Menu.obj
 0001:000167a0       ??0?$basic_string@DU?$char_traits@D@std@@V?$allocator@D@2@@std@@QAE@ABV01@@Z 100177a0 f i Menu.obj
 0001:00016850       ?size@?$basic_string@DU?$char_traits@D@std@@V?$allocator@D@2@@std@@QBEIXZ 10017850 f i Menu.obj
 0001:00016870       ?_Construct_lv_contents@?$basic_string@DU?$char_traits@D@std@@V?$allocator@D@2@@std@@AAEXABV12@@Z 10017870 f i Menu.obj
 0001:00016990       ?_Take_contents@?$basic_string@DU?$char_traits@D@std@@V?$allocator@D@2@@std@@AAEXAAV12@@Z 10017990 f i Menu.obj
 0001:00016a70       ?_Swap_proxy_and_iterators@?$basic_string@DU?$char_traits@D@std@@V?$allocator@D@2@@std@@AAEXAAV12@@Z 10017a70 f i Menu.obj
 0001:00016a90       ?_Memcpy_val_from@?$basic_string@DU?$char_traits@D@std@@V?$allocator@D@2@@std@@AAEXABV12@@Z 10017a90 f i Menu.obj
 0001:00016af0       ??$?0ABV?$allocator@D@std@@$$V@?$_Compressed_pair@V?$allocator@D@std@@V?$_String_val@U?$_Simple_types@D@std@@@2@$00@std@@QAE@U_One_then_variadic_args_t@1@ABV?$allocator@D@1@@Z 10017af0 f i World.obj
 0001:00016af0       ??$?0V?$allocator@D@std@@$$V@?$_Compressed_pair@V?$allocator@D@std@@V?$_String_val@U?$_Simple_types@D@std@@@2@$00@std@@QAE@U_One_then_variadic_args_t@1@$$QAV?$allocator@D@1@@Z 10017af0 f i Menu.obj
 0001:00016b30       ?ShotsFiredCounter@@YAXHPAD@Z 10017b30 f   Sounds.obj
 0001:00017870       ?PreS_DynamicSound@@YAXHKPADPAMMMHH@Z 10018870 f   Sounds.obj
 0001:00017bd0       ?push_back@?$deque@Umy_sound_t@@V?$allocator@Umy_sound_t@@@std@@@std@@QAEXABUmy_sound_t@@@Z 10018bd0 f i Sounds.obj
 0001:00017c00       ??1?$deque@Umy_sound_t@@V?$allocator@Umy_sound_t@@@std@@@std@@QAE@XZ 10018c00 f i Sounds.obj
 0001:00017c70       ?_Tidy@?$deque@Umy_sound_t@@V?$allocator@Umy_sound_t@@@std@@@std@@AAEXXZ 10018c70 f i Sounds.obj
 0001:00017da0       ?pop_back@?$deque@Umy_sound_t@@V?$allocator@Umy_sound_t@@@std@@@std@@QAEXXZ 10018da0 f i Sounds.obj
 0001:00017e80       ?deallocate@?$allocator@Umy_sound_t@@@std@@QAEXQAUmy_sound_t@@I@Z 10018e80 f i Sounds.obj
 0001:00017ea0       ?_Getblock@?$deque@VVector@@V?$allocator@VVector@@@std@@@std@@ABEII@Z 10018ea0 f i Visuals.obj
 0001:00017ea0       ?_Getblock@?$deque@Umy_sound_t@@V?$allocator@Umy_sound_t@@@std@@@std@@ABEII@Z 10018ea0 f i Sounds.obj
 0001:00017ec0       ?_Getblock@?$_Deque_val@U?$_Deque_simple_types@VVector@@@std@@@std@@QBEII@Z 10018ec0 f i Visuals.obj
 0001:00017ec0       ?_Getblock@?$_Deque_val@U?$_Deque_simple_types@Umy_sound_t@@@std@@@std@@QBEII@Z 10018ec0 f i Sounds.obj
 0001:00017ee0       ??$_Emplace_back_internal@ABUmy_sound_t@@@?$deque@Umy_sound_t@@V?$allocator@Umy_sound_t@@@std@@@std@@AAEXABUmy_sound_t@@@Z 10018ee0 f i Sounds.obj
 0001:00018020       ??$destroy@Umy_sound_t@@@?$_Default_allocator_traits@V?$allocator@Umy_sound_t@@@std@@@std@@SAXAAV?$allocator@Umy_sound_t@@@1@QAUmy_sound_t@@@Z 10019020 f i Sounds.obj
 0001:00018030       ??_Gmy_sound_t@@QAEPAXI@Z  10019030 f i Sounds.obj
 0001:00018060       ?_Growmap@?$deque@Umy_sound_t@@V?$allocator@Umy_sound_t@@@std@@@std@@AAEXI@Z 10019060 f i Sounds.obj
 0001:000182c0       ?allocate@?$allocator@Umy_sound_t@@@std@@QAEPAUmy_sound_t@@I@Z 100192c0 f i Sounds.obj
 0001:000182f0       ?max_size@?$deque@Umy_sound_t@@V?$allocator@Umy_sound_t@@@std@@@std@@QBEIXZ 100192f0 f i Sounds.obj
 0001:00018330       ?max_size@?$_Default_allocator_traits@V?$allocator@Umy_sound_t@@@std@@@std@@SAIABV?$allocator@Umy_sound_t@@@2@@Z 10019330 f i Sounds.obj
 0001:00018340       ??$construct@Umy_sound_t@@ABU1@@?$_Default_allocator_traits@V?$allocator@Umy_sound_t@@@std@@@std@@SAXAAV?$allocator@Umy_sound_t@@@1@QAUmy_sound_t@@ABU3@@Z 10019340 f i Sounds.obj
 0001:00018380       ??$_Get_size_of_n@$0BI@@std@@YAII@Z 10019380 f i Sounds.obj
 0001:000183b0       ??0my_sound_t@@QAE@ABU0@@Z 100193b0 f i Sounds.obj
 0001:000183f0       _tanf                      100193f0 f i Visuals.obj
 0001:00018410       __vfprintf_l               10019410 f i Visuals.obj
 0001:00018440       _printf                    10019440 f i Visuals.obj
 0001:00018480       ?Normalize2D@Vector@@QAEMXZ 10019480 f i Visuals.obj
 0001:000184f0       ??9Vector@@QBE_NABV0@@Z    100194f0 f i Visuals.obj
 0001:00018550       ??0grenadetracer_t@@QAE@XZ 10019550 f i Visuals.obj
 0001:00018570       ??1grenadetracer_t@@QAE@XZ 10019570 f i Visuals.obj
 0001:00018590       ?IconInit@CVisuals@@QAEXXZ 10019590 f   Visuals.obj
 0001:000193e0       ?DrawHistory@CVisuals@@AAEXH@Z 1001a3e0 f   Visuals.obj
 0001:00019b20       ?TriggerStatus@@YAXXZ      1001ab20 f   Visuals.obj
 0001:00019d00       ?Run@CVisuals@@QAEXXZ      1001ad00 f   Visuals.obj
 0001:00019f60       ?DrawAimBotFOV@CVisuals@@AAEXXZ 1001af60 f   Visuals.obj
 0001:0001a160       ?RemoveScope@CVisuals@@AAEXXZ 1001b160 f   Visuals.obj
 0001:0001a1e0       ?CustomFOV@CVisuals@@AAEXXZ 1001b1e0 f   Visuals.obj
 0001:0001a280       ?PenetrationInfo@CVisuals@@AAEXXZ 1001b280 f   Visuals.obj
 0001:0001a730       ?Crosshair@CVisuals@@AAEXXZ 1001b730 f   Visuals.obj
 0001:0001a940       ?TraceGrenade@CVisuals@@AAEXXZ 1001b940 f   Visuals.obj
 0001:0001b2a0       ?SoundESP@CVisuals@@AAEXXZ 1001c2a0 f   Visuals.obj
 0001:0001b5f0       ?PlayerESP@CVisuals@@AAEXI@Z 1001c5f0 f   Visuals.obj
 0001:0001be30       ?Debug@CVisuals@@AAEXXZ    1001ce30 f   Visuals.obj
 0001:0001c0d0       ?FindPoint@@YAXPAMHHH@Z    1001d0d0 f   Visuals.obj
 0001:0001c200       ?WorldToScreen@@YA_NPAM0AA_N@Z 1001d200 f   Visuals.obj
 0001:0001c390       ?ScreenESP@CVisuals@@AAEXIEEEE@Z 1001d390 f   Visuals.obj
 0001:0001c5c0       ?UTIL_EntityInSphere@@YA_NPAUcl_entity_s@@VVector@@M@Z 1001d5c0 f   Visuals.obj
 0001:0001c700       ?GetAmountOfPlayerVisible@@YAMVVector@@PAUcl_entity_s@@@Z 1001d700 f   Visuals.obj
 0001:0001cda0       ?Bomb@CVisuals@@AAEXXZ     1001dda0 f   Visuals.obj
 0001:0001d080       ?Lightmap@CVisuals@@QAEXXZ 1001e080 f   Visuals.obj
 0001:0001d2e0       ?DrawFake@CVisuals@@AAEXHH@Z 1001e2e0 f   Visuals.obj
 0001:0001d760       ?DrawEntities@CVisuals@@AAEXXZ 1001e760 f   Visuals.obj
 0001:0001e470       ??D?$_Deque_unchecked_iterator@V?$_Deque_val@U?$_Deque_simple_types@Umy_sound_t@@@std@@@std@@@std@@QBEAAUmy_sound_t@@XZ 1001f470 f i Visuals.obj
 0001:0001e490       ?pop_front@?$deque@Umy_sound_t@@V?$allocator@Umy_sound_t@@@std@@@std@@QAEXXZ 1001f490 f i Visuals.obj
 0001:0001e570       ?front@?$deque@Umy_sound_t@@V?$allocator@Umy_sound_t@@@std@@@std@@QAEAAUmy_sound_t@@XZ 1001f570 f i Visuals.obj
 0001:0001e590       ?clear@?$deque@VVector@@V?$allocator@VVector@@@std@@@std@@QAEXXZ 1001f590 f i Visuals.obj
 0001:0001e5b0       ?push_back@?$deque@VVector@@V?$allocator@VVector@@@std@@@std@@QAEXABVVector@@@Z 1001f5b0 f i Visuals.obj
 0001:0001e5e0       ??A?$deque@VVector@@V?$allocator@VVector@@@std@@@std@@QAEAAVVector@@I@Z 1001f5e0 f i Visuals.obj
 0001:0001e620       ??1?$deque@VVector@@V?$allocator@VVector@@@std@@@std@@QAE@XZ 1001f620 f i Visuals.obj
 0001:0001e690       ??D?$_Deque_unchecked_iterator@V?$_Deque_val@U?$_Deque_simple_types@VVector@@@std@@@std@@@std@@QBEAAVVector@@XZ 1001f690 f i Visuals.obj
 0001:0001e6b0       ??D?$_Deque_unchecked_const_iterator@V?$_Deque_val@U?$_Deque_simple_types@Umy_sound_t@@@std@@@std@@@std@@QBEABUmy_sound_t@@XZ 1001f6b0 f i Visuals.obj
 0001:0001e700       ?_Tidy@?$deque@VVector@@V?$allocator@VVector@@@std@@@std@@AAEXXZ 1001f700 f i Visuals.obj
 0001:0001e830       ??D?$_Deque_unchecked_const_iterator@V?$_Deque_val@U?$_Deque_simple_types@VVector@@@std@@@std@@@std@@QBEABVVector@@XZ 1001f830 f i Visuals.obj
 0001:0001e880       ?pop_back@?$deque@VVector@@V?$allocator@VVector@@@std@@@std@@QAEXXZ 1001f880 f i Visuals.obj
 0001:0001e960       ?deallocate@?$allocator@VVector@@@std@@QAEXQAVVector@@I@Z 1001f960 f i Visuals.obj
 0001:0001e980       ??$pow@MH$0A@@@YANMH@Z     1001f980 f i Visuals.obj
 0001:0001e9b0       ??$_Emplace_back_internal@ABVVector@@@?$deque@VVector@@V?$allocator@VVector@@@std@@@std@@AAEXABVVector@@@Z 1001f9b0 f i Visuals.obj
 0001:0001eaf0       ??$destroy@VVector@@@?$_Default_allocator_traits@V?$allocator@VVector@@@std@@@std@@SAXAAV?$allocator@VVector@@@1@QAVVector@@@Z 1001faf0 f i Visuals.obj
 0001:0001eb00       ??_GVector@@QAEPAXI@Z      1001fb00 f i Visuals.obj
 0001:0001eb30       ?_Growmap@?$deque@VVector@@V?$allocator@VVector@@@std@@@std@@AAEXI@Z 1001fb30 f i Visuals.obj
 0001:0001ed90       ?allocate@?$allocator@VVector@@@std@@QAEPAVVector@@I@Z 1001fd90 f i Visuals.obj
 0001:0001edc0       ?max_size@?$deque@VVector@@V?$allocator@VVector@@@std@@@std@@QBEIXZ 1001fdc0 f i Visuals.obj
 0001:0001ee00       ?max_size@?$_Default_allocator_traits@V?$allocator@VVector@@@std@@@std@@SAIABV?$allocator@VVector@@@2@@Z 1001fe00 f i Visuals.obj
 0001:0001ee10       ??$construct@VVector@@ABV1@@?$_Default_allocator_traits@V?$allocator@VVector@@@std@@@std@@SAXAAV?$allocator@VVector@@@1@QAVVector@@ABV3@@Z 1001fe10 f i Visuals.obj
 0001:0001ee50       ??$_Get_size_of_n@$0M@@std@@YAII@Z 1001fe50 f i Visuals.obj
 0001:0001ee80       ?PM_FindTextureType@@YADPAD@Z 1001fe80 f   Textures.obj
 0001:0001ef10       ?GetTextureType@@YADPAUpmtrace_s@@PAM1@Z 1001ff10 f   Textures.obj
 0001:0001f060       ?PM_SwapTextures@@YAXHH@Z  10020060 f   Textures.obj
 0001:0001f170       ?PM_SortTextures@@YAXXZ    10020170 f   Textures.obj
 0001:0001f1f0       ?PM_InitTextureTypes@@YAXPAUplayermove_s@@@Z 100201f0 f   Textures.obj
 0001:0001f5b0       ?ResetAccuracy@@YAXXZ      100205b0 f   Weapons.obj
 0001:0001f6d0       ?UpdateWeaponData@@YAXXZ   100206d0 f   Weapons.obj
 0001:00020fb0       ?Reload@@YAXXZ             10021fb0 f   Weapons.obj
 0001:00020fc0       ?Simulate@@YAXAAM0@Z       10021fc0 f   Weapons.obj
 0001:000226f0       ?PrimaryAttack@@YAXXZ      100236f0 f   Weapons.obj
 0001:000231a0       ?ItemPostFrame@@YAXPAUusercmd_s@@@Z 100241a0 f   Weapons.obj
 0001:000232d0       ?ItemPreFrame@@YAXPAUlocal_state_s@@0PAUusercmd_s@@HNI@Z 100242d0 f   Weapons.obj
 0001:000233f0       ?IsCurWeaponSilenced@@YA_NXZ 100243f0 f   Weapons.obj
 0001:00023430       ?IsCurWeaponInBurst@@YA_NXZ 10024430 f   Weapons.obj
 0001:00023470       ?CurPenetration@@YAHXZ     10024470 f   Weapons.obj
 0001:00023480       ?CurBulletType@@YAHXZ      10024480 f   Weapons.obj
 0001:00023490       ?CurDistance@@YAMXZ        10024490 f   Weapons.obj
 0001:000234a0       ?CurWallPierce@@YAMXZ      100244a0 f   Weapons.obj
 0001:000234d0       ?CurDamage@@YAHXZ          100244d0 f   Weapons.obj
 0001:00023520       ?IsCurWeaponKnife@@YA_NXZ  10024520 f   Weapons.obj
 0001:00023540       ?IsCurWeaponSniper@@YA_NXZ 10024540 f   Weapons.obj
 0001:000235a0       ?IsCurWeaponPistol@@YA_NXZ 100245a0 f   Weapons.obj
 0001:00023600       ?IsCurWeaponGun@@YA_NXZ    10024600 f   Weapons.obj
 0001:00023630       ?IsCurWeaponNonAttack@@YA_NXZ 10024630 f   Weapons.obj
 0001:00023660       ?IsCurWeaponNade@@YA_NXZ   10024660 f   Weapons.obj
 0001:00023690       ?CanAttack@@YA_NXZ         10024690 f   Weapons.obj
 0001:000236d0       __vsprintf_l               100246d0 f i World.obj
 0001:000236f0       _sprintf                   100246f0 f i World.obj
 0001:00023730       ?make_error_code@std@@YA?AVerror_code@1@W4io_errc@1@@Z 10024730 f i World.obj
 0001:00023750       ?name@_Iostream_error_category2@std@@UBEPBDXZ 10024750 f i World.obj
 0001:00023760       ?message@_Iostream_error_category2@std@@UBE?AV?$basic_string@DU?$char_traits@D@std@@V?$allocator@D@2@@2@H@Z 10024760 f i World.obj
 0001:000237d0       ??_E_Iostream_error_category2@std@@UAEPAXI@Z 100247d0 f i * CIL library *:* CIL module *
 0001:000237d0       ??_G_Iostream_error_category2@std@@UAEPAXI@Z 100247d0 f i World.obj
 0001:00023800       ?iostream_category@std@@YAABVerror_category@1@XZ 10024800 f i World.obj
 0001:00023810       ??0bad_cast@std@@QAE@XZ    10024810 f i World.obj
 0001:00023840       ?_Throw_bad_cast@std@@YAXXZ 10024840 f i World.obj
 0001:00023860       ??0bad_cast@std@@QAE@ABV01@@Z 10024860 f i World.obj
 0001:00023890       ??1_Facet_base@std@@UAE@XZ 10024890 f i World.obj
 0001:000238b0       ??_E_Facet_base@std@@UAEPAXI@Z 100248b0 f i * CIL library *:* CIL module *
 0001:000238b0       ??_G_Facet_base@std@@UAEPAXI@Z 100248b0 f i World.obj
 0001:000238e0       ??0_Locinfo@std@@QAE@PBD@Z 100248e0 f i World.obj
 0001:000239b0       ??1_Locinfo@std@@QAE@XZ    100249b0 f i World.obj
 0001:00023a40       ?_Getctype@_Locinfo@std@@QBE?AU_Ctypevec@@XZ 10024a40 f i World.obj
 0001:00023a90       ??0id@locale@std@@QAE@I@Z  10024a90 f i World.obj
 0001:00023a90       ??0<lambda_59a2c67489030a4876926c40fd567950>@@QAE@QAV?$basic_config@Ujson_args@configor@@@configor@@@Z 10024a90 f i Pipi_edit.obj
 0001:00023ab0       ??Bid@locale@std@@QAEIXZ   10024ab0 f i World.obj
 0001:00023b20       ?_Incref@facet@locale@std@@UAEXXZ 10024b20 f i World.obj
 0001:00023b40       ?_Decref@facet@locale@std@@UAEPAV_Facet_base@3@XZ 10024b40 f i World.obj
 0001:00023b70       ??0facet@locale@std@@IAE@I@Z 10024b70 f i World.obj
 0001:00023ba0       ??1facet@locale@std@@MAE@XZ 10024ba0 f i World.obj
 0001:00023bc0       ??0locale@std@@QAE@ABV01@@Z 10024bc0 f i World.obj
 0001:00023bf0       ??0locale@std@@QAE@XZ      10024bf0 f i World.obj
 0001:00023c40       ??1locale@std@@QAE@XZ      10024c40 f i World.obj
 0001:00023c90       ?c_str@locale@std@@QBEPBDXZ 10024c90 f i World.obj
 0001:00023cd0       ?_Getfacet@locale@std@@QBEPBVfacet@12@I@Z 10024cd0 f i World.obj
 0001:00023d50       ??_Efacet@locale@std@@MAEPAXI@Z 10024d50 f i * CIL library *:* CIL module *
 0001:00023d50       ??_Gfacet@locale@std@@MAEPAXI@Z 10024d50 f i World.obj
 0001:00023d80       ??0_Facet_base@std@@QAE@XZ 10024d80 f i World.obj
 0001:00023da0       ??0codecvt_base@std@@QAE@I@Z 10024da0 f i World.obj
 0001:00023dd0       ?decimal_point@?$numpunct@D@std@@QBEDXZ 10024dd0 f i Pipi_edit.obj
 0001:00023dd0       ?always_noconv@codecvt_base@std@@QBE_NXZ 10024dd0 f i World.obj
 0001:00023df0       ??1codecvt_base@std@@UAE@XZ 10024df0 f i World.obj
 0001:00023e10       ?do_always_noconv@codecvt_base@std@@MBE_NXZ 10024e10 f i World.obj
 0001:00023e20       ?do_max_length@codecvt_base@std@@MBEHXZ 10024e20 f i World.obj
 0001:00023e20       ?do_encoding@codecvt_base@std@@MBEHXZ 10024e20 f i World.obj
 0001:00023e30       ??_Gcodecvt_base@std@@UAEPAXI@Z 10024e30 f i World.obj
 0001:00023e30       ??_Ecodecvt_base@std@@UAEPAXI@Z 10024e30 f i * CIL library *:* CIL module *
 0001:00023e60       ??0ctype_base@std@@QAE@I@Z 10024e60 f i World.obj
 0001:00023e90       ??1ctype_base@std@@UAE@XZ  10024e90 f i World.obj
 0001:00023eb0       ??_Gctype_base@std@@UAEPAXI@Z 10024eb0 f i World.obj
 0001:00023eb0       ??_Ectype_base@std@@UAEPAXI@Z 10024eb0 f i * CIL library *:* CIL module *
 0001:00023ee0       ?widen@?$ctype@D@std@@QBEDD@Z 10024ee0 f i World.obj
 0001:00023f00       ??0?$ctype@D@std@@QAE@ABV_Locinfo@1@I@Z 10024f00 f i World.obj
 0001:00023f70       ?_Getcat@?$ctype@D@std@@SAIPAPBVfacet@locale@2@PBV42@@Z 10024f70 f i World.obj
 0001:00024060       ??1?$ctype@D@std@@MAE@XZ   10025060 f i World.obj
 0001:00024090       ?_Init@?$ctype@D@std@@IAEXABV_Locinfo@2@@Z 10025090 f i World.obj
 0001:000240d0       ?_Tidy@?$ctype@D@std@@IAEXXZ 100250d0 f i World.obj
 0001:00024130       ?do_tolower@?$ctype@D@std@@MBEDD@Z 10025130 f i World.obj
 0001:00024160       ?do_tolower@?$ctype@D@std@@MBEPBDPADPBD@Z 10025160 f i World.obj
 0001:000241b0       ?do_toupper@?$ctype@D@std@@MBEDD@Z 100251b0 f i World.obj
 0001:000241e0       ?do_toupper@?$ctype@D@std@@MBEPBDPADPBD@Z 100251e0 f i World.obj
 0001:00024230       ?do_widen@?$ctype@D@std@@MBEDD@Z 10025230 f i World.obj
 0001:00024240       ?do_widen@?$ctype@D@std@@MBEPBDPBD0PAD@Z 10025240 f i World.obj
 0001:00024280       ?do_narrow@?$ctype@D@std@@MBEDDD@Z 10025280 f i World.obj
 0001:00024290       ?do_narrow@?$ctype@D@std@@MBEPBDPBD0DPAD@Z 10025290 f i World.obj
 0001:000242d0       ??_G?$ctype@D@std@@MAEPAXI@Z 100252d0 f i World.obj
 0001:000242d0       ??_E?$ctype@D@std@@MAEPAXI@Z 100252d0 f i * CIL library *:* CIL module *
 0001:00024300       ??0failure@ios_base@std@@QAE@PBDABVerror_code@2@@Z 10025300 f i World.obj
 0001:00024330       ?clear@ios_base@std@@QAEXH_N@Z 10025330 f i World.obj
 0001:000243d0       ?clear@ios_base@std@@QAEXH@Z 100253d0 f i World.obj
 0001:000243f0       ?rdstate@ios_base@std@@QBEHXZ 100253f0 f i World.obj
 0001:00024410       ?getloc@ios_base@std@@QBE?AVlocale@2@XZ 10025410 f i World.obj
 0001:00024450       ??1ios_base@std@@UAE@XZ    10025450 f i World.obj
 0001:000244a0       ??0ios_base@std@@IAE@XZ    100254a0 f i World.obj
 0001:000244e0       ?_Init@ios_base@std@@IAEXXZ 100254e0 f i World.obj
 0001:00024590       ??_Efailure@ios_base@std@@UAEPAXI@Z 10025590 f i * CIL library *:* CIL module *
 0001:00024590       ??_Gfailure@ios_base@std@@UAEPAXI@Z 10025590 f i World.obj
 0001:000245c0       ??1failure@ios_base@std@@UAE@XZ 100255c0 f i World.obj
 0001:000245e0       ??0failure@ios_base@std@@QAE@ABV012@@Z 100255e0 f i World.obj
 0001:00024610       ??_Gios_base@std@@UAEPAXI@Z 10025610 f i World.obj
 0001:00024610       ??_Eios_base@std@@UAEPAXI@Z 10025610 f i * CIL library *:* CIL module *
 0001:00024640       ??$_Fgetc@D@std@@YA_NAADPAU_iobuf@@@Z 10025640 f i World.obj
 0001:00024670       ??$_Fputc@D@std@@YA_NDPAU_iobuf@@@Z 10025670 f i World.obj
 0001:000246b0       ??$_Ungetc@D@std@@YA_NABDPAU_iobuf@@@Z 100256b0 f i World.obj
 0001:000246f0       ??0CBaseLocal@@QAE@XZ      100256f0 f i World.obj
 0001:000247f0       ??1CBaseLocal@@QAE@XZ      100257f0 f i World.obj
 0001:00024890       ??0CBasePlayer@@QAE@XZ     10025890 f i World.obj
 0001:00024910       ??1CBasePlayer@@QAE@XZ     10025910 f i World.obj
 0001:00024950       ??0CBaseEntity@@QAE@XZ     10025950 f i World.obj
 0001:00024970       ??1CBaseEntity@@QAE@XZ     10025970 f i World.obj
 0001:00024990       ??0player_extra_info_t@@QAE@XZ 10025990 f i World.obj
 0001:00024a60       ??1player_extra_info_t@@QAE@XZ 10025a60 f i World.obj
 0001:00024b10       ?MyVectorTransform@@YAXVVector@@QAY03MPAMHM@Z 10025b10 f   World.obj
 0001:00024ca0       ?GetHitboxes@CWorld@@QAEXPAUcl_entity_s@@@Z 10025ca0 f   World.obj
 0001:00025d40       ?UpdateLocalPlayer@CWorld@@QAEXMPAUusercmd_s@@@Z 10026d40 f   World.obj
 0001:00026210       ?UpdateEntities@CWorld@@QAEXXZ 10027210 f   World.obj
 0001:00026850       ?UpdatePlayers@CWorld@@QAEXXZ 10027850 f   World.obj
 0001:00026e50       ?UpdateVisibility@CWorld@@QAEXH@Z 10027e50 f   World.obj
 0001:00027af0       ?ClearLocalPlayer@CWorld@@QAEXXZ 10028af0 f   World.obj
 0001:00027b10       ?ClearPlayers@CWorld@@QAEXXZ 10028b10 f   World.obj
 0001:00027b60       ?ClearEntities@CWorld@@QAEXXZ 10028b60 f   World.obj
 0001:00027b90       ?ClearMapInfo@CWorld@@QAEXXZ 10028b90 f   World.obj
 0001:00027bb0       ?Reset@CWorld@@QAEXXZ      10028bb0 f   World.obj
 0001:00027be0       ?Update@CWorld@@QAEXMPAUusercmd_s@@@Z 10028be0 f   World.obj
 0001:00027c20       ?UpdateMapInfo@CWorld@@QAEXXZ 10028c20 f   World.obj
 0001:00028020       ??_D?$basic_ifstream@DU?$char_traits@D@std@@@std@@QAEXXZ 10029020 f i World.obj
 0001:00028050       ??0?$istreambuf_iterator@DU?$char_traits@D@std@@@std@@QAE@AAV?$basic_istream@DU?$char_traits@D@std@@@1@@Z 10029050 f i World.obj
 0001:000280d0       ??0?$istreambuf_iterator@DU?$char_traits@D@std@@@std@@QAE@XZ 100290d0 f i World.obj
 0001:00028100       ?imbue@?$basic_filebuf@DU?$char_traits@D@std@@@std@@MAEXABVlocale@2@@Z 10029100 f i World.obj
 0001:00028130       ?sync@?$basic_filebuf@DU?$char_traits@D@std@@@std@@MAEHXZ 10029130 f i World.obj
 0001:000281a0       ?setbuf@?$basic_filebuf@DU?$char_traits@D@std@@@std@@MAEPAV?$basic_streambuf@DU?$char_traits@D@std@@@2@PAD_J@Z 100291a0 f i World.obj
 0001:00028220       ?seekpos@?$basic_filebuf@DU?$char_traits@D@std@@@std@@MAE?AV?$fpos@U_Mbstatet@@@2@V32@H@Z 10029220 f i World.obj
 0001:000282e0       ?seekoff@?$basic_filebuf@DU?$char_traits@D@std@@@std@@MAE?AV?$fpos@U_Mbstatet@@@2@_JHH@Z 100292e0 f i World.obj
 0001:000283d0       ?xsputn@?$basic_filebuf@DU?$char_traits@D@std@@@std@@MAE_JPBD_J@Z 100293d0 f i World.obj
 0001:000284f0       ?xsgetn@?$basic_filebuf@DU?$char_traits@D@std@@@std@@MAE_JPAD_J@Z 100294f0 f i World.obj
 0001:00028670       ?uflow@?$basic_filebuf@DU?$char_traits@D@std@@@std@@MAEHXZ 10029670 f i World.obj
 0001:000288e0       ?underflow@?$basic_filebuf@DU?$char_traits@D@std@@@std@@MAEHXZ 100298e0 f i World.obj
 0001:00028990       ?pbackfail@?$basic_filebuf@DU?$char_traits@D@std@@@std@@MAEHH@Z 10029990 f i World.obj
 0001:00028ae0       ?overflow@?$basic_filebuf@DU?$char_traits@D@std@@@std@@MAEHH@Z 10029ae0 f i World.obj
 0001:00028cc0       ?to_char_type@?$_Narrow_char_traits@DH@std@@SADABH@Z 10029cc0 f i World.obj
 0001:00028cd0       ?_Unlock@?$basic_filebuf@DU?$char_traits@D@std@@@std@@UAEXXZ 10029cd0 f i World.obj
 0001:00028d00       ?_Lock@?$basic_filebuf@DU?$char_traits@D@std@@@std@@UAEXXZ 10029d00 f i World.obj
 0001:00028d30       ??1?$basic_filebuf@DU?$char_traits@D@std@@@std@@UAE@XZ 10029d30 f i World.obj
 0001:00028da0       ?sync@?$basic_streambuf@DU?$char_traits@D@std@@@std@@MAEHXZ 10029da0 f i World.obj
 0001:00028db0       ?setbuf@?$basic_streambuf@DU?$char_traits@D@std@@@std@@MAEPAV12@PAD_J@Z 10029db0 f i World.obj
 0001:00028dc0       ?seekpos@?$basic_streambuf@DU?$char_traits@D@std@@@std@@MAE?AV?$fpos@U_Mbstatet@@@2@V32@H@Z 10029dc0 f i World.obj
 0001:00028de0       ?seekoff@?$basic_streambuf@DU?$char_traits@D@std@@@std@@MAE?AV?$fpos@U_Mbstatet@@@2@_JHH@Z 10029de0 f i World.obj
 0001:00028e00       ?xsputn@?$basic_streambuf@DU?$char_traits@D@std@@@std@@MAE_JPBD_J@Z 10029e00 f i World.obj
 0001:00028f20       ?xsgetn@?$basic_streambuf@DU?$char_traits@D@std@@@std@@MAE_JPAD_J@Z 10029f20 f i World.obj
 0001:00029050       ?uflow@?$basic_streambuf@DU?$char_traits@D@std@@@std@@MAEHXZ 1002a050 f i World.obj
 0001:000290b0       ?underflow@?$basic_streambuf@DU?$char_traits@D@std@@@std@@MAEHXZ 1002a0b0 f i World.obj
 0001:000290c0       ?showmanyc@?$basic_streambuf@DU?$char_traits@D@std@@@std@@MAE_JXZ 1002a0c0 f i World.obj
 0001:000290d0       ?overflow@?$basic_streambuf@DU?$char_traits@D@std@@@std@@MAEHH@Z 1002a0d0 f i World.obj
 0001:000290d0       ?pbackfail@?$basic_streambuf@DU?$char_traits@D@std@@@std@@MAEHH@Z 1002a0d0 f i World.obj
 0001:000290f0       ??1?$basic_streambuf@DU?$char_traits@D@std@@@std@@UAE@XZ 1002a0f0 f i World.obj
 0001:00029130       ??1?$basic_ifstream@DU?$char_traits@D@std@@@std@@UAE@XZ 1002a130 f i World.obj
 0001:00029190       ??0?$basic_ifstream@DU?$char_traits@D@std@@@std@@QAE@PBDHH@Z 1002a190 f i World.obj
 0001:000292a0       ??1?$basic_istream@DU?$char_traits@D@std@@@std@@UAE@XZ 1002a2a0 f i World.obj
 0001:000292e0       ??1?$basic_ios@DU?$char_traits@D@std@@@std@@UAE@XZ 1002a2e0 f i World.obj
 0001:00029300       ??1?$_Yarn@D@std@@QAE@XZ   1002a300 f i World.obj
 0001:00029300       ??1?$_Yarn@_W@std@@QAE@XZ  1002a300 f i World.obj
 0001:00029320       ??0?$_Yarn@_W@std@@QAE@XZ  1002a320 f i World.obj
 0001:00029340       ?c_str@?$_Yarn@D@std@@QBEPBDXZ 1002a340 f i World.obj
 0001:00029370       ??0?$_Yarn@D@std@@QAE@XZ   1002a370 f i World.obj
 0001:00029390       ?substr@?$basic_string@DU?$char_traits@D@std@@V?$allocator@D@2@@std@@QBE?AV12@II@Z 1002a390 f i World.obj
 0001:000293e0       ?find@?$basic_string@DU?$char_traits@D@std@@V?$allocator@D@2@@std@@QBEIQBDI@Z 1002a3e0 f i World.obj
 0001:00029420       ??0?$basic_string@DU?$char_traits@D@std@@V?$allocator@D@2@@std@@QAE@XZ 1002a420 f i World.obj
 0001:00029460       ??_E?$basic_filebuf@DU?$char_traits@D@std@@@std@@UAEPAXI@Z 1002a460 f i * CIL library *:* CIL module *
 0001:00029460       ??_G?$basic_filebuf@DU?$char_traits@D@std@@@std@@UAEPAXI@Z 1002a460 f i World.obj
 0001:00029490       ??_E?$basic_streambuf@DU?$char_traits@D@std@@@std@@UAEPAXI@Z 1002a490 f i * CIL library *:* CIL module *
 0001:00029490       ??_G?$basic_streambuf@DU?$char_traits@D@std@@@std@@UAEPAXI@Z 1002a490 f i World.obj
 0001:000294c0       ??_Glocale@std@@QAEPAXI@Z  1002a4c0 f i World.obj
 0001:000294f0       ??_G?$basic_ifstream@DU?$char_traits@D@std@@@std@@UAEPAXI@Z 1002a4f0 f i World.obj
 0001:000294f0       ??_E?$basic_ifstream@DU?$char_traits@D@std@@@std@@UAEPAXI@Z 1002a4f0 f i * CIL library *:* CIL module *
 0001:00029530       ??_E?$basic_istream@DU?$char_traits@D@std@@@std@@UAEPAXI@Z 1002a530 f i * CIL library *:* CIL module *
 0001:00029530       ??_G?$basic_istream@DU?$char_traits@D@std@@@std@@UAEPAXI@Z 1002a530 f i World.obj
 0001:00029570       ??_G?$basic_ios@DU?$char_traits@D@std@@@std@@UAEPAXI@Z 1002a570 f i World.obj
 0001:00029570       ??_E?$basic_ios@DU?$char_traits@D@std@@@std@@UAEPAXI@Z 1002a570 f i * CIL library *:* CIL module *
 0001:000295a0       ??_D?$basic_istream@DU?$char_traits@D@std@@@std@@QAEXXZ 1002a5a0 f i World.obj
 0001:000295d0       ?do_length@?$codecvt@DDU_Mbstatet@@@std@@MBEHAAU_Mbstatet@@PBD1I@Z 1002a5d0 f i World.obj
 0001:00029630       ?do_unshift@?$codecvt@DDU_Mbstatet@@@std@@MBEHAAU_Mbstatet@@PAD1AAPAD@Z 1002a630 f i World.obj
 0001:00029650       ?do_out@?$codecvt@DDU_Mbstatet@@@std@@MBEHAAU_Mbstatet@@PBD1AAPBDPAD3AAPAD@Z 1002a650 f i World.obj
 0001:00029650       ?do_in@?$codecvt@DDU_Mbstatet@@@std@@MBEHAAU_Mbstatet@@PBD1AAPBDPAD3AAPAD@Z 1002a650 f i World.obj
 0001:00029680       ?do_always_noconv@?$codecvt@DDU_Mbstatet@@@std@@MBE_NXZ 1002a680 f i World.obj
 0001:00029690       ??1?$codecvt@DDU_Mbstatet@@@std@@MAE@XZ 1002a690 f i World.obj
 0001:000296b0       ?out@?$codecvt@DDU_Mbstatet@@@std@@QBEHAAU_Mbstatet@@PBD1AAPBDPAD3AAPAD@Z 1002a6b0 f i World.obj
 0001:000296f0       ?in@?$codecvt@DDU_Mbstatet@@@std@@QBEHAAU_Mbstatet@@PBD1AAPBDPAD3AAPAD@Z 1002a6f0 f i World.obj
 0001:00029730       ??B?$fpos@U_Mbstatet@@@std@@QBE_JXZ 1002a730 f i World.obj
 0001:00029760       ?state@?$fpos@U_Mbstatet@@@std@@QBE?AU_Mbstatet@@XZ 1002a760 f i World.obj
 0001:00029790       ??0?$fpos@U_Mbstatet@@@std@@QAE@U_Mbstatet@@_J@Z 1002a790 f i World.obj
 0001:000297d0       ??0?$fpos@U_Mbstatet@@@std@@QAE@_J@Z 1002a7d0 f i World.obj
 0001:00029810       ?_Set_back@?$basic_filebuf@DU?$char_traits@D@std@@@std@@AAEXXZ 1002a810 f i World.obj
 0001:00029870       ?_Reset_back@?$basic_filebuf@DU?$char_traits@D@std@@@std@@AAEXXZ 1002a870 f i World.obj
 0001:000298b0       ?_Initcvt@?$basic_filebuf@DU?$char_traits@D@std@@@std@@IAEXABV?$codecvt@DDU_Mbstatet@@@2@@Z 1002a8b0 f i World.obj
 0001:00029900       ?_Endwrite@?$basic_filebuf@DU?$char_traits@D@std@@@std@@IAE_NXZ 1002a900 f i World.obj
 0001:00029a20       ?_Init@?$basic_filebuf@DU?$char_traits@D@std@@@std@@IAEXPAU_iobuf@@W4_Initfl@12@@Z 1002aa20 f i World.obj
 0001:00029b00       ?close@?$basic_filebuf@DU?$char_traits@D@std@@@std@@QAEPAV12@XZ 1002ab00 f i World.obj
 0001:00029b70       ?open@?$basic_filebuf@DU?$char_traits@D@std@@@std@@QAEPAV12@PBDHH@Z 1002ab70 f i World.obj
 0001:00029c30       ??0?$basic_filebuf@DU?$char_traits@D@std@@@std@@QAE@XZ 1002ac30 f i World.obj
 0001:00029ca0       ?_Pnavail@?$basic_streambuf@DU?$char_traits@D@std@@@std@@IBE_JXZ 1002aca0 f i World.obj
 0001:00029cd0       ?_Pninc@?$basic_streambuf@DU?$char_traits@D@std@@@std@@IAEPADXZ 1002acd0 f i World.obj
 0001:00029d20       ?pbump@?$basic_streambuf@DU?$char_traits@D@std@@@std@@IAEXH@Z 1002ad20 f i World.obj
 0001:00029d60       ?_Gnavail@?$basic_streambuf@DU?$char_traits@D@std@@@std@@IBE_JXZ 1002ad60 f i World.obj
 0001:00029d90       ?_Gninc@?$basic_streambuf@DU?$char_traits@D@std@@@std@@IAEPADXZ 1002ad90 f i World.obj
 0001:00029de0       ?_Gndec@?$basic_streambuf@DU?$char_traits@D@std@@@std@@IAEPADXZ 1002ade0 f i World.obj
 0001:00029e20       ?epptr@?$basic_streambuf@DU?$char_traits@D@std@@@std@@IBEPADXZ 1002ae20 f i World.obj
 0001:00029e40       ?gbump@?$basic_streambuf@DU?$char_traits@D@std@@@std@@IAEXH@Z 1002ae40 f i World.obj
 0001:00029e80       ?egptr@?$basic_streambuf@DU?$char_traits@D@std@@@std@@IBEPADXZ 1002ae80 f i World.obj
 0001:00029ea0       ?pptr@?$basic_streambuf@DU?$char_traits@D@std@@@std@@IBEPADXZ 1002aea0 f i World.obj
 0001:00029ec0       ?gptr@?$basic_streambuf@DU?$char_traits@D@std@@@std@@IBEPADXZ 1002aec0 f i World.obj
 0001:00029ee0       ?eback@?$basic_streambuf@DU?$char_traits@D@std@@@std@@IBEPADXZ 1002aee0 f i World.obj
 0001:00029f00       ??0?$basic_istream@DU?$char_traits@D@std@@@std@@QAE@PAV?$basic_streambuf@DU?$char_traits@D@std@@@1@_N@Z 1002af00 f i World.obj
 0001:00029fd0       ??0?$basic_ios@DU?$char_traits@D@std@@@std@@IAE@XZ 1002afd0 f i World.obj
 0001:00029ff0       ?rdbuf@?$basic_ios@DU?$char_traits@D@std@@@std@@QBEPAV?$basic_streambuf@DU?$char_traits@D@std@@@2@XZ 1002aff0 f i World.obj
 0001:0002a010       ?setstate@?$basic_ios@DU?$char_traits@D@std@@@std@@QAEXH_N@Z 1002b010 f i World.obj
 0001:0002a040       ?_Tidy@?$_Yarn@D@std@@AAEXXZ 1002b040 f i World.obj
 0001:0002a040       ?_Tidy@?$_Yarn@_W@std@@AAEXXZ 1002b040 f i World.obj
 0001:0002a070       ?get_allocator@?$basic_string@DU?$char_traits@D@std@@V?$allocator@D@2@@std@@QBE?AV?$allocator@D@2@XZ 1002b070 f i World.obj
 0001:0002a070       ?key_comp@?$_Tree@V?$_Tmap_traits@V?$basic_string@DU?$char_traits@D@std@@V?$allocator@D@2@@std@@V?$basic_config@Ujson_args@configor@@@configor@@U?$less@V?$basic_string@DU?$char_traits@D@std@@V?$allocator@D@2@@std@@@2@V?$allocator@U?$pair@$$CBV?$basic_string@DU?$char_traits@D@std@@V?$allocator@D@2@@std@@V?$basic_config@Ujson_args@configor@@@configor@@@std@@@2@$0A@@std@@@std@@QBE?AU?$less@V?$basic_string@DU?$char_traits@D@std@@V?$allocator@D@2@@std@@@2@XZ 1002b070 f i Pipi_edit.obj
 0001:0002a090       ?front@?$basic_string@DU?$char_traits@D@std@@V?$allocator@D@2@@std@@QAEAADXZ 1002b090 f i World.obj
 0001:0002a0b0       ?push_back@?$basic_string@DU?$char_traits@D@std@@V?$allocator@D@2@@std@@QAEXD@Z 1002b0b0 f i World.obj
 0001:0002a140       ??R<lambda_15711c68e099a15a58f4d77303cb286d>@@QBE@QADQBDID@Z 1002b140 f i World.obj
 0001:0002a1a0       ?erase@?$basic_string@DU?$char_traits@D@std@@V?$allocator@D@2@@std@@QAEAAV12@II@Z 1002b1a0 f i World.obj
 0001:0002a1d0       ??0?$basic_string@DU?$char_traits@D@std@@V?$allocator@D@2@@std@@QAE@ABV01@IIABV?$allocator@D@1@@Z 1002b1d0 f i World.obj
 0001:0002a280       ?not_eof@?$_Narrow_char_traits@DH@std@@SAHABH@Z 1002b280 f i World.obj
 0001:0002a2d0       ?eq_int_type@?$_Narrow_char_traits@DH@std@@SA_NABH0@Z 1002b2d0 f i World.obj
 0001:0002a300       ?to_int_type@?$_Narrow_char_traits@DH@std@@SAHABD@Z 1002b300 f i World.obj
 0001:0002a310       ??_E?$codecvt@DDU_Mbstatet@@@std@@MAEPAXI@Z 1002b310 f i * CIL library *:* CIL module *
 0001:0002a310       ??_G?$codecvt@DDU_Mbstatet@@@std@@MAEPAXI@Z 1002b310 f i World.obj
 0001:0002a340       ?unshift@?$codecvt@DDU_Mbstatet@@@std@@QBEHAAU_Mbstatet@@PAD1AAPAD@Z 1002b340 f i World.obj
 0001:0002a370       ?_Init@?$basic_streambuf@DU?$char_traits@D@std@@@std@@IAEXPAPAD0PAH001@Z 1002b370 f i World.obj
 0001:0002a3c0       ?_Init@?$basic_streambuf@DU?$char_traits@D@std@@@std@@IAEXXZ 1002b3c0 f i World.obj
 0001:0002a430       ?setg@?$basic_streambuf@DU?$char_traits@D@std@@@std@@IAEXPAD00@Z 1002b430 f i World.obj
 0001:0002a470       ?getloc@?$basic_streambuf@DU?$char_traits@D@std@@@std@@QBE?AVlocale@2@XZ 1002b470 f i World.obj
 0001:0002a4b0       ??0?$basic_streambuf@DU?$char_traits@D@std@@@std@@IAE@XZ 1002b4b0 f i World.obj
 0001:0002a510       ?init@?$basic_ios@DU?$char_traits@D@std@@@std@@IAEXPAV?$basic_streambuf@DU?$char_traits@D@std@@@2@_N@Z 1002b510 f i World.obj
 0001:0002a580       ?clear@?$basic_ios@DU?$char_traits@D@std@@@std@@QAEXH_N@Z 1002b580 f i World.obj
 0001:0002a5c0       ?_Erase_noexcept@?$basic_string@DU?$char_traits@D@std@@V?$allocator@D@2@@std@@AAEAAV12@II@Z 1002b5c0 f i World.obj
 0001:0002a640       ?assign@?$basic_string@DU?$char_traits@D@std@@V?$allocator@D@2@@std@@QAEAAV12@ABV12@II@Z 1002b640 f i World.obj
 0001:0002a690       ?_Check_offset@?$_String_val@U?$_Simple_types@D@std@@@std@@QBEXI@Z 1002b690 f i World.obj
 0001:0002a6b0       ?setp@?$basic_streambuf@DU?$char_traits@D@std@@@std@@IAEXPAD0@Z 1002b6b0 f i World.obj
 0001:0002a6f0       ?widen@?$basic_ios@DU?$char_traits@D@std@@@std@@QBEDD@Z 1002b6f0 f i World.obj
 0001:0002a780       ?_Clamp_suffix_size@?$_String_val@U?$_Simple_types@D@std@@@std@@QBEIII@Z 1002b780 f i World.obj
 0001:0002a7b0       ?_Xran@?$_String_val@U?$_Simple_types@D@std@@@std@@SAXXZ 1002b7b0 f i World.obj
 0001:0002a7c0       ??$_Immortalize_memcpy_image@V_Iostream_error_category2@std@@@std@@YAABV_Iostream_error_category2@0@XZ 1002b7c0 f i World.obj
 0001:0002a7d0       ??$min@H@std@@YAABHABH0@Z  1002b7d0 f i World.obj
 0001:0002a800       ??$use_facet@V?$ctype@D@std@@@std@@YAABV?$ctype@D@0@ABVlocale@0@@Z 1002b800 f i World.obj
 0001:0002a920       ??$?0V?$istreambuf_iterator@DU?$char_traits@D@std@@@std@@$0A@@?$basic_string@DU?$char_traits@D@std@@V?$allocator@D@2@@std@@QAE@V?$istreambuf_iterator@DU?$char_traits@D@std@@@1@0ABV?$allocator@D@1@@Z 1002b920 f i World.obj
 0001:0002aa00       ??$use_facet@V?$codecvt@DDU_Mbstatet@@@std@@@std@@YAABV?$codecvt@DDU_Mbstatet@@@0@ABVlocale@0@@Z 1002ba00 f i World.obj
 0001:0002ab20       ??$_Traits_find@U?$char_traits@D@std@@@std@@YAIQBDII0I@Z 1002bb20 f i World.obj
 0001:0002abc0       ??$_Reallocate_grow_by@V<lambda_15711c68e099a15a58f4d77303cb286d>@@D@?$basic_string@DU?$char_traits@D@std@@V?$allocator@D@2@@std@@AAEAAV01@IV<lambda_15711c68e099a15a58f4d77303cb286d>@@D@Z 1002bbc0 f i World.obj
 0001:0002acf0       ?release@?$unique_ptr@V_Facet_base@std@@U?$default_delete@V_Facet_base@std@@@2@@std@@QAEPAV_Facet_base@2@XZ 1002bcf0 f i World.obj
 0001:0002ad20       ??1?$unique_ptr@V_Facet_base@std@@U?$default_delete@V_Facet_base@std@@@2@@std@@QAE@XZ 1002bd20 f i World.obj
 0001:0002ad50       ?_Getcat@?$codecvt@DDU_Mbstatet@@@std@@SAIPAPBVfacet@locale@2@PBV42@@Z 1002bd50 f i World.obj
 0001:0002ae40       ?find@?$_Narrow_char_traits@DH@std@@SAPBDQBDIABD@Z 1002be40 f i World.obj
 0001:0002ae70       ?compare@?$_Narrow_char_traits@DH@std@@SAHQBD0I@Z 1002be70 f i World.obj
 0001:0002aea0       ??R?$default_delete@V_Facet_base@std@@@std@@QBEXPAV_Facet_base@1@@Z 1002bea0 f i World.obj
 0001:0002aee0       ??0?$codecvt@DDU_Mbstatet@@@std@@QAE@ABV_Locinfo@1@I@Z 1002bee0 f i World.obj
 0001:0002af50       ??$?0U?$default_delete@V_Facet_base@std@@@std@@$0A@@?$unique_ptr@V_Facet_base@std@@U?$default_delete@V_Facet_base@std@@@2@@std@@QAE@PAV_Facet_base@1@@Z 1002bf50 f i World.obj
 0001:0002af80       ??$_Construct@V?$istreambuf_iterator@DU?$char_traits@D@std@@@std@@@?$basic_string@DU?$char_traits@D@std@@V?$allocator@D@2@@std@@QAEXV?$istreambuf_iterator@DU?$char_traits@D@std@@@1@V21@Uinput_iterator_tag@1@@Z 1002bf80 f i World.obj
 0001:0002b020       ??1?$_Tidy_deallocate_guard@V?$basic_string@DU?$char_traits@D@std@@V?$allocator@D@2@@std@@@std@@QAE@XZ 1002c020 f i World.obj
 0001:0002b040       ??E?$istreambuf_iterator@DU?$char_traits@D@std@@@std@@QAEAAV01@XZ 1002c040 f i World.obj
 0001:0002b060       ??D?$istreambuf_iterator@DU?$char_traits@D@std@@@std@@QBEDXZ 1002c060 f i World.obj
 0001:0002b090       ?_Peek@?$istreambuf_iterator@DU?$char_traits@D@std@@@std@@ABEDXZ 1002c090 f i World.obj
 0001:0002b110       ?_Inc@?$istreambuf_iterator@DU?$char_traits@D@std@@@std@@AAEXXZ 1002c110 f i World.obj
 0001:0002b170       ?sgetc@?$basic_streambuf@DU?$char_traits@D@std@@@std@@QAEHXZ 1002c170 f i World.obj
 0001:0002b1d0       ?sbumpc@?$basic_streambuf@DU?$char_traits@D@std@@@std@@QAEHXZ 1002c1d0 f i World.obj
 0001:0002b230       ??$?0AAPAV_Facet_base@std@@@?$_Compressed_pair@U?$default_delete@V_Facet_base@std@@@std@@PAV_Facet_base@2@$00@std@@QAE@U_Zero_then_variadic_args_t@1@AAPAV_Facet_base@1@@Z 1002c230 f i World.obj
 0001:0002b260       ??$?9DU?$char_traits@D@std@@@std@@YA_NABV?$istreambuf_iterator@DU?$char_traits@D@std@@@0@0@Z 1002c260 f i World.obj
 0001:0002b2a0       ??$?8DU?$char_traits@D@std@@@std@@YA_NABV?$istreambuf_iterator@DU?$char_traits@D@std@@@0@0@Z 1002c2a0 f i World.obj
 0001:0002b2c0       ?equal@?$istreambuf_iterator@DU?$char_traits@D@std@@@std@@QBE_NABV12@@Z 1002c2c0 f i World.obj
 0001:0002b328       ??_E?$basic_ifstream@DU?$char_traits@D@std@@@std@@$4PPPPPPPM@A@AEPAXI@Z 1002c328 f i World.obj
 0001:0002b330       ??_E?$basic_istream@DU?$char_traits@D@std@@@std@@$4PPPPPPPM@A@AEPAXI@Z 1002c330 f i World.obj
 0001:0002b340       ?CommandByName@@YAPAUcmd_s@@PAD@Z 1002c340 f   Hook.obj
 0001:0002b3e0       ?UserMsgByName@@YAPAU_UserMsg@@PAD@Z 1002c3e0 f   Hook.obj
 0001:0002b480       ?HookUserMsg@@YAP6AHPBDHPAX@ZPADP6AH0H1@Z@Z 1002c480 f   Hook.obj
 0001:0002b4e0       ?HookTable@VHookTable@@QAE_NK@Z 1002c4e0 f   Hook.obj
 0001:0002b5b0       ?HookIndex@VHookTable@@QAEXKPAX@Z 1002c5b0 f   Hook.obj
 0001:0002b5d0       ?UnHook@VHookTable@@QAEXXZ 1002c5d0 f   Hook.obj
 0001:0002b5f0       ?ReHook@VHookTable@@QAEXXZ 1002c5f0 f   Hook.obj
 0001:0002b610       ?startDebugWindow@@YAXXZ   1002c610 f   Main.obj
 0001:0002b710       ?Hooked_WndProc@@YGJPAUHWND__@@IIJ@Z 1002c710 f   Main.obj
 0001:0002b7e0       ?Hook@@YGKPAX@Z            1002c7e0 f   Main.obj
 0001:0002bb20       _DllMain@12                1002cb20 f   Main.obj
 0001:0002bcb0       ??A?$basic_string@DU?$char_traits@D@std@@V?$allocator@D@2@@std@@QBEABDI@Z 1002ccb0 f i Main.obj
 0001:0002bcb0       ??A?$basic_string@DU?$char_traits@D@std@@V?$allocator@D@2@@std@@QAEAADI@Z 1002ccb0 f i Main.obj
 0001:0002bcd0       ?Error@COffsets@@QAEXPAD@Z 1002ccd0 f   Offsets.obj
 0001:0002bd00       ?FindSpeed@COffsets@@QAEKXZ 1002cd00 f   Offsets.obj
 0001:0002bd90       ?CL_Move@COffsets@@QAEKXZ  1002cd90 f   Offsets.obj
 0001:0002be50       ?GlobalTime@COffsets@@QAEXXZ 1002ce50 f   Offsets.obj
 0001:0002bee0       ?FindStudioModelRenderer@COffsets@@QAEPAXXZ 1002cee0 f   Offsets.obj
 0001:0002bf50       ?PreS_DynamicSound@COffsets@@QAEKXZ 1002cf50 f   Offsets.obj
 0001:0002c010       ?FindUserMsgBase@COffsets@@QAEPAU_UserMsg@@XZ 1002d010 f   Offsets.obj
 0001:0002c0d0       ?FindPlayerMove@COffsets@@QAEPAXXZ 1002d0d0 f   Offsets.obj
 0001:0002c150       ?FindEngine@COffsets@@QAEPAXXZ 1002d150 f   Offsets.obj
 0001:0002c220       ?FindStudio@COffsets@@QAEPAXXZ 1002d220 f   Offsets.obj
 0001:0002c2a0       ?FindClient@COffsets@@QAEPAXXZ 1002d2a0 f   Offsets.obj
 0001:0002c320       ?FindHardware@COffsets@@QAE_NXZ 1002d320 f   Offsets.obj
 0001:0002c3b0       ?Absolute@COffsets@@QAEKK@Z 1002d3b0 f   Offsets.obj
 0001:0002c3d0       ?FarProc@COffsets@@QAEKKKK@Z 1002d3d0 f   Offsets.obj
 0001:0002c410       ?FindReference@COffsets@@QAEKKKK@Z 1002d410 f   Offsets.obj
 0001:0002c470       ?FindPush@COffsets@@QAEKKKPAD@Z 1002d470 f   Offsets.obj
 0001:0002c4f0       ?GetModuleSize@COffsets@@QAEKK@Z 1002d4f0 f   Offsets.obj
 0001:0002c510       ?FindModuleByName@COffsets@@QAE_NPBDPAUModule@@@Z 1002d510 f   Offsets.obj
 0001:0002c590       ?EnablePageWrite@COffsets@@QAE_NKK@Z 1002d590 f   Offsets.obj
 0001:0002c5d0       ?RestorePageProtection@COffsets@@QAE_NKK@Z 1002d5d0 f   Offsets.obj
 0001:0002c630       ?FindPattern@COffsets@@QAEKPAD0KKK@Z 1002d630 f   Offsets.obj
 0001:0002c710       ?FindPattern@COffsets@@QAEKPADKKK@Z 1002d710 f   Offsets.obj
 0001:0002c7e0       ?Hooked_glBegin@@YGXI@Z    1002d7e0 f   OpenGL.obj
 0001:0002c8f0       ?Hooked_glVertex3fv@@YGXPAM@Z 1002d8f0 f   OpenGL.obj
 0001:0002c970       ?Hooked_glColor4f@@YGXMMMM@Z 1002d970 f   OpenGL.obj
 0001:0002ca60       ?Hooked_wglSwapBuffers@@YGHPAUHDC__@@@Z 1002da60 f   OpenGL.obj
 0001:0002cc70       ?Hooked_glClear@@YGXI@Z    1002dc70 f   OpenGL.obj
 0001:0002ccc0       ?Hooked_glViewport@@YGXHHHH@Z 1002dcc0 f   OpenGL.obj
 0001:0002cd20       ?HookOpenGL@@YAXXZ         1002dd20 f   OpenGL.obj
 0001:0002cdf0       _frexpl                    1002ddf0 f i Pipi_edit.obj
 0001:0002ce10       __vsprintf_s_l             1002de10 f i Pipi_edit.obj
 0001:0002ce60       _sprintf_s                 1002de60 f i Pipi_edit.obj
 0001:0002cea0       ??0exception_ptr@std@@QAE@XZ 1002dea0 f i Pipi_edit.obj
 0001:0002cec0       ??1exception_ptr@std@@QAE@XZ 1002dec0 f i Pipi_edit.obj
 0001:0002cee0       ??0exception_ptr@std@@QAE@ABV01@@Z 1002dee0 f i Pipi_edit.obj
 0001:0002cf00       ?_Current_exception@exception_ptr@std@@SA?AV12@XZ 1002df00 f i Pipi_edit.obj
 0001:0002cf60       ?current_exception@std@@YA?AVexception_ptr@1@XZ 1002df60 f i Pipi_edit.obj
 0001:0002cf80       ??0logic_error@std@@QAE@PBD@Z 1002df80 f i Pipi_edit.obj
 0001:0002cfb0       ??0out_of_range@std@@QAE@PBD@Z 1002dfb0 f i Pipi_edit.obj
 0001:0002d000       ?_Getcvt@_Locinfo@std@@QBE?AU_Cvtvec@@XZ 1002e000 f i Pipi_edit.obj
 0001:0002d040       ?_Getlconv@_Locinfo@std@@QBEPBUlconv@@XZ 1002e040 f i Pipi_edit.obj
 0001:0002d050       ?_Getfalse@_Locinfo@std@@QBEPBDXZ 1002e050 f i Pipi_edit.obj
 0001:0002d060       ?_Gettrue@_Locinfo@std@@QBEPBDXZ 1002e060 f i Pipi_edit.obj
 0001:0002d070       ?is@?$ctype@D@std@@QBE_NFD@Z 1002e070 f i Pipi_edit.obj
 0001:0002d0b0       ?widen@?$ctype@D@std@@QBEPBDPBD0PAD@Z 1002e0b0 f i Pipi_edit.obj
 0001:0002d0e0       ?good@ios_base@std@@QBE_NXZ 1002e0e0 f i Pipi_edit.obj
 0001:0002d110       ?eof@ios_base@std@@QBE_NXZ 1002e110 f i Pipi_edit.obj
 0001:0002d140       ?flags@ios_base@std@@QBEHXZ 1002e140 f i Pipi_edit.obj
 0001:0002d160       ?setf@ios_base@std@@QAEHH@Z 1002e160 f i Pipi_edit.obj
 0001:0002d190       ?setf@ios_base@std@@QAEHHH@Z 1002e190 f i Pipi_edit.obj
 0001:0002d1d0       ?unsetf@ios_base@std@@QAEXH@Z 1002e1d0 f i Pipi_edit.obj
 0001:0002d1f0       ?precision@ios_base@std@@QBE_JXZ 1002e1f0 f i Pipi_edit.obj
 0001:0002d210       ?width@ios_base@std@@QBE_JXZ 1002e210 f i Pipi_edit.obj
 0001:0002d230       ?width@ios_base@std@@QAE_J_J@Z 1002e230 f i Pipi_edit.obj
 0001:0002d270       ?dec@std@@YAAAVios_base@1@AAV21@@Z 1002e270 f i Pipi_edit.obj
 0001:0002d290       ?hex@std@@YAAAVios_base@1@AAV21@@Z 1002e290 f i Pipi_edit.obj
 0001:0002d2b0       ?noshowbase@std@@YAAAVios_base@1@AAV21@@Z 1002e2b0 f i Pipi_edit.obj
 0001:0002d2d0       ?nouppercase@std@@YAAAVios_base@1@AAV21@@Z 1002e2d0 f i Pipi_edit.obj
 0001:0002d2f0       ?right@std@@YAAAVios_base@1@AAV21@@Z 1002e2f0 f i Pipi_edit.obj
 0001:0002d310       ?uppercase@std@@YAAAVios_base@1@AAV21@@Z 1002e310 f i Pipi_edit.obj
 0001:0002d330       ?encode_surrogates@unicode@encoding@configor@@YAXIAAI0@Z 1002e330 f i Pipi_edit.obj
 0001:0002d370       ?_Throw_tree_length_error@std@@YAXXZ 1002e370 f i Pipi_edit.obj
 0001:0002d380       ??0configor_exception@configor@@QAE@ABV?$basic_string@DU?$char_traits@D@std@@V?$allocator@D@2@@std@@@Z 1002e380 f i Pipi_edit.obj
 0001:0002d3b0       ??0configor_type_error@configor@@QAE@ABV?$basic_string@DU?$char_traits@D@std@@V?$allocator@D@2@@std@@@Z 1002e3b0 f i Pipi_edit.obj
 0001:0002d440       ??_Econfigor_type_error@configor@@UAEPAXI@Z 1002e440 f i * CIL library *:* CIL module *
 0001:0002d440       ??_Gconfigor_invalid_key@configor@@UAEPAXI@Z 1002e440 f i Pipi_edit.obj
 0001:0002d440       ??_Gconfigor_serialization_error@configor@@UAEPAXI@Z 1002e440 f i Pipi_edit.obj
 0001:0002d440       ??_Econfigor_serialization_error@configor@@UAEPAXI@Z 1002e440 f i * CIL library *:* CIL module *
 0001:0002d440       ??_Econfigor_invalid_key@configor@@UAEPAXI@Z 1002e440 f i * CIL library *:* CIL module *
 0001:0002d440       ??_Gconfigor_type_error@configor@@UAEPAXI@Z 1002e440 f i Pipi_edit.obj
 0001:0002d470       ??0configor_invalid_key@configor@@QAE@ABV?$basic_string@DU?$char_traits@D@std@@V?$allocator@D@2@@std@@@Z 1002e470 f i Pipi_edit.obj
 0001:0002d500       ??0configor_serialization_error@configor@@QAE@ABV?$basic_string@DU?$char_traits@D@std@@V?$allocator@D@2@@std@@@Z 1002e500 f i Pipi_edit.obj
 0001:0002d590       ??_D?$fast_basic_ostringstream@D@detail@configor@@QAEXXZ 1002e590 f i Pipi_edit.obj
 0001:0002d5c0       ??1?$fast_basic_ostringstream@D@detail@configor@@UAE@XZ 1002e5c0 f i Pipi_edit.obj
 0001:0002d5f0       ??1?$fast_string_istreambuf@D@detail@configor@@UAE@XZ 1002e5f0 f i Pipi_edit.obj
 0001:0002d5f0       ??1?$fast_string_ostreambuf@D@detail@configor@@UAE@XZ 1002e5f0 f i Pipi_edit.obj
 0001:0002d610       ??0configor_exception@configor@@QAE@ABV01@@Z 1002e610 f i Pipi_edit.obj
 0001:0002d640       ??_D?$basic_ofstream@DU?$char_traits@D@std@@@std@@QAEXXZ 1002e640 f i Pipi_edit.obj
 0001:0002d670       ?writejson@@YA_NV?$basic_config@Ujson_args@configor@@@configor@@@Z 1002e670 f   Pipi_edit.obj
 0001:0002d700       ??1?$basic_config@Ujson_args@configor@@@configor@@QAE@XZ 1002e700 f i Pipi_edit.obj
 0001:0002d720       ?__saveBitmap@@YA_NPBDPAUHBITMAP__@@PAUHPALETTE__@@@Z 1002e720 f   Pipi_edit.obj
 0001:0002d8c0       ?screenCapture@@YA_NHHHHPBD@Z 1002e8c0 f   Pipi_edit.obj
 0001:0002d9a0       ?GetCurrentTimerMS@@YAXPAD@Z 1002e9a0 f   Pipi_edit.obj
 0001:0002da60       ?GetAIdata@@YAXQAH@Z       1002ea60 f   Pipi_edit.obj
 0001:0002ded0       ?@@YAXXZ     1002eed0 f   Pipi_edit.obj
 0001:0002df10       ?hotkey_thread@@YGKPAX@Z   1002ef10 f   Pipi_edit.obj
 0001:0002df90       ??1?$config_value@V?$basic_config@Ujson_args@configor@@@configor@@@detail@configor@@QAE@XZ 1002ef90 f i Pipi_edit.obj
 0001:0002dfe0       ??0?$basic_config@Ujson_args@configor@@@configor@@QAE@ABV?$initializer_list@V?$basic_config@Ujson_args@configor@@@configor@@@std@@W4config_value_type@1@@Z 1002efe0 f i Pipi_edit.obj
 0001:0002e180       ??R<lambda_e76e69f9a7ae70d577c8760de63108b9>@@QBE@ABV?$basic_config@Ujson_args@configor@@@configor@@@Z 1002f180 f i Pipi_edit.obj
 0001:0002e1e0       ??R<lambda_59a2c67489030a4876926c40fd567950>@@QBE@ABV?$basic_config@Ujson_args@configor@@@configor@@@Z 1002f1e0 f i Pipi_edit.obj
 0001:0002e220       ??0?$basic_config@Ujson_args@configor@@@configor@@QAE@ABV01@@Z 1002f220 f i Pipi_edit.obj
 0001:0002e240       ?put_string@?$json_serializer@V?$basic_config@Ujson_args@configor@@@configor@@@detail@configor@@UAEXABV?$basic_string@DU?$char_traits@D@std@@V?$allocator@D@2@@std@@@Z 1002f240 f i Pipi_edit.obj
 0001:0002e740       ?put_float@?$json_serializer@V?$basic_config@Ujson_args@configor@@@configor@@@detail@configor@@UAEXN@Z 1002f740 f i Pipi_edit.obj
 0001:0002e780       ?put_integer@?$json_serializer@V?$basic_config@Ujson_args@configor@@@configor@@@detail@configor@@UAEX_J@Z 1002f780 f i Pipi_edit.obj
 0001:0002e7c0       ?next@?$json_serializer@V?$basic_config@Ujson_args@configor@@@configor@@@detail@configor@@UAEXW4token_type@3@@Z 1002f7c0 f i Pipi_edit.obj
 0001:0002eaa0       ?target@?$json_serializer@V?$basic_config@Ujson_args@configor@@@configor@@@detail@configor@@UAEXAAV?$basic_ostream@DU?$char_traits@D@std@@@std@@@Z 1002faa0 f i Pipi_edit.obj
 0001:0002eae0       ?close@?$basic_ofstream@DU?$char_traits@D@std@@@std@@QAEXXZ 1002fae0 f i Pipi_edit.obj
 0001:0002eb10       ?open@?$basic_ofstream@DU?$char_traits@D@std@@@std@@QAEXPBDHH@Z 1002fb10 f i Pipi_edit.obj
 0001:0002eb70       ??1?$basic_ofstream@DU?$char_traits@D@std@@@std@@UAE@XZ 1002fb70 f i Pipi_edit.obj
 0001:0002ebd0       ??0?$basic_ofstream@DU?$char_traits@D@std@@@std@@QAE@XZ 1002fbd0 f i Pipi_edit.obj
 0001:0002eca0       ?xsputn@?$fast_string_ostreambuf@D@detail@configor@@MAE_JPBD_J@Z 1002fca0 f i Pipi_edit.obj
 0001:0002ecd0       ?overflow@?$fast_string_ostreambuf@D@detail@configor@@MAEHH@Z 1002fcd0 f i Pipi_edit.obj
 0001:0002ed10       ?str@?$fast_basic_ostringstream@D@detail@configor@@QBEABV?$basic_string@DU?$char_traits@D@std@@V?$allocator@D@2@@std@@XZ 1002fd10 f i Pipi_edit.obj
 0001:0002ed30       ??0?$fast_basic_ostringstream@D@detail@configor@@QAE@XZ 1002fd30 f i Pipi_edit.obj
 0001:0002ee30       ??1?$basic_ostream@DU?$char_traits@D@std@@@std@@UAE@XZ 1002fe30 f i Pipi_edit.obj
 0001:0002ee70       ?compare@?$basic_string@DU?$char_traits@D@std@@V?$allocator@D@2@@std@@QBEHABV12@@Z 1002fe70 f i Pipi_edit.obj
 0001:0002eeb0       ??0?$basic_string@DU?$char_traits@D@std@@V?$allocator@D@2@@std@@QAE@ID@Z 1002feb0 f i Pipi_edit.obj
 0001:0002ef50       ??0configor_type_error@configor@@QAE@ABV01@@Z 1002ff50 f i Pipi_edit.obj
 0001:0002ef80       ??_G?$basic_ofstream@DU?$char_traits@D@std@@@std@@UAEPAXI@Z 1002ff80 f i Pipi_edit.obj
 0001:0002ef80       ??_E?$basic_ofstream@DU?$char_traits@D@std@@@std@@UAEPAXI@Z 1002ff80 f i * CIL library *:* CIL module *
 0001:0002efc0       ??_E?$fast_basic_ostringstream@D@detail@configor@@UAEPAXI@Z 1002ffc0 f i * CIL library *:* CIL module *
 0001:0002efc0       ??_G?$fast_basic_ostringstream@D@detail@configor@@UAEPAXI@Z 1002ffc0 f i Pipi_edit.obj
 0001:0002f000       ??_G?$basic_ostream@DU?$char_traits@D@std@@@std@@UAEPAXI@Z 10030000 f i Pipi_edit.obj
 0001:0002f000       ??_E?$basic_ostream@DU?$char_traits@D@std@@@std@@UAEPAXI@Z 10030000 f i * CIL library *:* CIL module *
 0001:0002f040       ??_D?$basic_ostream@DU?$char_traits@D@std@@@std@@QAEXXZ 10030040 f i Pipi_edit.obj
 0001:0002f070       ?failed@?$ostreambuf_iterator@DU?$char_traits@D@std@@@std@@QBE_NXZ 10030070 f i Pipi_edit.obj
 0001:0002f080       ??0?$ostreambuf_iterator@DU?$char_traits@D@std@@@std@@QAE@PAV?$basic_streambuf@DU?$char_traits@D@std@@@1@@Z 10030080 f i Pipi_edit.obj
 0001:0002f0a0       ?do_put@?$num_put@DV?$ostreambuf_iterator@DU?$char_traits@D@std@@@std@@@std@@MBE?AV?$ostreambuf_iterator@DU?$char_traits@D@std@@@2@V32@AAVios_base@2@DPBX@Z 100300a0 f i Pipi_edit.obj
 0001:0002f110       ?do_put@?$num_put@DV?$ostreambuf_iterator@DU?$char_traits@D@std@@@std@@@std@@MBE?AV?$ostreambuf_iterator@DU?$char_traits@D@std@@@2@V32@AAVios_base@2@DO@Z 10030110 f i Pipi_edit.obj
 0001:0002f300       ?do_put@?$num_put@DV?$ostreambuf_iterator@DU?$char_traits@D@std@@@std@@@std@@MBE?AV?$ostreambuf_iterator@DU?$char_traits@D@std@@@2@V32@AAVios_base@2@DN@Z 10030300 f i Pipi_edit.obj
 0001:0002f4e0       ?do_put@?$num_put@DV?$ostreambuf_iterator@DU?$char_traits@D@std@@@std@@@std@@MBE?AV?$ostreambuf_iterator@DU?$char_traits@D@std@@@2@V32@AAVios_base@2@D_K@Z 100304e0 f i Pipi_edit.obj
 0001:0002f570       ?do_put@?$num_put@DV?$ostreambuf_iterator@DU?$char_traits@D@std@@@std@@@std@@MBE?AV?$ostreambuf_iterator@DU?$char_traits@D@std@@@2@V32@AAVios_base@2@D_J@Z 10030570 f i Pipi_edit.obj
 0001:0002f600       ?do_put@?$num_put@DV?$ostreambuf_iterator@DU?$char_traits@D@std@@@std@@@std@@MBE?AV?$ostreambuf_iterator@DU?$char_traits@D@std@@@2@V32@AAVios_base@2@DK@Z 10030600 f i Pipi_edit.obj
 0001:0002f680       ?do_put@?$num_put@DV?$ostreambuf_iterator@DU?$char_traits@D@std@@@std@@@std@@MBE?AV?$ostreambuf_iterator@DU?$char_traits@D@std@@@2@V32@AAVios_base@2@DJ@Z 10030680 f i Pipi_edit.obj
 0001:0002f700       ?do_put@?$num_put@DV?$ostreambuf_iterator@DU?$char_traits@D@std@@@std@@@std@@MBE?AV?$ostreambuf_iterator@DU?$char_traits@D@std@@@2@V32@AAVios_base@2@D_N@Z 10030700 f i Pipi_edit.obj
 0001:0002f940       ??1?$num_put@DV?$ostreambuf_iterator@DU?$char_traits@D@std@@@std@@@std@@MAE@XZ 10030940 f i Pipi_edit.obj
 0001:0002f960       ??Bsentry@?$basic_ostream@DU?$char_traits@D@std@@@std@@QBE_NXZ 10030960 f i Pipi_edit.obj
 0001:0002f960       ??Bsentry@?$basic_istream@DU?$char_traits@D@std@@@std@@QBE_NXZ 10030960 f i Pipi_edit.obj
 0001:0002f980       ??1sentry@?$basic_ostream@DU?$char_traits@D@std@@@std@@QAE@XZ 10030980 f i Pipi_edit.obj
 0001:0002fa00       ??0sentry@?$basic_ostream@DU?$char_traits@D@std@@@std@@QAE@AAV12@@Z 10030a00 f i Pipi_edit.obj
 0001:0002fac0       ??6detail@configor@@YAAAV?$basic_ostream@DU?$char_traits@D@std@@@std@@AAV23@ABU?$serializable_integer@_J@01@@Z 10030ac0 f i Pipi_edit.obj
 0001:0002fae0       ??6detail@configor@@YAAAV?$basic_ostream@DU?$char_traits@D@std@@@std@@AAV23@ABU?$serializable_float@N@01@@Z 10030ae0 f i Pipi_edit.obj
 0001:0002fb70       ??6detail@configor@@YAAAV?$basic_ostream@DU?$char_traits@D@std@@@std@@AAV23@ABU?$serializable_hex@I@01@@Z 10030b70 f i Pipi_edit.obj
 0001:0002fc10       ??6detail@configor@@YAAAV?$basic_ostream@DU?$char_traits@D@std@@@std@@AAV23@ABU?$serializable_hex@G@01@@Z 10030c10 f i Pipi_edit.obj
 0001:0002fcb0       ?decode@?$auto_utf@D@encoding@configor@@SA_NAAV?$basic_istream@DU?$char_traits@D@std@@@std@@AAI@Z 10030cb0 f i Pipi_edit.obj
 0001:0002fcd0       ?encode@?$auto_utf@D@encoding@configor@@SAXAAV?$basic_ostream@DU?$char_traits@D@std@@@std@@I@Z 10030cd0 f i Pipi_edit.obj
 0001:0002fcf0       ?xsgetn@?$fast_string_istreambuf@D@detail@configor@@MAE_JPAD_J@Z 10030cf0 f i Pipi_edit.obj
 0001:0002fd30       ?uflow@?$fast_string_istreambuf@D@detail@configor@@MAEHXZ 10030d30 f i Pipi_edit.obj
 0001:0002fd60       ?underflow@?$fast_string_istreambuf@D@detail@configor@@MAEHXZ 10030d60 f i Pipi_edit.obj
 0001:0002fda0       ??0?$fast_string_istreambuf@D@detail@configor@@QAE@ABV?$basic_string@DU?$char_traits@D@std@@V?$allocator@D@2@@std@@@Z 10030da0 f i Pipi_edit.obj
 0001:0002fde0       ??A?$vector@V?$basic_config@Ujson_args@configor@@@configor@@V?$allocator@V?$basic_config@Ujson_args@configor@@@configor@@@std@@@std@@QAEAAV?$basic_config@Ujson_args@configor@@@configor@@I@Z 10030de0 f i Pipi_edit.obj
 0001:0002fe00       ?reserve@?$vector@V?$basic_config@Ujson_args@configor@@@configor@@V?$allocator@V?$basic_config@Ujson_args@configor@@@configor@@@std@@@std@@QAEXI@Z 10030e00 f i Pipi_edit.obj
 0001:0002fe40       ?size@?$initializer_list@V?$basic_config@Ujson_args@configor@@@configor@@@std@@QBEIXZ 10030e40 f i Pipi_edit.obj
 0001:0002fe60       ??4?$config_value@V?$basic_config@Ujson_args@configor@@@configor@@@detail@configor@@QAEAAU012@$$QAU012@@Z 10030e60 f i Pipi_edit.obj
 0001:0002fec0       ?clear@?$config_value@V?$basic_config@Ujson_args@configor@@@configor@@@detail@configor@@QAEXXZ 10030ec0 f i Pipi_edit.obj
 0001:0002ff20       ??0?$config_value@V?$basic_config@Ujson_args@configor@@@configor@@@detail@configor@@QAE@ABU012@@Z 10030f20 f i Pipi_edit.obj
 0001:00030000       ??0?$config_value@V?$basic_config@Ujson_args@configor@@@configor@@@detail@configor@@QAE@W4config_value_type@2@@Z 10031000 f i Pipi_edit.obj
 0001:000300a0       ??0?$config_value@V?$basic_config@Ujson_args@configor@@@configor@@@detail@configor@@QAE@XZ 100310a0 f i Pipi_edit.obj
 0001:000300d0       ??A?$basic_config@Ujson_args@configor@@@configor@@QBEAAV01@I@Z 100310d0 f i Pipi_edit.obj
 0001:000300f0       ?size@?$basic_config@Ujson_args@configor@@@configor@@QBEIXZ 100310f0 f i Pipi_edit.obj
 0001:00030140       ?is_string@?$basic_config@Ujson_args@configor@@@configor@@QBE_NXZ 10031140 f i Pipi_edit.obj
 0001:00030170       ?is_array@?$basic_config@Ujson_args@configor@@@configor@@QBE_NXZ 10031170 f i Pipi_edit.obj
 0001:000301a0       ?fail@?$json_serializer@V?$basic_config@Ujson_args@configor@@@configor@@@detail@configor@@QAEXABV?$basic_string@DU?$char_traits@D@std@@V?$allocator@D@2@@std@@I@Z 100311a0 f i Pipi_edit.obj
 0001:000302a0       ?output_newline@?$json_serializer@V?$basic_config@Ujson_args@configor@@@configor@@@detail@configor@@QAEXXZ 100312a0 f i Pipi_edit.obj
 0001:000302d0       ?output_indent@?$json_serializer@V?$basic_config@Ujson_args@configor@@@configor@@@detail@configor@@QAEXI@Z 100312d0 f i Pipi_edit.obj
 0001:00030310       ?output@?$json_serializer@V?$basic_config@Ujson_args@configor@@@configor@@@detail@configor@@QAEXV?$initializer_list@D@std@@@Z 10031310 f i Pipi_edit.obj
 0001:00030340       ?output@?$json_serializer@V?$basic_config@Ujson_args@configor@@@configor@@@detail@configor@@QAEXD@Z 10031340 f i Pipi_edit.obj
 0001:00030360       ??0?$fast_string_ostreambuf@D@detail@configor@@QAE@AAV?$basic_string@DU?$char_traits@D@std@@V?$allocator@D@2@@std@@@Z 10031360 f i Pipi_edit.obj
 0001:00030390       ??0?$basic_ostream@DU?$char_traits@D@std@@@std@@QAE@PAV?$basic_streambuf@DU?$char_traits@D@std@@@1@_N@Z 10031390 f i Pipi_edit.obj
 0001:00030450       ?fill@?$basic_ios@DU?$char_traits@D@std@@@std@@QBEDXZ 10031450 f i Pipi_edit.obj
 0001:00030470       ?rdbuf@?$basic_ios@DU?$char_traits@D@std@@@std@@QAEPAV?$basic_streambuf@DU?$char_traits@D@std@@@2@PAV32@@Z 10031470 f i Pipi_edit.obj
 0001:000304a0       ?assign@?$basic_string@DU?$char_traits@D@std@@V?$allocator@D@2@@std@@QAEAAV12@ID@Z 100314a0 f i Pipi_edit.obj
 0001:00030520       ??R<lambda_c6753c90be971fc9cc00b4f35f237a75>@@QBE@QADID@Z 10031520 f i Pipi_edit.obj
 0001:00030560       ??_G?$num_put@DV?$ostreambuf_iterator@DU?$char_traits@D@std@@@std@@@std@@MAEPAXI@Z 10031560 f i Pipi_edit.obj
 0001:00030560       ??_E?$num_put@DV?$ostreambuf_iterator@DU?$char_traits@D@std@@@std@@@std@@MAEPAXI@Z 10031560 f i * CIL library *:* CIL module *
 0001:00030590       ??_G?$fast_string_istreambuf@D@detail@configor@@UAEPAXI@Z 10031590 f i Pipi_edit.obj
 0001:00030590       ??_E?$fast_string_istreambuf@D@detail@configor@@UAEPAXI@Z 10031590 f i * CIL library *:* CIL module *
 0001:000305c0       ??0configor_serialization_error@configor@@QAE@ABV01@@Z 100315c0 f i Pipi_edit.obj
 0001:000305f0       ??_G?$fast_string_ostreambuf@D@detail@configor@@UAEPAXI@Z 100315f0 f i Pipi_edit.obj
 0001:000305f0       ??_E?$fast_string_ostreambuf@D@detail@configor@@UAEPAXI@Z 100315f0 f i * CIL library *:* CIL module *
 0001:00030620       ?do_truename@?$numpunct@D@std@@MBE?AV?$basic_string@DU?$char_traits@D@std@@V?$allocator@D@2@@2@XZ 10031620 f i Pipi_edit.obj
 0001:00030660       ?do_falsename@?$numpunct@D@std@@MBE?AV?$basic_string@DU?$char_traits@D@std@@V?$allocator@D@2@@2@XZ 10031660 f i Pipi_edit.obj
 0001:000306a0       ?do_grouping@?$numpunct@D@std@@MBE?AV?$basic_string@DU?$char_traits@D@std@@V?$allocator@D@2@@2@XZ 100316a0 f i Pipi_edit.obj
 0001:000306e0       ?do_thousands_sep@?$numpunct@D@std@@MBEDXZ 100316e0 f i Pipi_edit.obj
 0001:00030700       ?do_decimal_point@?$numpunct@D@std@@MBEDXZ 10031700 f i Pipi_edit.obj
 0001:00030720       ??1?$numpunct@D@std@@MAE@XZ 10031720 f i Pipi_edit.obj
 0001:00030750       ?truename@?$numpunct@D@std@@QBE?AV?$basic_string@DU?$char_traits@D@std@@V?$allocator@D@2@@2@XZ 10031750 f i Pipi_edit.obj
 0001:00030790       ?falsename@?$numpunct@D@std@@QBE?AV?$basic_string@DU?$char_traits@D@std@@V?$allocator@D@2@@2@XZ 10031790 f i Pipi_edit.obj
 0001:000307d0       ?_Rep@?$num_put@DV?$ostreambuf_iterator@DU?$char_traits@D@std@@@std@@@std@@ABA?AV?$ostreambuf_iterator@DU?$char_traits@D@std@@@2@V32@DI@Z 100317d0 f i Pipi_edit.obj
 0001:00030820       ?_Put@?$num_put@DV?$ostreambuf_iterator@DU?$char_traits@D@std@@@std@@@std@@ABA?AV?$ostreambuf_iterator@DU?$char_traits@D@std@@@2@V32@PBDI@Z 10031820 f i Pipi_edit.obj
 0001:00030870       ?_Iput@?$num_put@DV?$ostreambuf_iterator@DU?$char_traits@D@std@@@std@@@std@@ABA?AV?$ostreambuf_iterator@DU?$char_traits@D@std@@@2@V32@AAVios_base@2@DPADI@Z 10031870 f i Pipi_edit.obj
 0001:00030c90       ?_Ifmt@?$num_put@DV?$ostreambuf_iterator@DU?$char_traits@D@std@@@std@@@std@@ABAPADPADPBDH@Z 10031c90 f i Pipi_edit.obj
 0001:00030db0       ?_Fput@?$num_put@DV?$ostreambuf_iterator@DU?$char_traits@D@std@@@std@@@std@@ABA?AV?$ostreambuf_iterator@DU?$char_traits@D@std@@@2@V32@AAVios_base@2@DPBDI@Z 10031db0 f i Pipi_edit.obj
 0001:00031290       ?_Ffmt@?$num_put@DV?$ostreambuf_iterator@DU?$char_traits@D@std@@@std@@@std@@ABAPADPADDH@Z 10032290 f i Pipi_edit.obj
 0001:000313b0       ??1_Sentry_base@?$basic_ostream@DU?$char_traits@D@std@@@std@@QAE@XZ 100323b0 f i Pipi_edit.obj
 0001:000313b0       ??1_Sentry_base@?$basic_istream@DU?$char_traits@D@std@@@std@@QAE@XZ 100323b0 f i Pipi_edit.obj
 0001:00031420       ??0_Sentry_base@?$basic_ostream@DU?$char_traits@D@std@@@std@@QAE@AAV12@@Z 10032420 f i Pipi_edit.obj
 0001:00031420       ??0_Sentry_base@?$basic_istream@DU?$char_traits@D@std@@@std@@QAE@AAV12@@Z 10032420 f i Pipi_edit.obj
 0001:00031470       ?decode@?$auto_utf@D@encoding@configor@@CA_NAAV?$basic_istream@DU?$char_traits@D@std@@@std@@AAIU?$integral_constant@H$00@5@@Z 10032470 f i Pipi_edit.obj
 0001:00031490       ?encode@?$auto_utf@D@encoding@configor@@CAXAAV?$basic_ostream@DU?$char_traits@D@std@@@std@@IU?$integral_constant@H$00@5@@Z 10032490 f i Pipi_edit.obj
 0001:000314b0       ?_Xlength@?$vector@V?$basic_config@Ujson_args@configor@@@configor@@V?$allocator@V?$basic_config@Ujson_args@configor@@@configor@@@std@@@std@@CAXXZ 100324b0 f i Pipi_edit.obj
 0001:000314c0       ?capacity@?$vector@V?$basic_config@Ujson_args@configor@@@configor@@V?$allocator@V?$basic_config@Ujson_args@configor@@@configor@@@std@@@std@@QBEIXZ 100324c0 f i Pipi_edit.obj
 0001:000314f0       ?max_size@?$vector@V?$basic_config@Ujson_args@configor@@@configor@@V?$allocator@V?$basic_config@Ujson_args@configor@@@configor@@@std@@@std@@QBEIXZ 100324f0 f i Pipi_edit.obj
 0001:00031530       ?size@?$vector@V?$basic_config@Ujson_args@configor@@@configor@@V?$allocator@V?$basic_config@Ujson_args@configor@@@configor@@@std@@@std@@QBEIXZ 10032530 f i Pipi_edit.obj
 0001:00031560       ?_Reallocate_exactly@?$vector@V?$basic_config@Ujson_args@configor@@@configor@@V?$allocator@V?$basic_config@Ujson_args@configor@@@configor@@@std@@@std@@AAEXI@Z 10032560 f i Pipi_edit.obj
 0001:00031650       ?size@?$_Tree@V?$_Tmap_traits@V?$basic_string@DU?$char_traits@D@std@@V?$allocator@D@2@@std@@V?$basic_config@Ujson_args@configor@@@configor@@U?$less@V?$basic_string@DU?$char_traits@D@std@@V?$allocator@D@2@@std@@@2@V?$allocator@U?$pair@$$CBV?$basic_string@DU?$char_traits@D@std@@V?$allocator@D@2@@std@@V?$basic_config@Ujson_args@configor@@@configor@@@std@@@2@$0A@@std@@@std@@QBEIXZ 10032650 f i Pipi_edit.obj
 0001:00031670       ?at@?$basic_config@Ujson_args@configor@@@configor@@QBEAAV12@I@Z 10032670 f i Pipi_edit.obj
 0001:00031730       ??6detail@configor@@YAAAV?$basic_ostream@DU?$char_traits@D@std@@@std@@AAV23@ABV?$indent@V?$basic_string@DU?$char_traits@D@std@@V?$allocator@D@2@@std@@@01@@Z 10032730 f i Pipi_edit.obj
 0001:00031770       ??D?$indent@V?$basic_string@DU?$char_traits@D@std@@V?$allocator@D@2@@std@@@detail@configor@@QAEAAV012@I@Z 10032770 f i Pipi_edit.obj
 0001:000317d0       ?get@?$basic_istream@DU?$char_traits@D@std@@@std@@QAEHXZ 100327d0 f i Pipi_edit.obj
 0001:00031950       ?flush@?$basic_ostream@DU?$char_traits@D@std@@@std@@QAEAAV12@XZ 10032950 f i Pipi_edit.obj
 0001:00031a10       ?write@?$basic_ostream@DU?$char_traits@D@std@@@std@@QAEAAV12@PBD_J@Z 10032a10 f i Pipi_edit.obj
 0001:00031b60       ?put@?$basic_ostream@DU?$char_traits@D@std@@@std@@QAEAAV12@D@Z 10032b60 f i Pipi_edit.obj
 0001:00031ca0       ??6?$basic_ostream@DU?$char_traits@D@std@@@std@@QAEAAV01@N@Z 10032ca0 f i Pipi_edit.obj
 0001:00031e40       ??6?$basic_ostream@DU?$char_traits@D@std@@@std@@QAEAAV01@_J@Z 10032e40 f i Pipi_edit.obj
 0001:00031fe0       ??6?$basic_ostream@DU?$char_traits@D@std@@@std@@QAEAAV01@I@Z 10032fe0 f i Pipi_edit.obj
 0001:00032170       ??6?$basic_ostream@DU?$char_traits@D@std@@@std@@QAEAAV01@G@Z 10033170 f i Pipi_edit.obj
 0001:00032310       ??6?$basic_ostream@DU?$char_traits@D@std@@@std@@QAEAAV01@P6AAAVios_base@1@AAV21@@Z@Z 10033310 f i Pipi_edit.obj
 0001:00032340       ?_Osfx@?$basic_ostream@DU?$char_traits@D@std@@@std@@QAEXXZ 10033340 f i Pipi_edit.obj
 0001:00032420       ?tie@?$basic_ios@DU?$char_traits@D@std@@@std@@QBEPAV?$basic_ostream@DU?$char_traits@D@std@@@2@XZ 10033420 f i Pipi_edit.obj
 0001:00032440       ?size@?$initializer_list@D@std@@QBEIXZ 10033440 f i Pipi_edit.obj
 0001:00032460       ?copy@?$basic_string@DU?$char_traits@D@std@@V?$allocator@D@2@@std@@QBEIQADII@Z 10033460 f i Pipi_edit.obj
 0001:000324b0       ?resize@?$basic_string@DU?$char_traits@D@std@@V?$allocator@D@2@@std@@QAEXID@Z 100334b0 f i Pipi_edit.obj
 0001:00032500       ?assign@?$basic_string@DU?$char_traits@D@std@@V?$allocator@D@2@@std@@QAEAAV12@$$QAV12@@Z 10033500 f i Pipi_edit.obj
 0001:00032530       ?assign@?$_Narrow_char_traits@DH@std@@SAPADQADID@Z 10033530 f i Pipi_edit.obj
 0001:00032550       ??_G?$numpunct@D@std@@MAEPAXI@Z 10033550 f i Pipi_edit.obj
 0001:00032550       ??_E?$numpunct@D@std@@MAEPAXI@Z 10033550 f i * CIL library *:* CIL module *
 0001:00032580       ??0configor_invalid_key@configor@@QAE@ABV01@@Z 10033580 f i Pipi_edit.obj
 0001:000325b0       ??0out_of_range@std@@QAE@ABV01@@Z 100335b0 f i Pipi_edit.obj
 0001:000325e0       ??0logic_error@std@@QAE@ABV01@@Z 100335e0 f i Pipi_edit.obj
 0001:00032610       ??1sentry@?$basic_istream@DU?$char_traits@D@std@@@std@@QAE@XZ 10033610 f i Pipi_edit.obj
 0001:00032630       ??0sentry@?$basic_istream@DU?$char_traits@D@std@@@std@@QAE@AAV12@_N@Z 10033630 f i Pipi_edit.obj
 0001:000326a0       ?decode@?$utf8@D@encoding@configor@@SA_NAAV?$basic_istream@DU?$char_traits@D@std@@@std@@AAI@Z 100336a0 f i Pipi_edit.obj
 0001:00032820       ?encode@?$utf8@D@encoding@configor@@SAXAAV?$basic_ostream@DU?$char_traits@D@std@@@std@@I@Z 10033820 f i Pipi_edit.obj
 0001:00032940       ?_Tidy@?$numpunct@D@std@@AAEXXZ 10033940 f i Pipi_edit.obj
 0001:00032980       ?grouping@?$numpunct@D@std@@QBE?AV?$basic_string@DU?$char_traits@D@std@@V?$allocator@D@2@@2@XZ 10033980 f i Pipi_edit.obj
 0001:000329c0       ?thousands_sep@?$numpunct@D@std@@QBEDXZ 100339c0 f i Pipi_edit.obj
 0001:000329e0       ??4?$ostreambuf_iterator@DU?$char_traits@D@std@@@std@@QAEAAV01@D@Z 100339e0 f i Pipi_edit.obj
 0001:00032a40       ?put@?$num_put@DV?$ostreambuf_iterator@DU?$char_traits@D@std@@@std@@@std@@QBE?AV?$ostreambuf_iterator@DU?$char_traits@D@std@@@2@V32@AAVios_base@2@DN@Z 10033a40 f i Pipi_edit.obj
 0001:00032a80       ?put@?$num_put@DV?$ostreambuf_iterator@DU?$char_traits@D@std@@@std@@@std@@QBE?AV?$ostreambuf_iterator@DU?$char_traits@D@std@@@2@V32@AAVios_base@2@D_J@Z 10033a80 f i Pipi_edit.obj
 0001:00032ac0       ?put@?$num_put@DV?$ostreambuf_iterator@DU?$char_traits@D@std@@@std@@@std@@QBE?AV?$ostreambuf_iterator@DU?$char_traits@D@std@@@2@V32@AAVios_base@2@DK@Z 10033ac0 f i Pipi_edit.obj
 0001:00032b00       ?_Change_array@?$vector@V?$basic_config@Ujson_args@configor@@@configor@@V?$allocator@V?$basic_config@Ujson_args@configor@@@configor@@@std@@@std@@AAEXQAV?$basic_config@Ujson_args@configor@@@configor@@II@Z 10033b00 f i Pipi_edit.obj
 0001:00032ba0       ?_Umove_if_noexcept@?$vector@V?$basic_config@Ujson_args@configor@@@configor@@V?$allocator@V?$basic_config@Ujson_args@configor@@@configor@@@std@@@std@@AAEXPAV?$basic_config@Ujson_args@configor@@@configor@@00@Z 10033ba0 f i Pipi_edit.obj
 0001:00032bd0       ?max_size@?$_Default_allocator_traits@V?$allocator@V?$basic_config@Ujson_args@configor@@@configor@@@std@@@std@@SAIABV?$allocator@V?$basic_config@Ujson_args@configor@@@configor@@@2@@Z 10033bd0 f i Pipi_edit.obj
 0001:00032be0       ?allocate@?$allocator@V?$basic_config@Ujson_args@configor@@@configor@@@std@@QAEPAV?$basic_config@Ujson_args@configor@@@configor@@I@Z 10033be0 f i Pipi_edit.obj
 0001:00032c10       ?deallocate@?$allocator@V?$basic_config@Ujson_args@configor@@@configor@@@std@@QAEXQAV?$basic_config@Ujson_args@configor@@@configor@@I@Z 10033c10 f i Pipi_edit.obj
 0001:00032c30       ?_Get_scary@?$_Tree@V?$_Tmap_traits@V?$basic_string@DU?$char_traits@D@std@@V?$allocator@D@2@@std@@V?$basic_config@Ujson_args@configor@@@configor@@U?$less@V?$basic_string@DU?$char_traits@D@std@@V?$allocator@D@2@@std@@@2@V?$allocator@U?$pair@$$CBV?$basic_string@DU?$char_traits@D@std@@V?$allocator@D@2@@std@@V?$basic_config@Ujson_args@configor@@@configor@@@std@@@2@$0A@@std@@@std@@IBEPBV?$_Tree_val@U?$_Tree_simple_types@U?$pair@$$CBV?$basic_string@DU?$char_traits@D@std@@V?$allocator@D@2@@std@@V?$basic_config@Ujson_args@configor@@@configor@@@std@@@std@@@2@XZ 10033c30 f i Pipi_edit.obj
 0001:00032c30       ?_Get_scary@?$_Tree@V?$_Tmap_traits@V?$basic_string@DU?$char_traits@D@std@@V?$allocator@D@2@@std@@V?$basic_config@Ujson_args@configor@@@configor@@U?$less@V?$basic_string@DU?$char_traits@D@std@@V?$allocator@D@2@@std@@@2@V?$allocator@U?$pair@$$CBV?$basic_string@DU?$char_traits@D@std@@V?$allocator@D@2@@std@@V?$basic_config@Ujson_args@configor@@@configor@@@std@@@2@$0A@@std@@@std@@IAEPAV?$_Tree_val@U?$_Tree_simple_types@U?$pair@$$CBV?$basic_string@DU?$char_traits@D@std@@V?$allocator@D@2@@std@@V?$basic_config@Ujson_args@configor@@@configor@@@std@@@std@@@2@XZ 10033c30 f i Pipi_edit.obj
 0001:00032c50       ?sputn@?$basic_streambuf@DU?$char_traits@D@std@@@std@@QAE_JPBD_J@Z 10033c50 f i Pipi_edit.obj
 0001:00032c80       ?sputc@?$basic_streambuf@DU?$char_traits@D@std@@@std@@QAEHD@Z 10033c80 f i Pipi_edit.obj
 0001:00032cf0       ?pubsync@?$basic_streambuf@DU?$char_traits@D@std@@@std@@QAEHXZ 10033cf0 f i Pipi_edit.obj
 0001:00032d10       ?_Eos@?$basic_string@DU?$char_traits@D@std@@V?$allocator@D@2@@std@@AAEXI@Z 10033d10 f i Pipi_edit.obj
 0001:00032d50       ?insert@?$basic_string@DU?$char_traits@D@std@@V?$allocator@D@2@@std@@QAEAAV12@IID@Z 10033d50 f i Pipi_edit.obj
 0001:00032e00       ??R<lambda_6607a66f2a10a1261ff9db96cba1015b>@@QBE@QADQBDIIID@Z 10033e00 f i Pipi_edit.obj
 0001:00032e60       ?append@?$basic_string@DU?$char_traits@D@std@@V?$allocator@D@2@@std@@QAEAAV12@ID@Z 10033e60 f i Pipi_edit.obj
 0001:00032f00       ??R<lambda_c1b8c41cb4019640539cfd828748c4d4>@@QBE@QADQBDIID@Z 10033f00 f i Pipi_edit.obj
 0001:00032f60       ??4?$basic_string@DU?$char_traits@D@std@@V?$allocator@D@2@@std@@QAEAAV01@$$QAV01@@Z 10033f60 f i Pipi_edit.obj
 0001:00032fa0       ??A?$array@I$05@std@@QBEABII@Z 10033fa0 f i Pipi_edit.obj
 0001:00032fc0       ??A?$array@E$0BAA@@std@@QBEABEI@Z 10033fc0 f i Pipi_edit.obj
 0001:00032fe0       ?_Destroy@?$vector@V?$basic_config@Ujson_args@configor@@@configor@@V?$allocator@V?$basic_config@Ujson_args@configor@@@configor@@@std@@@std@@AAEXPAV?$basic_config@Ujson_args@configor@@@configor@@0@Z 10033fe0 f i Pipi_edit.obj
 0001:00033010       ?_Umove_if_noexcept1@?$vector@V?$basic_config@Ujson_args@configor@@@configor@@V?$allocator@V?$basic_config@Ujson_args@configor@@@configor@@@std@@@std@@AAEXPAV?$basic_config@Ujson_args@configor@@@configor@@00U?$integral_constant@_N$00@2@@Z 10034010 f i Pipi_edit.obj
 0001:00033040       ?peek@?$basic_istream@DU?$char_traits@D@std@@@std@@QAEHXZ 10034040 f i Pipi_edit.obj
 0001:00033190       ?_Ipfx@?$basic_istream@DU?$char_traits@D@std@@@std@@QAE_N_N@Z 10034190 f i Pipi_edit.obj
 0001:000333a0       ?_Move_assign@?$basic_string@DU?$char_traits@D@std@@V?$allocator@D@2@@std@@AAEXAAV12@U_Equal_allocators@2@@Z 100343a0 f i Pipi_edit.obj
 0001:000333e0       ?snextc@?$basic_streambuf@DU?$char_traits@D@std@@@std@@QAEHXZ 100343e0 f i Pipi_edit.obj
 0001:00033470       ?_Gnpreinc@?$basic_streambuf@DU?$char_traits@D@std@@@std@@IAEPADXZ 10034470 f i Pipi_edit.obj
 0001:000334b0       ??$?HDU?$char_traits@D@std@@V?$allocator@D@1@@std@@YA?AV?$basic_string@DU?$char_traits@D@std@@V?$allocator@D@2@@0@QBDABV10@@Z 100344b0 f i Pipi_edit.obj
 0001:00033540       ??$?HDU?$char_traits@D@std@@V?$allocator@D@1@@std@@YA?AV?$basic_string@DU?$char_traits@D@std@@V?$allocator@D@2@@0@QBD$$QAV10@@Z 10034540 f i Pipi_edit.obj
 0001:00033580       ??$?6U?$char_traits@D@std@@@std@@YAAAV?$basic_ostream@DU?$char_traits@D@std@@@0@AAV10@PBD@Z 10034580 f i Pipi_edit.obj
 0001:000338b0       ??$?6DU?$char_traits@D@std@@V?$allocator@D@1@@std@@YAAAV?$basic_ostream@DU?$char_traits@D@std@@@0@AAV10@ABV?$basic_string@DU?$char_traits@D@std@@V?$allocator@D@2@@0@@Z 100348b0 f i Pipi_edit.obj
 0001:000338e0       ??$?6U?$char_traits@D@std@@@std@@YAAAV?$basic_ostream@DU?$char_traits@D@std@@@0@AAV10@D@Z 100348e0 f i Pipi_edit.obj
 0001:00033bd0       ??$?6V?$basic_config@Ujson_args@configor@@@configor@@X@configor@@YAAAV?$basic_ostream@DU?$char_traits@D@std@@@std@@AAV12@ABV?$basic_config@Ujson_args@configor@@@0@@Z 10034bd0 f i Pipi_edit.obj
 0001:00033c70       ??$?0AAY07$$CBD$$BY07DX@?$basic_config@Ujson_args@configor@@@configor@@QAE@AAY07$$CBD@Z 10034c70 f i Pipi_edit.obj
 0001:00033c70       ??$?0AAY04$$CBD$$BY04DX@?$basic_config@Ujson_args@configor@@@configor@@QAE@AAY04$$CBD@Z 10034c70 f i Pipi_edit.obj
 0001:00033ce0       ??$?0V?$basic_string@DU?$char_traits@D@std@@V?$allocator@D@2@@std@@V01@X@?$basic_config@Ujson_args@configor@@@configor@@QAE@$$QAV?$basic_string@DU?$char_traits@D@std@@V?$allocator@D@2@@std@@@Z 10034ce0 f i Pipi_edit.obj
 0001:00033d50       ??$?0AAHHX@?$basic_config@Ujson_args@configor@@@configor@@QAE@AAH@Z 10034d50 f i Pipi_edit.obj
 0001:00033dc0       ??$all_of@PBV?$basic_config@Ujson_args@configor@@@configor@@V<lambda_e76e69f9a7ae70d577c8760de63108b9>@@@std@@YA_NPBV?$basic_config@Ujson_args@configor@@@configor@@0V<lambda_e76e69f9a7ae70d577c8760de63108b9>@@@Z 10034dc0 f i Pipi_edit.obj
 0001:00033e30       ??$emplace@AAV?$basic_string@DU?$char_traits@D@std@@V?$allocator@D@2@@std@@AAV?$basic_config@Ujson_args@configor@@@configor@@@?$_Tree@V?$_Tmap_traits@V?$basic_string@DU?$char_traits@D@std@@V?$allocator@D@2@@std@@V?$basic_config@Ujson_args@configor@@@configor@@U?$less@V?$basic_string@DU?$char_traits@D@std@@V?$allocator@D@2@@std@@@2@V?$allocator@U?$pair@$$CBV?$basic_string@DU?$char_traits@D@std@@V?$allocator@D@2@@std@@V?$basic_config@Ujson_args@configor@@@configor@@@std@@@2@$0A@@std@@@std@@QAE?AU?$pair@V?$_Tree_iterator@V?$_Tree_val@U?$_Tree_simple_types@U?$pair@$$CBV?$basic_string@DU?$char_traits@D@std@@V?$allocator@D@2@@std@@V?$basic_config@Ujson_args@configor@@@configor@@@std@@@std@@@std@@@std@@_N@1@AAV?$basic_string@DU?$char_traits@D@std@@V?$allocator@D@2@@1@AAV?$basic_config@Ujson_args@configor@@@configor@@@Z 10034e30 f i Pipi_edit.obj
 0001:00033ea0       ??$for_each@PBV?$basic_config@Ujson_args@configor@@@configor@@V<lambda_59a2c67489030a4876926c40fd567950>@@@std@@YA?AV<lambda_59a2c67489030a4876926c40fd567950>@@PBV?$basic_config@Ujson_args@configor@@@configor@@0V1@@Z 10034ea0 f i Pipi_edit.obj
 0001:00033f10       ??$assign@PBV?$basic_config@Ujson_args@configor@@@configor@@$0A@@?$vector@V?$basic_config@Ujson_args@configor@@@configor@@V?$allocator@V?$basic_config@Ujson_args@configor@@@configor@@@std@@@std@@QAEXPBV?$basic_config@Ujson_args@configor@@@configor@@0@Z 10034f10 f i Pipi_edit.obj
 0001:00034000       ??$use_facet@V?$num_put@DV?$ostreambuf_iterator@DU?$char_traits@D@std@@@std@@@std@@@std@@YAABV?$num_put@DV?$ostreambuf_iterator@DU?$char_traits@D@std@@@std@@@0@ABVlocale@0@@Z 10035000 f i Pipi_edit.obj
 0001:00034120       ??$_Traits_compare@U?$char_traits@D@std@@@std@@YAHQBDI0I@Z 10035120 f i Pipi_edit.obj
 0001:00034180       ??$_Float_put_desired_precision@O@std@@YAH_JH@Z 10035180 f i Pipi_edit.obj
 0001:00034180       ??$_Float_put_desired_precision@N@std@@YAH_JH@Z 10035180 f i Pipi_edit.obj
 0001:00034210       ??$use_facet@V?$numpunct@D@std@@@std@@YAABV?$numpunct@D@0@ABVlocale@0@@Z 10035210 f i Pipi_edit.obj
 0001:00034330       ??$setfill@D@std@@YA?AU?$_Fillobj@D@0@D@Z 10035330 f i Pipi_edit.obj
 0001:00034350       ??$?6DU?$char_traits@D@std@@D@std@@YAAAV?$basic_ostream@DU?$char_traits@D@std@@@0@AAV10@ABU?$_Fillobj@D@0@@Z 10035350 f i Pipi_edit.obj
 0001:00034370       ??$?6DU?$char_traits@D@std@@_J@std@@YAAAV?$basic_ostream@DU?$char_traits@D@std@@@0@AAV10@ABU?$_Smanip@_J@0@@Z 10035370 f i Pipi_edit.obj
 0001:000343a0       ??$destroy@V?$map@V?$basic_string@DU?$char_traits@D@std@@V?$allocator@D@2@@std@@V?$basic_config@Ujson_args@configor@@@configor@@U?$less@V?$basic_string@DU?$char_traits@D@std@@V?$allocator@D@2@@std@@@2@V?$allocator@U?$pair@$$CBV?$basic_string@DU?$char_traits@D@std@@V?$allocator@D@2@@std@@V?$basic_config@Ujson_args@configor@@@configor@@@std@@@2@@std@@@?$config_value@V?$basic_config@Ujson_args@configor@@@configor@@@detail@configor@@QAEXPAV?$map@V?$basic_string@DU?$char_traits@D@std@@V?$allocator@D@2@@std@@V?$basic_config@Ujson_args@configor@@@configor@@U?$less@V?$basic_string@DU?$char_traits@D@std@@V?$allocator@D@2@@std@@@2@V?$allocator@U?$pair@$$CBV?$basic_string@DU?$char_traits@D@std@@V?$allocator@D@2@@std@@V?$basic_config@Ujson_args@configor@@@configor@@@std@@@2@@std@@@Z 100353a0 f i Pipi_edit.obj
 0001:000343f0       ??$destroy@V?$vector@V?$basic_config@Ujson_args@configor@@@configor@@V?$allocator@V?$basic_config@Ujson_args@configor@@@configor@@@std@@@std@@@?$config_value@V?$basic_config@Ujson_args@configor@@@configor@@@detail@configor@@QAEXPAV?$vector@V?$basic_config@Ujson_args@configor@@@configor@@V?$allocator@V?$basic_config@Ujson_args@configor@@@configor@@@std@@@std@@@Z 100353f0 f i Pipi_edit.obj
 0001:00034440       ??$destroy@V?$basic_string@DU?$char_traits@D@std@@V?$allocator@D@2@@std@@@?$config_value@V?$basic_config@Ujson_args@configor@@@configor@@@detail@configor@@QAEXPAV?$basic_string@DU?$char_traits@D@std@@V?$allocator@D@2@@std@@@Z 10035440 f i Pipi_edit.obj
 0001:00034490       ??$create@V?$map@V?$basic_string@DU?$char_traits@D@std@@V?$allocator@D@2@@std@@V?$basic_config@Ujson_args@configor@@@configor@@U?$less@V?$basic_string@DU?$char_traits@D@std@@V?$allocator@D@2@@std@@@2@V?$allocator@U?$pair@$$CBV?$basic_string@DU?$char_traits@D@std@@V?$allocator@D@2@@std@@V?$basic_config@Ujson_args@configor@@@configor@@@std@@@2@@std@@AAV12@@?$config_value@V?$basic_config@Ujson_args@configor@@@configor@@@detail@configor@@QAEPAV?$map@V?$basic_string@DU?$char_traits@D@std@@V?$allocator@D@2@@std@@V?$basic_config@Ujson_args@configor@@@configor@@U?$less@V?$basic_string@DU?$char_traits@D@std@@V?$allocator@D@2@@std@@@2@V?$allocator@U?$pair@$$CBV?$basic_string@DU?$char_traits@D@std@@V?$allocator@D@2@@std@@V?$basic_config@Ujson_args@configor@@@configor@@@std@@@2@@std@@AAV34@@Z 10035490 f i Pipi_edit.obj
 0001:000344f0       ??$create@V?$vector@V?$basic_config@Ujson_args@configor@@@configor@@V?$allocator@V?$basic_config@Ujson_args@configor@@@configor@@@std@@@std@@AAV12@@?$config_value@V?$basic_config@Ujson_args@configor@@@configor@@@detail@configor@@QAEPAV?$vector@V?$basic_config@Ujson_args@configor@@@configor@@V?$allocator@V?$basic_config@Ujson_args@configor@@@configor@@@std@@@std@@AAV34@@Z 100354f0 f i Pipi_edit.obj
 0001:00034550       ??$create@V?$basic_string@DU?$char_traits@D@std@@V?$allocator@D@2@@std@@AAV12@@?$config_value@V?$basic_config@Ujson_args@configor@@@configor@@@detail@configor@@QAEPAV?$basic_string@DU?$char_traits@D@std@@V?$allocator@D@2@@std@@AAV34@@Z 10035550 f i Pipi_edit.obj
 0001:00034550       ??$create@V?$basic_string@DU?$char_traits@D@std@@V?$allocator@D@2@@std@@ABV12@@?$config_value@V?$basic_config@Ujson_args@configor@@@configor@@@detail@configor@@QAEPAV?$basic_string@DU?$char_traits@D@std@@V?$allocator@D@2@@std@@ABV34@@Z 10035550 f i Pipi_edit.obj
 0001:000345b0       ??$create@V?$map@V?$basic_string@DU?$char_traits@D@std@@V?$allocator@D@2@@std@@V?$basic_config@Ujson_args@configor@@@configor@@U?$less@V?$basic_string@DU?$char_traits@D@std@@V?$allocator@D@2@@std@@@2@V?$allocator@U?$pair@$$CBV?$basic_string@DU?$char_traits@D@std@@V?$allocator@D@2@@std@@V?$basic_config@Ujson_args@configor@@@configor@@@std@@@2@@std@@$$V@?$config_value@V?$basic_config@Ujson_args@configor@@@configor@@@detail@configor@@QAEPAV?$map@V?$basic_string@DU?$char_traits@D@std@@V?$allocator@D@2@@std@@V?$basic_config@Ujson_args@configor@@@configor@@U?$less@V?$basic_string@DU?$char_traits@D@std@@V?$allocator@D@2@@std@@@2@V?$allocator@U?$pair@$$CBV?$basic_string@DU?$char_traits@D@std@@V?$allocator@D@2@@std@@V?$basic_config@Ujson_args@configor@@@configor@@@std@@@2@@std@@XZ 100355b0 f i Pipi_edit.obj
 0001:00034600       ??$create@V?$vector@V?$basic_config@Ujson_args@configor@@@configor@@V?$allocator@V?$basic_config@Ujson_args@configor@@@configor@@@std@@@std@@$$V@?$config_value@V?$basic_config@Ujson_args@configor@@@configor@@@detail@configor@@QAEPAV?$vector@V?$basic_config@Ujson_args@configor@@@configor@@V?$allocator@V?$basic_config@Ujson_args@configor@@@configor@@@std@@@std@@XZ 10035600 f i Pipi_edit.obj
 0001:00034650       ??$create@V?$basic_string@DU?$char_traits@D@std@@V?$allocator@D@2@@std@@$$V@?$config_value@V?$basic_config@Ujson_args@configor@@@configor@@@detail@configor@@QAEPAV?$basic_string@DU?$char_traits@D@std@@V?$allocator@D@2@@std@@XZ 10035650 f i Pipi_edit.obj
 0001:000346a0       ??$_Reallocate_for@V<lambda_c6753c90be971fc9cc00b4f35f237a75>@@D@?$basic_string@DU?$char_traits@D@std@@V?$allocator@D@2@@std@@AAEAAV01@IV<lambda_c6753c90be971fc9cc00b4f35f237a75>@@D@Z 100356a0 f i Pipi_edit.obj
 0001:00034790       ??$_Get_size_of_n@$0BA@@std@@YAII@Z 10035790 f i Pipi_edit.obj
 0001:000347c0       ??$_Reallocate_grow_by@V<lambda_6607a66f2a10a1261ff9db96cba1015b>@@IID@?$basic_string@DU?$char_traits@D@std@@V?$allocator@D@2@@std@@AAEAAV01@IV<lambda_6607a66f2a10a1261ff9db96cba1015b>@@IID@Z 100357c0 f i Pipi_edit.obj
 0001:00034900       ??$_Reallocate_grow_by@V<lambda_c1b8c41cb4019640539cfd828748c4d4>@@ID@?$basic_string@DU?$char_traits@D@std@@V?$allocator@D@2@@std@@AAEAAV01@IV<lambda_c1b8c41cb4019640539cfd828748c4d4>@@ID@Z 10035900 f i Pipi_edit.obj
 0001:00034a40       ??$_Destroy_range@V?$allocator@V?$basic_config@Ujson_args@configor@@@configor@@@std@@@std@@YAXPAV?$basic_config@Ujson_args@configor@@@configor@@QAV12@AAV?$allocator@V?$basic_config@Ujson_args@configor@@@configor@@@0@@Z 10035a40 f i Pipi_edit.obj
 0001:00034ab0       ??$_Uninitialized_move@PAV?$basic_config@Ujson_args@configor@@@configor@@V?$allocator@V?$basic_config@Ujson_args@configor@@@configor@@@std@@@std@@YAPAV?$basic_config@Ujson_args@configor@@@configor@@QAV12@0PAV12@AAV?$allocator@V?$basic_config@Ujson_args@configor@@@configor@@@0@@Z 10035ab0 f i Pipi_edit.obj
 0001:00034b80       ??$_Pocma@V?$allocator@D@std@@@std@@YAXAAV?$allocator@D@0@0@Z 10035b80 f i Pipi_edit.obj
 0001:00034ba0       ??0args@?$json_serializer@V?$basic_config@Ujson_args@configor@@@configor@@@detail@configor@@QAE@XZ 10035ba0 f i Pipi_edit.obj
 0001:00034bd0       ??0?$_Tree_iterator@V?$_Tree_val@U?$_Tree_simple_types@U?$pair@$$CBV?$basic_string@DU?$char_traits@D@std@@V?$allocator@D@2@@std@@V?$basic_config@Ujson_args@configor@@@configor@@@std@@@std@@@std@@@std@@QAE@PAU?$_Tree_node@U?$pair@$$CBV?$basic_string@DU?$char_traits@D@std@@V?$allocator@D@2@@std@@V?$basic_config@Ujson_args@configor@@@configor@@@std@@PAX@1@PBV?$_Tree_val@U?$_Tree_simple_types@U?$pair@$$CBV?$basic_string@DU?$char_traits@D@std@@V?$allocator@D@2@@std@@V?$basic_config@Ujson_args@configor@@@configor@@@std@@@std@@@1@@Z 10035bd0 f i Pipi_edit.obj
 0001:00034bf0       ??0?$_Tree_const_iterator@V?$_Tree_val@U?$_Tree_simple_types@U?$pair@$$CBV?$basic_string@DU?$char_traits@D@std@@V?$allocator@D@2@@std@@V?$basic_config@Ujson_args@configor@@@configor@@@std@@@std@@@std@@@std@@QAE@PAU?$_Tree_node@U?$pair@$$CBV?$basic_string@DU?$char_traits@D@std@@V?$allocator@D@2@@std@@V?$basic_config@Ujson_args@configor@@@configor@@@std@@PAX@1@PBV?$_Tree_val@U?$_Tree_simple_types@U?$pair@$$CBV?$basic_string@DU?$char_traits@D@std@@V?$allocator@D@2@@std@@V?$basic_config@Ujson_args@configor@@@configor@@@std@@@std@@@1@@Z 10035bf0 f i Pipi_edit.obj
 0001:00034c10       ??1?$_Uninitialized_backout_al@V?$allocator@V?$basic_config@Ujson_args@configor@@@configor@@@std@@@std@@QAE@XZ 10035c10 f i Pipi_edit.obj
 0001:00034c40       ??0?$_Uninitialized_backout_al@V?$allocator@V?$basic_config@Ujson_args@configor@@@configor@@@std@@@std@@QAE@PAV?$basic_config@Ujson_args@configor@@@configor@@AAV?$allocator@V?$basic_config@Ujson_args@configor@@@configor@@@1@@Z 10035c40 f i Pipi_edit.obj
 0001:00034c70       ?deallocate@?$_Default_allocator_traits@V?$allocator@V?$basic_string@DU?$char_traits@D@std@@V?$allocator@D@2@@std@@@std@@@std@@SAXAAV?$allocator@V?$basic_string@DU?$char_traits@D@std@@V?$allocator@D@2@@std@@@2@QAV?$basic_string@DU?$char_traits@D@std@@V?$allocator@D@2@@2@I@Z 10035c70 f i Pipi_edit.obj
 0001:00034c90       ?allocate@?$_Default_allocator_traits@V?$allocator@V?$basic_string@DU?$char_traits@D@std@@V?$allocator@D@2@@std@@@std@@@std@@SAPAV?$basic_string@DU?$char_traits@D@std@@V?$allocator@D@2@@2@AAV?$allocator@V?$basic_string@DU?$char_traits@D@std@@V?$allocator@D@2@@std@@@2@I@Z 10035c90 f i Pipi_edit.obj
 0001:00034cb0       ?deallocate@?$_Default_allocator_traits@V?$allocator@V?$vector@V?$basic_config@Ujson_args@configor@@@configor@@V?$allocator@V?$basic_config@Ujson_args@configor@@@configor@@@std@@@std@@@std@@@std@@SAXAAV?$allocator@V?$vector@V?$basic_config@Ujson_args@configor@@@configor@@V?$allocator@V?$basic_config@Ujson_args@configor@@@configor@@@std@@@std@@@2@QAV?$vector@V?$basic_config@Ujson_args@configor@@@configor@@V?$allocator@V?$basic_config@Ujson_args@configor@@@configor@@@std@@@2@I@Z 10035cb0 f i Pipi_edit.obj
 0001:00034cd0       ?allocate@?$_Default_allocator_traits@V?$allocator@V?$vector@V?$basic_config@Ujson_args@configor@@@configor@@V?$allocator@V?$basic_config@Ujson_args@configor@@@configor@@@std@@@std@@@std@@@std@@SAPAV?$vector@V?$basic_config@Ujson_args@configor@@@configor@@V?$allocator@V?$basic_config@Ujson_args@configor@@@configor@@@std@@@2@AAV?$allocator@V?$vector@V?$basic_config@Ujson_args@configor@@@configor@@V?$allocator@V?$basic_config@Ujson_args@configor@@@configor@@@std@@@std@@@2@I@Z 10035cd0 f i Pipi_edit.obj
 0001:00034cf0       ?allocate@?$_Default_allocator_traits@V?$allocator@V?$map@V?$basic_string@DU?$char_traits@D@std@@V?$allocator@D@2@@std@@V?$basic_config@Ujson_args@configor@@@configor@@U?$less@V?$basic_string@DU?$char_traits@D@std@@V?$allocator@D@2@@std@@@2@V?$allocator@U?$pair@$$CBV?$basic_string@DU?$char_traits@D@std@@V?$allocator@D@2@@std@@V?$basic_config@Ujson_args@configor@@@configor@@@std@@@2@@std@@@std@@@std@@SAPAV?$map@V?$basic_string@DU?$char_traits@D@std@@V?$allocator@D@2@@std@@V?$basic_config@Ujson_args@configor@@@configor@@U?$less@V?$basic_string@DU?$char_traits@D@std@@V?$allocator@D@2@@std@@@2@V?$allocator@U?$pair@$$CBV?$basic_string@DU?$char_traits@D@std@@V?$allocator@D@2@@std@@V?$basic_config@Ujson_args@configor@@@configor@@@std@@@2@@2@AAV?$allocator@V?$map@V?$basic_string@DU?$char_traits@D@std@@V?$allocator@D@2@@std@@V?$basic_config@Ujson_args@configor@@@configor@@U?$less@V?$basic_string@DU?$char_traits@D@std@@V?$allocator@D@2@@std@@@2@V?$allocator@U?$pair@$$CBV?$basic_string@DU?$char_traits@D@std@@V?$allocator@D@2@@std@@V?$basic_config@Ujson_args@configor@@@configor@@@std@@@2@@std@@@2@I@Z 10035cf0 f i Pipi_edit.obj
 0001:00034d10       ??0?$_Fillobj@D@std@@QAE@D@Z 10035d10 f i Pipi_edit.obj
 0001:00034d30       ?_Getcat@?$numpunct@D@std@@SAIPAPBVfacet@locale@2@PBV42@@Z 10035d30 f i Pipi_edit.obj
 0001:00034e20       ?_Getcat@?$num_put@DV?$ostreambuf_iterator@DU?$char_traits@D@std@@@std@@@std@@SAIPAPBVfacet@locale@2@PBV42@@Z 10035e20 f i Pipi_edit.obj
 0001:00034f10       ??0?$_Tree_unchecked_const_iterator@V?$_Tree_val@U?$_Tree_simple_types@U?$pair@$$CBV?$basic_string@DU?$char_traits@D@std@@V?$allocator@D@2@@std@@V?$basic_config@Ujson_args@configor@@@configor@@@std@@@std@@@std@@U_Iterator_base0@2@@std@@QAE@PAU?$_Tree_node@U?$pair@$$CBV?$basic_string@DU?$char_traits@D@std@@V?$allocator@D@2@@std@@V?$basic_config@Ujson_args@configor@@@configor@@@std@@PAX@1@PBV?$_Tree_val@U?$_Tree_simple_types@U?$pair@$$CBV?$basic_string@DU?$char_traits@D@std@@V?$allocator@D@2@@std@@V?$basic_config@Ujson_args@configor@@@configor@@@std@@@std@@@1@@Z 10035f10 f i Pipi_edit.obj
 0001:00034f40       ?fill@?$basic_ios@DU?$char_traits@D@std@@@std@@QAEDD@Z 10035f40 f i Pipi_edit.obj
 0001:00034f70       ?insert@?$basic_string@DU?$char_traits@D@std@@V?$allocator@D@2@@std@@QAEAAV12@IQBD@Z 10035f70 f i Pipi_edit.obj
 0001:00034fb0       ??0?$basic_string@DU?$char_traits@D@std@@V?$allocator@D@2@@std@@QAE@U_String_constructor_concat_tag@1@ABV01@QBDI2I@Z 10035fb0 f i Pipi_edit.obj
 0001:00035150       ??0?$numpunct@D@std@@QAE@ABV_Locinfo@1@I_N@Z 10036150 f i Pipi_edit.obj
 0001:000351c0       ??0?$num_put@DV?$ostreambuf_iterator@DU?$char_traits@D@std@@@std@@@std@@QAE@ABV_Locinfo@1@I@Z 100361c0 f i Pipi_edit.obj
 0001:00035230       ?insert@?$basic_string@DU?$char_traits@D@std@@V?$allocator@D@2@@std@@QAEAAV12@IQBDI@Z 10036230 f i Pipi_edit.obj
 0001:00035350       ??R<lambda_4d79bb85f269e6e8002a4599002d832c>@@QBE@QADQBDII1I@Z 10036350 f i Pipi_edit.obj
 0001:000353b0       ?_Init@?$numpunct@D@std@@IAEXABV_Locinfo@2@_N@Z 100363b0 f i Pipi_edit.obj
 0001:00035520       ??1?$_Tidy_guard@V?$numpunct@D@std@@@std@@QAE@XZ 10036520 f i Pipi_edit.obj
 0001:00035540       ??$to_config@V?$basic_config@Ujson_args@configor@@@configor@@$$BY07DX@?$config_bind@$$BY07D@configor@@SAXAAV?$basic_config@Ujson_args@configor@@@1@AAY07$$CBD@Z 10036540 f i Pipi_edit.obj
 0001:00035540       ??$to_config@V?$basic_config@Ujson_args@configor@@@configor@@$$BY04DX@?$config_bind@$$BY04D@configor@@SAXAAV?$basic_config@Ujson_args@configor@@@1@AAY04$$CBD@Z 10036540 f i Pipi_edit.obj
 0001:00035560       ??$to_config@V?$basic_config@Ujson_args@configor@@@configor@@V?$basic_string@DU?$char_traits@D@std@@V?$allocator@D@2@@std@@X@?$config_bind@V?$basic_string@DU?$char_traits@D@std@@V?$allocator@D@2@@std@@@configor@@SAXAAV?$basic_config@Ujson_args@configor@@@1@ABV?$basic_string@DU?$char_traits@D@std@@V?$allocator@D@2@@std@@@Z 10036560 f i Pipi_edit.obj
 0001:00035580       ??$to_config@V?$basic_config@Ujson_args@configor@@@configor@@HX@?$config_bind@H@configor@@SAXAAV?$basic_config@Ujson_args@configor@@@1@ABH@Z 10036580 f i Pipi_edit.obj
 0001:000355a0       ??$_Insert_string@DU?$char_traits@D@std@@I@std@@YAAAV?$basic_ostream@DU?$char_traits@D@std@@@0@AAV10@QBDI@Z 100365a0 f i Pipi_edit.obj
 0001:00035870       ??$dump_config@V?$basic_config@Ujson_args@configor@@@configor@@X@configor@@YAXABV?$basic_config@Ujson_args@configor@@@0@AAV?$basic_ostream@DU?$char_traits@D@std@@@std@@ABUargs@?$json_serializer@V?$basic_config@Ujson_args@configor@@@configor@@@detail@0@PAVerror_handler@0@@Z 10036870 f i Pipi_edit.obj
 0001:00035910       ??$_Emplace@AAV?$basic_string@DU?$char_traits@D@std@@V?$allocator@D@2@@std@@AAV?$basic_config@Ujson_args@configor@@@configor@@@?$_Tree@V?$_Tmap_traits@V?$basic_string@DU?$char_traits@D@std@@V?$allocator@D@2@@std@@V?$basic_config@Ujson_args@configor@@@configor@@U?$less@V?$basic_string@DU?$char_traits@D@std@@V?$allocator@D@2@@std@@@2@V?$allocator@U?$pair@$$CBV?$basic_string@DU?$char_traits@D@std@@V?$allocator@D@2@@std@@V?$basic_config@Ujson_args@configor@@@configor@@@std@@@2@$0A@@std@@@std@@IAE?AU?$pair@PAU?$_Tree_node@U?$pair@$$CBV?$basic_string@DU?$char_traits@D@std@@V?$allocator@D@2@@std@@V?$basic_config@Ujson_args@configor@@@configor@@@std@@PAX@std@@_N@1@AAV?$basic_string@DU?$char_traits@D@std@@V?$allocator@D@2@@1@AAV?$basic_config@Ujson_args@configor@@@configor@@@Z 10036910 f i Pipi_edit.obj
 0001:00035a20       ??$?0V?$_Tree_iterator@V?$_Tree_val@U?$_Tree_simple_types@U?$pair@$$CBV?$basic_string@DU?$char_traits@D@std@@V?$allocator@D@2@@std@@V?$basic_config@Ujson_args@configor@@@configor@@@std@@@std@@@std@@@std@@AB_N$0A@@?$pair@V?$_Tree_iterator@V?$_Tree_val@U?$_Tree_simple_types@U?$pair@$$CBV?$basic_string@DU?$char_traits@D@std@@V?$allocator@D@2@@std@@V?$basic_config@Ujson_args@configor@@@configor@@@std@@@std@@@std@@@std@@_N@std@@QAE@$$QAV?$_Tree_iterator@V?$_Tree_val@U?$_Tree_simple_types@U?$pair@$$CBV?$basic_string@DU?$char_traits@D@std@@V?$allocator@D@2@@std@@V?$basic_config@Ujson_args@configor@@@configor@@@std@@@std@@@std@@@1@AB_N@Z 10036a20 f i Pipi_edit.obj
 0001:00035a60       ??$_Assign_range@PBV?$basic_config@Ujson_args@configor@@@configor@@@?$vector@V?$basic_config@Ujson_args@configor@@@configor@@V?$allocator@V?$basic_config@Ujson_args@configor@@@configor@@@std@@@std@@AAEXPBV?$basic_config@Ujson_args@configor@@@configor@@0Uforward_iterator_tag@1@@Z 10036a60 f i Pipi_edit.obj
 0001:00035b80       ??$destroy@V?$map@V?$basic_string@DU?$char_traits@D@std@@V?$allocator@D@2@@std@@V?$basic_config@Ujson_args@configor@@@configor@@U?$less@V?$basic_string@DU?$char_traits@D@std@@V?$allocator@D@2@@std@@@2@V?$allocator@U?$pair@$$CBV?$basic_string@DU?$char_traits@D@std@@V?$allocator@D@2@@std@@V?$basic_config@Ujson_args@configor@@@configor@@@std@@@2@@std@@@?$_Default_allocator_traits@V?$allocator@V?$map@V?$basic_string@DU?$char_traits@D@std@@V?$allocator@D@2@@std@@V?$basic_config@Ujson_args@configor@@@configor@@U?$less@V?$basic_string@DU?$char_traits@D@std@@V?$allocator@D@2@@std@@@2@V?$allocator@U?$pair@$$CBV?$basic_string@DU?$char_traits@D@std@@V?$allocator@D@2@@std@@V?$basic_config@Ujson_args@configor@@@configor@@@std@@@2@@std@@@std@@@std@@SAXAAV?$allocator@V?$map@V?$basic_string@DU?$char_traits@D@std@@V?$allocator@D@2@@std@@V?$basic_config@Ujson_args@configor@@@configor@@U?$less@V?$basic_string@DU?$char_traits@D@std@@V?$allocator@D@2@@std@@@2@V?$allocator@U?$pair@$$CBV?$basic_string@DU?$char_traits@D@std@@V?$allocator@D@2@@std@@V?$basic_config@Ujson_args@configor@@@configor@@@std@@@2@@std@@@1@QAV?$map@V?$basic_string@DU?$char_traits@D@std@@V?$allocator@D@2@@std@@V?$basic_config@Ujson_args@configor@@@configor@@U?$less@V?$basic_string@DU?$char_traits@D@std@@V?$allocator@D@2@@std@@@2@V?$allocator@U?$pair@$$CBV?$basic_string@DU?$char_traits@D@std@@V?$allocator@D@2@@std@@V?$basic_config@Ujson_args@configor@@@configor@@@std@@@2@@1@@Z 10036b80 f i Pipi_edit.obj
 0001:00035b90       ??$destroy@V?$vector@V?$basic_config@Ujson_args@configor@@@configor@@V?$allocator@V?$basic_config@Ujson_args@configor@@@configor@@@std@@@std@@@?$_Default_allocator_traits@V?$allocator@V?$vector@V?$basic_config@Ujson_args@configor@@@configor@@V?$allocator@V?$basic_config@Ujson_args@configor@@@configor@@@std@@@std@@@std@@@std@@SAXAAV?$allocator@V?$vector@V?$basic_config@Ujson_args@configor@@@configor@@V?$allocator@V?$basic_config@Ujson_args@configor@@@configor@@@std@@@std@@@1@QAV?$vector@V?$basic_config@Ujson_args@configor@@@configor@@V?$allocator@V?$basic_config@Ujson_args@configor@@@configor@@@std@@@1@@Z 10036b90 f i Pipi_edit.obj
 0001:00035ba0       ??$destroy@V?$basic_string@DU?$char_traits@D@std@@V?$allocator@D@2@@std@@@?$_Default_allocator_traits@V?$allocator@V?$basic_string@DU?$char_traits@D@std@@V?$allocator@D@2@@std@@@std@@@std@@SAXAAV?$allocator@V?$basic_string@DU?$char_traits@D@std@@V?$allocator@D@2@@std@@@1@QAV?$basic_string@DU?$char_traits@D@std@@V?$allocator@D@2@@1@@Z 10036ba0 f i Pipi_edit.obj
 0001:00035bb0       ??$construct@V?$map@V?$basic_string@DU?$char_traits@D@std@@V?$allocator@D@2@@std@@V?$basic_config@Ujson_args@configor@@@configor@@U?$less@V?$basic_string@DU?$char_traits@D@std@@V?$allocator@D@2@@std@@@2@V?$allocator@U?$pair@$$CBV?$basic_string@DU?$char_traits@D@std@@V?$allocator@D@2@@std@@V?$basic_config@Ujson_args@configor@@@configor@@@std@@@2@@std@@AAV12@@?$_Default_allocator_traits@V?$allocator@V?$map@V?$basic_string@DU?$char_traits@D@std@@V?$allocator@D@2@@std@@V?$basic_config@Ujson_args@configor@@@configor@@U?$less@V?$basic_string@DU?$char_traits@D@std@@V?$allocator@D@2@@std@@@2@V?$allocator@U?$pair@$$CBV?$basic_string@DU?$char_traits@D@std@@V?$allocator@D@2@@std@@V?$basic_config@Ujson_args@configor@@@configor@@@std@@@2@@std@@@std@@@std@@SAXAAV?$allocator@V?$map@V?$basic_string@DU?$char_traits@D@std@@V?$allocator@D@2@@std@@V?$basic_config@Ujson_args@configor@@@configor@@U?$less@V?$basic_string@DU?$char_traits@D@std@@V?$allocator@D@2@@std@@@2@V?$allocator@U?$pair@$$CBV?$basic_string@DU?$char_traits@D@std@@V?$allocator@D@2@@std@@V?$basic_config@Ujson_args@configor@@@configor@@@std@@@2@@std@@@1@QAV?$map@V?$basic_string@DU?$char_traits@D@std@@V?$allocator@D@2@@std@@V?$basic_config@Ujson_args@configor@@@configor@@U?$less@V?$basic_string@DU?$char_traits@D@std@@V?$allocator@D@2@@std@@@2@V?$allocator@U?$pair@$$CBV?$basic_string@DU?$char_traits@D@std@@V?$allocator@D@2@@std@@V?$basic_config@Ujson_args@configor@@@configor@@@std@@@2@@1@AAV31@@Z 10036bb0 f i Pipi_edit.obj
 0001:00035bf0       ??$construct@V?$vector@V?$basic_config@Ujson_args@configor@@@configor@@V?$allocator@V?$basic_config@Ujson_args@configor@@@configor@@@std@@@std@@AAV12@@?$_Default_allocator_traits@V?$allocator@V?$vector@V?$basic_config@Ujson_args@configor@@@configor@@V?$allocator@V?$basic_config@Ujson_args@configor@@@configor@@@std@@@std@@@std@@@std@@SAXAAV?$allocator@V?$vector@V?$basic_config@Ujson_args@configor@@@configor@@V?$allocator@V?$basic_config@Ujson_args@configor@@@configor@@@std@@@std@@@1@QAV?$vector@V?$basic_config@Ujson_args@configor@@@configor@@V?$allocator@V?$basic_config@Ujson_args@configor@@@configor@@@std@@@1@AAV31@@Z 10036bf0 f i Pipi_edit.obj
 0001:00035c30       ??$construct@V?$basic_string@DU?$char_traits@D@std@@V?$allocator@D@2@@std@@ABV12@@?$_Default_allocator_traits@V?$allocator@V?$basic_string@DU?$char_traits@D@std@@V?$allocator@D@2@@std@@@std@@@std@@SAXAAV?$allocator@V?$basic_string@DU?$char_traits@D@std@@V?$allocator@D@2@@std@@@1@QAV?$basic_string@DU?$char_traits@D@std@@V?$allocator@D@2@@1@ABV31@@Z 10036c30 f i Pipi_edit.obj
 0001:00035c30       ??$construct@V?$basic_string@DU?$char_traits@D@std@@V?$allocator@D@2@@std@@AAV12@@?$_Default_allocator_traits@V?$allocator@V?$basic_string@DU?$char_traits@D@std@@V?$allocator@D@2@@std@@@std@@@std@@SAXAAV?$allocator@V?$basic_string@DU?$char_traits@D@std@@V?$allocator@D@2@@std@@@1@QAV?$basic_string@DU?$char_traits@D@std@@V?$allocator@D@2@@1@AAV31@@Z 10036c30 f i Pipi_edit.obj
 0001:00035c70       ??$construct@V?$map@V?$basic_string@DU?$char_traits@D@std@@V?$allocator@D@2@@std@@V?$basic_config@Ujson_args@configor@@@configor@@U?$less@V?$basic_string@DU?$char_traits@D@std@@V?$allocator@D@2@@std@@@2@V?$allocator@U?$pair@$$CBV?$basic_string@DU?$char_traits@D@std@@V?$allocator@D@2@@std@@V?$basic_config@Ujson_args@configor@@@configor@@@std@@@2@@std@@$$V@?$_Default_allocator_traits@V?$allocator@V?$map@V?$basic_string@DU?$char_traits@D@std@@V?$allocator@D@2@@std@@V?$basic_config@Ujson_args@configor@@@configor@@U?$less@V?$basic_string@DU?$char_traits@D@std@@V?$allocator@D@2@@std@@@2@V?$allocator@U?$pair@$$CBV?$basic_string@DU?$char_traits@D@std@@V?$allocator@D@2@@std@@V?$basic_config@Ujson_args@configor@@@configor@@@std@@@2@@std@@@std@@@std@@SAXAAV?$allocator@V?$map@V?$basic_string@DU?$char_traits@D@std@@V?$allocator@D@2@@std@@V?$basic_config@Ujson_args@configor@@@configor@@U?$less@V?$basic_string@DU?$char_traits@D@std@@V?$allocator@D@2@@std@@@2@V?$allocator@U?$pair@$$CBV?$basic_string@DU?$char_traits@D@std@@V?$allocator@D@2@@std@@V?$basic_config@Ujson_args@configor@@@configor@@@std@@@2@@std@@@1@QAV?$map@V?$basic_string@DU?$char_traits@D@std@@V?$allocator@D@2@@std@@V?$basic_config@Ujson_args@configor@@@configor@@U?$less@V?$basic_string@DU?$char_traits@D@std@@V?$allocator@D@2@@std@@@2@V?$allocator@U?$pair@$$CBV?$basic_string@DU?$char_traits@D@std@@V?$allocator@D@2@@std@@V?$basic_config@Ujson_args@configor@@@configor@@@std@@@2@@1@@Z 10036c70 f i Pipi_edit.obj
 0001:00035ca0       ??$construct@V?$vector@V?$basic_config@Ujson_args@configor@@@configor@@V?$allocator@V?$basic_config@Ujson_args@configor@@@configor@@@std@@@std@@$$V@?$_Default_allocator_traits@V?$allocator@V?$vector@V?$basic_config@Ujson_args@configor@@@configor@@V?$allocator@V?$basic_config@Ujson_args@configor@@@configor@@@std@@@std@@@std@@@std@@SAXAAV?$allocator@V?$vector@V?$basic_config@Ujson_args@configor@@@configor@@V?$allocator@V?$basic_config@Ujson_args@configor@@@configor@@@std@@@std@@@1@QAV?$vector@V?$basic_config@Ujson_args@configor@@@configor@@V?$allocator@V?$basic_config@Ujson_args@configor@@@configor@@@std@@@1@@Z 10036ca0 f i Pipi_edit.obj
 0001:00035cd0       ??$construct@V?$basic_string@DU?$char_traits@D@std@@V?$allocator@D@2@@std@@$$V@?$_Default_allocator_traits@V?$allocator@V?$basic_string@DU?$char_traits@D@std@@V?$allocator@D@2@@std@@@std@@@std@@SAXAAV?$allocator@V?$basic_string@DU?$char_traits@D@std@@V?$allocator@D@2@@std@@@1@QAV?$basic_string@DU?$char_traits@D@std@@V?$allocator@D@2@@1@@Z 10036cd0 f i Pipi_edit.obj
 0001:00035d00       ??$destroy@V?$basic_config@Ujson_args@configor@@@configor@@@?$_Default_allocator_traits@V?$allocator@V?$basic_config@Ujson_args@configor@@@configor@@@std@@@std@@SAXAAV?$allocator@V?$basic_config@Ujson_args@configor@@@configor@@@1@QAV?$basic_config@Ujson_args@configor@@@configor@@@Z 10036d00 f i Pipi_edit.obj
 0001:00035d10       ??$_Emplace_back@V?$basic_config@Ujson_args@configor@@@configor@@@?$_Uninitialized_backout_al@V?$allocator@V?$basic_config@Ujson_args@configor@@@configor@@@std@@@std@@QAEX$$QAV?$basic_config@Ujson_args@configor@@@configor@@@Z 10036d10 f i Pipi_edit.obj
 0001:00035d60       ??$_Reallocate_grow_by@V<lambda_4d79bb85f269e6e8002a4599002d832c>@@IPBDI@?$basic_string@DU?$char_traits@D@std@@V?$allocator@D@2@@std@@AAEAAV01@IV<lambda_4d79bb85f269e6e8002a4599002d832c>@@IPBDI@Z 10036d60 f i Pipi_edit.obj
 0001:00035ea0       ??$_Maklocstr@D@std@@YAPADPBDPADABU_Cvtvec@@@Z 10036ea0 f i Pipi_edit.obj
 0001:00035f40       ??$_Maklocchr@D@std@@YADDPADABU_Cvtvec@@@Z 10036f40 f i Pipi_edit.obj
 0001:00035f50       ??$_Getvals@D@?$numpunct@D@std@@IAEXDPBUlconv@@U_Cvtvec@@@Z 10036f50 f i Pipi_edit.obj
 0001:00035fb0       ??1?$json_serializer@V?$basic_config@Ujson_args@configor@@@configor@@@detail@configor@@QAE@XZ 10036fb0 f i Pipi_edit.obj
 0001:00035fe0       ??_G?$map@V?$basic_string@DU?$char_traits@D@std@@V?$allocator@D@2@@std@@V?$basic_config@Ujson_args@configor@@@configor@@U?$less@V?$basic_string@DU?$char_traits@D@std@@V?$allocator@D@2@@std@@@2@V?$allocator@U?$pair@$$CBV?$basic_string@DU?$char_traits@D@std@@V?$allocator@D@2@@std@@V?$basic_config@Ujson_args@configor@@@configor@@@std@@@2@@std@@QAEPAXI@Z 10036fe0 f i Pipi_edit.obj
 0001:00036010       ??_G?$vector@V?$basic_config@Ujson_args@configor@@@configor@@V?$allocator@V?$basic_config@Ujson_args@configor@@@configor@@@std@@@std@@QAEPAXI@Z 10037010 f i Pipi_edit.obj
 0001:00036040       ??_G?$basic_string@DU?$char_traits@D@std@@V?$allocator@D@2@@std@@QAEPAXI@Z 10037040 f i Pipi_edit.obj
 0001:00036070       ??_G?$basic_config@Ujson_args@configor@@@configor@@QAEPAXI@Z 10037070 f i Pipi_edit.obj
 0001:000360a0       ??1?$indent@V?$basic_string@DU?$char_traits@D@std@@V?$allocator@D@2@@std@@@detail@configor@@QAE@XZ 100370a0 f i Pipi_edit.obj
 0001:000360c0       ??1?$map@V?$basic_string@DU?$char_traits@D@std@@V?$allocator@D@2@@std@@V?$basic_config@Ujson_args@configor@@@configor@@U?$less@V?$basic_string@DU?$char_traits@D@std@@V?$allocator@D@2@@std@@@2@V?$allocator@U?$pair@$$CBV?$basic_string@DU?$char_traits@D@std@@V?$allocator@D@2@@std@@V?$basic_config@Ujson_args@configor@@@configor@@@std@@@2@@std@@QAE@XZ 100370c0 f i Pipi_edit.obj
 0001:000360e0       ??1?$_Tree_temp_node@V?$allocator@U?$_Tree_node@U?$pair@$$CBV?$basic_string@DU?$char_traits@D@std@@V?$allocator@D@2@@std@@V?$basic_config@Ujson_args@configor@@@configor@@@std@@PAX@std@@@std@@@std@@QAE@XZ 100370e0 f i Pipi_edit.obj
 0001:00036180       ?_Release@?$_Alloc_construct_ptr@V?$allocator@U?$_Tree_node@U?$pair@$$CBV?$basic_string@DU?$char_traits@D@std@@V?$allocator@D@2@@std@@V?$basic_config@Ujson_args@configor@@@configor@@@std@@PAX@std@@@std@@@std@@QAEPAU?$_Tree_node@U?$pair@$$CBV?$basic_string@DU?$char_traits@D@std@@V?$allocator@D@2@@std@@V?$basic_config@Ujson_args@configor@@@configor@@@std@@PAX@2@XZ 10037180 f i Pipi_edit.obj
 0001:000361b0       ?_Clear_and_reserve_geometric@?$vector@V?$basic_config@Ujson_args@configor@@@configor@@V?$allocator@V?$basic_config@Ujson_args@configor@@@configor@@@std@@@std@@AAEXI@Z 100371b0 f i Pipi_edit.obj
 0001:00036270       ??1?$vector@V?$basic_config@Ujson_args@configor@@@configor@@V?$allocator@V?$basic_config@Ujson_args@configor@@@configor@@@std@@@std@@QAE@XZ 10037270 f i Pipi_edit.obj
 0001:00036290       ??0?$vector@V?$basic_config@Ujson_args@configor@@@configor@@V?$allocator@V?$basic_config@Ujson_args@configor@@@configor@@@std@@@std@@QAE@ABV01@@Z 10037290 f i Pipi_edit.obj
 0001:000363a0       ??0?$vector@V?$basic_config@Ujson_args@configor@@@configor@@V?$allocator@V?$basic_config@Ujson_args@configor@@@configor@@@std@@@std@@QAE@XZ 100373a0 f i Pipi_edit.obj
 0001:000363d0       ??0?$map@V?$basic_string@DU?$char_traits@D@std@@V?$allocator@D@2@@std@@V?$basic_config@Ujson_args@configor@@@configor@@U?$less@V?$basic_string@DU?$char_traits@D@std@@V?$allocator@D@2@@std@@@2@V?$allocator@U?$pair@$$CBV?$basic_string@DU?$char_traits@D@std@@V?$allocator@D@2@@std@@V?$basic_config@Ujson_args@configor@@@configor@@@std@@@2@@std@@QAE@ABV01@@Z 100373d0 f i Pipi_edit.obj
 0001:00036410       ??0?$map@V?$basic_string@DU?$char_traits@D@std@@V?$allocator@D@2@@std@@V?$basic_config@Ujson_args@configor@@@configor@@U?$less@V?$basic_string@DU?$char_traits@D@std@@V?$allocator@D@2@@std@@@2@V?$allocator@U?$pair@$$CBV?$basic_string@DU?$char_traits@D@std@@V?$allocator@D@2@@std@@V?$basic_config@Ujson_args@configor@@@configor@@@std@@@2@@std@@QAE@XZ 10037410 f i Pipi_edit.obj
 0001:00036430       ?_Insert_node@?$_Tree_val@U?$_Tree_simple_types@U?$pair@$$CBV?$basic_string@DU?$char_traits@D@std@@V?$allocator@D@2@@std@@V?$basic_config@Ujson_args@configor@@@configor@@@std@@@std@@@std@@QAEPAU?$_Tree_node@U?$pair@$$CBV?$basic_string@DU?$char_traits@D@std@@V?$allocator@D@2@@std@@V?$basic_config@Ujson_args@configor@@@configor@@@std@@PAX@2@U?$_Tree_id@PAU?$_Tree_node@U?$pair@$$CBV?$basic_string@DU?$char_traits@D@std@@V?$allocator@D@2@@std@@V?$basic_config@Ujson_args@configor@@@configor@@@std@@PAX@std@@@2@QAU32@@Z 10037430 f i Pipi_edit.obj
 0001:00036640       ?_Check_grow_by_1@?$_Tree@V?$_Tmap_traits@V?$basic_string@DU?$char_traits@D@std@@V?$allocator@D@2@@std@@V?$basic_config@Ujson_args@configor@@@configor@@U?$less@V?$basic_string@DU?$char_traits@D@std@@V?$allocator@D@2@@std@@@2@V?$allocator@U?$pair@$$CBV?$basic_string@DU?$char_traits@D@std@@V?$allocator@D@2@@std@@V?$basic_config@Ujson_args@configor@@@configor@@@std@@@2@$0A@@std@@@std@@IAEXXZ 10037640 f i Pipi_edit.obj
 0001:00036670       ??1?$_Tree@V?$_Tmap_traits@V?$basic_string@DU?$char_traits@D@std@@V?$allocator@D@2@@std@@V?$basic_config@Ujson_args@configor@@@configor@@U?$less@V?$basic_string@DU?$char_traits@D@std@@V?$allocator@D@2@@std@@@2@V?$allocator@U?$pair@$$CBV?$basic_string@DU?$char_traits@D@std@@V?$allocator@D@2@@std@@V?$basic_config@Ujson_args@configor@@@configor@@@std@@@2@$0A@@std@@@std@@QAE@XZ 10037670 f i Pipi_edit.obj
 0001:000366a0       ??0?$json_serializer@V?$basic_config@Ujson_args@configor@@@configor@@@detail@configor@@QAE@ABUargs@012@@Z 100376a0 f i Pipi_edit.obj
 0001:000367d0       ??1?$_Tree_temp_node_alloc@V?$allocator@U?$_Tree_node@U?$pair@$$CBV?$basic_string@DU?$char_traits@D@std@@V?$allocator@D@2@@std@@V?$basic_config@Ujson_args@configor@@@configor@@@std@@PAX@std@@@std@@@std@@QAE@XZ 100377d0 f i Pipi_edit.obj
 0001:000367f0       ??0?$basic_serializer@V?$basic_config@Ujson_args@configor@@@configor@@@configor@@QAE@XZ 100377f0 f i Pipi_edit.obj
 0001:00036810       ??1?$_Tidy_guard@V?$vector@V?$basic_config@Ujson_args@configor@@@configor@@V?$allocator@V?$basic_config@Ujson_args@configor@@@configor@@@std@@@std@@@std@@QAE@XZ 10037810 f i Pipi_edit.obj
 0001:00036830       ??1?$_Alloc_construct_ptr@V?$allocator@U?$_Tree_node@U?$pair@$$CBV?$basic_string@DU?$char_traits@D@std@@V?$allocator@D@2@@std@@V?$basic_config@Ujson_args@configor@@@configor@@@std@@PAX@std@@@std@@@std@@QAE@XZ 10037830 f i Pipi_edit.obj
 0001:00036890       ?_Tidy@?$vector@V?$basic_config@Ujson_args@configor@@@configor@@V?$allocator@V?$basic_config@Ujson_args@configor@@@configor@@@std@@@std@@AAEXXZ 10037890 f i Pipi_edit.obj
 0001:00036950       ?_Buy_raw@?$vector@V?$basic_config@Ujson_args@configor@@@configor@@V?$allocator@V?$basic_config@Ujson_args@configor@@@configor@@@std@@@std@@AAEXI@Z 10037950 f i Pipi_edit.obj
 0001:000369c0       ?_Calculate_growth@?$vector@V?$basic_config@Ujson_args@configor@@@configor@@V?$allocator@V?$basic_config@Ujson_args@configor@@@configor@@@std@@@std@@ABEII@Z 100379c0 f i Pipi_edit.obj
 0001:00036a20       ?_Rrotate@?$_Tree_val@U?$_Tree_simple_types@U?$pair@$$CBV?$basic_string@DU?$char_traits@D@std@@V?$allocator@D@2@@std@@V?$basic_config@Ujson_args@configor@@@configor@@@std@@@std@@@std@@QAEXPAU?$_Tree_node@U?$pair@$$CBV?$basic_string@DU?$char_traits@D@std@@V?$allocator@D@2@@std@@V?$basic_config@Ujson_args@configor@@@configor@@@std@@PAX@2@@Z 10037a20 f i Pipi_edit.obj
 0001:00036ac0       ?_Lrotate@?$_Tree_val@U?$_Tree_simple_types@U?$pair@$$CBV?$basic_string@DU?$char_traits@D@std@@V?$allocator@D@2@@std@@V?$basic_config@Ujson_args@configor@@@configor@@@std@@@std@@@std@@QAEXPAU?$_Tree_node@U?$pair@$$CBV?$basic_string@DU?$char_traits@D@std@@V?$allocator@D@2@@std@@V?$basic_config@Ujson_args@configor@@@configor@@@std@@PAX@2@@Z 10037ac0 f i Pipi_edit.obj
 0001:00036b60       ?max_size@?$_Tree@V?$_Tmap_traits@V?$basic_string@DU?$char_traits@D@std@@V?$allocator@D@2@@std@@V?$basic_config@Ujson_args@configor@@@configor@@U?$less@V?$basic_string@DU?$char_traits@D@std@@V?$allocator@D@2@@std@@@2@V?$allocator@U?$pair@$$CBV?$basic_string@DU?$char_traits@D@std@@V?$allocator@D@2@@std@@V?$basic_config@Ujson_args@configor@@@configor@@@std@@@2@$0A@@std@@@std@@QBEIXZ 10037b60 f i Pipi_edit.obj
 0001:00036ba0       ??0?$_Tree@V?$_Tmap_traits@V?$basic_string@DU?$char_traits@D@std@@V?$allocator@D@2@@std@@V?$basic_config@Ujson_args@configor@@@configor@@U?$less@V?$basic_string@DU?$char_traits@D@std@@V?$allocator@D@2@@std@@@2@V?$allocator@U?$pair@$$CBV?$basic_string@DU?$char_traits@D@std@@V?$allocator@D@2@@std@@V?$basic_config@Ujson_args@configor@@@configor@@@std@@@2@$0A@@std@@@std@@QAE@ABU?$less@V?$basic_string@DU?$char_traits@D@std@@V?$allocator@D@2@@std@@@1@@Z 10037ba0 f i Pipi_edit.obj
 0001:00036bd0       ?init@?$indent@V?$basic_string@DU?$char_traits@D@std@@V?$allocator@D@2@@std@@@detail@configor@@QAEXD@Z 10037bd0 f i Pipi_edit.obj
 0001:00036c00       ??0?$indent@V?$basic_string@DU?$char_traits@D@std@@V?$allocator@D@2@@std@@@detail@configor@@QAE@XZ 10037c00 f i Pipi_edit.obj
 0001:00036c30       ?_Alloc_sentinel_and_proxy@?$_Tree@V?$_Tmap_traits@V?$basic_string@DU?$char_traits@D@std@@V?$allocator@D@2@@std@@V?$basic_config@Ujson_args@configor@@@configor@@U?$less@V?$basic_string@DU?$char_traits@D@std@@V?$allocator@D@2@@std@@@2@V?$allocator@U?$pair@$$CBV?$basic_string@DU?$char_traits@D@std@@V?$allocator@D@2@@std@@V?$basic_config@Ujson_args@configor@@@configor@@@std@@@2@$0A@@std@@@std@@IAEXXZ 10037c30 f i Pipi_edit.obj
 0001:00036ca0       ?max_size@?$_Default_allocator_traits@V?$allocator@U?$_Tree_node@U?$pair@$$CBV?$basic_string@DU?$char_traits@D@std@@V?$allocator@D@2@@std@@V?$basic_config@Ujson_args@configor@@@configor@@@std@@PAX@std@@@std@@@std@@SAIABV?$allocator@U?$_Tree_node@U?$pair@$$CBV?$basic_string@DU?$char_traits@D@std@@V?$allocator@D@2@@std@@V?$basic_config@Ujson_args@configor@@@configor@@@std@@PAX@std@@@2@@Z 10037ca0 f i Pipi_edit.obj
 0001:00036cb0       ?deallocate@?$allocator@U?$_Tree_node@U?$pair@$$CBV?$basic_string@DU?$char_traits@D@std@@V?$allocator@D@2@@std@@V?$basic_config@Ujson_args@configor@@@configor@@@std@@PAX@std@@@std@@QAEXQAU?$_Tree_node@U?$pair@$$CBV?$basic_string@DU?$char_traits@D@std@@V?$allocator@D@2@@std@@V?$basic_config@Ujson_args@configor@@@configor@@@std@@PAX@2@I@Z 10037cb0 f i Pipi_edit.obj
 0001:00036cd0       ??$adl_to_config@V?$basic_config@Ujson_args@configor@@@configor@@$$BY07D@detail@configor@@YAXAAV?$basic_config@Ujson_args@configor@@@1@AAY07$$CBD@Z 10037cd0 f i Pipi_edit.obj
 0001:00036cd0       ??$adl_to_config@V?$basic_config@Ujson_args@configor@@@configor@@$$BY04D@detail@configor@@YAXAAV?$basic_config@Ujson_args@configor@@@1@AAY04$$CBD@Z 10037cd0 f i Pipi_edit.obj
 0001:00036d40       ??$adl_to_config@V?$basic_config@Ujson_args@configor@@@configor@@V?$basic_string@DU?$char_traits@D@std@@V?$allocator@D@2@@std@@@detail@configor@@YAXAAV?$basic_config@Ujson_args@configor@@@1@ABV?$basic_string@DU?$char_traits@D@std@@V?$allocator@D@2@@std@@@Z 10037d40 f i Pipi_edit.obj
 0001:00036d60       ??$adl_to_config@V?$basic_config@Ujson_args@configor@@@configor@@H@detail@configor@@YAXAAV?$basic_config@Ujson_args@configor@@@1@ABH@Z 10037d60 f i Pipi_edit.obj
 0001:00036d80       ??$dump_config@V?$basic_config@Ujson_args@configor@@@configor@@X@configor@@YAXABV?$basic_config@Ujson_args@configor@@@0@AAV?$basic_ostream@DU?$char_traits@D@std@@@std@@AAV?$basic_serializer@V?$basic_config@Ujson_args@configor@@@configor@@@0@PAVerror_handler@0@@Z 10037d80 f i Pipi_edit.obj
 0001:00036e40       ??$_Find_lower_bound@V?$basic_string@DU?$char_traits@D@std@@V?$allocator@D@2@@std@@@?$_Tree@V?$_Tmap_traits@V?$basic_string@DU?$char_traits@D@std@@V?$allocator@D@2@@std@@V?$basic_config@Ujson_args@configor@@@configor@@U?$less@V?$basic_string@DU?$char_traits@D@std@@V?$allocator@D@2@@std@@@2@V?$allocator@U?$pair@$$CBV?$basic_string@DU?$char_traits@D@std@@V?$allocator@D@2@@std@@V?$basic_config@Ujson_args@configor@@@configor@@@std@@@2@$0A@@std@@@std@@IBE?AU?$_Tree_find_result@PAU?$_Tree_node@U?$pair@$$CBV?$basic_string@DU?$char_traits@D@std@@V?$allocator@D@2@@std@@V?$basic_config@Ujson_args@configor@@@configor@@@std@@PAX@std@@@1@ABV?$basic_string@DU?$char_traits@D@std@@V?$allocator@D@2@@1@@Z 10037e40 f i Pipi_edit.obj
 0001:00036f10       ??$_Lower_bound_duplicate@V?$basic_string@DU?$char_traits@D@std@@V?$allocator@D@2@@std@@@?$_Tree@V?$_Tmap_traits@V?$basic_string@DU?$char_traits@D@std@@V?$allocator@D@2@@std@@V?$basic_config@Ujson_args@configor@@@configor@@U?$less@V?$basic_string@DU?$char_traits@D@std@@V?$allocator@D@2@@std@@@2@V?$allocator@U?$pair@$$CBV?$basic_string@DU?$char_traits@D@std@@V?$allocator@D@2@@std@@V?$basic_config@Ujson_args@configor@@@configor@@@std@@@2@$0A@@std@@@std@@IBE_NQAU?$_Tree_node@U?$pair@$$CBV?$basic_string@DU?$char_traits@D@std@@V?$allocator@D@2@@std@@V?$basic_config@Ujson_args@configor@@@configor@@@std@@PAX@1@ABV?$basic_string@DU?$char_traits@D@std@@V?$allocator@D@2@@1@@Z 10037f10 f i Pipi_edit.obj
 0001:00036f70       ??$?0AAPAU?$_Tree_node@U?$pair@$$CBV?$basic_string@DU?$char_traits@D@std@@V?$allocator@D@2@@std@@V?$basic_config@Ujson_args@configor@@@configor@@@std@@PAX@std@@_N$0A@@?$pair@PAU?$_Tree_node@U?$pair@$$CBV?$basic_string@DU?$char_traits@D@std@@V?$allocator@D@2@@std@@V?$basic_config@Ujson_args@configor@@@configor@@@std@@PAX@std@@_N@std@@QAE@AAPAU?$_Tree_node@U?$pair@$$CBV?$basic_string@DU?$char_traits@D@std@@V?$allocator@D@2@@std@@V?$basic_config@Ujson_args@configor@@@configor@@@std@@PAX@1@$$QA_N@Z 10037f70 f i Pipi_edit.obj
 0001:00036f70       ??$?0PAU?$_Tree_node@U?$pair@$$CBV?$basic_string@DU?$char_traits@D@std@@V?$allocator@D@2@@std@@V?$basic_config@Ujson_args@configor@@@configor@@@std@@PAX@std@@_N$0A@@?$pair@PAU?$_Tree_node@U?$pair@$$CBV?$basic_string@DU?$char_traits@D@std@@V?$allocator@D@2@@std@@V?$basic_config@Ujson_args@configor@@@configor@@@std@@PAX@std@@_N@std@@QAE@$$QAPAU?$_Tree_node@U?$pair@$$CBV?$basic_string@DU?$char_traits@D@std@@V?$allocator@D@2@@std@@V?$basic_config@Ujson_args@configor@@@configor@@@std@@PAX@1@$$QA_N@Z 10037f70 f i Pipi_edit.obj
 0001:00036fb0       ??$?0AAV?$basic_string@DU?$char_traits@D@std@@V?$allocator@D@2@@std@@AAV?$basic_config@Ujson_args@configor@@@configor@@@?$_Tree_temp_node@V?$allocator@U?$_Tree_node@U?$pair@$$CBV?$basic_string@DU?$char_traits@D@std@@V?$allocator@D@2@@std@@V?$basic_config@Ujson_args@configor@@@configor@@@std@@PAX@std@@@std@@@std@@QAE@AAV?$allocator@U?$_Tree_node@U?$pair@$$CBV?$basic_string@DU?$char_traits@D@std@@V?$allocator@D@2@@std@@V?$basic_config@Ujson_args@configor@@@configor@@@std@@PAX@std@@@1@PAU?$_Tree_node@U?$pair@$$CBV?$basic_string@DU?$char_traits@D@std@@V?$allocator@D@2@@std@@V?$basic_config@Ujson_args@configor@@@configor@@@std@@PAX@1@AAV?$basic_string@DU?$char_traits@D@std@@V?$allocator@D@2@@1@AAV?$basic_config@Ujson_args@configor@@@configor@@@Z 10037fb0 f i Pipi_edit.obj
 0001:000370a0       ??$distance@PBV?$basic_config@Ujson_args@configor@@@configor@@@std@@YAHPBV?$basic_config@Ujson_args@configor@@@configor@@0@Z 100380a0 f i Pipi_edit.obj
 0001:000370b0       ??$next@PBV?$basic_config@Ujson_args@configor@@@configor@@@std@@YAPBV?$basic_config@Ujson_args@configor@@@configor@@PBV12@H@Z 100380b0 f i Pipi_edit.obj
 0001:000370d0       ??$_Copy_unchecked@PBV?$basic_config@Ujson_args@configor@@@configor@@PAV12@@std@@YAPAV?$basic_config@Ujson_args@configor@@@configor@@PBV12@0PAV12@@Z 100380d0 f i Pipi_edit.obj
 0001:00037120       ??$_Ucopy@PBV?$basic_config@Ujson_args@configor@@@configor@@@?$vector@V?$basic_config@Ujson_args@configor@@@configor@@V?$allocator@V?$basic_config@Ujson_args@configor@@@configor@@@std@@@std@@AAEPAV?$basic_config@Ujson_args@configor@@@configor@@PBV23@0PAV23@@Z 10038120 f i Pipi_edit.obj
 0001:00037120       ??$_Ucopy@PAV?$basic_config@Ujson_args@configor@@@configor@@@?$vector@V?$basic_config@Ujson_args@configor@@@configor@@V?$allocator@V?$basic_config@Ujson_args@configor@@@configor@@@std@@@std@@AAEPAV?$basic_config@Ujson_args@configor@@@configor@@PAV23@00@Z 10038120 f i Pipi_edit.obj
 0001:00037150       ??$construct@V?$basic_config@Ujson_args@configor@@@configor@@V12@@?$_Default_allocator_traits@V?$allocator@V?$basic_config@Ujson_args@configor@@@configor@@@std@@@std@@SAXAAV?$allocator@V?$basic_config@Ujson_args@configor@@@configor@@@1@QAV?$basic_config@Ujson_args@configor@@@configor@@$$QAV34@@Z 10038150 f i Pipi_edit.obj
 0001:00037190       ??$destroy@U?$pair@$$CBV?$basic_string@DU?$char_traits@D@std@@V?$allocator@D@2@@std@@V?$basic_config@Ujson_args@configor@@@configor@@@std@@@?$_Default_allocator_traits@V?$allocator@U?$_Tree_node@U?$pair@$$CBV?$basic_string@DU?$char_traits@D@std@@V?$allocator@D@2@@std@@V?$basic_config@Ujson_args@configor@@@configor@@@std@@PAX@std@@@std@@@std@@SAXAAV?$allocator@U?$_Tree_node@U?$pair@$$CBV?$basic_string@DU?$char_traits@D@std@@V?$allocator@D@2@@std@@V?$basic_config@Ujson_args@configor@@@configor@@@std@@PAX@std@@@1@QAU?$pair@$$CBV?$basic_string@DU?$char_traits@D@std@@V?$allocator@D@2@@std@@V?$basic_config@Ujson_args@configor@@@configor@@@1@@Z 10038190 f i Pipi_edit.obj
 0001:000371a0       ??$?0V?$allocator@V?$basic_config@Ujson_args@configor@@@configor@@@std@@$$V@?$_Compressed_pair@V?$allocator@V?$basic_config@Ujson_args@configor@@@configor@@@std@@V?$_Vector_val@U?$_Simple_types@V?$basic_config@Ujson_args@configor@@@configor@@@std@@@2@$00@std@@QAE@U_One_then_variadic_args_t@1@$$QAV?$allocator@V?$basic_config@Ujson_args@configor@@@configor@@@1@@Z 100381a0 f i Pipi_edit.obj
 0001:000371d0       ??$?0$$V@?$_Compressed_pair@V?$allocator@V?$basic_config@Ujson_args@configor@@@configor@@@std@@V?$_Vector_val@U?$_Simple_types@V?$basic_config@Ujson_args@configor@@@configor@@@std@@@2@$00@std@@QAE@U_Zero_then_variadic_args_t@1@@Z 100381d0 f i Pipi_edit.obj
 0001:000371f0       ??$?0V?$allocator@U?$_Tree_node@U?$pair@$$CBV?$basic_string@DU?$char_traits@D@std@@V?$allocator@D@2@@std@@V?$basic_config@Ujson_args@configor@@@configor@@@std@@PAX@std@@@std@@@?$_Tree@V?$_Tmap_traits@V?$basic_string@DU?$char_traits@D@std@@V?$allocator@D@2@@std@@V?$basic_config@Ujson_args@configor@@@configor@@U?$less@V?$basic_string@DU?$char_traits@D@std@@V?$allocator@D@2@@std@@@2@V?$allocator@U?$pair@$$CBV?$basic_string@DU?$char_traits@D@std@@V?$allocator@D@2@@std@@V?$basic_config@Ujson_args@configor@@@configor@@@std@@@2@$0A@@std@@@std@@QAE@ABV01@$$QAV?$allocator@U?$_Tree_node@U?$pair@$$CBV?$basic_string@DU?$char_traits@D@std@@V?$allocator@D@2@@std@@V?$basic_config@Ujson_args@configor@@@configor@@@std@@PAX@std@@@1@@Z 100381f0 f i Pipi_edit.obj
 0001:000372e0       ??$_Erase_head@V?$allocator@U?$_Tree_node@U?$pair@$$CBV?$basic_string@DU?$char_traits@D@std@@V?$allocator@D@2@@std@@V?$basic_config@Ujson_args@configor@@@configor@@@std@@PAX@std@@@std@@@?$_Tree_val@U?$_Tree_simple_types@U?$pair@$$CBV?$basic_string@DU?$char_traits@D@std@@V?$allocator@D@2@@std@@V?$basic_config@Ujson_args@configor@@@configor@@@std@@@std@@@std@@QAEXAAV?$allocator@U?$_Tree_node@U?$pair@$$CBV?$basic_string@DU?$char_traits@D@std@@V?$allocator@D@2@@std@@V?$basic_config@Ujson_args@configor@@@configor@@@std@@PAX@std@@@1@@Z 100382e0 f i Pipi_edit.obj
 0001:00037320       ??$?0ABU?$less@V?$basic_string@DU?$char_traits@D@std@@V?$allocator@D@2@@std@@@std@@U_Zero_then_variadic_args_t@1@@?$_Compressed_pair@U?$less@V?$basic_string@DU?$char_traits@D@std@@V?$allocator@D@2@@std@@@std@@V?$_Compressed_pair@V?$allocator@U?$_Tree_node@U?$pair@$$CBV?$basic_string@DU?$char_traits@D@std@@V?$allocator@D@2@@std@@V?$basic_config@Ujson_args@configor@@@configor@@@std@@PAX@std@@@std@@V?$_Tree_val@U?$_Tree_simple_types@U?$pair@$$CBV?$basic_string@DU?$char_traits@D@std@@V?$allocator@D@2@@std@@V?$basic_config@Ujson_args@configor@@@configor@@@std@@@std@@@2@$00@2@$00@std@@QAE@U_One_then_variadic_args_t@1@ABU?$less@V?$basic_string@DU?$char_traits@D@std@@V?$allocator@D@2@@std@@@1@$$QAU_Zero_then_variadic_args_t@1@@Z 10038320 f i Pipi_edit.obj
 0001:00037360       ??$_Buyheadnode@V?$allocator@U?$_Tree_node@U?$pair@$$CBV?$basic_string@DU?$char_traits@D@std@@V?$allocator@D@2@@std@@V?$basic_config@Ujson_args@configor@@@configor@@@std@@PAX@std@@@std@@@?$_Tree_node@U?$pair@$$CBV?$basic_string@DU?$char_traits@D@std@@V?$allocator@D@2@@std@@V?$basic_config@Ujson_args@configor@@@configor@@@std@@PAX@std@@SAPAU01@AAV?$allocator@U?$_Tree_node@U?$pair@$$CBV?$basic_string@DU?$char_traits@D@std@@V?$allocator@D@2@@std@@V?$basic_config@Ujson_args@configor@@@configor@@@std@@PAX@std@@@1@@Z 10038360 f i Pipi_edit.obj
 0001:000373e0       ??_G?$pair@$$CBV?$basic_string@DU?$char_traits@D@std@@V?$allocator@D@2@@std@@V?$basic_config@Ujson_args@configor@@@configor@@@std@@QAEPAXI@Z 100383e0 f i Pipi_edit.obj
 0001:00037410       ??1?$pair@$$CBV?$basic_string@DU?$char_traits@D@std@@V?$allocator@D@2@@std@@V?$basic_config@Ujson_args@configor@@@configor@@@std@@QAE@XZ 10038410 f i Pipi_edit.obj
 0001:00037430       ??1?$_Tree_head_scoped_ptr@V?$allocator@U?$_Tree_node@U?$pair@$$CBV?$basic_string@DU?$char_traits@D@std@@V?$allocator@D@2@@std@@V?$basic_config@Ujson_args@configor@@@configor@@@std@@PAX@std@@@std@@V?$_Tree_val@U?$_Tree_simple_types@U?$pair@$$CBV?$basic_string@DU?$char_traits@D@std@@V?$allocator@D@2@@std@@V?$basic_config@Ujson_args@configor@@@configor@@@std@@@std@@@2@@std@@QAE@XZ 10038430 f i Pipi_edit.obj
 0001:00037460       ?_Release@?$_Tree_head_scoped_ptr@V?$allocator@U?$_Tree_node@U?$pair@$$CBV?$basic_string@DU?$char_traits@D@std@@V?$allocator@D@2@@std@@V?$basic_config@Ujson_args@configor@@@configor@@@std@@PAX@std@@@std@@V?$_Tree_val@U?$_Tree_simple_types@U?$pair@$$CBV?$basic_string@DU?$char_traits@D@std@@V?$allocator@D@2@@std@@V?$basic_config@Ujson_args@configor@@@configor@@@std@@@std@@@2@@std@@QAEXXZ 10038460 f i Pipi_edit.obj
 0001:00037460       ?Set32BitAddress@CDetourDis@@IAEXXZ 10038460 f i detours:disasm.obj
 0001:00037480       ??0?$_Tree_head_scoped_ptr@V?$allocator@U?$_Tree_node@U?$pair@$$CBV?$basic_string@DU?$char_traits@D@std@@V?$allocator@D@2@@std@@V?$basic_config@Ujson_args@configor@@@configor@@@std@@PAX@std@@@std@@V?$_Tree_val@U?$_Tree_simple_types@U?$pair@$$CBV?$basic_string@DU?$char_traits@D@std@@V?$allocator@D@2@@std@@V?$basic_config@Ujson_args@configor@@@configor@@@std@@@std@@@2@@std@@QAE@AAV?$allocator@U?$_Tree_node@U?$pair@$$CBV?$basic_string@DU?$char_traits@D@std@@V?$allocator@D@2@@std@@V?$basic_config@Ujson_args@configor@@@configor@@@std@@PAX@std@@@1@AAV?$_Tree_val@U?$_Tree_simple_types@U?$pair@$$CBV?$basic_string@DU?$char_traits@D@std@@V?$allocator@D@2@@std@@V?$basic_config@Ujson_args@configor@@@configor@@@std@@@std@@@1@@Z 10038480 f i Pipi_edit.obj
 0001:000374c0       ??0?$_Tree_temp_node_alloc@V?$allocator@U?$_Tree_node@U?$pair@$$CBV?$basic_string@DU?$char_traits@D@std@@V?$allocator@D@2@@std@@V?$basic_config@Ujson_args@configor@@@configor@@@std@@PAX@std@@@std@@@std@@QAE@AAV?$allocator@U?$_Tree_node@U?$pair@$$CBV?$basic_string@DU?$char_traits@D@std@@V?$allocator@D@2@@std@@V?$basic_config@Ujson_args@configor@@@configor@@@std@@PAX@std@@@1@@Z 100384c0 f i Pipi_edit.obj
 0001:00037520       ??0?$_Vector_val@U?$_Simple_types@V?$basic_config@Ujson_args@configor@@@configor@@@std@@@std@@QAE@XZ 10038520 f i Pipi_edit.obj
 0001:00037550       ??R?$less@V?$basic_string@DU?$char_traits@D@std@@V?$allocator@D@2@@std@@@std@@QBE_NABV?$basic_string@DU?$char_traits@D@std@@V?$allocator@D@2@@1@0@Z 10038550 f i Pipi_edit.obj
 0001:00037570       ?allocate@?$allocator@U?$_Tree_node@U?$pair@$$CBV?$basic_string@DU?$char_traits@D@std@@V?$allocator@D@2@@std@@V?$basic_config@Ujson_args@configor@@@configor@@@std@@PAX@std@@@std@@QAEPAU?$_Tree_node@U?$pair@$$CBV?$basic_string@DU?$char_traits@D@std@@V?$allocator@D@2@@std@@V?$basic_config@Ujson_args@configor@@@configor@@@std@@PAX@2@I@Z 10038570 f i Pipi_edit.obj
 0001:000375a0       ?to_config@configor@@YAXAAV?$basic_config@Ujson_args@configor@@@1@ABV?$basic_string@DU?$char_traits@D@std@@V?$allocator@D@2@@std@@@Z 100385a0 f i Pipi_edit.obj
 0001:000375c0       ??4?$basic_config@Ujson_args@configor@@@configor@@QAEAAV01@V01@@Z 100385c0 f i Pipi_edit.obj
 0001:00037630       ??0?$basic_config@Ujson_args@configor@@@configor@@QAE@$$QAV01@@Z 10038630 f i Pipi_edit.obj
 0001:000376a0       ?_Allocate@?$_Alloc_construct_ptr@V?$allocator@U?$_Tree_node@U?$pair@$$CBV?$basic_string@DU?$char_traits@D@std@@V?$allocator@D@2@@std@@V?$basic_config@Ujson_args@configor@@@configor@@@std@@PAX@std@@@std@@@std@@QAEXXZ 100386a0 f i Pipi_edit.obj
 0001:000376d0       ??0?$config_value@V?$basic_config@Ujson_args@configor@@@configor@@@detail@configor@@QAE@$$QAU012@@Z 100386d0 f i Pipi_edit.obj
 0001:00037710       ?swap@?$basic_config@Ujson_args@configor@@@configor@@QAEXAAV12@@Z 10038710 f i Pipi_edit.obj
 0001:00037730       ?swap@?$config_value@V?$basic_config@Ujson_args@configor@@@configor@@@detail@configor@@QAEXAAU123@@Z 10038730 f i Pipi_edit.obj
 0001:00037770       ??$to_config@H$0A@@configor@@YAXAAV?$basic_config@Ujson_args@configor@@@0@H@Z 10038770 f i Pipi_edit.obj
 0001:00037790       ??$?0$$V@?$_Compressed_pair@V?$allocator@U?$_Tree_node@U?$pair@$$CBV?$basic_string@DU?$char_traits@D@std@@V?$allocator@D@2@@std@@V?$basic_config@Ujson_args@configor@@@configor@@@std@@PAX@std@@@std@@V?$_Tree_val@U?$_Tree_simple_types@U?$pair@$$CBV?$basic_string@DU?$char_traits@D@std@@V?$allocator@D@2@@std@@V?$basic_config@Ujson_args@configor@@@configor@@@std@@@std@@@2@$00@std@@QAE@U_Zero_then_variadic_args_t@1@@Z 10038790 f i Pipi_edit.obj
 0001:000377b0       ??$do_dump_config@V?$basic_config@Ujson_args@configor@@@configor@@@detail@configor@@YAXABV?$basic_config@Ujson_args@configor@@@1@AAV?$basic_serializer@V?$basic_config@Ujson_args@configor@@@configor@@@1@@Z 100387b0 f i Pipi_edit.obj
 0001:00037a90       ??$construct@U?$pair@$$CBV?$basic_string@DU?$char_traits@D@std@@V?$allocator@D@2@@std@@V?$basic_config@Ujson_args@configor@@@configor@@@std@@AAV?$basic_string@DU?$char_traits@D@std@@V?$allocator@D@2@@2@AAV?$basic_config@Ujson_args@configor@@@configor@@@?$_Default_allocator_traits@V?$allocator@U?$_Tree_node@U?$pair@$$CBV?$basic_string@DU?$char_traits@D@std@@V?$allocator@D@2@@std@@V?$basic_config@Ujson_args@configor@@@configor@@@std@@PAX@std@@@std@@@std@@SAXAAV?$allocator@U?$_Tree_node@U?$pair@$$CBV?$basic_string@DU?$char_traits@D@std@@V?$allocator@D@2@@std@@V?$basic_config@Ujson_args@configor@@@configor@@@std@@PAX@std@@@1@QAU?$pair@$$CBV?$basic_string@DU?$char_traits@D@std@@V?$allocator@D@2@@std@@V?$basic_config@Ujson_args@configor@@@configor@@@1@AAV?$basic_string@DU?$char_traits@D@std@@V?$allocator@D@2@@1@AAV?$basic_config@Ujson_args@configor@@@configor@@@Z 10038a90 f i Pipi_edit.obj
 0001:00037ae0       ??$advance@PBV?$basic_config@Ujson_args@configor@@@configor@@H@std@@YAXAAPBV?$basic_config@Ujson_args@configor@@@configor@@H@Z 10038ae0 f i Pipi_edit.obj
 0001:00037b00       ??$_Uninitialized_copy@PBV?$basic_config@Ujson_args@configor@@@configor@@V?$allocator@V?$basic_config@Ujson_args@configor@@@configor@@@std@@@std@@YAPAV?$basic_config@Ujson_args@configor@@@configor@@QBV12@0PAV12@AAV?$allocator@V?$basic_config@Ujson_args@configor@@@configor@@@0@@Z 10038b00 f i Pipi_edit.obj
 0001:00037b00       ??$_Uninitialized_copy@PAV?$basic_config@Ujson_args@configor@@@configor@@V?$allocator@V?$basic_config@Ujson_args@configor@@@configor@@@std@@@std@@YAPAV?$basic_config@Ujson_args@configor@@@configor@@QAV12@0PAV12@AAV?$allocator@V?$basic_config@Ujson_args@configor@@@configor@@@0@@Z 10038b00 f i Pipi_edit.obj
 0001:00037bc0       ??$?0U?$less@V?$basic_string@DU?$char_traits@D@std@@V?$allocator@D@2@@std@@@std@@U_One_then_variadic_args_t@1@V?$allocator@U?$_Tree_node@U?$pair@$$CBV?$basic_string@DU?$char_traits@D@std@@V?$allocator@D@2@@std@@V?$basic_config@Ujson_args@configor@@@configor@@@std@@PAX@std@@@1@@?$_Compressed_pair@U?$less@V?$basic_string@DU?$char_traits@D@std@@V?$allocator@D@2@@std@@@std@@V?$_Compressed_pair@V?$allocator@U?$_Tree_node@U?$pair@$$CBV?$basic_string@DU?$char_traits@D@std@@V?$allocator@D@2@@std@@V?$basic_config@Ujson_args@configor@@@configor@@@std@@PAX@std@@@std@@V?$_Tree_val@U?$_Tree_simple_types@U?$pair@$$CBV?$basic_string@DU?$char_traits@D@std@@V?$allocator@D@2@@std@@V?$basic_config@Ujson_args@configor@@@configor@@@std@@@std@@@2@$00@2@$00@std@@QAE@U_One_then_variadic_args_t@1@$$QAU?$less@V?$basic_string@DU?$char_traits@D@std@@V?$allocator@D@2@@std@@@1@$$QAU21@$$QAV?$allocator@U?$_Tree_node@U?$pair@$$CBV?$basic_string@DU?$char_traits@D@std@@V?$allocator@D@2@@std@@V?$basic_config@Ujson_args@configor@@@configor@@@std@@PAX@std@@@1@@Z 10038bc0 f i Pipi_edit.obj
 0001:00037c10       ??$_Copy@U_Copy_tag@?$_Tree@V?$_Tmap_traits@V?$basic_string@DU?$char_traits@D@std@@V?$allocator@D@2@@std@@V?$basic_config@Ujson_args@configor@@@configor@@U?$less@V?$basic_string@DU?$char_traits@D@std@@V?$allocator@D@2@@std@@@2@V?$allocator@U?$pair@$$CBV?$basic_string@DU?$char_traits@D@std@@V?$allocator@D@2@@std@@V?$basic_config@Ujson_args@configor@@@configor@@@std@@@2@$0A@@std@@@std@@@?$_Tree@V?$_Tmap_traits@V?$basic_string@DU?$char_traits@D@std@@V?$allocator@D@2@@std@@V?$basic_config@Ujson_args@configor@@@configor@@U?$less@V?$basic_string@DU?$char_traits@D@std@@V?$allocator@D@2@@std@@@2@V?$allocator@U?$pair@$$CBV?$basic_string@DU?$char_traits@D@std@@V?$allocator@D@2@@std@@V?$basic_config@Ujson_args@configor@@@configor@@@std@@@2@$0A@@std@@@std@@IAEXABV01@U_Copy_tag@01@@Z 10038c10 f i Pipi_edit.obj
 0001:00037cd0       ??$_Erase_tree@V?$allocator@U?$_Tree_node@U?$pair@$$CBV?$basic_string@DU?$char_traits@D@std@@V?$allocator@D@2@@std@@V?$basic_config@Ujson_args@configor@@@configor@@@std@@PAX@std@@@std@@@?$_Tree_val@U?$_Tree_simple_types@U?$pair@$$CBV?$basic_string@DU?$char_traits@D@std@@V?$allocator@D@2@@std@@V?$basic_config@Ujson_args@configor@@@configor@@@std@@@std@@@std@@QAEXAAV?$allocator@U?$_Tree_node@U?$pair@$$CBV?$basic_string@DU?$char_traits@D@std@@V?$allocator@D@2@@std@@V?$basic_config@Ujson_args@configor@@@configor@@@std@@PAX@std@@@1@PAU?$_Tree_node@U?$pair@$$CBV?$basic_string@DU?$char_traits@D@std@@V?$allocator@D@2@@std@@V?$basic_config@Ujson_args@configor@@@configor@@@std@@PAX@1@@Z 10038cd0 f i Pipi_edit.obj
 0001:00037d20       ??$_Freenode0@V?$allocator@U?$_Tree_node@U?$pair@$$CBV?$basic_string@DU?$char_traits@D@std@@V?$allocator@D@2@@std@@V?$basic_config@Ujson_args@configor@@@configor@@@std@@PAX@std@@@std@@@?$_Tree_node@U?$pair@$$CBV?$basic_string@DU?$char_traits@D@std@@V?$allocator@D@2@@std@@V?$basic_config@Ujson_args@configor@@@configor@@@std@@PAX@std@@SAXAAV?$allocator@U?$_Tree_node@U?$pair@$$CBV?$basic_string@DU?$char_traits@D@std@@V?$allocator@D@2@@std@@V?$basic_config@Ujson_args@configor@@@configor@@@std@@PAX@std@@@1@PAU01@@Z 10038d20 f i Pipi_edit.obj
 0001:00037da0       ??$?MDU?$char_traits@D@std@@V?$allocator@D@1@@std@@YA_NABV?$basic_string@DU?$char_traits@D@std@@V?$allocator@D@2@@0@0@Z 10038da0 f i Pipi_edit.obj
 0001:00037dd0       ??$_Get_size_of_n@$0DI@@std@@YAII@Z 10038dd0 f i Pipi_edit.obj
 0001:00037e00       ??$swap@T<unnamed-type-data>@?$config_value@V?$basic_config@Ujson_args@configor@@@configor@@@detail@configor@@$0A@@std@@YAXAAT<unnamed-type-data>@?$config_value@V?$basic_config@Ujson_args@configor@@@configor@@@detail@configor@@0@Z 10038e00 f i Pipi_edit.obj
 0001:00037e70       ??E?$_Tree_const_iterator@V?$_Tree_val@U?$_Tree_simple_types@U?$pair@$$CBV?$basic_string@DU?$char_traits@D@std@@V?$allocator@D@2@@std@@V?$basic_config@Ujson_args@configor@@@configor@@@std@@@std@@@std@@@std@@QAEAAV01@XZ 10038e70 f i Pipi_edit.obj
 0001:00037e90       ??C?$_Tree_const_iterator@V?$_Tree_val@U?$_Tree_simple_types@U?$pair@$$CBV?$basic_string@DU?$char_traits@D@std@@V?$allocator@D@2@@std@@V?$basic_config@Ujson_args@configor@@@configor@@@std@@@std@@@std@@@std@@QBEPBU?$pair@$$CBV?$basic_string@DU?$char_traits@D@std@@V?$allocator@D@2@@std@@V?$basic_config@Ujson_args@configor@@@configor@@@1@XZ 10038e90 f i Pipi_edit.obj
 0001:00037eb0       ?at@?$vector@V?$basic_config@Ujson_args@configor@@@configor@@V?$allocator@V?$basic_config@Ujson_args@configor@@@configor@@@std@@@std@@QAEAAV?$basic_config@Ujson_args@configor@@@configor@@I@Z 10038eb0 f i Pipi_edit.obj
 0001:00037ef0       ?empty@?$vector@V?$basic_config@Ujson_args@configor@@@configor@@V?$allocator@V?$basic_config@Ujson_args@configor@@@configor@@@std@@@std@@QBE_NXZ 10038ef0 f i Pipi_edit.obj
 0001:00037f30       ?_Min@?$_Tree_val@U?$_Tree_simple_types@U?$pair@$$CBV?$basic_string@DU?$char_traits@D@std@@V?$allocator@D@2@@std@@V?$basic_config@Ujson_args@configor@@@configor@@@std@@@std@@@std@@SAPAU?$_Tree_node@U?$pair@$$CBV?$basic_string@DU?$char_traits@D@std@@V?$allocator@D@2@@std@@V?$basic_config@Ujson_args@configor@@@configor@@@std@@PAX@2@PAU32@@Z 10038f30 f i Pipi_edit.obj
 0001:00037f50       ?_Max@?$_Tree_val@U?$_Tree_simple_types@U?$pair@$$CBV?$basic_string@DU?$char_traits@D@std@@V?$allocator@D@2@@std@@V?$basic_config@Ujson_args@configor@@@configor@@@std@@@std@@@std@@SAPAU?$_Tree_node@U?$pair@$$CBV?$basic_string@DU?$char_traits@D@std@@V?$allocator@D@2@@std@@V?$basic_config@Ujson_args@configor@@@configor@@@std@@PAX@2@PAU32@@Z 10038f50 f i Pipi_edit.obj
 0001:00037f80       ??0?$_Tree_val@U?$_Tree_simple_types@U?$pair@$$CBV?$basic_string@DU?$char_traits@D@std@@V?$allocator@D@2@@std@@V?$basic_config@Ujson_args@configor@@@configor@@@std@@@std@@@std@@QAE@XZ 10038f80 f i Pipi_edit.obj
 0001:00037fb0       ?empty@?$_Tree@V?$_Tmap_traits@V?$basic_string@DU?$char_traits@D@std@@V?$allocator@D@2@@std@@V?$basic_config@Ujson_args@configor@@@configor@@U?$less@V?$basic_string@DU?$char_traits@D@std@@V?$allocator@D@2@@std@@@2@V?$allocator@U?$pair@$$CBV?$basic_string@DU?$char_traits@D@std@@V?$allocator@D@2@@std@@V?$basic_config@Ujson_args@configor@@@configor@@@std@@@2@$0A@@std@@@std@@QBE_NXZ 10038fb0 f i Pipi_edit.obj
 0001:00037fe0       ?cbegin@?$_Tree@V?$_Tmap_traits@V?$basic_string@DU?$char_traits@D@std@@V?$allocator@D@2@@std@@V?$basic_config@Ujson_args@configor@@@configor@@U?$less@V?$basic_string@DU?$char_traits@D@std@@V?$allocator@D@2@@std@@@2@V?$allocator@U?$pair@$$CBV?$basic_string@DU?$char_traits@D@std@@V?$allocator@D@2@@std@@V?$basic_config@Ujson_args@configor@@@configor@@@std@@@2@$0A@@std@@@std@@QBE?AV?$_Tree_const_iterator@V?$_Tree_val@U?$_Tree_simple_types@U?$pair@$$CBV?$basic_string@DU?$char_traits@D@std@@V?$allocator@D@2@@std@@V?$basic_config@Ujson_args@configor@@@configor@@@std@@@std@@@std@@@2@XZ 10038fe0 f i Pipi_edit.obj
 0001:00038000       ?deallocate@?$_Default_allocator_traits@V?$allocator@U?$_Tree_node@U?$pair@$$CBV?$basic_string@DU?$char_traits@D@std@@V?$allocator@D@2@@std@@V?$basic_config@Ujson_args@configor@@@configor@@@std@@PAX@std@@@std@@@std@@SAXAAV?$allocator@U?$_Tree_node@U?$pair@$$CBV?$basic_string@DU?$char_traits@D@std@@V?$allocator@D@2@@std@@V?$basic_config@Ujson_args@configor@@@configor@@@std@@PAX@std@@@2@QAU?$_Tree_node@U?$pair@$$CBV?$basic_string@DU?$char_traits@D@std@@V?$allocator@D@2@@std@@V?$basic_config@Ujson_args@configor@@@configor@@@std@@PAX@2@I@Z 10039000 f i Pipi_edit.obj
 0001:00038020       ?pointer_to@?$pointer_traits@PBU?$pair@$$CBV?$basic_string@DU?$char_traits@D@std@@V?$allocator@D@2@@std@@V?$basic_config@Ujson_args@configor@@@configor@@@std@@@std@@SAPBU?$pair@$$CBV?$basic_string@DU?$char_traits@D@std@@V?$allocator@D@2@@std@@V?$basic_config@Ujson_args@configor@@@configor@@@2@ABU32@@Z 10039020 f i Pipi_edit.obj
 0001:00038040       ??D?$_Tree_const_iterator@V?$_Tree_val@U?$_Tree_simple_types@U?$pair@$$CBV?$basic_string@DU?$char_traits@D@std@@V?$allocator@D@2@@std@@V?$basic_config@Ujson_args@configor@@@configor@@@std@@@std@@@std@@@std@@QBEABU?$pair@$$CBV?$basic_string@DU?$char_traits@D@std@@V?$allocator@D@2@@std@@V?$basic_config@Ujson_args@configor@@@configor@@@1@XZ 10039040 f i Pipi_edit.obj
 0001:00038060       ??E?$_Tree_unchecked_const_iterator@V?$_Tree_val@U?$_Tree_simple_types@U?$pair@$$CBV?$basic_string@DU?$char_traits@D@std@@V?$allocator@D@2@@std@@V?$basic_config@Ujson_args@configor@@@configor@@@std@@@std@@@std@@U_Iterator_base0@2@@std@@QAEAAV01@XZ 10039060 f i Pipi_edit.obj
 0001:000380d0       ?_Xrange@?$vector@V?$basic_config@Ujson_args@configor@@@configor@@V?$allocator@V?$basic_config@Ujson_args@configor@@@configor@@@std@@@std@@CAXXZ 100390d0 f i Pipi_edit.obj
 0001:000380e0       ?begin@?$_Tree@V?$_Tmap_traits@V?$basic_string@DU?$char_traits@D@std@@V?$allocator@D@2@@std@@V?$basic_config@Ujson_args@configor@@@configor@@U?$less@V?$basic_string@DU?$char_traits@D@std@@V?$allocator@D@2@@std@@@2@V?$allocator@U?$pair@$$CBV?$basic_string@DU?$char_traits@D@std@@V?$allocator@D@2@@std@@V?$basic_config@Ujson_args@configor@@@configor@@@std@@@2@$0A@@std@@@std@@QBE?AV?$_Tree_const_iterator@V?$_Tree_val@U?$_Tree_simple_types@U?$pair@$$CBV?$basic_string@DU?$char_traits@D@std@@V?$allocator@D@2@@std@@V?$basic_config@Ujson_args@configor@@@configor@@@std@@@std@@@std@@@2@XZ 100390e0 f i Pipi_edit.obj
 0001:00038120       ??$?0V?$allocator@U?$_Tree_node@U?$pair@$$CBV?$basic_string@DU?$char_traits@D@std@@V?$allocator@D@2@@std@@V?$basic_config@Ujson_args@configor@@@configor@@@std@@PAX@std@@@std@@$$V@?$_Compressed_pair@V?$allocator@U?$_Tree_node@U?$pair@$$CBV?$basic_string@DU?$char_traits@D@std@@V?$allocator@D@2@@std@@V?$basic_config@Ujson_args@configor@@@configor@@@std@@PAX@std@@@std@@V?$_Tree_val@U?$_Tree_simple_types@U?$pair@$$CBV?$basic_string@DU?$char_traits@D@std@@V?$allocator@D@2@@std@@V?$basic_config@Ujson_args@configor@@@configor@@@std@@@std@@@2@$00@std@@QAE@U_One_then_variadic_args_t@1@$$QAV?$allocator@U?$_Tree_node@U?$pair@$$CBV?$basic_string@DU?$char_traits@D@std@@V?$allocator@D@2@@std@@V?$basic_config@Ujson_args@configor@@@configor@@@std@@PAX@std@@@1@@Z 10039120 f i Pipi_edit.obj
 0001:00038150       ??$?0AAV?$basic_string@DU?$char_traits@D@std@@V?$allocator@D@2@@std@@AAV?$basic_config@Ujson_args@configor@@@configor@@$0A@@?$pair@$$CBV?$basic_string@DU?$char_traits@D@std@@V?$allocator@D@2@@std@@V?$basic_config@Ujson_args@configor@@@configor@@@std@@QAE@AAV?$basic_string@DU?$char_traits@D@std@@V?$allocator@D@2@@1@AAV?$basic_config@Ujson_args@configor@@@configor@@@Z 10039150 f i Pipi_edit.obj
 0001:000381d0       ??$_Emplace_back@AAV?$basic_config@Ujson_args@configor@@@configor@@@?$_Uninitialized_backout_al@V?$allocator@V?$basic_config@Ujson_args@configor@@@configor@@@std@@@std@@QAEXAAV?$basic_config@Ujson_args@configor@@@configor@@@Z 100391d0 f i Pipi_edit.obj
 0001:000381d0       ??$_Emplace_back@ABV?$basic_config@Ujson_args@configor@@@configor@@@?$_Uninitialized_backout_al@V?$allocator@V?$basic_config@Ujson_args@configor@@@configor@@@std@@@std@@QAEXABV?$basic_config@Ujson_args@configor@@@configor@@@Z 100391d0 f i Pipi_edit.obj
 0001:00038220       ??$_Copy_nodes@U_Copy_tag@?$_Tree@V?$_Tmap_traits@V?$basic_string@DU?$char_traits@D@std@@V?$allocator@D@2@@std@@V?$basic_config@Ujson_args@configor@@@configor@@U?$less@V?$basic_string@DU?$char_traits@D@std@@V?$allocator@D@2@@std@@@2@V?$allocator@U?$pair@$$CBV?$basic_string@DU?$char_traits@D@std@@V?$allocator@D@2@@std@@V?$basic_config@Ujson_args@configor@@@configor@@@std@@@2@$0A@@std@@@std@@@?$_Tree@V?$_Tmap_traits@V?$basic_string@DU?$char_traits@D@std@@V?$allocator@D@2@@std@@V?$basic_config@Ujson_args@configor@@@configor@@U?$less@V?$basic_string@DU?$char_traits@D@std@@V?$allocator@D@2@@std@@@2@V?$allocator@U?$pair@$$CBV?$basic_string@DU?$char_traits@D@std@@V?$allocator@D@2@@std@@V?$basic_config@Ujson_args@configor@@@configor@@@std@@@2@$0A@@std@@@std@@IAEPAU?$_Tree_node@U?$pair@$$CBV?$basic_string@DU?$char_traits@D@std@@V?$allocator@D@2@@std@@V?$basic_config@Ujson_args@configor@@@configor@@@std@@PAX@1@PAU21@0U_Copy_tag@01@@Z 10039220 f i Pipi_edit.obj
 0001:00038360       ??$_Freenode@V?$allocator@U?$_Tree_node@U?$pair@$$CBV?$basic_string@DU?$char_traits@D@std@@V?$allocator@D@2@@std@@V?$basic_config@Ujson_args@configor@@@configor@@@std@@PAX@std@@@std@@@?$_Tree_node@U?$pair@$$CBV?$basic_string@DU?$char_traits@D@std@@V?$allocator@D@2@@std@@V?$basic_config@Ujson_args@configor@@@configor@@@std@@PAX@std@@SAXAAV?$allocator@U?$_Tree_node@U?$pair@$$CBV?$basic_string@DU?$char_traits@D@std@@V?$allocator@D@2@@std@@V?$basic_config@Ujson_args@configor@@@configor@@@std@@PAX@std@@@1@PAU01@@Z 10039360 f i Pipi_edit.obj
 0001:000383d0       ??$construct@V?$basic_config@Ujson_args@configor@@@configor@@AAV12@@?$_Default_allocator_traits@V?$allocator@V?$basic_config@Ujson_args@configor@@@configor@@@std@@@std@@SAXAAV?$allocator@V?$basic_config@Ujson_args@configor@@@configor@@@1@QAV?$basic_config@Ujson_args@configor@@@configor@@AAV34@@Z 100393d0 f i Pipi_edit.obj
 0001:000383d0       ??$construct@V?$basic_config@Ujson_args@configor@@@configor@@ABV12@@?$_Default_allocator_traits@V?$allocator@V?$basic_config@Ujson_args@configor@@@configor@@@std@@@std@@SAXAAV?$allocator@V?$basic_config@Ujson_args@configor@@@configor@@@1@QAV?$basic_config@Ujson_args@configor@@@configor@@ABV34@@Z 100393d0 f i Pipi_edit.obj
 0001:00038410       ??$_Copy_or_move@U?$pair@$$CBV?$basic_string@DU?$char_traits@D@std@@V?$allocator@D@2@@std@@V?$basic_config@Ujson_args@configor@@@configor@@@std@@U?$integral_constant@_N$0A@@2@@?$_Tree@V?$_Tmap_traits@V?$basic_string@DU?$char_traits@D@std@@V?$allocator@D@2@@std@@V?$basic_config@Ujson_args@configor@@@configor@@U?$less@V?$basic_string@DU?$char_traits@D@std@@V?$allocator@D@2@@std@@@2@V?$allocator@U?$pair@$$CBV?$basic_string@DU?$char_traits@D@std@@V?$allocator@D@2@@std@@V?$basic_config@Ujson_args@configor@@@configor@@@std@@@2@$0A@@std@@@std@@IAEPAU?$_Tree_node@U?$pair@$$CBV?$basic_string@DU?$char_traits@D@std@@V?$allocator@D@2@@std@@V?$basic_config@Ujson_args@configor@@@configor@@@std@@PAX@1@AAU?$pair@$$CBV?$basic_string@DU?$char_traits@D@std@@V?$allocator@D@2@@std@@V?$basic_config@Ujson_args@configor@@@configor@@@1@U_Copy_tag@01@U?$integral_constant@_N$0A@@1@@Z 10039410 f i Pipi_edit.obj
 0001:00038430       ??$_Erase_tree_and_orphan@V?$allocator@U?$_Tree_node@U?$pair@$$CBV?$basic_string@DU?$char_traits@D@std@@V?$allocator@D@2@@std@@V?$basic_config@Ujson_args@configor@@@configor@@@std@@PAX@std@@@std@@@?$_Tree_val@U?$_Tree_simple_types@U?$pair@$$CBV?$basic_string@DU?$char_traits@D@std@@V?$allocator@D@2@@std@@V?$basic_config@Ujson_args@configor@@@configor@@@std@@@std@@@std@@QAEXAAV?$allocator@U?$_Tree_node@U?$pair@$$CBV?$basic_string@DU?$char_traits@D@std@@V?$allocator@D@2@@std@@V?$basic_config@Ujson_args@configor@@@configor@@@std@@PAX@std@@@1@PAU?$_Tree_node@U?$pair@$$CBV?$basic_string@DU?$char_traits@D@std@@V?$allocator@D@2@@std@@V?$basic_config@Ujson_args@configor@@@configor@@@std@@PAX@1@@Z 10039430 f i Pipi_edit.obj
 0001:00038490       ??$_Buynode@AAU?$pair@$$CBV?$basic_string@DU?$char_traits@D@std@@V?$allocator@D@2@@std@@V?$basic_config@Ujson_args@configor@@@configor@@@std@@@?$_Tree@V?$_Tmap_traits@V?$basic_string@DU?$char_traits@D@std@@V?$allocator@D@2@@std@@V?$basic_config@Ujson_args@configor@@@configor@@U?$less@V?$basic_string@DU?$char_traits@D@std@@V?$allocator@D@2@@std@@@2@V?$allocator@U?$pair@$$CBV?$basic_string@DU?$char_traits@D@std@@V?$allocator@D@2@@std@@V?$basic_config@Ujson_args@configor@@@configor@@@std@@@2@$0A@@std@@@std@@IAEPAU?$_Tree_node@U?$pair@$$CBV?$basic_string@DU?$char_traits@D@std@@V?$allocator@D@2@@std@@V?$basic_config@Ujson_args@configor@@@configor@@@std@@PAX@1@AAU?$pair@$$CBV?$basic_string@DU?$char_traits@D@std@@V?$allocator@D@2@@std@@V?$basic_config@Ujson_args@configor@@@configor@@@1@@Z 10039490 f i Pipi_edit.obj
 0001:000384d0       ??$_Buynode@V?$allocator@U?$_Tree_node@U?$pair@$$CBV?$basic_string@DU?$char_traits@D@std@@V?$allocator@D@2@@std@@V?$basic_config@Ujson_args@configor@@@configor@@@std@@PAX@std@@@std@@AAU?$pair@$$CBV?$basic_string@DU?$char_traits@D@std@@V?$allocator@D@2@@std@@V?$basic_config@Ujson_args@configor@@@configor@@@2@@?$_Tree_node@U?$pair@$$CBV?$basic_string@DU?$char_traits@D@std@@V?$allocator@D@2@@std@@V?$basic_config@Ujson_args@configor@@@configor@@@std@@PAX@std@@SAPAU01@AAV?$allocator@U?$_Tree_node@U?$pair@$$CBV?$basic_string@DU?$char_traits@D@std@@V?$allocator@D@2@@std@@V?$basic_config@Ujson_args@configor@@@configor@@@std@@PAX@std@@@1@PAU01@AAU?$pair@$$CBV?$basic_string@DU?$char_traits@D@std@@V?$allocator@D@2@@std@@V?$basic_config@Ujson_args@configor@@@configor@@@1@@Z 100394d0 f i Pipi_edit.obj
 0001:000385c0       ??$construct@U?$pair@$$CBV?$basic_string@DU?$char_traits@D@std@@V?$allocator@D@2@@std@@V?$basic_config@Ujson_args@configor@@@configor@@@std@@AAU12@@?$_Default_allocator_traits@V?$allocator@U?$_Tree_node@U?$pair@$$CBV?$basic_string@DU?$char_traits@D@std@@V?$allocator@D@2@@std@@V?$basic_config@Ujson_args@configor@@@configor@@@std@@PAX@std@@@std@@@std@@SAXAAV?$allocator@U?$_Tree_node@U?$pair@$$CBV?$basic_string@DU?$char_traits@D@std@@V?$allocator@D@2@@std@@V?$basic_config@Ujson_args@configor@@@configor@@@std@@PAX@std@@@1@QAU?$pair@$$CBV?$basic_string@DU?$char_traits@D@std@@V?$allocator@D@2@@std@@V?$basic_config@Ujson_args@configor@@@configor@@@1@AAU31@@Z 100395c0 f i Pipi_edit.obj
 0001:00038600       ??0?$pair@$$CBV?$basic_string@DU?$char_traits@D@std@@V?$allocator@D@2@@std@@V?$basic_config@Ujson_args@configor@@@configor@@@std@@QAE@ABU01@@Z 10039600 f i Pipi_edit.obj
 0001:00038666       ??_E?$basic_ostream@DU?$char_traits@D@std@@@std@@$4PPPPPPPM@A@AEPAXI@Z 10039666 f i Pipi_edit.obj
 0001:0003866e       ??_E?$basic_ofstream@DU?$char_traits@D@std@@@std@@$4PPPPPPPM@A@AEPAXI@Z 1003966e f i Pipi_edit.obj
 0001:00038676       ??_E?$fast_basic_ostringstream@D@detail@configor@@$4PPPPPPPM@A@AEPAXI@Z 10039676 f i Pipi_edit.obj
 0001:00038680       ?AngleVectors@QAngle@@QAEXPAVVector@@00@Z 10039680 f   QAngle.obj
 0001:000388b0       ?AngleVectorsTranspose@QAngle@@QAEXPAVVector@@00@Z 100398b0 f   QAngle.obj
 0001:00038ab0       _ror                       10039ab0 f i ReflectiveLoader.obj
 0001:00038ac0       _hash                      10039ac0 f i ReflectiveLoader.obj
 0001:00038b00       _caller                    10039b00 f   ReflectiveLoader.obj
 0001:00038b10       _ReflectiveLoader@4        10039b10 f   ReflectiveLoader.obj
 0001:00039240       ?StudioRenderModel@@YAXXZ  1003a240 f   StudioModelRenderer.obj
 0001:000396f0       ?oStudioRenderModel@@YAXXZ 1003a6f0 f   StudioModelRenderer.obj
 0001:00039700       ?StudioRenderModel_Gate@@YAXXZ 1003a700 f   StudioModelRenderer.obj
 0001:00039710       ?oStudioRenderFinal@@YAXXZ 1003a710 f   StudioModelRenderer.obj
 0001:00039720       ?ScoreAttrib@@YAHPBDHPAX@Z 1003a720 f   Usermsg.obj
 0001:00039790       ?TeamInfo@@YAHPBDHPAX@Z    1003a790 f   Usermsg.obj
 0001:000398a0       ?SetFOV@@YAHPBDHPAX@Z      1003a8a0 f   Usermsg.obj
 0001:000399b0       ?BombDrop@@YAHPBDHPAX@Z    1003a9b0 f   Usermsg.obj
 0001:00039a40       ?ResetHUD@@YAHPBDHPAX@Z    1003aa40 f   Usermsg.obj
 0001:00039ac0       ?Battery@@YAHPBDHPAX@Z     1003aac0 f   Usermsg.obj
 0001:00039b00       ?Health@@YAHPBDHPAX@Z      1003ab00 f   Usermsg.obj
 0001:00039b40       ?DeathMsg@@YAHPBDHPAX@Z    1003ab40 f   Usermsg.obj
 0001:00039c00       ?CaptureFactory@@YAP6APAVIBaseInterface@@PBDPAH@ZPAD@Z 1003ac00 f   interface.obj
 0001:00039c50       ?CaptureInterface@@YAPAXP6APAVIBaseInterface@@PBDPAH@ZPAD@Z 1003ac50 f   interface.obj
 0001:00039c90       ?BEGIN_READ@@YAXPAXH@Z     1003ac90 f   parsemsg.obj
 0001:00039cc0       ?READ_CHAR@@YAHXZ          1003acc0 f   parsemsg.obj
 0001:00039d10       ?READ_BYTE@@YAHXZ          1003ad10 f   parsemsg.obj
 0001:00039d60       ?READ_SHORT@@YAHXZ         1003ad60 f   parsemsg.obj
 0001:00039dc0       ?READ_STRING@@YAPADXZ      1003adc0 f   parsemsg.obj
 0001:00039e70       ?READ_COORD@@YAMXZ         1003ae70 f   parsemsg.obj
 0001:00039ea0       ?CrossProduct@Vector@@QAEAAV1@ABV1@0@Z 1003aea0 f i Vector.obj
 0001:00039f30       ?AngleMatrix@Vector@@QAEXAAVQAngle@@PAY02M@Z 1003af30 f   Vector.obj
 0001:0003a1e0       ?VectorRotate@Vector@@QAEXAAV1@AAVQAngle@@@Z 1003b1e0 f   Vector.obj
 0001:0003a2f0       ?ToEulerAngles@Vector@@QAE?AVQAngle@@XZ 1003b2f0 f   Vector.obj
 0001:0003a4b0       ?ToEulerAngles@Vector@@QAE?AVQAngle@@PAV1@@Z 1003b4b0 f   Vector.obj
 0001:0003a91b       ??0bad_alloc@std@@QAE@XZ   1003b91b f i libcpmt:xthrow.obj
 0001:0003a933       ??0length_error@std@@QAE@ABV01@@Z 1003b933 f i libcpmt:xthrow.obj
 0001:0003a94e       ??0length_error@std@@QAE@PBD@Z 1003b94e f i libcpmt:xthrow.obj
 0001:0003a96d       ??0runtime_error@std@@QAE@PBD@Z 1003b96d f i libcpmt:xthrow.obj
 0001:0003a98c       ??1length_error@std@@UAE@XZ 1003b98c f i libcpmt:xthrow.obj
 0001:0003a99d       ??_Elength_error@std@@UAEPAXI@Z 1003b99d f i libcpmt:xthrow.obj
 0001:0003a99d       ??_Glength_error@std@@UAEPAXI@Z 1003b99d f i libcpmt:xthrow.obj
 0001:0003a9ca       ?__scrt_throw_std_bad_alloc@@YAXXZ 1003b9ca f   LIBCMT:throw_bad_alloc.obj
 0001:0003a9ca       ?_Xbad_alloc@std@@YAXXZ    1003b9ca f   libcpmt:xthrow.obj
 0001:0003a9e7       ?_Xlength_error@std@@YAXPBD@Z 1003b9e7 f   libcpmt:xthrow.obj
 0001:0003aa07       ?_Xout_of_range@std@@YAXPBD@Z 1003ba07 f   libcpmt:xthrow.obj
 0001:0003aa27       ?_Xruntime_error@std@@YAXPBD@Z 1003ba27 f   libcpmt:xthrow.obj
 0001:0003aa47       ?_Syserror_map@std@@YAPBDH@Z 1003ba47 f   libcpmt:syserror.obj
 0001:0003aa6c       ??0_Init_locks@std@@QAE@XZ 1003ba6c f   libcpmt:xlock.obj
 0001:0003aa99       ??0_Lockit@std@@QAE@H@Z    1003ba99 f   libcpmt:xlock.obj
 0001:0003aaca       ??1_Init_locks@std@@QAE@XZ 1003baca f   libcpmt:xlock.obj
 0001:0003aaf1       ??1_Lockit@std@@QAE@XZ     1003baf1 f   libcpmt:xlock.obj
 0001:0003ab10       ??0_Locimp@locale@std@@AAE@_N@Z 1003bb10 f i libcpmt:locale0.obj
 0001:0003ab51       ??1_Fac_node@std@@QAE@XZ   1003bb51 f i libcpmt:locale0.obj
 0001:0003ab82       ??1_Fac_tidy_reg_t@std@@QAE@XZ 1003bb82 f i libcpmt:locale0.obj
 0001:0003aba9       ??1_Locimp@locale@std@@MAE@XZ 1003bba9 f i libcpmt:locale0.obj
 0001:0003abd4       ??4?$_Yarn@D@std@@QAEAAV01@PBD@Z 1003bbd4 f i libcpmt:locale0.obj
 0001:0003ac28       ??_G_Locimp@locale@std@@MAEPAXI@Z 1003bc28 f i libcpmt:locale0.obj
 0001:0003ac28       ??_E_Locimp@locale@std@@MAEPAXI@Z 1003bc28 f i libcpmt:locale0.obj
 0001:0003ac4a       ?_Facet_Register@std@@YAXPAV_Facet_base@1@@Z 1003bc4a f   libcpmt:locale0.obj
 0001:0003ac76       ?_Getgloballocale@locale@std@@CAPAV_Locimp@12@XZ 1003bc76 f   libcpmt:locale0.obj
 0001:0003ac7c       ?_Init@locale@std@@CAPAV_Locimp@12@_N@Z 1003bc7c f   libcpmt:locale0.obj
 0001:0003ad0c       ?_Locimp_dtor@_Locimp@locale@std@@CAXPAV123@@Z 1003bd0c f   libcpmt:locale0.obj
 0001:0003ad7c       ?_Locinfo_ctor@_Locinfo@std@@SAXPAV12@PBD@Z 1003bd7c f   libcpmt:locale0.obj
 0001:0003adc7       ?_Locinfo_dtor@_Locinfo@std@@SAXPAV12@@Z 1003bdc7 f   libcpmt:locale0.obj
 0001:0003ade1       ?_New_Locimp@_Locimp@locale@std@@CAPAV123@_N@Z 1003bde1 f   libcpmt:locale0.obj
 0001:0003ae04       ?_Setgloballocale@locale@std@@CAXPAX@Z 1003be04 f   libcpmt:locale0.obj
 0001:0003ae2c       __Deletegloballocale       1003be2c f   libcpmt:locale0.obj
 0001:0003ae91       ?_Addstd@ios_base@std@@SAXPAV12@@Z 1003be91 f   libcpmt:ios.obj
 0001:0003aee3       ?_Callfns@ios_base@std@@AAEXW4event@12@@Z 1003bee3 f i libcpmt:ios.obj
 0001:0003af16       ?_Ios_base_dtor@ios_base@std@@CAXPAV12@@Z 1003bf16 f   libcpmt:ios.obj
 0001:0003af56       ?_Tidy@ios_base@std@@AAEXXZ 1003bf56 f i libcpmt:ios.obj
 0001:0003afd1       ??$_Xfiopen@D@std@@YAPAU_iobuf@@PBDHH@Z 1003bfd1 f i libcpmt:fiopen.obj
 0001:0003b077       ?_Fiopen@std@@YAPAU_iobuf@@PBDHH@Z 1003c077 f   libcpmt:fiopen.obj
 0001:0003b080       ?_Xfsopen@std@@YAPAU_iobuf@@PBDHH@Z 1003c080 f   libcpmt:fiopen.obj
 0001:0003b09d       __Getctype                 1003c09d f   libcpmt:_tolower.obj
 0001:0003b108       __Tolower                  1003c108 f   libcpmt:_tolower.obj
 0001:0003b206       __Toupper                  1003c206 f   libcpmt:_toupper.obj
 0001:0003b304       ??$_Copy_construct_from@$$CBU_EXCEPTION_RECORD@@@?$_Ptr_base@$$CBU_EXCEPTION_RECORD@@@std@@IAEXABV?$shared_ptr@$$CBU_EXCEPTION_RECORD@@@1@@Z 1003c304 f i libcpmt:excptptr.obj
 0001:0003b38f       ??0bad_exception@std@@QAE@ABV01@@Z 1003c38f f i libcpmt:excptptr.obj
 0001:0003b3e0       ??0bad_exception@std@@QAE@XZ 1003c3e0 f i libcpmt:excptptr.obj
 0001:0003b4b2       ??1?$shared_ptr@$$CBU_EXCEPTION_RECORD@@@std@@QAE@XZ 1003c4b2 f i libcpmt:excptptr.obj
 0001:0003b4be       ??1bad_exception@std@@UAE@XZ 1003c4be f i libcpmt:excptptr.obj
 0001:0003b505       ??4?$shared_ptr@$$CBU_EXCEPTION_RECORD@@@std@@QAEAAV01@$$QAV01@@Z 1003c505 f i libcpmt:excptptr.obj
 0001:0003b629       ??_G?$shared_ptr@$$CBU_EXCEPTION_RECORD@@@std@@QAEPAXI@Z 1003c629 f i libcpmt:excptptr.obj
 0001:0003b66f       ??_Ebad_exception@std@@UAEPAXI@Z 1003c66f f i libcpmt:excptptr.obj
 0001:0003b66f       ??_Gbad_exception@std@@UAEPAXI@Z 1003c66f f i libcpmt:excptptr.obj
 0001:0003b8ed       ?_CallMemberFunction0@@YGXQAX0@Z 1003c8ed f i libcpmt:excptptr.obj
 0001:0003b8fa       ?_CallMemberFunction1@@YGXQAX00@Z 1003c8fa f i libcpmt:excptptr.obj
 0001:0003b90a       ?_CallMemberFunction2@@YGXQAX00H@Z 1003c90a f i libcpmt:excptptr.obj
 0001:0003b98f       ?_Decref@_Ref_count_base@std@@QAEXXZ 1003c98f f i libcpmt:excptptr.obj
 0001:0003b9b8       ?_Decwref@_Ref_count_base@std@@QAEXXZ 1003c9b8 f i libcpmt:excptptr.obj
 0001:0003b9da       @_guard_check_icall_nop@4  1003c9da f   LIBCMT:guard_support.obj
 0001:0003bb7e       ?_Get_deleter@_Ref_count_base@std@@UBEPAXABVtype_info@@@Z 1003cb7e f i libcpmt:excptptr.obj
 0001:0003bbdb       ?__ExceptionPtrCopy@@YAXPAXPBX@Z 1003cbdb f   libcpmt:excptptr.obj
 0001:0003bbf2       ?__ExceptionPtrCreate@@YAXPAX@Z 1003cbf2 f   libcpmt:excptptr.obj
 0001:0003bc01       ?__ExceptionPtrCurrentException@@YAXPAX@Z 1003cc01 f   libcpmt:excptptr.obj
 0001:0003bcdd       ?__ExceptionPtrDestroy@@YAXPAX@Z 1003ccdd f   libcpmt:excptptr.obj
 0001:0003bcec       ?uncaught_exception@std@@YA_NXZ 1003ccec f   libcpmt:uncaught_exception.obj
 0001:0003bcf1       ?setprecision@std@@YA?AU?$_Smanip@_J@1@_J@Z 1003ccf1 f   libcpmt:iomanip.obj
 0001:0003bd0b       ?setw@std@@YA?AU?$_Smanip@_J@1@_J@Z 1003cd0b f   libcpmt:iomanip.obj
 0001:0003bd4d       __Getcvt                   1003cd4d f   libcpmt:xwctomb.obj
 0001:0003bdc0       __Mtxdst                   1003cdc0 f   libcpmt:xmtx.obj
 0001:0003bdce       __Mtxinit                  1003cdce f   libcpmt:xmtx.obj
 0001:0003bde3       __Mtxlock                  1003cde3 f   libcpmt:xmtx.obj
 0001:0003bdf1       __Mtxunlock                1003cdf1 f   libcpmt:xmtx.obj
 0001:0003bdff       ??1_Init_atexit@@QAE@XZ    1003cdff f i libcpmt:iosptrs.obj
 0001:0003be67       ?_Atexit@@YAXP6AXXZ@Z      1003ce67 f   libcpmt:iosptrs.obj
 0001:0003be96       ??1?$__crt_scoped_stack_ptr@_W@@QAE@XZ 1003ce96 f i libcpmt:StlLCMapStringA.obj
 0001:0003beaf       ___crtLCMapStringA         1003ceaf f   libcpmt:StlLCMapStringA.obj
 0001:0003c07b       __freea_crt                1003d07b f i libcpmt:StlLCMapStringA.obj
 0001:0003c099       @__security_check_cookie@4 1003d099 f   LIBCMT:secchk.obj
 0001:0003c0a7       ??_V@YAXPAX@Z              1003d0a7 f   LIBCMT:delete_array.obj
 0001:0003c171       __Init_thread_footer       1003d171 f   LIBCMT:thread_safe_statics.obj
 0001:0003c1bb       __Init_thread_header       1003d1bb f   LIBCMT:thread_safe_statics.obj
 0001:0003c20d       __Init_thread_notify       1003d20d f   LIBCMT:thread_safe_statics.obj
 0001:0003c243       __Init_thread_wait         1003d243 f   LIBCMT:thread_safe_statics.obj
 0001:0003c291       ??_U@YAPAXI@Z              1003d291 f   LIBCMT:new_array.obj
 0001:0003c29a       ??2@YAPAXI@Z               1003d29a f   LIBCMT:new_scalar.obj
 0001:0003c2ca       ??3@YAXPAXI@Z              1003d2ca f   LIBCMT:delete_scalar_size.obj
 0001:0003c2d8       ??_Etype_info@@UAEPAXI@Z   1003d2d8 f i LIBCMT:std_type_info_static.obj
 0001:0003c2d8       ??_Gtype_info@@UAEPAXI@Z   1003d2d8 f i LIBCMT:std_type_info_static.obj
 0001:0003c33f       ___scrt_acquire_startup_lock 1003d33f f   LIBCMT:utility.obj
 0001:0003c371       ___scrt_dllmain_after_initialize_c 1003d371 f   LIBCMT:utility.obj
 0001:0003c39c       ___scrt_dllmain_before_initialize_c 1003d39c f   LIBCMT:utility.obj
 0001:0003c3aa       ___scrt_dllmain_crt_thread_attach 1003d3aa f   LIBCMT:utility.obj
 0001:0003c3c9       ___scrt_dllmain_crt_thread_detach 1003d3c9 f   LIBCMT:utility.obj
 0001:0003c3d6       ___scrt_dllmain_exception_filter 1003d3d6 f   LIBCMT:utility.obj
 0001:0003c40a       ___scrt_dllmain_uninitialize_c 1003d40a f   LIBCMT:utility.obj
 0001:0003c42d       ___scrt_dllmain_uninitialize_critical 1003d42d f   LIBCMT:utility.obj
 0001:0003c43a       ___scrt_initialize_crt     1003d43a f   LIBCMT:utility.obj
 0001:0003c473       ___scrt_initialize_onexit_tables 1003d473 f   LIBCMT:utility.obj
 0001:0003c4fa       ___scrt_is_nonwritable_in_current_image 1003d4fa f   LIBCMT:utility.obj
 0001:0003c58e       ___scrt_release_startup_lock 1003d58e f   LIBCMT:utility.obj
 0001:0003c5ab       ___scrt_uninitialize_crt   1003d5ab f   LIBCMT:utility.obj
 0001:0003c5d3       __onexit                   1003d5d3 f   LIBCMT:utility.obj
 0001:0003c600       _atexit                    1003d600 f   LIBCMT:utility.obj
 0001:0003c615       ??_M@YGXPAXIIP6EX0@Z@Z     1003d615 f   LIBCMT:ehvecdtr.obj
 0001:0003c69a       ?__ArrayUnwind@@YGXPAXIIP6EX0@Z@Z 1003d69a f   LIBCMT:ehvecdtr.obj
 0001:0003c72a       ??_L@YGXPAXIIP6EX0@Z1@Z    1003d72a f   LIBCMT:ehvecctr.obj
 0001:0003c79e       ___raise_securityfailure   1003d79e f   LIBCMT:gs_report.obj
 0001:0003c7c6       ___report_gsfailure        1003d7c6 f   LIBCMT:gs_report.obj
 0001:0003c8c0       ___report_rangecheckfailure 1003d8c0 f   LIBCMT:gs_report.obj
 0001:0003c8cc       ___report_securityfailure  1003d8cc f   LIBCMT:gs_report.obj
 0001:0003ccdb       __DllMainCRTStartup@12     1003dcdb f   LIBCMT:dll_dllmain.obj
 0001:0003ccfe       ??3@YAXPAX@Z               1003dcfe f   LIBCMT:delete_scalar.obj
 0001:0003cd03       __EH_epilog3               1003dd03 f   LIBCMT:ehprolg3.obj
 0001:0003cd17       __EH_prolog3               1003dd17 f   LIBCMT:ehprolg3.obj
 0001:0003cd4a       __EH_prolog3_catch         1003dd4a f   LIBCMT:ehprolg3.obj
 0001:0003cd80       __alloca_probe_16          1003dd80 f   LIBCMT:alloca16.obj
 0001:0003cd96       __alloca_probe_8           1003dd96     LIBCMT:alloca16.obj
 0001:0003cdb0       __allmul                   1003ddb0 f   LIBCMT:llmul.obj
 0001:0003cdf0       ___scrt_fastfail           1003ddf0 f   LIBCMT:utility_desktop.obj
 0001:0003cf0b       __crt_debugger_hook        1003df0b f   LIBCMT:utility_desktop.obj
 0001:0003cf13       ?__scrt_throw_std_bad_array_new_length@@YAXXZ 1003df13 f   LIBCMT:throw_bad_alloc.obj
 0001:0003cf30       ___isa_available_init      1003df30 f   LIBCMT:cpu_disp.obj
 0001:0003d101       __get_startup_argv_mode    1003e101 f   LIBCMT:argv_mode.obj
 0001:0003d105       ___scrt_is_ucrt_dll_in_use 1003e105 f   LIBCMT:ucrt_detection.obj
 0001:0003d120       __SEH_prolog4              1003e120 f   LIBCMT:sehprolg4.obj
 0001:0003d1b2       ___security_init_cookie    1003e1b2 f   LIBCMT:gs_support.obj
 0001:0003d1fd       ?__scrt_initialize_type_info@@YAXXZ 1003e1fd f   LIBCMT:tncleanup.obj
 0001:0003d209       ?__scrt_uninitialize_type_info@@YAXXZ 1003e209 f   LIBCMT:tncleanup.obj
 0001:0003d215       ___local_stdio_scanf_options 1003e215 f i LIBCMT:default_local_stdio_options.obj
 0001:0003d21b       ___scrt_initialize_default_local_stdio_options 1003e21b f   LIBCMT:default_local_stdio_options.obj
 0001:0003d238       ___scrt_get_dyn_tls_init_callback 1003e238 f   LIBCMT:dyn_tls_init.obj
 0001:0003d23e       __RTC_Initialize           1003e23e f   LIBCMT:initsect.obj
 0001:0003d26a       __RTC_Terminate            1003e26a f   LIBCMT:initsect.obj
 0001:0003d2a0       __chkstk                   1003e2a0 f   LIBCMT:chkstk.obj
 0001:0003d2a0       __alloca_probe             1003e2a0 f   LIBCMT:chkstk.obj
 0001:0003d2cb       ?GetRangeOfTrysToCheck@__FrameHandler3@@SA?AU?$pair@Viterator@TryBlockMap@__FrameHandler3@@V123@@std@@AAVTryBlockMap@1@HPAXPBU_s_FuncInfo@@H@Z 1003e2cb f   libvcruntime:trnsctrl.obj
 0001:0003d33b       ?_CallCatchBlock2@@YAPAXPAUEHRegistrationNode@@PBU_s_FuncInfo@@PAXHK@Z 1003e33b f   libvcruntime:trnsctrl.obj
 0001:0003d398       ?_CallSETranslator@@YAHPAUEHExceptionRecord@@PAUEHRegistrationNode@@PAX2PBU_s_FuncInfo@@H1@Z 1003e398 f   libvcruntime:trnsctrl.obj
 0001:0003d48e       ?_JumpToContinuation@@YGXPAXPAUEHRegistrationNode@@@Z 1003e48e f   libvcruntime:trnsctrl.obj
 0001:0003d4be       ?_UnwindNestedFrames@@YGXPAUEHRegistrationNode@@PAUEHExceptionRecord@@@Z 1003e4be f   libvcruntime:trnsctrl.obj
 0001:0003d511       __CatchGuardHandler        1003e511 f   libvcruntime:trnsctrl.obj
 0001:0003d542       __CreateFrameInfo          1003e542 f   libvcruntime:trnsctrl.obj
 0001:0003d566       __FindAndUnlinkFrame       1003e566 f   libvcruntime:trnsctrl.obj
 0001:0003d5ae       __TranslatorGuardHandler   1003e5ae f   libvcruntime:trnsctrl.obj
 0001:0003d64b       ___CxxFrameHandler3        1003e64b f   libvcruntime:trnsctrl.obj
 0001:0003d681       ___DestructExceptionObject 1003e681 f   libvcruntime:ehhelpers.obj
 0001:0003d77a       __IsExceptionObjectToBeDestroyed 1003e77a f   libvcruntime:ehhelpers.obj
 0001:0003d7a0       ___AdjustPointer           1003e7a0 f   libvcruntime:ehhelpers.obj
 0001:0003d7c5       ___FrameUnwindFilter       1003e7c5 f   libvcruntime:ehhelpers.obj
 0001:0003d81b       ___current_exception       1003e81b f   libvcruntime:ehhelpers.obj
 0001:0003d824       ___current_exception_context 1003e824 f   libvcruntime:ehhelpers.obj
 0001:0003d82d       ___std_terminate           1003e82d f   libvcruntime:ehhelpers.obj
 0001:0003d840       _strstr                    1003e840 f   libvcruntime:strstr.obj
 0001:0003daab       ___std_exception_copy      1003eaab f   libvcruntime:std_exception.obj
 0001:0003db0e       ___std_exception_destroy   1003eb0e f   libvcruntime:std_exception.obj
 0001:0003db2d       __get_purecall_handler     1003eb2d f   libvcruntime:purevirt.obj
 0001:0003db33       __purecall                 1003eb33 f   libvcruntime:purevirt.obj
 0001:0003db50       _memset                    1003eb50 f   libvcruntime:memset.obj
 0001:0003dcb0       __NLG_Notify1              1003ecb0 f   libvcruntime:exsup.obj
 0001:0003dcc0       __NLG_Notify               1003ecc0 f   libvcruntime:exsup.obj
 0001:0003dcd7       __NLG_Dispatch             1003ecd7     libvcruntime:exsup.obj
 0001:0003dcd7       __NLG_Dispatch2            1003ecd7     libvcruntime:exsup.obj
 0001:0003dce0       __NLG_Call                 1003ece0 f   libvcruntime:exsup.obj
 0001:0003dce2       __NLG_Return2              1003ece2     libvcruntime:exsup.obj
 0001:0003dcf8       _memcmp                    1003ecf8 f   libvcruntime:memcmp.obj
 0001:0003ec10       _memmove                   1003fc10 f   libvcruntime:memmove.obj
 0001:0003ec10       _memcpy                    1003fc10 f   libvcruntime:memcpy.obj
 0001:0003f184       __CxxThrowException@8      10040184 f   libvcruntime:throw.obj
 0001:0003f1f0       ___uncaught_exception      100401f0 f   libvcruntime:uncaught_exception.obj
 0001:0003f210       _memchr                    10040210 f   libvcruntime:memchr.obj
 0001:0003f2c0       ___vcrt_initialize         100402c0 f   libvcruntime:initialization.obj
 0001:0003f2df       ___vcrt_thread_attach      100402df f   libvcruntime:initialization.obj
 0001:0003f2ea       ___vcrt_thread_detach      100402ea f   libvcruntime:initialization.obj
 0001:0003f2f5       ___vcrt_uninitialize       100402f5 f   libvcruntime:initialization.obj
 0001:0003f30c       ___vcrt_uninitialize_critical 1004030c f   libvcruntime:initialization.obj
 0001:0003f360       __except_handler4          10040360 f   libvcruntime:chandler4.obj
 0001:0003f4be       ___std_type_info_compare   100404be f   libvcruntime:std_type_info.obj
 0001:0003f4fa       ___std_type_info_destroy_list 100404fa f   libvcruntime:std_type_info.obj
 0001:0003f51d       ___vcrt_freefls@4          1004051d f   libvcruntime:per_thread_data.obj
 0001:0003f539       ___vcrt_freeptd            10040539 f   libvcruntime:per_thread_data.obj
 0001:0003f56f       ___vcrt_getptd             1004056f f   libvcruntime:per_thread_data.obj
 0001:0003f57d       ___vcrt_getptd_noexit      1004057d f   libvcruntime:per_thread_data.obj
 0001:0003f60f       ___vcrt_getptd_noinit      1004060f f   libvcruntime:per_thread_data.obj
 0001:0003f646       ___vcrt_initialize_ptd     10040646 f   libvcruntime:per_thread_data.obj
 0001:0003f679       ___vcrt_uninitialize_ptd   10040679 f   libvcruntime:per_thread_data.obj
 0001:0003fdcb       ??$TypeMatchHelper@V__FrameHandler3@@@@YAHPBU_s_HandlerType@@PBU_s_CatchableType@@PBU_s_ThrowInfo@@@Z 10040dcb f i libvcruntime:frame.obj
 0001:0003fe59       ??$__InternalCxxFrameHandler@V__FrameHandler3@@@@YA?AW4_EXCEPTION_DISPOSITION@@PAUEHExceptionRecord@@PAUEHRegistrationNode@@PAU_CONTEXT@@PAXPBU_s_FuncInfo@@H1E@Z 10040e59 f i libvcruntime:frame.obj
 0001:0003ff5b       ??8type_info@@QBE_NABV0@@Z 10040f5b f i libvcruntime:frame.obj
 0001:000401c7       ?FrameUnwindToEmptyState@__FrameHandler3@@SAXPAUEHRegistrationNode@@PAXPBU_s_FuncInfo@@@Z 100411c7 f   libvcruntime:frame.obj
 0001:000401df       ?FrameUnwindToState@__FrameHandler3@@SAXPAUEHRegistrationNode@@PAXPBU_s_FuncInfo@@H@Z 100411df f   libvcruntime:frame.obj
 0001:00040361       ?getESTypes@__FrameHandler3@@SAPBU_s_ESTypeList@@PBU_s_FuncInfo@@@Z 10041361 f i libvcruntime:frame.obj
 0001:00040370       __CallSettingFrame@12      10041370 f   libvcruntime:lowhelpr.obj
 0001:00040397       __NLG_Return               10041397     libvcruntime:lowhelpr.obj
 0001:000403bc       ___except_validate_context_record 100413bc f   libvcruntime:jbcxrval.obj
 0001:000403f0       _strchr                    100413f0 f   libvcruntime:strchr.obj
 0001:0004045e       ___from_strstr_to_strchr   1004145e     libvcruntime:strchr.obj
 0001:0004051b       ___vcrt_initialize_locks   1004151b f   libvcruntime:locks.obj
 0001:00040557       ___vcrt_uninitialize_locks 10041557 f   libvcruntime:locks.obj
 0001:00040590       __local_unwind4            10041590 f   libvcruntime:exsup4.obj
 0001:00040680       @_EH4_CallFilterFunc@8     10041680 f   libvcruntime:exsup4.obj
 0001:000406a0       @_EH4_TransferToHandler@8  100416a0 f   libvcruntime:exsup4.obj
 0001:000406c0       @_EH4_GlobalUnwind2@8      100416c0 f   libvcruntime:exsup4.obj
 0001:000406e0       @_EH4_LocalUnwind@16       100416e0 f   libvcruntime:exsup4.obj
 0001:000407da       ___vcrt_FlsAlloc           100417da f   libvcruntime:winapi_downlevel.obj
 0001:00040815       ___vcrt_FlsFree            10041815 f   libvcruntime:winapi_downlevel.obj
 0001:00040850       ___vcrt_FlsGetValue        10041850 f   libvcruntime:winapi_downlevel.obj
 0001:0004088b       ___vcrt_FlsSetValue        1004188b f   libvcruntime:winapi_downlevel.obj
 0001:000408c9       ___vcrt_InitializeCriticalSectionEx 100418c9 f   libvcruntime:winapi_downlevel.obj
 0001:00040910       _unexpected                10041910 f   libvcruntime:unexpected.obj
 0001:0004092d       ?GetCurrentState@__FrameHandler3@@SAHPAUEHRegistrationNode@@PAXPBU_s_FuncInfo@@@Z 1004192d f   libvcruntime:ehstate.obj
 0001:0004094a       ?SetState@__FrameHandler3@@SAXPAUEHRegistrationNode@@PBU_s_FuncInfo@@H@Z 1004194a f   libvcruntime:ehstate.obj
 0001:00040c3f       ___acrt_initialize_thread_local_exit_callback 10041c3f f   libucrt:exit.obj
 0001:00040c4e       __cexit                    10041c4e f   libucrt:exit.obj
 0001:00040c5d       __exit                     10041c5d f   libucrt:exit.obj
 0001:00040c73       __is_c_termination_complete 10041c73 f   libucrt:exit.obj
 0001:00040c7a       ??0__crt_cached_ptd_host@@QAE@QAU__crt_locale_pointers@@@Z 10041c7a f i libucrt:invalid_parameter.obj
 0001:00040cc2       ??1__crt_cached_ptd_host@@QAE@XZ 10041cc2 f i libucrt:invalid_parameter.obj
 0001:00040cfe       ?check_synchronize_global_state_index@__crt_cached_ptd_host@@AAEIXZ 10041cfe f i libucrt:invalid_parameter.obj
 0001:00040d27       ?force_synchronize_per_thread_data@__crt_cached_ptd_host@@AAEPAU__acrt_ptd@@XZ 10041d27 f i libucrt:invalid_parameter.obj
 0001:00040d6d       ?get_raw_ptd@__crt_cached_ptd_host@@QAEPAU__acrt_ptd@@XZ 10041d6d f i libucrt:invalid_parameter.obj
 0001:00040d8a       ___acrt_call_reportfault   10041d8a f   libucrt:invalid_parameter.obj
 0001:00040ec3       ___acrt_initialize_invalid_parameter_handler 10041ec3 f   libucrt:invalid_parameter.obj
 0001:00040ed2       __invalid_parameter        10041ed2 f   libucrt:invalid_parameter.obj
 0001:00040f09       __invalid_parameter_internal 10041f09 f   libucrt:invalid_parameter.obj
 0001:00040f86       __invalid_parameter_noinfo 10041f86 f   libucrt:invalid_parameter.obj
 0001:00040f96       __invalid_parameter_noinfo_noreturn 10041f96 f   libucrt:invalid_parameter.obj
 0001:00040fb3       __invoke_watson            10041fb3 f   libucrt:invalid_parameter.obj
 0001:00040fe7       ??$is_overflow_condition@K@__crt_strtox@@YA_NIK@Z 10041fe7 f i libucrt:atox.obj
 0001:00041018       ??$parse_integer@KV?$c_string_character_source@D@__crt_strtox@@$00@__crt_strtox@@YAKAAV__crt_cached_ptd_host@@V?$c_string_character_source@D@0@H_N@Z 10042018 f i libucrt:atox.obj
 0001:0004125f       ??$parse_integer@KV?$c_string_character_source@_W@__crt_strtox@@$00@__crt_strtox@@YAKAAV__crt_cached_ptd_host@@V?$c_string_character_source@_W@0@H_N@Z 1004225f f i libucrt:atox.obj
 0001:00041869       ?unget@?$c_string_character_source@D@__crt_strtox@@QAEXD@Z 10042869 f i libucrt:atox.obj
 0001:00041892       ?unget@?$c_string_character_source@_W@__crt_strtox@@QAEX_W@Z 10042892 f i libucrt:atox.obj
 0001:000418c0       ?update_locale_slow@__crt_cached_ptd_host@@AAEXXZ 100428c0 f i libucrt:atox.obj
 0001:0004191b       ?validate@?$c_string_character_source@_W@__crt_strtox@@QBE_NXZ 1004291b f i libucrt:atox.obj
 0001:0004191b       ?validate@?$c_string_character_source@D@__crt_strtox@@QBE_NXZ 1004291b f i libucrt:atox.obj
 0001:00041936       ___acrt_locale_get_ctype_array_value 10042936 f i libucrt:atox.obj
 0001:00041958       __ischartype_l             10042958 f i libucrt:atox.obj
 0001:000419af       __wtol                     100429af f   libucrt:atox.obj
 0001:000419ee       _atoi                      100429ee f   libucrt:atox.obj
 0001:00041a2d       ??$assemble_floating_point_snan@N@__crt_strtox@@YAX_NAAN@Z 10042a2d f i libucrt:atof.obj
 0001:00041a4e       ??$assemble_floating_point_value_t@M@__crt_strtox@@YA?AW4SLD_STATUS@@_NH_KAAM@Z 10042a4e f i libucrt:atof.obj
 0001:00041a7e       ??$assemble_floating_point_value_t@N@__crt_strtox@@YA?AW4SLD_STATUS@@_NH_KAAN@Z 10042a7e f i libucrt:atof.obj
 0001:00041b24       ??$convert_decimal_string_to_floating_type@N@__crt_strtox@@YA?AW4SLD_STATUS@@ABUfloating_point_string@0@AAN@Z 10042b24 f i libucrt:atof.obj
 0001:00041b45       ??$convert_hexadecimal_string_to_floating_type@N@__crt_strtox@@YA?AW4SLD_STATUS@@ABUfloating_point_string@0@AAN@Z 10042b45 f i libucrt:atof.obj
 0001:00041b66       ??$parse_floating_point@V?$c_string_character_source@D@__crt_strtox@@N@__crt_strtox@@YA?AW4SLD_STATUS@@QAU__crt_locale_pointers@@V?$c_string_character_source@D@0@QAN@Z 10042b66 f i libucrt:atof.obj
 0001:00041be6       ??$parse_floating_point_from_source@V?$c_string_character_source@D@__crt_strtox@@@__crt_strtox@@YA?AW4floating_point_parse_result@0@QAU__crt_locale_pointers@@AAV?$c_string_character_source@D@0@AAUfloating_point_string@0@@Z 10042be6 f i libucrt:atof.obj
 0001:00041fde       ??$parse_floating_point_possible_infinity@DV?$c_string_character_source@D@__crt_strtox@@PBD@__crt_strtox@@YA?AW4floating_point_parse_result@0@AADAAV?$c_string_character_source@D@0@PBD@Z 10042fde f i libucrt:atof.obj
 0001:00042091       ??$parse_floating_point_possible_nan@DV?$c_string_character_source@D@__crt_strtox@@PBD@__crt_strtox@@YA?AW4floating_point_parse_result@0@AADAAV?$c_string_character_source@D@0@PBD@Z 10043091 f i libucrt:atof.obj
 0001:00042195       ??$parse_floating_point_possible_nan_is_ind@DV?$c_string_character_source@D@__crt_strtox@@@__crt_strtox@@YA_NAADAAV?$c_string_character_source@D@0@@Z 10043195 f i libucrt:atof.obj
 0001:000421d1       ??$parse_floating_point_possible_nan_is_snan@DV?$c_string_character_source@D@__crt_strtox@@@__crt_strtox@@YA_NAADAAV?$c_string_character_source@D@0@@Z 100431d1 f i libucrt:atof.obj
 0001:0004220d       ??$parse_floating_point_write_result@N@__crt_strtox@@YA?AW4SLD_STATUS@@W4floating_point_parse_result@0@ABUfloating_point_string@0@QAN@Z 1004320d f i libucrt:atof.obj
 0001:00042331       ??0_LocaleUpdate@@QAE@QAU__crt_locale_pointers@@@Z 10043331 f i libucrt:atof.obj
 0001:000423b4       ??R<lambda_e51f7abad2595a5950d3223319845217>@@QBE_NXZ 100433b4 f i libucrt:atof.obj
 0001:000423b4       ??R<lambda_32aa245da1b5b882fa96db788295c8b2>@@QBE_NXZ 100433b4 f i libucrt:atof.obj
 0001:000423b4       ??R<lambda_690cf26ff5d754c94c32cf642e9f01bc>@@QBE_NXZ 100433b4 f i libucrt:atof.obj
 0001:000423da       ?as_double@floating_point_value@__crt_strtox@@QBEAANXZ 100433da f i libucrt:atof.obj
 0001:000423ff       ?as_float@floating_point_value@__crt_strtox@@QBEAAMXZ 100433ff f i libucrt:atof.obj
 0001:00042424       ?assemble_floating_point_infinity@__crt_strtox@@YAX_NABVfloating_point_value@1@@Z 10043424 f i libucrt:atof.obj
 0001:00042464       ?assemble_floating_point_value@__crt_strtox@@YA?AW4SLD_STATUS@@_KH_N1ABVfloating_point_value@1@@Z 10043464 f i libucrt:atof.obj
 0001:000427b7       ?assemble_floating_point_value_from_big_integer@__crt_strtox@@YA?AW4SLD_STATUS@@ABUbig_integer@1@I_N1ABVfloating_point_value@1@@Z 100437b7 f i libucrt:atof.obj
 0001:00042949       ?assemble_floating_point_zero@__crt_strtox@@YAX_NABVfloating_point_value@1@@Z 10043949 f i libucrt:atof.obj
 0001:0004297e       ?convert_decimal_string_to_floating_type_common@__crt_strtox@@YA?AW4SLD_STATUS@@ABUfloating_point_string@1@ABVfloating_point_value@1@@Z 1004397e f i libucrt:atof.obj
 0001:0004469d       ?convert_hexadecimal_string_to_floating_type_common@__crt_strtox@@YA?AW4SLD_STATUS@@ABUfloating_point_string@1@ABVfloating_point_value@1@@Z 1004569d f i libucrt:atof.obj
 0001:00044743       ?denormal_mantissa_mask@floating_point_value@__crt_strtox@@QBE_KXZ 10045743 f i libucrt:atof.obj
 0001:00044760       ?divide@__crt_strtox@@YA_KAAUbig_integer@1@ABU21@@Z 10045760 f i libucrt:atof.obj
 0001:00044be8       ?normal_mantissa_mask@floating_point_value@__crt_strtox@@QBE_KXZ 10045be8 f i libucrt:atof.obj
 0001:00044bff       _atof                      10045bff f   libucrt:atof.obj
 0001:00045075       ??$count@D@formatting_buffer@__crt_stdio_output@@QBEIXZ 10046075 f i libucrt:output.obj
 0001:0004508d       ??$ensure_buffer_is_big_enough@D@formatting_buffer@__crt_stdio_output@@QAE_NIAAV__crt_cached_ptd_host@@@Z 1004608d f i libucrt:output.obj
 0001:0004510e       ??$is_wide_character_specifier@D@__crt_stdio_output@@YA_N_KDW4length_modifier@0@@Z 1004610e f i libucrt:output.obj
 0001:0004513f       ??$make_c_string_character_source@_WPAPA_W@__crt_strtox@@YA?AV?$c_string_character_source@_W@0@QB_WQAPA_W@Z 1004613f f i libucrt:output.obj
 0001:0004515a       ??$parse_integer@KV?$c_string_character_source@D@__crt_strtox@@$0A@@__crt_strtox@@YAKAAV__crt_cached_ptd_host@@V?$c_string_character_source@D@0@H_N@Z 1004615a f i libucrt:output.obj
 0001:00045369       ??$scratch_data@D@formatting_buffer@__crt_stdio_output@@QAEPADXZ 10046369 f i libucrt:output.obj
 0001:00045387       ??$type_case_integer@$07@?$output_processor@DV?$string_output_adapter@D@__crt_stdio_output@@V?$standard_base@DV?$string_output_adapter@D@__crt_stdio_output@@@2@@__crt_stdio_output@@AAE_N_N@Z 10046387 f i libucrt:output.obj
 0001:00045387       ??$type_case_integer@$07@?$output_processor@DV?$stream_output_adapter@D@__crt_stdio_output@@V?$standard_base@DV?$stream_output_adapter@D@__crt_stdio_output@@@2@@__crt_stdio_output@@AAE_N_N@Z 10046387 f i libucrt:output.obj
 0001:00045387       ??$type_case_integer@$07@?$output_processor@DV?$string_output_adapter@D@__crt_stdio_output@@V?$format_validation_base@DV?$string_output_adapter@D@__crt_stdio_output@@@2@@__crt_stdio_output@@AAE_N_N@Z 10046387 f i libucrt:output.obj
 0001:00045504       ??$type_case_integer@$09@?$output_processor@DV?$string_output_adapter@D@__crt_stdio_output@@V?$format_validation_base@DV?$string_output_adapter@D@__crt_stdio_output@@@2@@__crt_stdio_output@@AAE_N_N@Z 10046504 f i libucrt:output.obj
 0001:00045504       ??$type_case_integer@$09@?$output_processor@DV?$string_output_adapter@D@__crt_stdio_output@@V?$standard_base@DV?$string_output_adapter@D@__crt_stdio_output@@@2@@__crt_stdio_output@@AAE_N_N@Z 10046504 f i libucrt:output.obj
 0001:00045504       ??$type_case_integer@$09@?$output_processor@DV?$stream_output_adapter@D@__crt_stdio_output@@V?$standard_base@DV?$stream_output_adapter@D@__crt_stdio_output@@@2@@__crt_stdio_output@@AAE_N_N@Z 10046504 f i libucrt:output.obj
 0001:00045681       ??$type_case_integer@$0BA@@?$output_processor@DV?$string_output_adapter@D@__crt_stdio_output@@V?$format_validation_base@DV?$string_output_adapter@D@__crt_stdio_output@@@2@@__crt_stdio_output@@AAE_N_N@Z 10046681 f i libucrt:output.obj
 0001:00045681       ??$type_case_integer@$0BA@@?$output_processor@DV?$string_output_adapter@D@__crt_stdio_output@@V?$standard_base@DV?$string_output_adapter@D@__crt_stdio_output@@@2@@__crt_stdio_output@@AAE_N_N@Z 10046681 f i libucrt:output.obj
 0001:00045681       ??$type_case_integer@$0BA@@?$output_processor@DV?$stream_output_adapter@D@__crt_stdio_output@@V?$standard_base@DV?$stream_output_adapter@D@__crt_stdio_output@@@2@@__crt_stdio_output@@AAE_N_N@Z 10046681 f i libucrt:output.obj
 0001:000457fe       ??$type_case_integer_parse_into_buffer@I$07@?$output_processor@DV?$string_output_adapter@D@__crt_stdio_output@@V?$format_validation_base@DV?$string_output_adapter@D@__crt_stdio_output@@@2@@__crt_stdio_output@@AAEXI_N@Z 100467fe f i libucrt:output.obj
 0001:000457fe       ??$type_case_integer_parse_into_buffer@I$07@?$output_processor@DV?$stream_output_adapter@D@__crt_stdio_output@@V?$standard_base@DV?$stream_output_adapter@D@__crt_stdio_output@@@2@@__crt_stdio_output@@AAEXI_N@Z 100467fe f i libucrt:output.obj
 0001:000457fe       ??$type_case_integer_parse_into_buffer@I$07@?$output_processor@DV?$string_output_adapter@D@__crt_stdio_output@@V?$standard_base@DV?$string_output_adapter@D@__crt_stdio_output@@@2@@__crt_stdio_output@@AAEXI_N@Z 100467fe f i libucrt:output.obj
 0001:00045868       ??$type_case_integer_parse_into_buffer@I$09@?$output_processor@DV?$string_output_adapter@D@__crt_stdio_output@@V?$format_validation_base@DV?$string_output_adapter@D@__crt_stdio_output@@@2@@__crt_stdio_output@@AAEXI_N@Z 10046868 f i libucrt:output.obj
 0001:00045868       ??$type_case_integer_parse_into_buffer@I$09@?$output_processor@DV?$string_output_adapter@D@__crt_stdio_output@@V?$standard_base@DV?$string_output_adapter@D@__crt_stdio_output@@@2@@__crt_stdio_output@@AAEXI_N@Z 10046868 f i libucrt:output.obj
 0001:00045868       ??$type_case_integer_parse_into_buffer@I$09@?$output_processor@DV?$stream_output_adapter@D@__crt_stdio_output@@V?$standard_base@DV?$stream_output_adapter@D@__crt_stdio_output@@@2@@__crt_stdio_output@@AAEXI_N@Z 10046868 f i libucrt:output.obj
 0001:000458e2       ??$type_case_integer_parse_into_buffer@I$0BA@@?$output_processor@DV?$string_output_adapter@D@__crt_stdio_output@@V?$standard_base@DV?$string_output_adapter@D@__crt_stdio_output@@@2@@__crt_stdio_output@@AAEXI_N@Z 100468e2 f i libucrt:output.obj
 0001:000458e2       ??$type_case_integer_parse_into_buffer@I$0BA@@?$output_processor@DV?$string_output_adapter@D@__crt_stdio_output@@V?$format_validation_base@DV?$string_output_adapter@D@__crt_stdio_output@@@2@@__crt_stdio_output@@AAEXI_N@Z 100468e2 f i libucrt:output.obj
 0001:000458e2       ??$type_case_integer_parse_into_buffer@I$0BA@@?$output_processor@DV?$stream_output_adapter@D@__crt_stdio_output@@V?$standard_base@DV?$stream_output_adapter@D@__crt_stdio_output@@@2@@__crt_stdio_output@@AAEXI_N@Z 100468e2 f i libucrt:output.obj
 0001:0004596a       ??$type_case_integer_parse_into_buffer@_K$07@?$output_processor@DV?$stream_output_adapter@D@__crt_stdio_output@@V?$standard_base@DV?$stream_output_adapter@D@__crt_stdio_output@@@2@@__crt_stdio_output@@AAEX_K_N@Z 1004696a f i libucrt:output.obj
 0001:0004596a       ??$type_case_integer_parse_into_buffer@_K$07@?$output_processor@DV?$string_output_adapter@D@__crt_stdio_output@@V?$format_validation_base@DV?$string_output_adapter@D@__crt_stdio_output@@@2@@__crt_stdio_output@@AAEX_K_N@Z 1004696a f i libucrt:output.obj
 0001:0004596a       ??$type_case_integer_parse_into_buffer@_K$07@?$output_processor@DV?$string_output_adapter@D@__crt_stdio_output@@V?$standard_base@DV?$string_output_adapter@D@__crt_stdio_output@@@2@@__crt_stdio_output@@AAEX_K_N@Z 1004696a f i libucrt:output.obj
 0001:000459e2       ??$type_case_integer_parse_into_buffer@_K$09@?$output_processor@DV?$stream_output_adapter@D@__crt_stdio_output@@V?$standard_base@DV?$stream_output_adapter@D@__crt_stdio_output@@@2@@__crt_stdio_output@@AAEX_K_N@Z 100469e2 f i libucrt:output.obj
 0001:000459e2       ??$type_case_integer_parse_into_buffer@_K$09@?$output_processor@DV?$string_output_adapter@D@__crt_stdio_output@@V?$format_validation_base@DV?$string_output_adapter@D@__crt_stdio_output@@@2@@__crt_stdio_output@@AAEX_K_N@Z 100469e2 f i libucrt:output.obj
 0001:000459e2       ??$type_case_integer_parse_into_buffer@_K$09@?$output_processor@DV?$string_output_adapter@D@__crt_stdio_output@@V?$standard_base@DV?$string_output_adapter@D@__crt_stdio_output@@@2@@__crt_stdio_output@@AAEX_K_N@Z 100469e2 f i libucrt:output.obj
 0001:00045a7e       ??$type_case_integer_parse_into_buffer@_K$0BA@@?$output_processor@DV?$string_output_adapter@D@__crt_stdio_output@@V?$standard_base@DV?$string_output_adapter@D@__crt_stdio_output@@@2@@__crt_stdio_output@@AAEX_K_N@Z 10046a7e f i libucrt:output.obj
 0001:00045a7e       ??$type_case_integer_parse_into_buffer@_K$0BA@@?$output_processor@DV?$stream_output_adapter@D@__crt_stdio_output@@V?$standard_base@DV?$stream_output_adapter@D@__crt_stdio_output@@@2@@__crt_stdio_output@@AAEX_K_N@Z 10046a7e f i libucrt:output.obj
 0001:00045a7e       ??$type_case_integer_parse_into_buffer@_K$0BA@@?$output_processor@DV?$string_output_adapter@D@__crt_stdio_output@@V?$format_validation_base@DV?$string_output_adapter@D@__crt_stdio_output@@@2@@__crt_stdio_output@@AAEX_K_N@Z 10046a7e f i libucrt:output.obj
 0001:00045b10       ??0?$output_adapter_data@DV?$string_output_adapter@D@__crt_stdio_output@@@__crt_stdio_output@@IAE@ABV?$string_output_adapter@D@1@_KQBDAAV__crt_cached_ptd_host@@QAD@Z 10046b10 f i libucrt:output.obj
 0001:00045b10       ??0?$output_adapter_data@DV?$stream_output_adapter@D@__crt_stdio_output@@@__crt_stdio_output@@IAE@ABV?$stream_output_adapter@D@1@_KQBDAAV__crt_cached_ptd_host@@QAD@Z 10046b10 f i libucrt:output.obj
 0001:00045b75       ??1formatting_buffer@__crt_stdio_output@@QAE@XZ 10046b75 f i libucrt:output.obj
 0001:00045b8f       ??4?$__crt_unique_heap_ptr@DU__crt_internal_free_policy@@@@QAEAAV0@$$QAV0@@Z 10046b8f f i libucrt:output.obj
 0001:00045c4f       ?crop_zeroes@__crt_stdio_output@@YAXPADQAU__crt_locale_pointers@@@Z 10046c4f f i libucrt:output.obj
 0001:00045caf       ?find_next_state@?$output_processor@DV?$string_output_adapter@D@__crt_stdio_output@@V?$standard_base@DV?$string_output_adapter@D@__crt_stdio_output@@@2@@__crt_stdio_output@@ABE?AW4state@2@DW432@@Z 10046caf f i libucrt:output.obj
 0001:00045caf       ?find_next_state@?$output_processor@DV?$stream_output_adapter@D@__crt_stdio_output@@V?$standard_base@DV?$stream_output_adapter@D@__crt_stdio_output@@@2@@__crt_stdio_output@@ABE?AW4state@2@DW432@@Z 10046caf f i libucrt:output.obj
 0001:00045cea       ?find_next_state@?$output_processor@DV?$string_output_adapter@D@__crt_stdio_output@@V?$format_validation_base@DV?$string_output_adapter@D@__crt_stdio_output@@@2@@__crt_stdio_output@@ABE?AW4state@2@DW432@@Z 10046cea f i libucrt:output.obj
 0001:00045d27       ?force_decimal_point@__crt_stdio_output@@YAXPADQAU__crt_locale_pointers@@@Z 10046d27 f i libucrt:output.obj
 0001:00045d83       ?parse_int_from_format_string@?$output_processor@DV?$string_output_adapter@D@__crt_stdio_output@@V?$standard_base@DV?$string_output_adapter@D@__crt_stdio_output@@@2@@__crt_stdio_output@@AAE_NQAH@Z 10046d83 f i libucrt:output.obj
 0001:00045d83       ?parse_int_from_format_string@?$output_processor@DV?$string_output_adapter@D@__crt_stdio_output@@V?$format_validation_base@DV?$string_output_adapter@D@__crt_stdio_output@@@2@@__crt_stdio_output@@AAE_NQAH@Z 10046d83 f i libucrt:output.obj
 0001:00045d83       ?parse_int_from_format_string@?$output_processor@DV?$stream_output_adapter@D@__crt_stdio_output@@V?$standard_base@DV?$stream_output_adapter@D@__crt_stdio_output@@@2@@__crt_stdio_output@@AAE_NQAH@Z 10046d83 f i libucrt:output.obj
 0001:00045dfb       ?process@?$output_processor@DV?$stream_output_adapter@D@__crt_stdio_output@@V?$standard_base@DV?$stream_output_adapter@D@__crt_stdio_output@@@2@@__crt_stdio_output@@QAEHXZ 10046dfb f i libucrt:output.obj
 0001:000460a7       ?process@?$output_processor@DV?$string_output_adapter@D@__crt_stdio_output@@V?$format_validation_base@DV?$string_output_adapter@D@__crt_stdio_output@@@2@@__crt_stdio_output@@QAEHXZ 100470a7 f i libucrt:output.obj
 0001:00046387       ?process@?$output_processor@DV?$string_output_adapter@D@__crt_stdio_output@@V?$standard_base@DV?$string_output_adapter@D@__crt_stdio_output@@@2@@__crt_stdio_output@@QAEHXZ 10047387 f i libucrt:output.obj
 0001:0004665b       ?state_case_size@?$output_processor@DV?$stream_output_adapter@D@__crt_stdio_output@@V?$standard_base@DV?$stream_output_adapter@D@__crt_stdio_output@@@2@@__crt_stdio_output@@AAE_NXZ 1004765b f i libucrt:output.obj
 0001:000467b9       ?state_case_size@?$output_processor@DV?$string_output_adapter@D@__crt_stdio_output@@V?$standard_base@DV?$string_output_adapter@D@__crt_stdio_output@@@2@@__crt_stdio_output@@AAE_NXZ 100477b9 f i libucrt:output.obj
 0001:000467b9       ?state_case_size@?$output_processor@DV?$string_output_adapter@D@__crt_stdio_output@@V?$format_validation_base@DV?$string_output_adapter@D@__crt_stdio_output@@@2@@__crt_stdio_output@@AAE_NXZ 100477b9 f i libucrt:output.obj
 0001:00046917       ?state_case_type@?$output_processor@DV?$stream_output_adapter@D@__crt_stdio_output@@V?$standard_base@DV?$stream_output_adapter@D@__crt_stdio_output@@@2@@__crt_stdio_output@@AAE_NXZ 10047917 f i libucrt:output.obj
 0001:00046c5f       ?state_case_type@?$output_processor@DV?$string_output_adapter@D@__crt_stdio_output@@V?$standard_base@DV?$string_output_adapter@D@__crt_stdio_output@@@2@@__crt_stdio_output@@AAE_NXZ 10047c5f f i libucrt:output.obj
 0001:00046c5f       ?state_case_type@?$output_processor@DV?$string_output_adapter@D@__crt_stdio_output@@V?$format_validation_base@DV?$string_output_adapter@D@__crt_stdio_output@@@2@@__crt_stdio_output@@AAE_NXZ 10047c5f f i libucrt:output.obj
 0001:00046ff0       ?to_integer_size@__crt_stdio_output@@YAIW4length_modifier@1@@Z 10047ff0 f i libucrt:output.obj
 0001:00047044       ?type_case_Z@?$output_processor@DV?$string_output_adapter@D@__crt_stdio_output@@V?$standard_base@DV?$string_output_adapter@D@__crt_stdio_output@@@2@@__crt_stdio_output@@AAE_NXZ 10048044 f i libucrt:output.obj
 0001:00047044       ?type_case_Z@?$output_processor@DV?$stream_output_adapter@D@__crt_stdio_output@@V?$standard_base@DV?$stream_output_adapter@D@__crt_stdio_output@@@2@@__crt_stdio_output@@AAE_NXZ 10048044 f i libucrt:output.obj
 0001:00047044       ?type_case_Z@?$output_processor@DV?$string_output_adapter@D@__crt_stdio_output@@V?$format_validation_base@DV?$string_output_adapter@D@__crt_stdio_output@@@2@@__crt_stdio_output@@AAE_NXZ 10048044 f i libucrt:output.obj
 0001:0004709e       ?type_case_a@?$output_processor@DV?$stream_output_adapter@D@__crt_stdio_output@@V?$standard_base@DV?$stream_output_adapter@D@__crt_stdio_output@@@2@@__crt_stdio_output@@AAE_NXZ 1004809e f i libucrt:output.obj
 0001:0004709e       ?type_case_a@?$output_processor@DV?$string_output_adapter@D@__crt_stdio_output@@V?$standard_base@DV?$string_output_adapter@D@__crt_stdio_output@@@2@@__crt_stdio_output@@AAE_NXZ 1004809e f i libucrt:output.obj
 0001:0004709e       ?type_case_a@?$output_processor@DV?$string_output_adapter@D@__crt_stdio_output@@V?$format_validation_base@DV?$string_output_adapter@D@__crt_stdio_output@@@2@@__crt_stdio_output@@AAE_NXZ 1004809e f i libucrt:output.obj
 0001:00047228       ?type_case_c_tchar@?$output_processor@DV?$string_output_adapter@D@__crt_stdio_output@@V?$format_validation_base@DV?$string_output_adapter@D@__crt_stdio_output@@@2@@__crt_stdio_output@@AAE_ND@Z 10048228 f i libucrt:output.obj
 0001:00047228       ?type_case_c_tchar@?$output_processor@DV?$string_output_adapter@D@__crt_stdio_output@@V?$standard_base@DV?$string_output_adapter@D@__crt_stdio_output@@@2@@__crt_stdio_output@@AAE_ND@Z 10048228 f i libucrt:output.obj
 0001:00047228       ?type_case_c_tchar@?$output_processor@DV?$stream_output_adapter@D@__crt_stdio_output@@V?$standard_base@DV?$stream_output_adapter@D@__crt_stdio_output@@@2@@__crt_stdio_output@@AAE_ND@Z 10048228 f i libucrt:output.obj
 0001:000472bd       ?type_case_n@?$output_processor@DV?$string_output_adapter@D@__crt_stdio_output@@V?$format_validation_base@DV?$string_output_adapter@D@__crt_stdio_output@@@2@@__crt_stdio_output@@AAE_NXZ 100482bd f i libucrt:output.obj
 0001:000472bd       ?type_case_n@?$output_processor@DV?$stream_output_adapter@D@__crt_stdio_output@@V?$standard_base@DV?$stream_output_adapter@D@__crt_stdio_output@@@2@@__crt_stdio_output@@AAE_NXZ 100482bd f i libucrt:output.obj
 0001:000472bd       ?type_case_n@?$output_processor@DV?$string_output_adapter@D@__crt_stdio_output@@V?$standard_base@DV?$string_output_adapter@D@__crt_stdio_output@@@2@@__crt_stdio_output@@AAE_NXZ 100482bd f i libucrt:output.obj
 0001:00047341       ?type_case_o@?$output_processor@DV?$string_output_adapter@D@__crt_stdio_output@@V?$standard_base@DV?$string_output_adapter@D@__crt_stdio_output@@@2@@__crt_stdio_output@@AAE_NXZ 10048341 f i libucrt:output.obj
 0001:00047341       ?type_case_o@?$output_processor@DV?$stream_output_adapter@D@__crt_stdio_output@@V?$standard_base@DV?$stream_output_adapter@D@__crt_stdio_output@@@2@@__crt_stdio_output@@AAE_NXZ 10048341 f i libucrt:output.obj
 0001:00047341       ?type_case_o@?$output_processor@DV?$string_output_adapter@D@__crt_stdio_output@@V?$format_validation_base@DV?$string_output_adapter@D@__crt_stdio_output@@@2@@__crt_stdio_output@@AAE_NXZ 10048341 f i libucrt:output.obj
 0001:0004735e       ?type_case_p@?$output_processor@DV?$stream_output_adapter@D@__crt_stdio_output@@V?$standard_base@DV?$stream_output_adapter@D@__crt_stdio_output@@@2@@__crt_stdio_output@@AAE_NXZ 1004835e f i libucrt:output.obj
 0001:0004735e       ?type_case_p@?$output_processor@DV?$string_output_adapter@D@__crt_stdio_output@@V?$standard_base@DV?$string_output_adapter@D@__crt_stdio_output@@@2@@__crt_stdio_output@@AAE_NXZ 1004835e f i libucrt:output.obj
 0001:0004735e       ?type_case_p@?$output_processor@DV?$string_output_adapter@D@__crt_stdio_output@@V?$format_validation_base@DV?$string_output_adapter@D@__crt_stdio_output@@@2@@__crt_stdio_output@@AAE_NXZ 1004835e f i libucrt:output.obj
 0001:00047374       ?type_case_s@?$output_processor@DV?$stream_output_adapter@D@__crt_stdio_output@@V?$standard_base@DV?$stream_output_adapter@D@__crt_stdio_output@@@2@@__crt_stdio_output@@AAE_NXZ 10048374 f i libucrt:output.obj
 0001:00047374       ?type_case_s@?$output_processor@DV?$string_output_adapter@D@__crt_stdio_output@@V?$standard_base@DV?$string_output_adapter@D@__crt_stdio_output@@@2@@__crt_stdio_output@@AAE_NXZ 10048374 f i libucrt:output.obj
 0001:00047374       ?type_case_s@?$output_processor@DV?$string_output_adapter@D@__crt_stdio_output@@V?$format_validation_base@DV?$string_output_adapter@D@__crt_stdio_output@@@2@@__crt_stdio_output@@AAE_NXZ 10048374 f i libucrt:output.obj
 0001:000473e5       ?validate@?$stream_output_adapter@D@__crt_stdio_output@@QBE_NAAV__crt_cached_ptd_host@@@Z 100483e5 f i libucrt:output.obj
 0001:0004741d       ?validate@?$string_output_adapter@D@__crt_stdio_output@@QBE_NAAV__crt_cached_ptd_host@@@Z 1004841d f i libucrt:output.obj
 0001:0004744e       ?validate_stream_is_ansi_if_required@?$__acrt_stdio_char_traits@D@@SA_NQAU_iobuf@@@Z 1004844e f i libucrt:output.obj
 0001:000474d5       ?write_character@?$output_adapter_common@DV?$stream_output_adapter@D@__crt_stdio_output@@@__crt_stdio_output@@QBEXDQAHAAV__crt_cached_ptd_host@@@Z 100484d5 f i libucrt:output.obj
 0001:000474f7       ?write_character_without_count_update@?$stream_output_adapter@D@__crt_stdio_output@@QBE_NDAAV__crt_cached_ptd_host@@@Z 100484f7 f i libucrt:output.obj
 0001:00047531       ?write_string@?$stream_output_adapter@D@__crt_stdio_output@@QBEXQBDHQAHAAV__crt_cached_ptd_host@@@Z 10048531 f i libucrt:output.obj
 0001:0004755d       ?write_string@?$string_output_adapter@D@__crt_stdio_output@@QBEXQBDHQAHAAV__crt_cached_ptd_host@@@Z 1004855d f i libucrt:output.obj
 0001:000475c4       ?write_string_impl@?$output_adapter_common@DV?$stream_output_adapter@D@__crt_stdio_output@@@__crt_stdio_output@@IBEXQBDHQAHAAV__crt_cached_ptd_host@@@Z 100485c4 f i libucrt:output.obj
 0001:00047643       ___stdio_common_vfprintf   10048643 f   libucrt:output.obj
 0001:000476e7       ___stdio_common_vsprintf   100486e7 f   libucrt:output.obj
 0001:00047728       ___stdio_common_vsprintf_s 10048728 f   libucrt:output.obj
 0001:00047769       _rand                      10048769 f   libucrt:rand.obj
 0001:0004778a       _strcpy_s                  1004878a f   libucrt:strcpy_s.obj
 0001:000477e4       _strcat_s                  100487e4 f   libucrt:strcat_s.obj
 0001:0004784f       ??$__acrt_convert_wcs_mbs_cp@D_WV<lambda_62f6974d9771e494a5ea317cc32e971c>@@U__crt_win32_buffer_internal_dynamic_resizing@@@@YAHQBDAAV?$__crt_win32_buffer@_WU__crt_win32_buffer_internal_dynamic_resizing@@@@ABV<lambda_62f6974d9771e494a5ea317cc32e971c>@@I@Z 1004884f f i libucrt:access.obj
 0001:00047901       ??$__acrt_mbs_to_wcs_cp@U__crt_win32_buffer_internal_dynamic_resizing@@@@YAHQBDAAV?$__crt_win32_buffer@_WU__crt_win32_buffer_internal_dynamic_resizing@@@@I@Z 10048901 f i libucrt:access.obj
 0001:0004791e       ?__acrt_get_utf8_acp_compatibility_codepage@@YAIXZ 1004891e f i libucrt:access.obj
 0001:0004795d       ?_deallocate@?$__crt_win32_buffer@_WU__crt_win32_buffer_internal_dynamic_resizing@@@@AAEXXZ 1004895d f i libucrt:access.obj
 0001:0004795d       ?_deallocate@?$__crt_win32_buffer@DU__crt_win32_buffer_internal_dynamic_resizing@@@@AAEXXZ 1004895d f i libucrt:argv_wildcards.obj
 0001:00047977       ?allocate@?$__crt_win32_buffer@_WU__crt_win32_buffer_internal_dynamic_resizing@@@@QAEHI@Z 10048977 f i libucrt:access.obj
 0001:000479b6       ?allocate@__crt_win32_buffer_internal_dynamic_resizing@@SAHQAPAXIABV__crt_win32_buffer_empty_debug_info@@@Z 100489b6 f i libucrt:access.obj
 0001:000479d5       __access                   100489d5 f   libucrt:access.obj
 0001:000479ed       __access_s                 100489ed f   libucrt:access.obj
 0001:00047a5f       ___acrt_initialize_stdio   10048a5f f   libucrt:_file.obj
 0001:00047b27       ___acrt_iob_func           10048b27 f   libucrt:_file.obj
 0001:00047b37       ___acrt_uninitialize_stdio 10048b37 f   libucrt:_file.obj
 0001:00047b83       __get_stream_buffer_pointers 10048b83 f   libucrt:_file.obj
 0001:00047bc9       __lock_file                10048bc9 f   libucrt:_file.obj
 0001:00047bdd       __unlock_file              10048bdd f   libucrt:_file.obj
 0001:00047bf1       __toupper_l                10048bf1 f   libucrt:tolower_toupper.obj
 0001:00047cef       _toupper                   10048cef f   libucrt:tolower_toupper.obj
 0001:00047d20       _isalpha                   10048d20 f   libucrt:_ctype.obj
 0001:00047db0       _islower                   10048db0 f   libucrt:_ctype.obj
 0001:00047e40       _isspace                   10048e40 f   libucrt:_ctype.obj
 0001:00047ed0       _isupper                   10048ed0 f   libucrt:_ctype.obj
 0001:00047f54       __strnicmp                 10048f54 f   libucrt:strnicmp.obj
 0001:00047fc1       __strnicmp_l               10048fc1 f   libucrt:strnicmp.obj
 0001:0004808c       ___ascii_stricmp           1004908c f   libucrt:stricmp.obj
 0001:000480c5       __stricmp                  100490c5 f   libucrt:stricmp.obj
 0001:0004810e       __stricmp_l                1004910e f   libucrt:stricmp.obj
 0001:000482cb       __fputc_nolock_internal    100492cb f   libucrt:fputc.obj
 0001:000482f8       _fputc                     100492f8 f   libucrt:fputc.obj
 0001:00048569       ___acrt_stdio_flush_nolock 10049569 f   libucrt:fflush.obj
 0001:000485d2       __fflush_nolock            100495d2 f   libucrt:fflush.obj
 0001:00048637       __flushall                 10049637 f   libucrt:fflush.obj
 0001:00048640       _fflush                    10049640 f   libucrt:fflush.obj
 0001:000487ba       __fclose_nolock            100497ba f   libucrt:fclose.obj
 0001:000487ea       _fclose                    100497ea f   libucrt:fclose.obj
 0001:0004881a       __fgetc_nolock             1004981a f   libucrt:fgetc.obj
 0001:00048856       _fgetc                     10049856 f   libucrt:fgetc.obj
 0001:00048a09       __fwrite_internal          10049a09 f   libucrt:fwrite.obj
 0001:00048a80       __fwrite_nolock_internal   10049a80 f   libucrt:fwrite.obj
 0001:00048c2a       _fwrite                    10049c2a f   libucrt:fwrite.obj
 0001:00048c64       _fgetpos                   10049c64 f   libucrt:fgetpos.obj
 0001:00048e83       _setvbuf                   10049e83 f   libucrt:setvbuf.obj
 0001:00048ebd       _free                      10049ebd f   libucrt:free.obj
 0001:00048ed8       __ungetc_nolock            10049ed8 f   libucrt:ungetc.obj
 0001:00048fd1       _ungetc                    10049fd1 f   libucrt:ungetc.obj
 0001:00049044       _fsetpos                   1004a044 f   libucrt:fsetpos.obj
 0001:0004907f       __fread_nolock_s           1004a07f f   libucrt:fread.obj
 0001:00049265       _fread                     1004a265 f   libucrt:fread.obj
 0001:00049282       _fread_s                   1004a282 f   libucrt:fread.obj
 0001:0004931f       ?LongLongSub@@YAJ_J0PA_J@Z 1004a31f f i libucrt:fseek.obj
 0001:000495fa       __fseeki64                 1004a5fa f   libucrt:fseek.obj
 0001:00049634       _fseek                     1004a634 f   libucrt:fseek.obj
 0001:00049776       _freopen                   1004a776 f   libucrt:freopen.obj
 0001:0004979c       _calloc                    1004a79c f   libucrt:calloc.obj
 0001:000497a7       ??$__crt_time_elapsed_leap_years@_J@@YA_J_J@Z 1004a7a7 f i libucrt:mktime.obj
 0001:0004980b       ??$__crt_time_is_leap_year@_J@@YA_N_J@Z 1004a80b f i libucrt:mktime.obj
 0001:00049c20       __mktime64                 1004ac20 f   libucrt:mktime.obj
 0001:00049c40       _strcspn                   1004ac40 f   libucrt:strcspn.obj
 0001:00049c90       _strncpy                   1004ac90 f   libucrt:strncpy.obj
 0001:00049db4       _localeconv                1004adb4 f   libucrt:localeconv.obj
 0001:00049ddc       _frexp                     1004addc f   libucrt:frexp.obj
 0001:00049ee0       _strncat                   1004aee0 f   libucrt:strncat.obj
 0001:0004a020       _strcpy                    1004b020 f   libucrt:strcat.obj
 0001:0004a030       _strcat                    1004b030 f   libucrt:strcat.obj
 0001:0004a120       _strcmp                    1004b120 f   libucrt:strcmp.obj
 0001:0004a1ac       ___acrt_initialize_locks   1004b1ac f   libucrt:locks.obj
 0001:0004a1ed       ___acrt_lock               1004b1ed f   libucrt:locks.obj
 0001:0004a204       ___acrt_uninitialize_locks 1004b204 f   libucrt:locks.obj
 0001:0004a235       ___acrt_unlock             1004b235 f   libucrt:locks.obj
 0001:0004a24c       __lock_locales             1004b24c f   libucrt:locks.obj
 0001:0004a25a       __unlock_locales           1004b25a f   libucrt:locks.obj
 0001:0004a263       _malloc                    1004b263 f   libucrt:malloc.obj
 0001:0004a4c3       _setlocale                 1004b4c3 f   libucrt:setlocale.obj
 0001:0004a5b2       __fsopen                   1004b5b2 f   libucrt:fopen.obj
 0001:0004a5bd       ___pctype_func             1004b5bd f   libucrt:ctype.obj
 0001:0004a5e1       ____lc_codepage_func       1004b5e1 f   libucrt:initctype.obj
 0001:0004a606       ____lc_locale_name_func    1004b606 f   libucrt:initctype.obj
 0001:0004a62d       ____mb_cur_max_func        1004b62d f   libucrt:initctype.obj
 0001:0004a652       ___acrt_locale_initialize_ctype 1004b652 f   libucrt:initctype.obj
 0001:0004aaaf       __wcsdup                   1004baaf f   libucrt:wcsdup.obj
 0001:0004ab0e       _abort                     1004bb0e f   libucrt:abort.obj
 0001:0004ab52       ___acrt_errno_from_os_error 1004bb52 f   libucrt:errno.obj
 0001:0004ab95       ___acrt_errno_map_os_error 1004bb95 f   libucrt:errno.obj
 0001:0004abb8       ___acrt_errno_map_os_error_ptd 1004bbb8 f   libucrt:errno.obj
 0001:0004abdc       ___doserrno                1004bbdc f   libucrt:errno.obj
 0001:0004abef       __errno                    1004bbef f   libucrt:errno.obj
 0001:0004ac10       __CIpow                    1004bc10 f   libucrt:pow_impl.obj
 0001:0004ac4b       __CIpow_default            1004bc4b f   libucrt:pow_impl.obj
 0001:0004ac64       __pow_default              1004bc64     libucrt:pow_impl.obj
 0001:0004ae59       ___strncnt                 1004be59 f   libucrt:strncnt.obj
 0001:0004ae75       ??$__acrt_convert_wcs_mbs_cp@_WDV<lambda_0fec1a7b3f42a53036604e18c2d5e07e>@@U__crt_win32_buffer_no_resizing@@@@YAHQB_WAAV?$__crt_win32_buffer@DU__crt_win32_buffer_no_resizing@@@@ABV<lambda_0fec1a7b3f42a53036604e18c2d5e07e>@@I@Z 1004be75 f i libucrt:strftime.obj
 0001:0004af37       ??R<lambda_28bda7af82a03b66c1cb3803a755f95d>@@QBEHIQB_WQADI@Z 1004bf37 f i libucrt:argv_wildcards.obj
 0001:0004af37       ??R<lambda_0fec1a7b3f42a53036604e18c2d5e07e>@@QBEHIQB_WQADI@Z 1004bf37 f i libucrt:strftime.obj
 0001:0004af5b       ?allocate@?$__crt_win32_buffer@DU__crt_win32_buffer_no_resizing@@@@QAEHI@Z 1004bf5b f i libucrt:strftime.obj
 0001:0004af82       ?set_to_nullptr@?$__crt_win32_buffer@DU__crt_win32_buffer_no_resizing@@@@QAEXXZ 1004bf82 f i libucrt:strftime.obj
 0001:0004af96       ??$__crt_time_is_leap_year@H@@YA_NH@Z 1004bf96 f i libucrt:wcsftime.obj
 0001:0004afd8       _strnlen                   1004bfd8 f   libucrt:strnlen.obj
 0001:0004b0fa       _wcsnlen                   1004c0fa f   libucrt:strnlen.obj
 0001:0004b2aa       ___acrt_initialize_new_handler 1004c2aa f   libucrt:new_handler.obj
 0001:0004b2b9       __callnewh                 1004c2b9 f   libucrt:new_handler.obj
 0001:0004b2e6       __query_new_handler        1004c2e6 f   libucrt:new_handler.obj
 0001:0004b342       __seh_filter_dll           1004c342 f   libucrt:exception_filter.obj
 0001:0004b362       __seh_filter_exe           1004c362 f   libucrt:exception_filter.obj
 0001:0004b759       ___acrt_allocate_buffer_for_argv 1004c759 f   libucrt:argv_parsing.obj
 0001:0004b7a8       __configure_narrow_argv    1004c7a8 f   libucrt:argv_parsing.obj
 0001:0004bb74       ___dcrt_get_or_create_wide_environment_nolock 1004cb74 f   libucrt:environment_initialization.obj
 0001:0004bb79       ___dcrt_uninitialize_environments_nolock 1004cb79 f   libucrt:environment_initialization.obj
 0001:0004bbca       __initialize_narrow_environment 1004cbca f   libucrt:environment_initialization.obj
 0001:0004bc85       ??$__crt_fast_encode_pointer@P6AHXZ@@YAP6AHXZQ6AHXZ@Z 1004cc85 f i libucrt:onexit.obj
 0001:0004bc85       ??$__crt_fast_encode_pointer@PAP6AXXZ@@YAPAP6AXXZQAP6AXXZ@Z 1004cc85 f i libucrt:onexit.obj
 0001:0004bc85       ??$__crt_fast_encode_pointer@P6GHPA_WKJ@Z@@YAP6GHPA_WKJ@ZQ6GH0KJ@Z@Z 1004cc85 f i libucrt:winapi_thunks.obj
 0001:0004bc85       ??$__crt_fast_encode_pointer@PAX@@YAPAXQAX@Z 1004cc85 f i libucrt:initialization.obj
 0001:0004be80       __crt_atexit               1004ce80 f   libucrt:onexit.obj
 0001:0004be96       __execute_onexit_table     1004ce96 f   libucrt:onexit.obj
 0001:0004bed4       __initialize_onexit_table  1004ced4 f   libucrt:onexit.obj
 0001:0004befd       __register_onexit_function 1004cefd f   libucrt:onexit.obj
 0001:0004bf57       ___acrt_uninitialize_command_line 1004cf57 f   libucrt:argv_data.obj
 0001:0004c02e       ___acrt_initialize         1004d02e f   libucrt:initialization.obj
 0001:0004c040       ___acrt_thread_attach      1004d040 f   libucrt:initialization.obj
 0001:0004c04b       ___acrt_thread_detach      1004d04b f   libucrt:initialization.obj
 0001:0004c053       ___acrt_uninitialize       1004d053 f   libucrt:initialization.obj
 0001:0004c083       ___acrt_uninitialize_critical 1004d083 f   libucrt:initialization.obj
 0001:0004c095       _terminate                 1004d095 f   libucrt:terminate.obj
 0001:0004c0d1       __initterm                 1004d0d1 f   libucrt:initterm.obj
 0001:0004c0fc       __initterm_e               1004d0fc f   libucrt:initterm.obj
 0001:0004c130       _strncmp                   1004d130 f   libucrt:strncmp.obj
 0001:0004c1a8       _wcsncmp                   1004d1a8 f   libucrt:wcsncmp.obj
 0001:0004c1e2       ___acrt_get_process_end_policy 1004d1e2 f   libucrt:win_policies.obj
 0001:0004c551       ___acrt_freeptd            1004d551 f   libucrt:per_thread_data.obj
 0001:0004c57d       ___acrt_getptd             1004d57d f   libucrt:per_thread_data.obj
 0001:0004c638       ___acrt_getptd_head        1004d638 f   libucrt:per_thread_data.obj
 0001:0004c6ce       ___acrt_getptd_noexit      1004d6ce f   libucrt:per_thread_data.obj
 0001:0004c77f       ___acrt_getptd_noexit_explicit 1004d77f f   libucrt:per_thread_data.obj
 0001:0004c822       ___acrt_initialize_ptd     1004d822 f   libucrt:per_thread_data.obj
 0001:0004c84e       ___acrt_uninitialize_ptd   1004d84e f   libucrt:per_thread_data.obj
 0001:0004c96b       ??0_expandlocale_locale_name_cache@@QAE@QA_WIQAU__crt_qualified_locale_data@@@Z 1004d96b f i libucrt:wsetlocale.obj
 0001:0004c9b5       ??1_expandlocale_locale_name_cache@@QAE@XZ 1004d9b5 f i libucrt:wsetlocale.obj
 0001:0004cb4d       ?commit_locale_name@_expandlocale_locale_name_cache@@QAEXQB_WI@Z 1004db4d f i libucrt:wsetlocale.obj
 0001:0004cb91       ?commit_locale_name_cache_already_updated@_expandlocale_locale_name_cache@@QAEXQB_WI@Z 1004db91 f i libucrt:wsetlocale.obj
 0001:0004cbc6       ___acrt_copy_locale_name   1004dbc6 f   libucrt:wsetlocale.obj
 0001:0004cc26       ___acrt_set_locale_changed 1004dc26 f   libucrt:wsetlocale.obj
 0001:0004cc31       ___acrt_uninitialize_locale 1004dc31 f   libucrt:wsetlocale.obj
 0001:0004cc58       ___lc_lctowcs              1004dc58 f   libucrt:wsetlocale.obj
 0001:0004ccc8       ___lc_wcstolc              1004dcc8 f   libucrt:wsetlocale.obj
 0001:0004d20d       __wcscats                  1004e20d f   libucrt:wsetlocale.obj
 0001:0004d24e       __wsetlocale               1004e24e f   libucrt:wsetlocale.obj
 0001:0004df29       _iswctype                  1004ef29 f   libucrt:iswctype.obj
 0001:0004df92       __isctype_l                1004ef92 f   libucrt:isctype.obj
 0001:0004e05d       ___acrt_update_locale_info 1004f05d f   libucrt:locale_update.obj
 0001:0004e08a       ___acrt_update_locale_info_explicit 1004f08a f   libucrt:locale_update.obj
 0001:0004e0bb       ___acrt_update_multibyte_info 1004f0bb f   libucrt:locale_update.obj
 0001:0004e0e8       ___acrt_update_multibyte_info_explicit 1004f0e8 f   libucrt:locale_update.obj
 0001:0004e119       _fegetround                1004f119 f   libucrt:fegetround.obj
 0001:0004e126       __free_base                1004f126 f   libucrt:free_base.obj
 0001:0004e160       __malloc_base              1004f160 f   libucrt:malloc_base.obj
 0001:0004e1ae       ?__acrt_fp_classify@@YA?AW4__acrt_fp_class@@ABN@Z 1004f1ae f i libucrt:cvt.obj
 0001:0004eb77       ___acrt_fp_format          1004fb77 f   libucrt:cvt.obj
 0001:0004ecf8       __wctomb_internal          1004fcf8 f   libucrt:wctomb.obj
 0001:0004ee62       __mbtowc_internal          1004fe62 f   libucrt:mbtowc.obj
 0001:0004ef95       __fileno                   1004ff95 f   libucrt:fileno.obj
 0001:0004efbc       __get_printf_count_output  1004ffbc f   libucrt:printf_count_output.obj
 0001:0004efd1       ___acrt_should_use_temporary_buffer 1004ffd1 f   libucrt:_sftbuf.obj
 0001:0004f00c       ___acrt_stdio_begin_temporary_buffering_nolock 1005000c f   libucrt:_sftbuf.obj
 0001:0004f0b8       ___acrt_stdio_end_temporary_buffering_nolock 100500b8 f   libucrt:_sftbuf.obj
 0001:0004f25c       ___acrt_initialize_lowio   1005025c f   libucrt:ioinit.obj
 0001:0004f2bc       ___acrt_uninitialize_lowio 100502bc f   libucrt:ioinit.obj
 0001:0004f2e8       ___acrt_MultiByteToWideChar 100502e8 f   libucrt:multibytetowidechar.obj
 0001:0004f688       ___acrt_AppPolicyGetProcessTerminationMethodInternal@4 10050688 f   libucrt:winapi_thunks.obj
 0001:0004f6c8       ___acrt_AreFileApisANSI@0  100506c8 f   libucrt:winapi_thunks.obj
 0001:0004f6e7       ___acrt_CompareStringEx@36 100506e7 f   libucrt:winapi_thunks.obj
 0001:0004f744       ___acrt_EnumSystemLocalesEx@16 10050744 f   libucrt:winapi_thunks.obj
 0001:0004f798       ___acrt_FlsAlloc@4         10050798 f   libucrt:winapi_thunks.obj
 0001:0004f7d7       ___acrt_FlsFree@4          100507d7 f   libucrt:winapi_thunks.obj
 0001:0004f816       ___acrt_FlsGetValue@4      10050816 f   libucrt:winapi_thunks.obj
 0001:0004f855       ___acrt_FlsSetValue@8      10050855 f   libucrt:winapi_thunks.obj
 0001:0004f897       ___acrt_GetLocaleInfoEx@16 10050897 f   libucrt:winapi_thunks.obj
 0001:0004f8d6       ___acrt_GetUserDefaultLocaleName@8 100508d6 f   libucrt:winapi_thunks.obj
 0001:0004f912       ___acrt_InitializeCriticalSectionEx@12 10050912 f   libucrt:winapi_thunks.obj
 0001:0004f95d       ___acrt_IsValidLocaleName@4 1005095d f   libucrt:winapi_thunks.obj
 0001:0004f995       ___acrt_LCIDToLocaleName@16 10050995 f   libucrt:winapi_thunks.obj
 0001:0004f9d4       ___acrt_LCMapStringEx@36   100509d4 f   libucrt:winapi_thunks.obj
 0001:0004fa31       ___acrt_LocaleNameToLCID@8 10050a31 f   libucrt:winapi_thunks.obj
 0001:0004fa62       ___acrt_can_use_vista_locale_apis 10050a62 f   libucrt:winapi_thunks.obj
 0001:0004fa6d       ___acrt_eagerly_load_locale_apis 10050a6d f   libucrt:winapi_thunks.obj
 0001:0004faa4       ___acrt_initialize_winapi_thunks 10050aa4 f   libucrt:winapi_thunks.obj
 0001:0004fab8       ___acrt_uninitialize_winapi_thunks 10050ab8 f   libucrt:winapi_thunks.obj
 0001:0004faee       __waccess_s                10050aee f   libucrt:waccess.obj
 0001:0004fbac       __calloc_base              10050bac f   libucrt:calloc_base.obj
 0001:0004fc09       __fcloseall                10050c09 f   libucrt:closeall.obj
 0001:0004fcb4       ___acrt_stdio_free_buffer_nolock 10050cb4 f   libucrt:_freebuf.obj
 0001:0004fee2       ___acrt_LCMapStringA       10050ee2 f   libucrt:lcmapstringa.obj
 0001:0004ff30       ___ascii_strnicmp          10050f30 f   libucrt:_strnicm.obj
 0001:000501de       ___acrt_stdio_flush_and_write_narrow_nolock 100511de f   libucrt:_flsbuf.obj
 0001:0005028b       __commit                   1005128b f   libucrt:commit.obj
 0001:00050ab6       __write                    10051ab6 f   libucrt:write.obj
 0001:00050aed       __write_internal           10051aed f   libucrt:write.obj
 0001:00050bf5       __write_nolock             10051bf5 f   libucrt:write.obj
 0001:00050e86       __close_internal           10051e86 f   libucrt:close.obj
 0001:00050f29       __close_nolock             10051f29 f   libucrt:close.obj
 0001:00050f59       __close_nolock_internal    10051f59 f   libucrt:close.obj
 0001:00050ff9       ?__acrt_stdio_allocate_stream@@YA?AV__crt_stdio_stream@@XZ 10051ff9 f   libucrt:stream.obj
 0001:00051062       ?__acrt_stdio_free_stream@@YAXV__crt_stdio_stream@@@Z 10052062 f   libucrt:stream.obj
 0001:000512ee       ___acrt_stdio_refill_and_read_narrow_nolock 100522ee f   libucrt:_filbuf.obj
 0001:000518e4       __ftelli64                 100528e4 f   libucrt:ftell.obj
 0001:0005191a       __ftelli64_nolock_internal 1005291a f   libucrt:ftell.obj
 0001:00051925       ___acrt_stdio_allocate_buffer_nolock 10052925 f   libucrt:_getbuf.obj
 0001:00051e2d       __read                     10052e2d f   libucrt:read.obj
 0001:00051f41       __read_nolock              10052f41 f   libucrt:read.obj
 0001:00052489       __lseeki64                 10053489 f   libucrt:lseek.obj
 0001:000524c9       __lseeki64_internal        100534c9 f   libucrt:lseek.obj
 0001:000524e7       __lseeki64_nolock          100534e7 f   libucrt:lseek.obj
 0001:00052527       __lseeki64_nolock_internal 10053527 f   libucrt:lseek.obj
 0001:00052545       ??$__acrt_stdio_parse_mode@D@@YA?AU__acrt_stdio_stream_mode@@QBD@Z 10053545 f i libucrt:openfile.obj
 0001:000527f2       ?__acrt_stdio_parse_mode_D@@YA_NAAU__acrt_stdio_stream_mode@@@Z 100537f2 f i libucrt:openfile.obj
 0001:0005280d       ?__acrt_stdio_parse_mode_T@@YA_NAAU__acrt_stdio_stream_mode@@@Z 1005380d f i libucrt:openfile.obj
 0001:0005282c       ?__acrt_stdio_parse_mode_b@@YA_NAAU__acrt_stdio_stream_mode@@@Z 1005382c f i libucrt:openfile.obj
 0001:0005284c       ?__acrt_stdio_parse_mode_c@@YA_NAAU__acrt_stdio_stream_mode@@AA_N@Z 1005384c f i libucrt:openfile.obj
 0001:0005286e       ?__acrt_stdio_parse_mode_n@@YA_NAAU__acrt_stdio_stream_mode@@AA_N@Z 1005386e f i libucrt:openfile.obj
 0001:00052890       ?__acrt_stdio_parse_mode_plus@@YA_NAAU__acrt_stdio_stream_mode@@AA_N@Z 10053890 f i libucrt:openfile.obj
 0001:000528c6       ?__acrt_stdio_parse_mode_t@@YA_NAAU__acrt_stdio_stream_mode@@@Z 100538c6 f i libucrt:openfile.obj
 0001:000528e6       ?__acrt_stdio_parse_mode_x@@YA_NAAU__acrt_stdio_stream_mode@@@Z 100538e6 f i libucrt:openfile.obj
 0001:00052906       __openfile                 10053906 f   libucrt:openfile.obj
 0001:00052911       ___acrt_initialize_timeset 10053911 f   libucrt:timeset.obj
 0001:00052946       ___daylight                10053946 f   libucrt:timeset.obj
 0001:0005294c       ___dstbias                 1005394c f   libucrt:timeset.obj
 0001:00052952       ___timezone                10053952 f   libucrt:timeset.obj
 0001:00052958       ___tzname                  10053958 f   libucrt:timeset.obj
 0001:0005295e       ___wide_tzname             1005395e f   libucrt:timeset.obj
 0001:00052964       __get_daylight             10053964 f   libucrt:timeset.obj
 0001:00052990       __get_dstbias              10053990 f   libucrt:timeset.obj
 0001:000529bc       __get_timezone             100539bc f   libucrt:timeset.obj
 0001:000529e8       ??$__crt_time_elapsed_leap_years@H@@YAHH@Z 100539e8 f i libucrt:gmtime.obj
 0001:00052c25       __gmtime64_s               10053c25 f   libucrt:gmtime.obj
 0001:00052ebf       __localtime64_s            10053ebf f   libucrt:localtime.obj
 0001:00053786       ___tzset                   10054786 f   libucrt:tzset.obj
 0001:000537e3       __isindst                  100547e3 f   libucrt:tzset.obj
 0001:00053837       __dclass                   10054837 f   libucrt:nan.obj
 0001:00053848       __dsign                    10054848 f   libucrt:nan.obj
 0001:00053858       __errcode                  10054858 f   libucrt:fpexcept.obj
 0001:0005388c       __except1                  1005488c f   libucrt:fpexcept.obj
 0001:0005395a       __handle_exc               1005495a f   libucrt:fpexcept.obj
 0001:00053bd3       __raise_exc                10054bd3 f   libucrt:fpexcept.obj
 0001:00053bf6       __raise_exc_ex             10054bf6 f   libucrt:fpexcept.obj
 0001:00053eec       __set_errno_from_matherr   10054eec f   libucrt:fpexcept.obj
 0001:00053f1b       __umatherr                 10054f1b f   libucrt:fpexcept.obj
 0001:00053fbb       __decomp                   10054fbb f   libucrt:util.obj
 0001:0005408d       __set_exp                  1005508d f   libucrt:util.obj
 0001:000540ba       __sptype                   100550ba f   libucrt:util.obj
 0001:00054118       ___set_fpsr_sse2           10055118 f   libucrt:fpctrl.obj
 0001:00054198       __clrfp                    10055198 f   libucrt:fpctrl.obj
 0001:000541a9       __ctrlfp                   100551a9 f   libucrt:fpctrl.obj
 0001:000541d3       __set_statfp               100551d3 f   libucrt:fpctrl.obj
 0001:0005422c       __statfp                   1005522c f   libucrt:fpctrl.obj
 0001:000544e7       _mbstowcs_s                100554e7 f   libucrt:mbstowcs.obj
 0001:000548a9       __wcstombs_s_l             100558a9 f   libucrt:wcstombs.obj
 0001:000549ce       ___acrt_GetLocaleInfoA     100559ce f   libucrt:getlocaleinfoa.obj
 0001:00054b7e       ___acrt_GetStringTypeA     10055b7e f   libucrt:getstringtypea.obj
 0001:00054c87       _wcscpy_s                  10055c87 f   libucrt:wcscpy_s.obj
 0001:00054db9       ___acrt_get_sigabrt_handler 10055db9 f   libucrt:signal.obj
 0001:00054de0       ___acrt_initialize_signal_handlers 10055de0 f   libucrt:signal.obj
 0001:00054dfe       _raise                     10055dfe f   libucrt:signal.obj
 0001:00054ff1       __fpclass                  10055ff1 f   libucrt:ieeemisc.obj
 0001:00055095       __realloc_base             10056095 f   libucrt:realloc_base.obj
 0001:000550fe       ___acrt_initialize_sse2    100560fe f   libucrt:mathfcns.obj
 0001:00055110       __CIpow_pentium4           10056110 f   libucrt:pow_pentium4.obj
 0001:00055129       __pow_pentium4             10056129     libucrt:pow_pentium4.obj
 0001:00055c50       __fFEXP                    10056c50 f   libucrt:87tran.obj
 0001:00055ca7       __rtinfpopse               10056ca7     libucrt:87tran.obj
 0001:00055ca9       __rtinfnpopse              10056ca9     libucrt:87tran.obj
 0001:00055cb9       __fFLN                     10056cb9     libucrt:87tran.obj
 0001:00055d6e       __rtinfpop                 10056d6e     libucrt:87tran.obj
 0001:00055d70       __rtinfnpop                10056d70     libucrt:87tran.obj
 0001:00055d80       __rtforexpinf              10056d80 f   libucrt:87tran.obj
 0001:00055d8d       __ffexpm1                  10056d8d     libucrt:87tran.obj
 0001:00055e40       __trandisp1                10056e40 f   libucrt:87disp.obj
 0001:00055eb5       __trandisp2                10056eb5 f   libucrt:87disp.obj
 0001:00055f4f       __rttospopde               10056f4f     libucrt:87disp.obj
 0001:00055f54       __rttospop                 10056f54     libucrt:87disp.obj
 0001:00055f60       __rtnospop                 10056f60 f   libucrt:87disp.obj
 0001:00055f70       __rttosnpop                10056f70 f   libucrt:87disp.obj
 0001:00055f71       __rtnospopde               10056f71     libucrt:87disp.obj
 0001:00055f78       __rtzeropop                10056f78     libucrt:87disp.obj
 0001:00055f7a       __rtzeronpop               10056f7a     libucrt:87disp.obj
 0001:00055f80       __rtzerospop               10056f80 f   libucrt:87disp.obj
 0001:00055f8d       __rtonepop                 10056f8d     libucrt:87disp.obj
 0001:00055f90       __rtonenpop                10056f90 f   libucrt:87disp.obj
 0001:00055fa0       __tosnan1                  10056fa0 f   libucrt:87disp.obj
 0001:00055fd0       __nosnan2                  10056fd0 f   libucrt:87disp.obj
 0001:00055fe0       __tosnan2                  10056fe0 f   libucrt:87disp.obj
 0001:00056010       __nan2                     10057010 f   libucrt:87disp.obj
 0001:00056050       __rtindfpop                10057050 f   libucrt:87disp.obj
 0001:00056052       __rtindfnpop               10057052     libucrt:87disp.obj
 0001:00056063       __rttosnpopde              10057063     libucrt:87disp.obj
 0001:00056070       __rtatan2inf               10057070 f   libucrt:87disp.obj
 0001:0005608d       __rtchsifneg               1005708d     libucrt:87disp.obj
 0001:000560a0       __startTwoArgErrorHandling 100570a0 f   libucrt:genexcep.obj
 0001:000560b7       __startOneArgErrorHandling 100570b7 f   libucrt:genexcep.obj
 0001:00056100       __twoToTOS                 10057100 f   libucrt:common.obj
 0001:00056115       __load_CW                  10057115 f   libucrt:common.obj
 0001:0005612c       __convertTOStoQNaN         1005712c f   libucrt:common.obj
 0001:00056145       __fload_withFB             10057145 f   libucrt:common.obj
 0001:00056188       __checkTOS_withFB          10057188 f   libucrt:common.obj
 0001:0005619e       __fast_exit                1005719e f   libucrt:common.obj
 0001:000561ab       __math_exit                100571ab f   libucrt:common.obj
 0001:000561d5       __check_overflow_exit      100571d5 f   libucrt:common.obj
 0001:000561e9       __check_range_exit         100571e9 f   libucrt:common.obj
 0001:0005628c       __d_inttype                1005728c f   libucrt:powhlp.obj
 0001:000562f4       __powhlp                   100572f4 f   libucrt:powhlp.obj
 0001:0005641f       ___acrt_WideCharToMultiByte 1005741f f   libucrt:widechartomultibyte.obj
 0001:000564d6       ___ascii_wcsicmp           100574d6 f   libucrt:wcsicmp.obj
 0001:00056513       __towlower_internal        10057513 f i libucrt:wcsicmp.obj
 0001:00056552       __wcsicmp                  10057552 f   libucrt:wcsicmp.obj
 0001:0005659b       __wcsicmp_l                1005759b f   libucrt:wcsicmp.obj
 0001:0005666b       ??$__acrt_convert_wcs_mbs_cp@_WDV<lambda_28bda7af82a03b66c1cb3803a755f95d>@@U__crt_win32_buffer_internal_dynamic_resizing@@@@YAHQB_WAAV?$__crt_win32_buffer@DU__crt_win32_buffer_internal_dynamic_resizing@@@@ABV<lambda_28bda7af82a03b66c1cb3803a755f95d>@@I@Z 1005766b f i libucrt:argv_wildcards.obj
 0001:00056c0d       ?allocate@?$__crt_win32_buffer@DU__crt_win32_buffer_internal_dynamic_resizing@@@@QAEHI@Z 10057c0d f i libucrt:argv_wildcards.obj
 0001:00056cd0       ___acrt_expand_narrow_argv_wildcards 10057cd0 f   libucrt:argv_wildcards.obj
 0001:00056cdb       ___acrt_GetModuleFileNameA 10057cdb f   libucrt:getmodulefilenamea.obj
 0001:000572ff       ___acrt_initialize_multibyte 100582ff f   libucrt:mbctype.obj
 0001:00057347       ___acrt_update_thread_multibyte_data 10058347 f   libucrt:mbctype.obj
 0001:0005735a       __setmbcp_nolock           1005835a f   libucrt:mbctype.obj
 0001:000575b2       __ismbblead                100585b2 f   libucrt:ismbbyte.obj
 0001:000575ca       ___acrt_initialize_command_line 100585ca f   libucrt:argv_data.obj
 0001:0005761a       ___dcrt_get_narrow_environment_from_os 1005861a f   libucrt:get_environment_from_os.obj
 0001:000576ba       ___dcrt_get_wide_environment_from_os 100586ba f   libucrt:get_environment_from_os.obj
 0001:00057ab7       ___dcrt_set_variable_in_wide_environment_nolock 10058ab7 f   libucrt:setenv.obj
 0001:00057ac2       __recalloc_base            10058ac2 f   libucrt:recalloc.obj
 0001:00057b2f       ___acrt_initialize_heap    10058b2f f   libucrt:heap_handle.obj
 0001:00057b40       ___acrt_uninitialize_heap  10058b40 f   libucrt:heap_handle.obj
 0001:00057b4a       ___acrt_execute_initializers 10058b4a f   libucrt:shared_initialization.obj
 0001:00057bb2       ___acrt_execute_uninitializers 10058bb2 f   libucrt:shared_initialization.obj
 0001:00057be3       ___acrt_has_user_matherr   10058be3 f   libucrt:matherr.obj
 0001:00057bfb       ___acrt_initialize_user_matherr 10058bfb f   libucrt:matherr.obj
 0001:00057c0a       ___acrt_invoke_user_matherr 10058c0a f   libucrt:matherr.obj
 0001:00057c3c       ___acrt_add_locale_ref     10058c3c f   libucrt:locale_refcounting.obj
 0001:00057cb9       ___acrt_free_locale        10058cb9 f   libucrt:locale_refcounting.obj
 0001:00057e01       ___acrt_locale_add_lc_time_reference 10058e01 f   libucrt:locale_refcounting.obj
 0001:00057e2a       ___acrt_locale_free_lc_time_if_unreferenced 10058e2a f   libucrt:locale_refcounting.obj
 0001:00057e5b       ___acrt_locale_release_lc_time_reference 10058e5b f   libucrt:locale_refcounting.obj
 0001:00057e84       ___acrt_release_locale_ref 10058e84 f   libucrt:locale_refcounting.obj
 0001:00057f05       ___acrt_update_thread_locale_data 10058f05 f   libucrt:locale_refcounting.obj
 0001:00057f86       __updatetlocinfoEx_nolock  10058f86 f   libucrt:locale_refcounting.obj
 0001:00057fd8       ___acrt_locale_free_monetary 10058fd8 f   libucrt:initmon.obj
 0001:000580d6       ___acrt_locale_initialize_monetary 100590d6 f   libucrt:initmon.obj
 0001:0005848c       ___acrt_locale_free_numeric 1005948c f   libucrt:initnum.obj
 0001:000584f5       ___acrt_locale_initialize_numeric 100594f5 f   libucrt:initnum.obj
 0001:000589a7       ___acrt_locale_free_time   100599a7 f   libucrt:inittime.obj
 0001:00058a8b       ___acrt_locale_initialize_time 10059a8b f   libucrt:inittime.obj
 0001:00058b7e       _wcscat_s                  10059b7e f   libucrt:wcscat_s.obj
 0001:00058c76       _wcsncat_s                 10059c76 f   libucrt:wcsncat_s.obj
 0001:00058d4f       _wcsncpy_s                 10059d4f f   libucrt:wcsncpy_s.obj
 0001:00058d5a       _wcscspn                   10059d5a f   libucrt:wcscspn.obj
 0001:00058db3       _wcspbrk                   10059db3 f   libucrt:wcspbrk.obj
 0001:000594fd       ___acrt_get_qualified_locale 1005a4fd f   libucrt:get_qualified_locale.obj
 0001:00059e61       ___acrt_get_qualified_locale_downlevel 1005ae61 f   libucrt:getqloc_downlevel.obj
 0001:0005a056       ___acrt_GetStringTypeW     1005b056 f   libucrt:getstringtypew.obj
 0001:0005a338       ___acrt_fenv_get_common_round_control 1005b338 f   libucrt:_fenvutils.obj
 0001:0005a35a       ___acrt_fenv_get_control   1005b35a f   libucrt:_fenvutils.obj
 0001:0005a3da       ___acrt_fenv_get_status    1005b3da f   libucrt:_fenvutils.obj
 0001:0005a484       ___acrt_fenv_set_control   1005b484 f   libucrt:_fenvutils.obj
 0001:0005a4ff       ___acrt_fenv_set_status    1005b4ff f   libucrt:_fenvutils.obj
 0001:0005a5f9       __query_new_mode           1005b5f9 f   libucrt:new_mode.obj
 0001:0005a67e       ___acrt_fp_strflt_to_string 1005b67e f   libucrt:_fptostr.obj
 0001:0005a778       ___acrt_fltout             1005b778 f   libucrt:cfout.obj
 0001:0005bcb1       ?__c32rtomb_utf8@__crt_mbstring@@YAIPAD_UPAU_Mbstatet@@AAV__crt_cached_ptd_host@@@Z 1005ccb1 f   libucrt:c32rtomb.obj
 0001:0005bd8d       ?__mbrtowc_utf8@__crt_mbstring@@YAIPA_WPBDIPAU_Mbstatet@@AAV__crt_cached_ptd_host@@@Z 1005cd8d f   libucrt:mbrtowc.obj
 0001:0005bdd0       ?__mbsrtowcs_utf8@__crt_mbstring@@YAIPA_WPAPBDIPAU_Mbstatet@@AAV__crt_cached_ptd_host@@@Z 1005cdd0 f   libucrt:mbrtowc.obj
 0001:0005bed8       __isatty                   1005ced8 f   libucrt:isatty.obj
 0001:0005bf2e       ___acrt_lowio_create_handle_array 1005cf2e f   libucrt:osfinfo.obj
 0001:0005bfa9       ___acrt_lowio_destroy_handle_array 1005cfa9 f   libucrt:osfinfo.obj
 0001:0005bfde       ___acrt_lowio_ensure_fh_exists 1005cfde f   libucrt:osfinfo.obj
 0001:0005c07c       ___acrt_lowio_lock_fh      1005d07c f   libucrt:osfinfo.obj
 0001:0005c09f       ___acrt_lowio_set_os_handle 1005d09f f   libucrt:osfinfo.obj
 0001:0005c131       ___acrt_lowio_unlock_fh    1005d131 f   libucrt:osfinfo.obj
 0001:0005c154       __alloc_osfhnd             1005d154 f   libucrt:osfinfo.obj
 0001:0005c267       __free_osfhnd              1005d267 f   libucrt:osfinfo.obj
 0001:0005c2f8       __get_osfhandle            1005d2f8 f   libucrt:osfinfo.obj
 0001:0005c3b2       ___acrt_DownlevelLCIDToLocaleName 1005d3b2 f   libucrt:lcidtoname_downlevel.obj
 0001:0005c455       ___acrt_DownlevelLocaleNameToLCID 1005d455 f   libucrt:lcidtoname_downlevel.obj
 0001:0005c481       __putwch_nolock            1005d481 f   libucrt:putwch.obj
 0001:0005c4b3       ___ascii_wcsnicmp          1005d4b3 f   libucrt:wcsnicmp.obj
 0001:0005c502       __wcsnicmp                 1005d502 f   libucrt:wcsnicmp.obj
 0001:0005c54e       __wcsnicmp_l               1005d54e f   libucrt:wcsnicmp.obj
 0001:0005cbe9       __sopen_nolock             1005dbe9 f   libucrt:open.obj
 0001:0005cc57       __sopen_s                  1005dc57 f   libucrt:open.obj
 0001:0005cc77       __wsopen_nolock            1005dc77 f   libucrt:open.obj
 0001:0005cfa1       _wcstol                    1005dfa1 f   libucrt:strtox.obj
 0001:0005d183       __wgetenv_s                1005e183 f   libucrt:getenv.obj
 0001:0005d18e       __dtest                    1005e18e f   libucrt:_test.obj
 0001:0005d1f2       __fd_int                   1005e1f2 f   libucrt:_test.obj
 0001:0005d2bf       __fdtest                   1005e2bf f   libucrt:_test.obj
 0001:0005d30d       ?__wcsrtombs_utf8@__crt_mbstring@@YAIPADPAPB_WIPAU_Mbstatet@@AAV__crt_cached_ptd_host@@@Z 1005e30d f   libucrt:wcrtomb.obj
 0001:0005d4d0       _strncpy_s                 1005e4d0 f   libucrt:strncpy_s.obj
 0001:0005d4db       ___libm_error_support      1005e4db f   libucrt:libm_error.obj
 0001:0005d6cf       __87except                 1005e6cf f   libucrt:87except.obj
 0001:0005d7d9       __frnd                     1005e7d9 f   libucrt:frnd.obj
 0001:0005d7ed       __towlower_l               1005e7ed f   libucrt:towlower.obj
 0001:0005d8d0       _qsort                     1005e8d0 f   libucrt:qsort.obj
 0001:0005ddc0       _strpbrk                   1005edc0 f   libucrt:strpbrk.obj
 0001:0005de00       __mbsdec                   1005ee00 f   libucrt:mbsdec.obj
 0001:0005de17       __mbsdec_l                 1005ee17 f   libucrt:mbsdec.obj
 0001:0005deb3       __wcsnicoll                1005eeb3 f   libucrt:wcsnicol.obj
 0001:0005df20       __wcsnicoll_l              1005ef20 f   libucrt:wcsnicol.obj
 0001:0005dfe0       __msize_base               1005efe0 f   libucrt:msize.obj
 0001:0005e138       __itow_s                   1005f138 f   libucrt:xtoa.obj
 0001:0005e16b       __controlfp_s              1005f16b f   libucrt:contrlfp.obj
 0001:0005e1ca       _fegetenv                  1005f1ca f   libucrt:fegetenv.obj
 0001:0005e1e7       _fesetenv                  1005f1e7 f   libucrt:fesetenv.obj
 0001:0005e232       _feholdexcept              1005f232 f   libucrt:feholdexcept.obj
 0001:0005e280       __CIlog10                  1005f280 f   libucrt:log10_impl.obj
 0001:0005e2bb       __CIlog10_default          1005f2bb f   libucrt:log10_impl.obj
 0001:0005e2cf       __log10_default            1005f2cf     libucrt:log10_impl.obj
 0001:0005e390       _ceil                      1005f390 f   libucrt:ceil_pentium4.obj
 0001:0005e3d0       __ceil_pentium4            1005f3d0 f   libucrt:ceil_pentium4.obj
 0001:0005e4ad       ?reset_and_return@__crt_mbstring@@YAIIPAU_Mbstatet@@@Z 1005f4ad f   libucrt:common_utf8.obj
 0001:0005e4c1       ?return_illegal_sequence@__crt_mbstring@@YAIPAU_Mbstatet@@AAV__crt_cached_ptd_host@@@Z 1005f4c1 f   libucrt:common_utf8.obj
 0001:0005e4e3       ?__mbrtoc32_utf8@__crt_mbstring@@YAIPA_UPBDIPAU_Mbstatet@@AAV__crt_cached_ptd_host@@@Z 1005f4e3 f   libucrt:mbrtoc32.obj
 0001:0005e6a1       __query_app_type           1005f6a1 f   libucrt:report_runtime_error.obj
 0001:0005e6c6       ___dcrt_lowio_ensure_console_output_initialized 1005f6c6 f   libucrt:initcon.obj
 0001:0005e6e5       ___dcrt_terminate_console_output 1005f6e5 f   libucrt:initcon.obj
 0001:0005e6fc       ___dcrt_write_console      1005f6fc f   libucrt:initcon.obj
 0001:0005e751       __get_fmode                1005f751 f   libucrt:setmode.obj
 0001:0005e77e       __setmode_nolock           1005f77e f   libucrt:setmode.obj
 0001:0005e84d       ??0__crt_seek_guard@@QAE@H_J@Z 1005f84d f i libucrt:chsize.obj
 0001:0005e89a       __chsize_nolock            1005f89a f   libucrt:chsize.obj
 0001:0005e8d1       __chsize_nolock_internal   1005f8d1 f   libucrt:chsize.obj
 0001:0005ea74       ?__c16rtomb_utf8@__crt_mbstring@@YAIPAD_SPAU_Mbstatet@@AAV__crt_cached_ptd_host@@@Z 1005fa74 f   libucrt:c16rtomb.obj
 0001:0005eb1d       ___acrt_LCMapStringW       1005fb1d f   libucrt:lcmapstringw.obj
 0001:0005eb5b       ___acrt_CompareStringW     1005fb5b f   libucrt:comparestringw.obj
 0001:0005ec67       __clearfp                  1005fc67 f   libucrt:ieee87.obj
 0001:0005ed45       __control87                1005fd45 f   libucrt:ieee87.obj
 0001:0005f0f0       __CIlog10_pentium4         100600f0 f   libucrt:log10_pentium4.obj
 0001:0005f108       __log10_pentium4           10060108     libucrt:log10_pentium4.obj
 0001:0005f380       __ceil_default             10060380 f   libucrt:ceil.obj
 0001:0005f435       ___acrt_initialize_fmode   10060435 f   libucrt:txtmode.obj
 0001:0005f450       __FindPESection            10060450 f   LIBCMT:pesect.obj
 0001:0005f4a0       __IsNonwritableInCurrentImage 100604a0 f   LIBCMT:pesect.obj
 0001:0005f560       __ValidateImageBase        10060560 f   LIBCMT:pesect.obj
 0001:0005f5a0       __aulldvrm                 100605a0 f   LIBCMT:ulldvrm.obj
 0001:0005f640       __allshl                   10060640 f   LIBCMT:llshl.obj
 0001:0005f660       __aullshr                  10060660 f   LIBCMT:ullshr.obj
 0001:0005f680       __alldiv                   10060680 f   LIBCMT:lldiv.obj
 0001:0005f730       __allrem                   10060730 f   LIBCMT:llrem.obj
 0001:0005f7f0       __alldvrm                  100607f0 f   LIBCMT:lldvrm.obj
 0001:0005f8d0       __ftol2_sse                100608d0 f   LIBCMT:ftol2.obj
 0001:0005f8e0       __ftoi2                    100608e0 f   LIBCMT:ftol2.obj
 0001:0005f960       _strrchr                   10060960 f   libvcruntime:strrchr.obj
 0001:0005fa97       _wcschr                    10060a97 f   libvcruntime:wcschr.obj
 0001:0005fb5e       __filter_x86_sse2_floating_point_exception 10060b5e f   LIBCMT:x86_exception_filter.obj
 0001:0005fb5e       __filter_x86_sse2_floating_point_exception_default 10060b5e f   LIBCMT:x86_exception_filter.obj
 0001:0005fbe0       __ftoui3                   10060be0 f   LIBCMT:ftol3.obj
 0001:0005fc30       __dtol3                    10060c30 f   LIBCMT:ftol3.obj
 0001:0005fce0       __CIatan2                  10060ce0 f   libucrt:87ctriga.obj
 0001:0005fcf0       __CIfmod                   10060cf0 f   libucrt:87fmod_impl.obj
 0001:0005fd00       __fFMOD                    10060d00 f   libucrt:87fmod_impl.obj
 0001:0005fd0e       __fdclass                  10060d0e f   libucrt:nanf.obj
 0001:0005fd20       __libm_sse2_acos_precise   10060d20 f   libucrt:acos_sse2_precise.obj
 0001:00060240       __libm_sse2_cos_precise    10061240 f   libucrt:cos_sse2_precise.obj
 0001:00060400       __libm_sse2_log10_precise  10061400 f   libucrt:log10_sse2_precise.obj
 0001:000606b0       __libm_sse2_pow_precise    100616b0 f   libucrt:pow_sse2_precise.obj
 0001:00061200       __libm_sse2_sin_precise    10062200 f   libucrt:sin_sse2_precise.obj
 0001:000613d0       __libm_sse2_sqrt_precise   100623d0 f   libucrt:sqrt_sse2_precise.obj
 0001:000614d0       __libm_sse2_tan_precise    100624d0 f   libucrt:tan_sse2_precise.obj
 0001:00061740       _floor                     10062740 f   libucrt:floor_pentium4.obj
 0001:00061780       __floor_pentium4           10062780 f   libucrt:floor_pentium4.obj
 0001:0006183d       _roundf                    1006283d f   libucrt:roundf.obj
 0001:000618b0       __fFATN2                   100628b0 f   libucrt:87triga.obj
 0001:00061900       __rtpiby2                  10062900     libucrt:87triga.obj
 0001:00061910       __rtforatn20               10062910 f   libucrt:87triga.obj
 0001:00061940       __rtforatnby0              10062940 f   libucrt:87triga.obj
 0001:00061950       __cintrindisp2             10062950 f   libucrt:87cdisp.obj
 0001:000619a0       __cintrindisp1             100629a0 f   libucrt:87cdisp.obj
 0001:000619e9       __ctrandisp2               100629e9 f   libucrt:87cdisp.obj
 0001:00061b78       __ctrandisp1               10062b78 f   libucrt:87cdisp.obj
 0001:00061bab       __fload                    10062bab f   libucrt:87cdisp.obj
 0001:00061bf0       __CIacos                   10062bf0 f   libucrt:acos_impl.obj
 0001:00061c2b       __CIacos_default           10062c2b f   libucrt:acos_impl.obj
 0001:00061c3f       __acos_default             10062c3f     libucrt:acos_impl.obj
 0001:00061d00       __CIcos                    10062d00 f   libucrt:cos_impl.obj
 0001:00061d3b       __CIcos_default            10062d3b f   libucrt:cos_impl.obj
 0001:00061d4f       __cos_default              10062d4f     libucrt:cos_impl.obj
 0001:00061df0       __CIsin                    10062df0 f   libucrt:sin_impl.obj
 0001:00061e2b       __CIsin_default            10062e2b f   libucrt:sin_impl.obj
 0001:00061e3f       __sin_default              10062e3f     libucrt:sin_impl.obj
 0001:00061ee0       _sqrt                      10062ee0 f   libucrt:sqrt.obj
 0001:00061ef0       __CItan                    10062ef0 f   libucrt:tan_impl.obj
 0001:00061f2b       __CItan_default            10062f2b f   libucrt:tan_impl.obj
 0001:00061f3f       __tan_default              10062f3f     libucrt:tan_impl.obj
 0001:00061fd6       __floor_default            10062fd6 f   libucrt:floor.obj
 0001:00062090       __CIacos_pentium4          10063090 f   libucrt:acos_pentium4.obj
 0001:000620a8       __acos_pentium4            100630a8     libucrt:acos_pentium4.obj
 0001:000625f0       __CIcos_pentium4           100635f0 f   libucrt:cos_pentium4.obj
 0001:00062608       __cos_pentium4             10063608     libucrt:cos_pentium4.obj
 0001:000627a0       __CIsin_pentium4           100637a0 f   libucrt:sin_pentium4.obj
 0001:000627b8       __sin_pentium4             100637b8     libucrt:sin_pentium4.obj
 0001:00062970       __CIsqrt                   10063970 f   libucrt:sqrt_impl.obj
 0001:00062984       __sqrt_common              10063984     libucrt:sqrt_impl.obj
 0001:00062a30       __CItan_pentium4           10063a30 f   libucrt:tan_pentium4.obj
 0001:00062a48       __tan_pentium4             10063a48     libucrt:tan_pentium4.obj
 0002:00000000       __imp__CreateCompatibleBitmap@12 10067000     gdi32:GDI32.dll
 0002:00000004       __imp__SelectObject@8      10067004     gdi32:GDI32.dll
 0002:00000008       __imp__CreateCompatibleDC@4 10067008     gdi32:GDI32.dll
 0002:0000000c       __imp__GetDeviceCaps@8     1006700c     gdi32:GDI32.dll
 0002:00000010       __imp__DeleteDC@4          10067010     gdi32:GDI32.dll
 0002:00000014       __imp__BitBlt@36           10067014     gdi32:GDI32.dll
 0002:00000018       \177GDI32_NULL_THUNK_DATA  10067018     gdi32:GDI32.dll
 0002:0000001c       __imp__GetPrivateProfileStringA@24 1006701c     kernel32:KERNEL32.dll
 0002:00000020       __imp__GetLastError@0      10067020     kernel32:KERNEL32.dll
 0002:00000024       __imp__CloseHandle@4       10067024     kernel32:KERNEL32.dll
 0002:00000028       __imp__CreateThread@24     10067028     kernel32:KERNEL32.dll
 0002:0000002c       __imp__IsBadCodePtr@4      1006702c     kernel32:KERNEL32.dll
 0002:00000030       __imp__HeapAlloc@12        10067030     kernel32:KERNEL32.dll
 0002:00000034       __imp__GetProcessHeap@0    10067034     kernel32:KERNEL32.dll
 0002:00000038       __imp__GetModuleFileNameA@12 10067038     kernel32:KERNEL32.dll
 0002:0000003c       __imp__SetConsoleTextAttribute@8 1006703c     kernel32:KERNEL32.dll
 0002:00000040       __imp__SetConsoleTitleA@4  10067040     kernel32:KERNEL32.dll
 0002:00000044       __imp__GetStdHandle@4      10067044     kernel32:KERNEL32.dll
 0002:00000048       __imp__DisableThreadLibraryCalls@4 10067048     kernel32:KERNEL32.dll
 0002:0000004c       __imp__lstrcpyA@8          1006704c     kernel32:KERNEL32.dll
 0002:00000050       __imp__IsBadReadPtr@8      10067050     kernel32:KERNEL32.dll
 0002:00000054       __imp__AllocConsole@0      10067054     kernel32:KERNEL32.dll
 0002:00000058       __imp__GetCurrentProcess@0 10067058     kernel32:KERNEL32.dll
 0002:0000005c       __imp__TerminateProcess@8  1006705c     kernel32:KERNEL32.dll
 0002:00000060       __imp__GetModuleHandleA@4  10067060     kernel32:KERNEL32.dll
 0002:00000064       __imp__FlushInstructionCache@12 10067064     kernel32:KERNEL32.dll
 0002:00000068       __imp__WriteFile@20        10067068     kernel32:KERNEL32.dll
 0002:0000006c       __imp__CreateFileA@28      1006706c     kernel32:KERNEL32.dll
 0002:00000070       __imp__GetLocalTime@4      10067070     kernel32:KERNEL32.dll
 0002:00000074       __imp__GlobalLock@4        10067074     kernel32:KERNEL32.dll
 0002:00000078       __imp__GlobalUnlock@4      10067078     kernel32:KERNEL32.dll
 0002:0000007c       __imp__SetEndOfFile@4      1006707c     kernel32:KERNEL32.dll
 0002:00000080       __imp__WriteConsoleW@20    10067080     kernel32:KERNEL32.dll
 0002:00000084       __imp__HeapSize@12         10067084     kernel32:KERNEL32.dll
 0002:00000088       __imp__CreateFileW@28      10067088     kernel32:KERNEL32.dll
 0002:0000008c       __imp__SetStdHandle@8      1006708c     kernel32:KERNEL32.dll
 0002:00000090       __imp__SetEnvironmentVariableW@8 10067090     kernel32:KERNEL32.dll
 0002:00000094       __imp__FreeEnvironmentStringsW@4 10067094     kernel32:KERNEL32.dll
 0002:00000098       __imp__GetEnvironmentStringsW@0 10067098     kernel32:KERNEL32.dll
 0002:0000009c       __imp__GetCommandLineW@0   1006709c     kernel32:KERNEL32.dll
 0002:000000a0       __imp__GetCommandLineA@0   100670a0     kernel32:KERNEL32.dll
 0002:000000a4       __imp__GetOEMCP@0          100670a4     kernel32:KERNEL32.dll
 0002:000000a8       __imp__GetACP@0            100670a8     kernel32:KERNEL32.dll
 0002:000000ac       __imp__IsValidCodePage@4   100670ac     kernel32:KERNEL32.dll
 0002:000000b0       __imp__FindNextFileW@8     100670b0     kernel32:KERNEL32.dll
 0002:000000b4       __imp__FindFirstFileExW@24 100670b4     kernel32:KERNEL32.dll
 0002:000000b8       __imp__VirtualProtect@16   100670b8     kernel32:KERNEL32.dll
 0002:000000bc       __imp__Sleep@4             100670bc     kernel32:KERNEL32.dll
 0002:000000c0       __imp__MultiByteToWideChar@24 100670c0     kernel32:KERNEL32.dll
 0002:000000c4       __imp__GetTickCount@0      100670c4     kernel32:KERNEL32.dll
 0002:000000c8       __imp__GetProcAddress@8    100670c8     kernel32:KERNEL32.dll
 0002:000000cc       __imp__lstrcmpA@8          100670cc     kernel32:KERNEL32.dll
 0002:000000d0       __imp__FindClose@4         100670d0     kernel32:KERNEL32.dll
 0002:000000d4       __imp__HeapReAlloc@16      100670d4     kernel32:KERNEL32.dll
 0002:000000d8       __imp__GetTimeZoneInformation@4 100670d8     kernel32:KERNEL32.dll
 0002:000000dc       __imp__ReadConsoleW@20     100670dc     kernel32:KERNEL32.dll
 0002:000000e0       __imp__ReadFile@20         100670e0     kernel32:KERNEL32.dll
 0002:000000e4       __imp__GetConsoleMode@8    100670e4     kernel32:KERNEL32.dll
 0002:000000e8       __imp__GetConsoleOutputCP@0 100670e8     kernel32:KERNEL32.dll
 0002:000000ec       __imp__FlushFileBuffers@4  100670ec     kernel32:KERNEL32.dll
 0002:000000f0       __imp__SetFilePointerEx@20 100670f0     kernel32:KERNEL32.dll
 0002:000000f4       __imp__GetFileSizeEx@8     100670f4     kernel32:KERNEL32.dll
 0002:000000f8       __imp__GetFileAttributesExW@12 100670f8     kernel32:KERNEL32.dll
 0002:000000fc       __imp__EnumSystemLocalesW@8 100670fc     kernel32:KERNEL32.dll
 0002:00000100       __imp__GetUserDefaultLCID@0 10067100     kernel32:KERNEL32.dll
 0002:00000104       __imp__IsValidLocale@8     10067104     kernel32:KERNEL32.dll
 0002:00000108       __imp__GetLocaleInfoW@16   10067108     kernel32:KERNEL32.dll
 0002:0000010c       __imp__LCMapStringW@24     1006710c     kernel32:KERNEL32.dll
 0002:00000110       __imp__CompareStringW@24   10067110     kernel32:KERNEL32.dll
 0002:00000114       __imp__GetFileType@4       10067114     kernel32:KERNEL32.dll
 0002:00000118       __imp__HeapFree@12         10067118     kernel32:KERNEL32.dll
 0002:0000011c       __imp__GetModuleFileNameW@12 1006711c     kernel32:KERNEL32.dll
 0002:00000120       __imp__SetLastError@4      10067120     kernel32:KERNEL32.dll
 0002:00000124       __imp__FreeLibrary@4       10067124     kernel32:KERNEL32.dll
 0002:00000128       __imp__RaiseException@16   10067128     kernel32:KERNEL32.dll
 0002:0000012c       __imp__WideCharToMultiByte@32 1006712c     kernel32:KERNEL32.dll
 0002:00000130       __imp__EnterCriticalSection@4 10067130     kernel32:KERNEL32.dll
 0002:00000134       __imp__LeaveCriticalSection@4 10067134     kernel32:KERNEL32.dll
 0002:00000138       __imp__InitializeCriticalSectionEx@12 10067138     kernel32:KERNEL32.dll
 0002:0000013c       __imp__DeleteCriticalSection@4 1006713c     kernel32:KERNEL32.dll
 0002:00000140       __imp__EncodePointer@4     10067140     kernel32:KERNEL32.dll
 0002:00000144       __imp__DecodePointer@4     10067144     kernel32:KERNEL32.dll
 0002:00000148       __imp__LCMapStringEx@36    10067148     kernel32:KERNEL32.dll
 0002:0000014c       __imp__GetStringTypeW@16   1006714c     kernel32:KERNEL32.dll
 0002:00000150       __imp__GetCPInfo@8         10067150     kernel32:KERNEL32.dll
 0002:00000154       __imp__InitializeCriticalSectionAndSpinCount@8 10067154     kernel32:KERNEL32.dll
 0002:00000158       __imp__SetEvent@4          10067158     kernel32:KERNEL32.dll
 0002:0000015c       __imp__ResetEvent@4        1006715c     kernel32:KERNEL32.dll
 0002:00000160       __imp__WaitForSingleObjectEx@12 10067160     kernel32:KERNEL32.dll
 0002:00000164       __imp__CreateEventW@16     10067164     kernel32:KERNEL32.dll
 0002:00000168       __imp__GetModuleHandleW@4  10067168     kernel32:KERNEL32.dll
 0002:0000016c       __imp__UnhandledExceptionFilter@4 1006716c     kernel32:KERNEL32.dll
 0002:00000170       __imp__SetUnhandledExceptionFilter@4 10067170     kernel32:KERNEL32.dll
 0002:00000174       __imp__IsProcessorFeaturePresent@4 10067174     kernel32:KERNEL32.dll
 0002:00000178       __imp__IsDebuggerPresent@0 10067178     kernel32:KERNEL32.dll
 0002:0000017c       __imp__GetStartupInfoW@4   1006717c     kernel32:KERNEL32.dll
 0002:00000180       __imp__QueryPerformanceCounter@4 10067180     kernel32:KERNEL32.dll
 0002:00000184       __imp__GetCurrentProcessId@0 10067184     kernel32:KERNEL32.dll
 0002:00000188       __imp__GetCurrentThreadId@0 10067188     kernel32:KERNEL32.dll
 0002:0000018c       __imp__GetSystemTimeAsFileTime@4 1006718c     kernel32:KERNEL32.dll
 0002:00000190       __imp__InitializeSListHead@4 10067190     kernel32:KERNEL32.dll
 0002:00000194       __imp__RtlUnwind@16        10067194     kernel32:KERNEL32.dll
 0002:00000198       __imp__InterlockedFlushSList@4 10067198     kernel32:KERNEL32.dll
 0002:0000019c       __imp__TlsAlloc@0          1006719c     kernel32:KERNEL32.dll
 0002:000001a0       __imp__TlsGetValue@4       100671a0     kernel32:KERNEL32.dll
 0002:000001a4       __imp__TlsSetValue@8       100671a4     kernel32:KERNEL32.dll
 0002:000001a8       __imp__TlsFree@4           100671a8     kernel32:KERNEL32.dll
 0002:000001ac       __imp__LoadLibraryExW@12   100671ac     kernel32:KERNEL32.dll
 0002:000001b0       __imp__ExitProcess@4       100671b0     kernel32:KERNEL32.dll
 0002:000001b4       __imp__GetModuleHandleExW@12 100671b4     kernel32:KERNEL32.dll
 0002:000001b8       \177KERNEL32_NULL_THUNK_DATA 100671b8     kernel32:KERNEL32.dll
 0002:000001bc       __imp__OleCreatePictureIndirect@16 100671bc     oleaut32:OLEAUT32.dll
 0002:000001c0       \177OLEAUT32_NULL_THUNK_DATA 100671c0     oleaut32:OLEAUT32.dll
 0002:000001c4       __imp__glGetFloatv@8       100671c4     OpenGL32:OPENGL32.dll
 0002:000001c8       __imp__glClearColor@16     100671c8     OpenGL32:OPENGL32.dll
 0002:000001cc       __imp__glMatrixMode@4      100671cc     OpenGL32:OPENGL32.dll
 0002:000001d0       __imp__glPushMatrix@0      100671d0     OpenGL32:OPENGL32.dll
 0002:000001d4       __imp__glDisable@4         100671d4     OpenGL32:OPENGL32.dll
 0002:000001d8       __imp__glColor4ub@16       100671d8     OpenGL32:OPENGL32.dll
 0002:000001dc       __imp__glOrtho@48          100671dc     OpenGL32:OPENGL32.dll
 0002:000001e0       __imp__glBegin@4           100671e0     OpenGL32:OPENGL32.dll
 0002:000001e4       __imp__glLoadIdentity@0    100671e4     OpenGL32:OPENGL32.dll
 0002:000001e8       __imp__glBlendFunc@8       100671e8     OpenGL32:OPENGL32.dll
 0002:000001ec       __imp__glEnd@0             100671ec     OpenGL32:OPENGL32.dll
 0002:000001f0       __imp__glEnable@4          100671f0     OpenGL32:OPENGL32.dll
 0002:000001f4       __imp__glPopMatrix@0       100671f4     OpenGL32:OPENGL32.dll
 0002:000001f8       __imp__glDepthFunc@4       100671f8     OpenGL32:OPENGL32.dll
 0002:000001fc       __imp__glBindTexture@8     100671fc     OpenGL32:OPENGL32.dll
 0002:00000200       __imp__glVertex2i@8        10067200     OpenGL32:OPENGL32.dll
 0002:00000204       \177OPENGL32_NULL_THUNK_DATA 10067204     OpenGL32:OPENGL32.dll
 0002:00000208       __imp__SHGetFolderPathA@20 10067208     shell32:SHELL32.dll
 0002:0000020c       \177SHELL32_NULL_THUNK_DATA 1006720c     shell32:SHELL32.dll
 0002:00000210       __imp__SetWindowLongA@12   10067210     user32:USER32.dll
 0002:00000214       __imp__mouse_event@20      10067214     user32:USER32.dll
 0002:00000218       __imp__GetWindowRect@8     10067218     user32:USER32.dll
 0002:0000021c       __imp__GetDC@4             1006721c     user32:USER32.dll
 0002:00000220       __imp__MessageBoxA@16      10067220     user32:USER32.dll
 0002:00000224       __imp__GetSystemMenu@8     10067224     user32:USER32.dll
 0002:00000228       __imp__DeleteMenu@12       10067228     user32:USER32.dll
 0002:0000022c       __imp__GetAsyncKeyState@4  1006722c     user32:USER32.dll
 0002:00000230       __imp__CallWindowProcA@20  10067230     user32:USER32.dll
 0002:00000234       __imp__FindWindowA@8       10067234     user32:USER32.dll
 0002:00000238       __imp__SendInput@12        10067238     user32:USER32.dll
 0002:0000023c       \177USER32_NULL_THUNK_DATA 1006723c     user32:USER32.dll
 0002:00000240       __imp__GetHGlobalFromStream@8 10067240     ole32:ole32.dll
 0002:00000244       __imp__CreateStreamOnHGlobal@12 10067244     ole32:ole32.dll
 0002:00000248       \177ole32_NULL_THUNK_DATA  10067248     ole32:ole32.dll
 0002:0000024c       ___guard_check_icall_fptr  1006724c     LIBCMT:guard_support.obj
 0002:00000250       ___xc_a                    10067250     LIBCMT:initializers.obj
 0002:000002ac       ___xc_z                    100672ac     LIBCMT:initializers.obj
 0002:000002b0       ___xi_a                    100672b0     LIBCMT:initializers.obj
 0002:000002b8       ___acrt_stdio_initializer  100672b8     libucrt:stdio_initializer.obj
 0002:000002bc       ___acrt_timeset_initializer 100672bc     libucrt:timeset_initializer.obj
 0002:000002c0       ___acrt_tran_sse2_initializer 100672c0     libucrt:sse2_initializer.obj
 0002:000002c4       ___acrt_multibyte_initializer 100672c4     libucrt:multibyte_initializer.obj
 0002:000002c8       ___acrt_fmode_initializer  100672c8     libucrt:fmode_initializer.obj
 0002:000002cc       ___xi_z                    100672cc     LIBCMT:initializers.obj
 0002:000002d0       ___xl_a                    100672d0     LIBCMT:tlssup.obj
 0002:000002d4       ___xl_z                    100672d4     LIBCMT:tlssup.obj
 0002:000002d8       ___xp_a                    100672d8     LIBCMT:initializers.obj
 0002:000002dc       ___acrt_locale_terminator  100672dc     libucrt:locale_initializer.obj
 0002:000002e0       ___dcrt_console_output_terminator 100672e0     libucrt:console_output_initializer.obj
 0002:000002e4       ___acrt_stdio_terminator   100672e4     libucrt:stdio_initializer.obj
 0002:000002e8       ___xp_z                    100672e8     LIBCMT:initializers.obj
 0002:000002ec       ___xt_a                    100672ec     LIBCMT:initializers.obj
 0002:000002f0       ___xt_z                    100672f0     LIBCMT:initializers.obj
 0002:00000300       _IID_IPicture              10067300     uuid:ocidl_i.obj
 0002:00000310       ?s_rbModRm@CDetourDis@@1QBEB 10067310     detours:disasm.obj
 0002:00000410       ?s_rceCopyTable@CDetourDis@@1QBUCOPYENTRY@1@B 10067410     detours:disasm.obj
 0002:00000c18       ?s_rceCopyTable0F@CDetourDis@@1QBUCOPYENTRY@1@B 10067c18     detours:disasm.obj
 0002:00001424       ??_7exception@std@@6B@     10068424     libcpmt:xthrow.obj
 0002:00001430       ??_7bad_alloc@std@@6B@     10068430     libcpmt:xthrow.obj
 0002:00001438       ??_C@_0P@GHFPNOJB@bad?5allocation@ 10068438     libcpmt:xthrow.obj
 0002:0000144c       ??_7logic_error@std@@6B@   1006844c     libcpmt:xthrow.obj
 0002:00001458       ??_7length_error@std@@6B@  10068458     libcpmt:xthrow.obj
 0002:00001464       ??_7out_of_range@std@@6B@  10068464     libcpmt:xthrow.obj
 0002:00001470       ??_7runtime_error@std@@6B@ 10068470     libcpmt:xthrow.obj
 0002:00001a60       ??_C@_0BN@LKKBCCDB@address?5family?5not?5supported@ 10068a60     libcpmt:syserror.obj
 0002:00001a80       ??_C@_0P@LDMLAFHI@address?5in?5use@ 10068a80     libcpmt:syserror.obj
 0002:00001a90       ??_C@_0BG@DHPCNBJB@address?5not?5available@ 10068a90     libcpmt:syserror.obj
 0002:00001aa8       ??_C@_0BC@DFIBIBIL@already?5connected@ 10068aa8     libcpmt:syserror.obj
 0002:00001abc       ??_C@_0BH@CAKOHOMI@argument?5list?5too?5long@ 10068abc     libcpmt:syserror.obj
 0002:00001ad4       ??_C@_0BH@CGIMPKIM@argument?5out?5of?5domain@ 10068ad4     libcpmt:syserror.obj
 0002:00001aec       ??_C@_0M@KGHGGJGL@bad?5address@ 10068aec     libcpmt:syserror.obj
 0002:00001af8       ??_C@_0BE@MPJPGCEO@bad?5file?5descriptor@ 10068af8     libcpmt:syserror.obj
 0002:00001b0c       ??_C@_0M@PMMIEFCP@bad?5message@ 10068b0c     libcpmt:syserror.obj
 0002:00001b18       ??_C@_0M@KPHOFDBE@broken?5pipe@ 10068b18     libcpmt:syserror.obj
 0002:00001b24       ??_C@_0BD@MGNDDEGM@connection?5aborted@ 10068b24     libcpmt:syserror.obj
 0002:00001b38       ??_C@_0BP@KAIHPOGN@connection?5already?5in?5progress@ 10068b38     libcpmt:syserror.obj
 0002:00001b58       ??_C@_0BD@PJLIIJEL@connection?5refused@ 10068b58     libcpmt:syserror.obj
 0002:00001b6c       ??_C@_0BB@IECNJNOI@connection?5reset@ 10068b6c     libcpmt:syserror.obj
 0002:00001b80       ??_C@_0BC@PPHBOELF@cross?5device?5link@ 10068b80     libcpmt:syserror.obj
 0002:00001b94       ??_C@_0BN@KDMIFEIP@destination?5address?5required@ 10068b94     libcpmt:syserror.obj
 0002:00001bb4       ??_C@_0BI@NGCEHDD@device?5or?5resource?5busy@ 10068bb4     libcpmt:syserror.obj
 0002:00001bcc       ??_C@_0BE@JIDOCPHM@directory?5not?5empty@ 10068bcc     libcpmt:syserror.obj
 0002:00001be0       ??_C@_0BI@BNCLIGPB@executable?5format?5error@ 10068be0     libcpmt:syserror.obj
 0002:00001bf8       ??_C@_0M@MIDIAGJP@file?5exists@ 10068bf8     libcpmt:syserror.obj
 0002:00001c04       ??_C@_0P@DNAJLBJK@file?5too?5large@ 10068c04     libcpmt:syserror.obj
 0002:00001c14       ??_C@_0BC@EJHOMAAK@filename?5too?5long@ 10068c14     libcpmt:syserror.obj
 0002:00001c28       ??_C@_0BH@KEFGLDAF@function?5not?5supported@ 10068c28     libcpmt:syserror.obj
 0002:00001c40       ??_C@_0BB@DHFDFGDM@host?5unreachable@ 10068c40     libcpmt:syserror.obj
 0002:00001c54       ??_C@_0BD@JPHBMONG@identifier?5removed@ 10068c54     libcpmt:syserror.obj
 0002:00001c68       ??_C@_0BG@CDNPAGJK@illegal?5byte?5sequence@ 10068c68     libcpmt:syserror.obj
 0002:00001c80       ??_C@_0CD@BNPLBMNA@inappropriate?5io?5control?5operat@ 10068c80     libcpmt:syserror.obj
 0002:00001ca4       ??_C@_0M@EGEKIIMP@interrupted@ 10068ca4     libcpmt:syserror.obj
 0002:00001cb0       ??_C@_0BB@FCMFBGOM@invalid?5argument@ 10068cb0     libcpmt:syserror.obj
 0002:00001cc4       ??_C@_0N@OHAFKDEK@invalid?5seek@ 10068cc4     libcpmt:syserror.obj
 0002:00001cd4       ??_C@_08GLNPIFBN@io?5error@ 10068cd4     libcpmt:syserror.obj
 0002:00001ce0       ??_C@_0P@FLLDBIDK@is?5a?5directory@ 10068ce0     libcpmt:syserror.obj
 0002:00001cf0       ??_C@_0N@IFLPBIOP@message?5size@ 10068cf0     libcpmt:syserror.obj
 0002:00001d00       ??_C@_0N@KIIEAAIO@network?5down@ 10068d00     libcpmt:syserror.obj
 0002:00001d10       ??_C@_0O@FNPDBHEE@network?5reset@ 10068d10     libcpmt:syserror.obj
 0002:00001d20       ??_C@_0BE@IFNCKGE@network?5unreachable@ 10068d20     libcpmt:syserror.obj
 0002:00001d34       ??_C@_0BA@PFFCAOFK@no?5buffer?5space@ 10068d34     libcpmt:syserror.obj
 0002:00001d44       ??_C@_0BB@IEPBLJHK@no?5child?5process@ 10068d44     libcpmt:syserror.obj
 0002:00001d58       ??_C@_07PLECNNKG@no?5link@ 10068d58     libcpmt:syserror.obj
 0002:00001d60       ??_C@_0BC@NJECKMKE@no?5lock?5available@ 10068d60     libcpmt:syserror.obj
 0002:00001d74       ??_C@_0BF@PBGGPKKE@no?5message?5available@ 10068d74     libcpmt:syserror.obj
 0002:00001d8c       ??_C@_0L@EDOLMPAK@no?5message@ 10068d8c     libcpmt:syserror.obj
 0002:00001d98       ??_C@_0BD@EAMBFIDF@no?5protocol?5option@ 10068d98     libcpmt:syserror.obj
 0002:00001dac       ??_C@_0BD@IJDJKDEA@no?5space?5on?5device@ 10068dac     libcpmt:syserror.obj
 0002:00001dc0       ??_C@_0BE@MKFDAFMP@no?5stream?5resources@ 10068dc0     libcpmt:syserror.obj
 0002:00001dd4       ??_C@_0BK@IMCPHCBI@no?5such?5device?5or?5address@ 10068dd4     libcpmt:syserror.obj
 0002:00001df0       ??_C@_0P@FDINDDOK@no?5such?5device@ 10068df0     libcpmt:syserror.obj
 0002:00001e00       ??_C@_0BK@NDOCBPGE@no?5such?5file?5or?5directory@ 10068e00     libcpmt:syserror.obj
 0002:00001e1c       ??_C@_0BA@ENLPPKBN@no?5such?5process@ 10068e1c     libcpmt:syserror.obj
 0002:00001e2c       ??_C@_0BA@DOCPFFJG@not?5a?5directory@ 10068e2c     libcpmt:syserror.obj
 0002:00001e3c       ??_C@_0N@POEIPGGF@not?5a?5socket@ 10068e3c     libcpmt:syserror.obj
 0002:00001e4c       ??_C@_0N@LGAPMMPI@not?5a?5stream@ 10068e4c     libcpmt:syserror.obj
 0002:00001e5c       ??_C@_0O@GLMIBBEG@not?5connected@ 10068e5c     libcpmt:syserror.obj
 0002:00001e6c       ??_C@_0BC@ENOOLCNF@not?5enough?5memory@ 10068e6c     libcpmt:syserror.obj
 0002:00001e80       ??_C@_0O@NHEDABJP@not?5supported@ 10068e80     libcpmt:syserror.obj
 0002:00001e90       ??_C@_0BD@MOLBPMEA@operation?5canceled@ 10068e90     libcpmt:syserror.obj
 0002:00001ea4       ??_C@_0BG@KDKHOPCO@operation?5in?5progress@ 10068ea4     libcpmt:syserror.obj
 0002:00001ebc       ??_C@_0BI@OHIEJAAB@operation?5not?5permitted@ 10068ebc     libcpmt:syserror.obj
 0002:00001ed4       ??_C@_0BI@LNEGIFLN@operation?5not?5supported@ 10068ed4     libcpmt:syserror.obj
 0002:00001eec       ??_C@_0BG@OEMDKMEE@operation?5would?5block@ 10068eec     libcpmt:syserror.obj
 0002:00001f04       ??_C@_0L@BLPOFLNJ@owner?5dead@ 10068f04     libcpmt:syserror.obj
 0002:00001f10       ??_C@_0BC@CIJDGCDI@permission?5denied@ 10068f10     libcpmt:syserror.obj
 0002:00001f24       ??_C@_0P@FNPOCJBE@protocol?5error@ 10068f24     libcpmt:syserror.obj
 0002:00001f34       ??_C@_0BH@JPPPLHJB@protocol?5not?5supported@ 10068f34     libcpmt:syserror.obj
 0002:00001f4c       ??_C@_0BG@EICBIHDP@read?5only?5file?5system@ 10068f4c     libcpmt:syserror.obj
 0002:00001f64       ??_C@_0BO@BJBOMOEJ@resource?5deadlock?5would?5occur@ 10068f64     libcpmt:syserror.obj
 0002:00001f84       ??_C@_0BP@LKNGHENJ@resource?5unavailable?5try?5again@ 10068f84     libcpmt:syserror.obj
 0002:00001fa4       ??_C@_0BE@GOIPJJHG@result?5out?5of?5range@ 10068fa4     libcpmt:syserror.obj
 0002:00001fb8       ??_C@_0BG@MPLKFPAE@state?5not?5recoverable@ 10068fb8     libcpmt:syserror.obj
 0002:00001fd0       ??_C@_0P@DIIFGFCG@stream?5timeout@ 10068fd0     libcpmt:syserror.obj
 0002:00001fe0       ??_C@_0P@IPFDMIFL@text?5file?5busy@ 10068fe0     libcpmt:syserror.obj
 0002:00001ff0       ??_C@_09KJPPMAOI@timed?5out@ 10068ff0     libcpmt:syserror.obj
 0002:00001ffc       ??_C@_0BO@HACHBEKI@too?5many?5files?5open?5in?5system@ 10068ffc     libcpmt:syserror.obj
 0002:0000201c       ??_C@_0BE@GHAFMPAH@too?5many?5files?5open@ 1006901c     libcpmt:syserror.obj
 0002:00002030       ??_C@_0P@HCOMKFCC@too?5many?5links@ 10069030     libcpmt:syserror.obj
 0002:00002040       ??_C@_0BO@EFGOJEF@too?5many?5symbolic?5link?5levels@ 10069040     libcpmt:syserror.obj
 0002:00002060       ??_C@_0BA@KGKGOOJA@value?5too?5large@ 10069060     libcpmt:syserror.obj
 0002:00002070       ??_C@_0BE@MIEJDDNH@wrong?5protocol?5type@ 10069070     libcpmt:syserror.obj
 0002:00002084       ??_C@_0O@BFJCFAAK@unknown?5error@ 10069084     libcpmt:syserror.obj
 0002:00002098       ??_7_Facet_base@std@@6B@   10069098     libcpmt:locale0.obj
 0002:000020a8       ??_7facet@locale@std@@6B@  100690a8     libcpmt:locale0.obj
 0002:000020b8       ??_7_Locimp@locale@std@@6B@ 100690b8     libcpmt:locale0.obj
 0002:000020c4       ??_C@_01NBENCBCI@?$CK@     100690c4     libcpmt:locale0.obj
 0002:000020c8       ??_C@_01GFHCPBMG@C@        100690c8     libcpmt:locale0.obj
 0002:000020d0       ?_BADOFF@std@@3_JB         100690d0     libcpmt:ios.obj
 0002:00002114       ??_C@_01KDCPPGHE@r@        10069114     libcpmt:fiopen.obj
 0002:00002118       ??_C@_01NOFIACDB@w@        10069118     libcpmt:fiopen.obj
 0002:0000211c       ??_C@_01MCMALHOG@a@        1006911c     libcpmt:fiopen.obj
 0002:00002120       ??_C@_02JDPG@rb@           10069120     libcpmt:fiopen.obj
 0002:00002124       ??_C@_02GMLFBBN@wb@        10069124     libcpmt:fiopen.obj
 0002:00002128       ??_C@_02BOGAIONP@ab@       10069128     libcpmt:fiopen.obj
 0002:0000212c       ??_C@_02CBLLGHLK@r?$CL@    1006912c     libcpmt:fiopen.obj
 0002:00002130       ??_C@_02CHHAKFFB@w?$CL@    10069130     libcpmt:fiopen.obj
 0002:00002134       ??_C@_02DPNLHKJD@a?$CL@    10069134     libcpmt:fiopen.obj
 0002:00002138       ??_C@_03HMFOOINA@r?$CLb@   10069138     libcpmt:fiopen.obj
 0002:0000213c       ??_C@_03ELIABIOC@w?$CLb@   1006913c     libcpmt:fiopen.obj
 0002:00002140       ??_C@_03DOPCBAKB@a?$CLb@   10069140     libcpmt:fiopen.obj
 0002:00002148       ??_7bad_exception@std@@6B@ 10069148     libcpmt:excptptr.obj
 0002:00002150       ??_C@_0O@DPKOEFFH@bad?5exception@ 10069150     libcpmt:excptptr.obj
 0002:000021a0       ??_7bad_array_new_length@std@@6B@ 100691a0     libcpmt:locale.obj
 0002:000021ac       ??_7bad_cast@std@@6B@      100691ac     libcpmt:locale.obj
 0002:000021b8       ??_7codecvt_base@std@@6B@  100691b8     libcpmt:locale.obj
 0002:000021d4       ??_7ctype_base@std@@6B@    100691d4     libcpmt:locale.obj
 0002:000021e4       ??_7?$ctype@D@std@@6B@     100691e4     libcpmt:locale.obj
 0002:00002214       ??_7?$num_put@DV?$ostreambuf_iterator@DU?$char_traits@D@std@@@std@@@std@@6B@ 10069214     libcpmt:locale.obj
 0002:00002244       ??_7?$numpunct@D@std@@6B@  10069244     libcpmt:locale.obj
 0002:00002268       ??_7?$codecvt@DDU_Mbstatet@@@std@@6B@ 10069268     libcpmt:locale.obj
 0002:00002290       ??_C@_11LOCGONAA@@         10069290     libcpmt:wlocale.obj
 0002:00002294       ??_C@_13IMODFHAA@?$AA?9@   10069294     libcpmt:wlocale.obj
 0002:00002298       ??_C@_01JOAMLHOP@?9@       10069298     libcpmt:wlocale.obj
 0002:00002340       ??_C@_1EC@JIJBPKFM@?$AAa?$AAp?$AAi?$AA?9?$AAm?$AAs?$AA?9?$AAw?$AAi?$AAn?$AA?9?$AAc?$AAo?$AAr?$AAe@ 10069340     LIBCMT:thread_safe_statics.obj
 0002:00002384       ??_C@_1BK@MGMFAEKH@?$AAk?$AAe?$AAr?$AAn?$AAe?$AAl?$AA3?$AA2?$AA?4?$AAd?$AAl?$AAl@ 10069384     LIBCMT:thread_safe_statics.obj
 0002:000023a0       ??_C@_0BJ@JEBJOJFJ@SleepConditionVariableCS@ 100693a0     LIBCMT:thread_safe_statics.obj
 0002:000023bc       ??_C@_0BJ@PGPPEPCC@WakeAllConditionVariable@ 100693bc     LIBCMT:thread_safe_statics.obj
 0002:000023dc       ??_7type_info@@6B@         100693dc     LIBCMT:std_type_info_static.obj
 0002:000023e8       __pDefaultRawDllMain       100693e8     LIBCMT:dll_dllmain.obj
 0002:000023e8       __pRawDllMain              100693e8     LIBCMT:dll_dllmain.obj
 0002:000023ec       __pDestructExceptionObject 100693ec     libvcruntime:ehhelpers.obj
 0002:00002770       ??_C@_08EHJDFFNH@__based?$CI@ 10069770     libvcruntime:undname.obj
 0002:0000277c       ??_C@_07KOLFKCDI@__cdecl@  1006977c     libvcruntime:undname.obj
 0002:00002784       ??_C@_08GHMPAG@__pascal@   10069784     libvcruntime:undname.obj
 0002:00002790       ??_C@_09IFJBGAPI@__stdcall@ 10069790     libvcruntime:undname.obj
 0002:0000279c       ??_C@_0L@NPHFGOKO@__thiscall@ 1006979c     libvcruntime:undname.obj
 0002:000027a8       ??_C@_0L@JMKHOMEK@__fastcall@ 100697a8     libvcruntime:undname.obj
 0002:000027b4       ??_C@_0N@BCKKPABJ@__vectorcall@ 100697b4     libvcruntime:undname.obj
 0002:000027c4       ??_C@_09HIJEGCPM@__clrcall@ 100697c4     libvcruntime:undname.obj
 0002:000027d0       ??_C@_06GHPCKEAG@__eabi@   100697d0     libvcruntime:undname.obj
 0002:000027d8       ??_C@_09IOPIDJLG@__swift_1@ 100697d8     libvcruntime:undname.obj
 0002:000027e4       ??_C@_09KFNFGKHF@__swift_2@ 100697e4     libvcruntime:undname.obj
 0002:000027f0       ??_C@_07JOMMBBKO@__ptr64@  100697f0     libvcruntime:undname.obj
 0002:000027f8       ??_C@_0L@PILCLIHE@__restrict@ 100697f8     libvcruntime:undname.obj
 0002:00002804       ??_C@_0M@GFIIJFMG@__unaligned@ 10069804     libvcruntime:undname.obj
 0002:00002810       ??_C@_09DHDLOLLB@restrict?$CI@ 10069810     libvcruntime:undname.obj
 0002:0000281c       ??_C@_04NIHEBCM@?5new@     1006981c     libvcruntime:undname.obj
 0002:00002824       ??_C@_07FPCDHGMM@?5delete@ 10069824     libvcruntime:undname.obj
 0002:0000282c       ??_C@_01NEMOKFLO@?$DN@     1006982c     libvcruntime:undname.obj
 0002:00002830       ??_C@_02GPIOPFAK@?$DO?$DO@ 10069830     libvcruntime:undname.obj
 0002:00002834       ??_C@_02FODMEDOG@?$DM?$DM@ 10069834     libvcruntime:undname.obj
 0002:00002838       ??_C@_01DCLJPIOD@?$CB@     10069838     libvcruntime:undname.obj
 0002:0000283c       ??_C@_02EGOFBIJA@?$DN?$DN@ 1006983c     libvcruntime:undname.obj
 0002:00002840       ??_C@_02FDNJECIE@?$CB?$DN@ 10069840     libvcruntime:undname.obj
 0002:00002844       ??_C@_02GPECMEKF@?$FL?$FN@ 10069844     libvcruntime:undname.obj
 0002:00002848       ??_C@_08LHJFAFGD@operator@ 10069848     libvcruntime:undname.obj
 0002:00002854       ??_C@_02HBOOOICD@?9?$DO@   10069854     libvcruntime:undname.obj
 0002:00002858       ??_C@_02ECNGHCIF@?$CL?$CL@ 10069858     libvcruntime:undname.obj
 0002:0000285c       ??_C@_02BAABKJLB@?9?9@     1006985c     libvcruntime:undname.obj
 0002:00002860       ??_C@_01MIFGBAGJ@?$CL@     10069860     libvcruntime:undname.obj
 0002:00002864       ??_C@_01HNPIGOCE@?$CG@     10069864     libvcruntime:undname.obj
 0002:00002868       ??_C@_03MNHNFDLC@?9?$DO?$CK@ 10069868     libvcruntime:undname.obj
 0002:0000286c       ??_C@_01KMDKNFGN@?1@       1006986c     libvcruntime:undname.obj
 0002:00002870       ??_C@_01FGNFDNOH@?$CF@     10069870     libvcruntime:undname.obj
 0002:00002874       ??_C@_01MNNFJEPP@?$DM@     10069874     libvcruntime:undname.obj
 0002:00002878       ??_C@_02EHCHHCKH@?$DM?$DN@ 10069878     libvcruntime:undname.obj
 0002:0000287c       ??_C@_01PPODPGHN@?$DO@     1006987c     libvcruntime:undname.obj
 0002:00002880       ??_C@_02EEKDKGMJ@?$DO?$DN@ 10069880     libvcruntime:undname.obj
 0002:00002884       ??_C@_01IHBHIGKO@?0@       10069884     libvcruntime:undname.obj
 0002:00002888       ??_C@_02HCKGKOFO@?$CI?$CJ@ 10069888     libvcruntime:undname.obj
 0002:0000288c       ??_C@_01PJKLJHI@?$HO@      1006988c     libvcruntime:undname.obj
 0002:00002890       ??_C@_01JKBOJNNK@?$FO@     10069890     libvcruntime:undname.obj
 0002:00002894       ??_C@_01DNKMNLPK@?$HM@     10069894     libvcruntime:undname.obj
 0002:00002898       ??_C@_02PPKAJPJL@?$CG?$CG@ 10069898     libvcruntime:undname.obj
 0002:0000289c       ??_C@_02NONPIBCD@?$HM?$HM@ 1006989c     libvcruntime:undname.obj
 0002:000028a0       ??_C@_02FPIMKNGF@?$CK?$DN@ 100698a0     libvcruntime:undname.obj
 0002:000028a4       ??_C@_02FOEOMHFC@?$CL?$DN@ 100698a4     libvcruntime:undname.obj
 0002:000028a8       ??_C@_02FKMDLLOA@?9?$DN@   100698a8     libvcruntime:undname.obj
 0002:000028ac       ??_C@_02FJEHGPIO@?1?$DN@   100698ac     libvcruntime:undname.obj
 0002:000028b0       ??_C@_02FENAOKFI@?$CF?$DN@ 100698b0     libvcruntime:undname.obj
 0002:000028b4       ??_C@_03IKFCCPFF@?$DO?$DO?$DN@ 100698b4     libvcruntime:undname.obj
 0002:000028b8       ??_C@_03CDNPDDLA@?$DM?$DM?$DN@ 100698b8     libvcruntime:undname.obj
 0002:000028bc       ??_C@_02FGJGFEAB@?$CG?$DN@ 100698bc     libvcruntime:undname.obj
 0002:000028c0       ??_C@_02DHLNPPGH@?$HM?$DN@ 100698c0     libvcruntime:undname.obj
 0002:000028c4       ??_C@_02MHEGNOJ@?$FO?$DN@  100698c4     libvcruntime:undname.obj
 0002:000028c8       ??_C@_09IFPLHPGF@?$GAvftable?8@ 100698c8     libvcruntime:undname.obj
 0002:000028d4       ??_C@_09BLBHBJP@?$GAvbtable?8@ 100698d4     libvcruntime:undname.obj
 0002:000028e0       ??_C@_07FEEIOKP@?$GAvcall?8@ 100698e0     libvcruntime:undname.obj
 0002:000028e8       ??_C@_08LLFFHHDJ@?$GAtypeof?8@ 100698e8     libvcruntime:undname.obj
 0002:000028f4       ??_C@_0BF@KDPPACIK@?$GAlocal?5static?5guard?8@ 100698f4     libvcruntime:undname.obj
 0002:0000290c       ??_C@_08OBABFOLI@?$GAstring?8@ 1006990c     libvcruntime:undname.obj
 0002:00002918       ??_C@_0BD@JDLKDPAB@?$GAvbase?5destructor?8@ 10069918     libvcruntime:undname.obj
 0002:0000292c       ??_C@_0BN@DEGPLNFK@?$GAvector?5deleting?5destructor?8@ 1006992c     libvcruntime:undname.obj
 0002:0000294c       ??_C@_0BO@OBMKPJIG@?$GAdefault?5constructor?5closure?8@ 1006994c     libvcruntime:undname.obj
 0002:0000296c       ??_C@_0BN@IMDCHIKM@?$GAscalar?5deleting?5destructor?8@ 1006996c     libvcruntime:undname.obj
 0002:0000298c       ??_C@_0BO@PFGOCPJJ@?$GAvector?5constructor?5iterator?8@ 1006998c     libvcruntime:undname.obj
 0002:000029ac       ??_C@_0BN@LFPFMEDL@?$GAvector?5destructor?5iterator?8@ 100699ac     libvcruntime:undname.obj
 0002:000029cc       ??_C@_0CE@IKBNEHA@?$GAvector?5vbase?5constructor?5itera@ 100699cc     libvcruntime:undname.obj
 0002:000029f0       ??_C@_0BL@NILFHHPC@?$GAvirtual?5displacement?5map?8@ 100699f0     libvcruntime:undname.obj
 0002:00002a0c       ??_C@_0CB@JONCMFFK@?$GAeh?5vector?5constructor?5iterator@ 10069a0c     libvcruntime:undname.obj
 0002:00002a30       ??_C@_0CA@GCEOPDGL@?$GAeh?5vector?5destructor?5iterator?8@ 10069a30     libvcruntime:undname.obj
 0002:00002a50       ??_C@_0CH@OOJPLCPH@?$GAeh?5vector?5vbase?5constructor?5it@ 10069a50     libvcruntime:undname.obj
 0002:00002a78       ??_C@_0BL@LLKPOHJI@?$GAcopy?5constructor?5closure?8@ 10069a78     libvcruntime:undname.obj
 0002:00002a94       ??_C@_0BA@KBCDOMBN@?$GAudt?5returning?8@ 10069a94     libvcruntime:undname.obj
 0002:00002aa4       ??_C@_03KLGMFNMG@?$GAEH@   10069aa4     libvcruntime:undname.obj
 0002:00002aa8       ??_C@_05KHLCHHI@?$GARTTI@  10069aa8     libvcruntime:undname.obj
 0002:00002ab0       ??_C@_0BA@KKLDJDLB@?$GAlocal?5vftable?8@ 10069ab0     libvcruntime:undname.obj
 0002:00002ac0       ??_C@_0CE@IIHCMGGL@?$GAlocal?5vftable?5constructor?5clos@ 10069ac0     libvcruntime:undname.obj
 0002:00002ae4       ??_C@_06FHBGPFGH@?5new?$FL?$FN@ 10069ae4     libvcruntime:undname.obj
 0002:00002aec       ??_C@_09LBNFPBCA@?5delete?$FL?$FN@ 10069aec     libvcruntime:undname.obj
 0002:00002af8       ??_C@_0P@HJKNJFNN@?$GAomni?5callsig?8@ 10069af8     libvcruntime:undname.obj
 0002:00002b08       ??_C@_0BL@CNOONJFP@?$GAplacement?5delete?5closure?8@ 10069b08     libvcruntime:undname.obj
 0002:00002b24       ??_C@_0BN@CKNJLHMB@?$GAplacement?5delete?$FL?$FN?5closure?8@ 10069b24     libvcruntime:undname.obj
 0002:00002b44       ??_C@_0CG@CFDHKGGD@?$GAmanaged?5vector?5constructor?5ite@ 10069b44     libvcruntime:undname.obj
 0002:00002b6c       ??_C@_0CF@IMGKMJNO@?$GAmanaged?5vector?5destructor?5iter@ 10069b6c     libvcruntime:undname.obj
 0002:00002b94       ??_C@_0CG@HLDDJMAG@?$GAeh?5vector?5copy?5constructor?5ite@ 10069b94     libvcruntime:undname.obj
 0002:00002bbc       ??_C@_0CM@FCBBDIGB@?$GAeh?5vector?5vbase?5copy?5construct@ 10069bbc     libvcruntime:undname.obj
 0002:00002be8       ??_C@_0BL@CLIPGLGB@?$GAdynamic?5initializer?5for?5?8@ 10069be8     libvcruntime:undname.obj
 0002:00002c04       ??_C@_0CB@PDBIFEP@?$GAdynamic?5atexit?5destructor?5for?5@ 10069c04     libvcruntime:undname.obj
 0002:00002c28       ??_C@_0CD@CGAJBKEJ@?$GAvector?5copy?5constructor?5iterat@ 10069c28     libvcruntime:undname.obj
 0002:00002c4c       ??_C@_0CJ@GJELGAMM@?$GAvector?5vbase?5copy?5constructor?5@ 10069c4c     libvcruntime:undname.obj
 0002:00002c78       ??_C@_0CL@FGIJHLCE@?$GAmanaged?5vector?5copy?5constructo@ 10069c78     libvcruntime:undname.obj
 0002:00002ca4       ??_C@_0BM@PMGGMLDN@?$GAlocal?5static?5thread?5guard?8@ 10069ca4     libvcruntime:undname.obj
 0002:00002cc0       ??_C@_0N@BDNMDMOL@operator?5?$CC?$CC?5@ 10069cc0     libvcruntime:undname.obj
 0002:00002cd0       ??_C@_0BC@GGEBGALA@operator?5co_await@ 10069cd0     libvcruntime:undname.obj
 0002:00002ce4       ??_C@_0M@GAAIMMOH@operator?$DM?$DN?$DO@ 10069ce4     libvcruntime:undname.obj
 0002:00002cf0       ??_C@_0BC@DAFEJGAK@?5Type?5Descriptor?8@ 10069cf0     libvcruntime:undname.obj
 0002:00002d04       ??_C@_0BM@LDKODKLH@?5Base?5Class?5Descriptor?5at?5?$CI@ 10069d04     libvcruntime:undname.obj
 0002:00002d20       ??_C@_0BD@LGICGFMM@?5Base?5Class?5Array?8@ 10069d20     libvcruntime:undname.obj
 0002:00002d34       ??_C@_0BN@MECKDCOJ@?5Class?5Hierarchy?5Descriptor?8@ 10069d34     libvcruntime:undname.obj
 0002:00002d54       ??_C@_0BK@CFCOFLF@?5Complete?5Object?5Locator?8@ 10069d54     libvcruntime:undname.obj
 0002:00002d70       ??_C@_0BG@JNJLAMPM@?$GAanonymous?5namespace?8@ 10069d70     libvcruntime:undname.obj
 0002:00002d94       ??_C@_1DM@KHCHBNEB@?$AAa?$AAp?$AAi?$AA?9?$AAm?$AAs?$AA?9?$AAw?$AAi?$AAn?$AA?9?$AAc?$AAo?$AAr?$AAe@ 10069d94     libvcruntime:winapi_downlevel.obj
 0002:00002dd0       ??_C@_1DK@LPPGFMPP@?$AAa?$AAp?$AAi?$AA?9?$AAm?$AAs?$AA?9?$AAw?$AAi?$AAn?$AA?9?$AAc?$AAo?$AAr?$AAe@ 10069dd0     libvcruntime:winapi_downlevel.obj
 0002:00002e0c       ??_C@_1BC@GDMECMAK@?$AAk?$AAe?$AAr?$AAn?$AAe?$AAl?$AA3?$AA2@ 10069e0c     libvcruntime:winapi_downlevel.obj
 0002:00002e20       ??_C@_1BA@PFFKHIOG@?$AAa?$AAp?$AAi?$AA?9?$AAm?$AAs?$AA?9@ 10069e20     libvcruntime:winapi_downlevel.obj
 0002:00002e38       ??_C@_08KNHFBNJ@FlsAlloc@  10069e38     libvcruntime:winapi_downlevel.obj
 0002:00002e4c       ??_C@_07PEJMOBNF@FlsFree@  10069e4c     libvcruntime:winapi_downlevel.obj
 0002:00002e5c       ??_C@_0M@GDNOONDI@FlsGetValue@ 10069e5c     libvcruntime:winapi_downlevel.obj
 0002:00002e70       ??_C@_0M@JCPCPOEF@FlsSetValue@ 10069e70     libvcruntime:winapi_downlevel.obj
 0002:00002e84       ??_C@_0BM@HCFOFFN@InitializeCriticalSectionEx@ 10069e84     libvcruntime:winapi_downlevel.obj
 0002:00002ea0       ??_C@_1BI@BGOHAHKC@?$AAm?$AAs?$AAc?$AAo?$AAr?$AAe?$AAe?$AA?4?$AAd?$AAl?$AAl@ 10069ea0     libucrt:exit.obj
 0002:00002eb8       ??_C@_0P@MIGLKIOC@CorExitProcess@ 10069eb8     libucrt:exit.obj
 0002:00002ec8       ?large_power_data@?1??multiply_by_power_of_ten@__crt_strtox@@YA_NAAUbig_integer@2@I@Z@4QBIB 10069ec8     libucrt:atof.obj
 0002:000037d0       ?large_power_indices@?1??multiply_by_power_of_ten@__crt_strtox@@YA_NAAUbig_integer@2@I@Z@4QBUunpack_index@?1??12@YA_N0I@Z@B 1006a7d0     libucrt:atof.obj
 0002:00003868       ?small_powers_of_ten@?1??multiply_by_power_of_ten@__crt_strtox@@YA_NAAUbig_integer@2@I@Z@4QBIB 1006a868     libucrt:atof.obj
 0002:00003890       ??_C@_1GE@DPGDJKLM@?$AAm?$AAi?$AAn?$AAk?$AAe?$AAr?$AAn?$AAe?$AAl?$AA?2?$AAc?$AAr?$AAt?$AAs?$AA?2@ 1006a890     libucrt:atof.obj
 0002:000038f8       ??_C@_1FM@FELNCOBF@?$AA_?$AA_?$AAc?$AAr?$AAt?$AA_?$AAs?$AAt?$AAr?$AAt?$AAo?$AAx?$AA?3?$AA?3?$AAf@ 1006a8f8     libucrt:atof.obj
 0002:00003954       ??_C@_1BG@GEMHBGAF@?$AA_?$AAi?$AAs?$AA_?$AAd?$AAo?$AAu?$AAb?$AAl?$AAe@ 1006a954     libucrt:atof.obj
 0002:00003970       ??_C@_1FK@JOJELFFO@?$AA_?$AA_?$AAc?$AAr?$AAt?$AA_?$AAs?$AAt?$AAr?$AAt?$AAo?$AAx?$AA?3?$AA?3?$AAf@ 1006a970     libucrt:atof.obj
 0002:000039cc       ??_C@_1BI@BANMPGJI@?$AA?$CB?$AA_?$AAi?$AAs?$AA_?$AAd?$AAo?$AAu?$AAb?$AAl?$AAe@ 1006a9cc     libucrt:atof.obj
 0002:000039e4       ?inf_uppercase@?1???$parse_floating_point_possible_infinity@DV?$c_string_character_source@D@__crt_strtox@@PBD@__crt_strtox@@YA?AW4floating_point_parse_result@1@AADAAV?$c_string_character_source@D@1@PBD@Z@4QBDB 1006a9e4     libucrt:atof.obj
 0002:000039e8       ?inf_lowercase@?1???$parse_floating_point_possible_infinity@DV?$c_string_character_source@D@__crt_strtox@@PBD@__crt_strtox@@YA?AW4floating_point_parse_result@1@AADAAV?$c_string_character_source@D@1@PBD@Z@4QBDB 1006a9e8     libucrt:atof.obj
 0002:000039ec       ?inity_uppercase@?1???$parse_floating_point_possible_infinity@DV?$c_string_character_source@D@__crt_strtox@@PBD@__crt_strtox@@YA?AW4floating_point_parse_result@1@AADAAV?$c_string_character_source@D@1@PBD@Z@4QBDB 1006a9ec     libucrt:atof.obj
 0002:000039f4       ?inity_lowercase@?1???$parse_floating_point_possible_infinity@DV?$c_string_character_source@D@__crt_strtox@@PBD@__crt_strtox@@YA?AW4floating_point_parse_result@1@AADAAV?$c_string_character_source@D@1@PBD@Z@4QBDB 1006a9f4     libucrt:atof.obj
 0002:000039fc       ?uppercase@?1???$parse_floating_point_possible_nan@DV?$c_string_character_source@D@__crt_strtox@@PBD@__crt_strtox@@YA?AW4floating_point_parse_result@1@AADAAV?$c_string_character_source@D@1@PBD@Z@4QBDB 1006a9fc     libucrt:atof.obj
 0002:00003a00       ?lowercase@?1???$parse_floating_point_possible_nan@DV?$c_string_character_source@D@__crt_strtox@@PBD@__crt_strtox@@YA?AW4floating_point_parse_result@1@AADAAV?$c_string_character_source@D@1@PBD@Z@4QBDB 1006aa00     libucrt:atof.obj
 0002:00003a04       ?uppercase@?1???$parse_floating_point_possible_nan_is_snan@DV?$c_string_character_source@D@__crt_strtox@@@__crt_strtox@@YA_NAADAAV?$c_string_character_source@D@1@@Z@4QBDB 1006aa04     libucrt:atof.obj
 0002:00003a0c       ?lowercase@?1???$parse_floating_point_possible_nan_is_snan@DV?$c_string_character_source@D@__crt_strtox@@@__crt_strtox@@YA_NAADAAV?$c_string_character_source@D@1@@Z@4QBDB 1006aa0c     libucrt:atof.obj
 0002:00003a14       ?uppercase@?1???$parse_floating_point_possible_nan_is_ind@DV?$c_string_character_source@D@__crt_strtox@@@__crt_strtox@@YA_NAADAAV?$c_string_character_source@D@1@@Z@4QBDB 1006aa14     libucrt:atof.obj
 0002:00003a18       ?lowercase@?1???$parse_floating_point_possible_nan_is_ind@DV?$c_string_character_source@D@__crt_strtox@@@__crt_strtox@@YA_NAADAAV?$c_string_character_source@D@1@@Z@4QBDB 1006aa18     libucrt:atof.obj
 0002:00003a20       ?standard_lookup_table_spectre@__crt_stdio_output@@3V?$spectre_mitigated_lookup_table@Ustate_transition_pair@__crt_stdio_output@@$0IA@@1@B 1006aa20     libucrt:output.obj
 0002:00003b20       ?format_validation_lookup_table_spectre@__crt_stdio_output@@3V?$spectre_mitigated_lookup_table@Ustate_transition_pair@__crt_stdio_output@@$0IA@@1@B 1006ab20     libucrt:output.obj
 0002:00003c20       ??_C@_1O@CEDCILHN@?$AA?$CI?$AAn?$AAu?$AAl?$AAl?$AA?$CJ@ 1006ac20     libucrt:output.obj
 0002:00003c30       ??_C@_06OJHGLDPL@?$CInull?$CJ@ 1006ac30     libucrt:output.obj
 0002:00003c38       __real@8000000000000000    1006ac38     libucrt:frexp.obj
 0002:00003c40       ___newctype                1006ac40     libucrt:ctype.obj
 0002:00003f40       ___newclmap                1006af40     libucrt:ctype.obj
 0002:000040c0       ___newcumap                1006b0c0     libucrt:ctype.obj
 0002:00004240       __wctype                   1006b240     libucrt:ctype.obj
 0002:000045b4       __half                     1006b5b4     libucrt:pow_impl.obj
 0002:000045c0       ___acrt_exception_action_table 1006b5c0     libucrt:exception_filter.obj
 0002:00004650       ___acrt_signal_action_table_count 1006b650     libucrt:exception_filter.obj
 0002:00004654       ___acrt_signal_action_first_fpe_index 1006b654     libucrt:exception_filter.obj
 0002:00004658       ___acrt_signal_action_fpe_count 1006b658     libucrt:exception_filter.obj
 0002:00004760       ___lc_category             1006b760     libucrt:wsetlocale.obj
 0002:000047a8       ??_C@_1O@GIFLHMA@?$AAL?$AAC?$AA_?$AAA?$AAL?$AAL@ 1006b7a8     libucrt:wsetlocale.obj
 0002:000047b8       ??_C@_1BG@PPOMIBNJ@?$AAL?$AAC?$AA_?$AAC?$AAO?$AAL?$AAL?$AAA?$AAT?$AAE@ 1006b7b8     libucrt:wsetlocale.obj
 0002:000047d0       ??_C@_1BC@FFJGAPJM@?$AAL?$AAC?$AA_?$AAC?$AAT?$AAY?$AAP?$AAE@ 1006b7d0     libucrt:wsetlocale.obj
 0002:000047e4       ??_C@_1BI@PCKFNJFB@?$AAL?$AAC?$AA_?$AAM?$AAO?$AAN?$AAE?$AAT?$AAA?$AAR?$AAY@ 1006b7e4     libucrt:wsetlocale.obj
 0002:000047fc       ??_C@_1BG@ENIEDKID@?$AAL?$AAC?$AA_?$AAN?$AAU?$AAM?$AAE?$AAR?$AAI?$AAC@ 1006b7fc     libucrt:wsetlocale.obj
 0002:00004814       ??_C@_1BA@HAAOMIIG@?$AAL?$AAC?$AA_?$AAT?$AAI?$AAM?$AAE@ 1006b814     libucrt:wsetlocale.obj
 0002:00004824       ??_C@_15NBPDDFIP@?$AA?$DN?$AA?$DL@ 1006b824     libucrt:wsetlocale.obj
 0002:0000482c       ??_C@_13PJJBFPED@?$AA?$DL@ 1006b82c     libucrt:wsetlocale.obj
 0002:00004830       ??_C@_13NMPKAAJP@?$AA?$DN@ 1006b830     libucrt:wsetlocale.obj
 0002:00004834       ??_C@_17EFJLDFDO@?$AA?9?$AA_?$AA?4@ 1006b834     libucrt:wsetlocale.obj
 0002:0000483c       ??_C@_13FHBKNHDA@?$AAC@    1006b83c     libucrt:wsetlocale.obj
 0002:00004840       ??_C@_17MBJJLFDM@?$AA_?$AA?4?$AA?0@ 1006b840     libucrt:wsetlocale.obj
 0002:00004848       ??_C@_13ENNFDPBH@?$AA_@    1006b848     libucrt:wsetlocale.obj
 0002:0000484c       ??_C@_13JOFGPIOO@?$AA?4@   1006b84c     libucrt:wsetlocale.obj
 0002:00004850       ___lc_time_c               1006b850     libucrt:nlsdata.obj
 0002:000049b4       ??_C@_03KOEHGMDN@Sun@      1006b9b4     libucrt:nlsdata.obj
 0002:000049b8       ??_C@_03PDAGKDH@Mon@       1006b9b8     libucrt:nlsdata.obj
 0002:000049bc       ??_C@_03NAGEINEP@Tue@      1006b9bc     libucrt:nlsdata.obj
 0002:000049c0       ??_C@_03MHOMLAJA@Wed@      1006b9c0     libucrt:nlsdata.obj
 0002:000049c4       ??_C@_03IOFIKPDN@Thu@      1006b9c4     libucrt:nlsdata.obj
 0002:000049c8       ??_C@_03IDIOELNC@Fri@      1006b9c8     libucrt:nlsdata.obj
 0002:000049cc       ??_C@_03FEFJNEK@Sat@       1006b9cc     libucrt:nlsdata.obj
 0002:000049d0       ??_C@_06OOPIFAJ@Sunday@    1006b9d0     libucrt:nlsdata.obj
 0002:000049d8       ??_C@_06JLEDEDGH@Monday@   1006b9d8     libucrt:nlsdata.obj
 0002:000049e0       ??_C@_07BAAGCFCM@Tuesday@  1006b9e0     libucrt:nlsdata.obj
 0002:000049e8       ??_C@_09DLIGFAKA@Wednesday@ 1006b9e8     libucrt:nlsdata.obj
 0002:000049f4       ??_C@_08HACCIKIA@Thursday@ 1006b9f4     libucrt:nlsdata.obj
 0002:00004a00       ??_C@_06JECMNKMI@Friday@   1006ba00     libucrt:nlsdata.obj
 0002:00004a08       ??_C@_08INBOOONO@Saturday@ 1006ba08     libucrt:nlsdata.obj
 0002:00004a14       ??_C@_03JIHJHPIE@Jan@      1006ba14     libucrt:nlsdata.obj
 0002:00004a18       ??_C@_03HJBDCHOM@Feb@      1006ba18     libucrt:nlsdata.obj
 0002:00004a1c       ??_C@_03ODNJBKGA@Mar@      1006ba1c     libucrt:nlsdata.obj
 0002:00004a20       ??_C@_03LEOLGMJP@Apr@      1006ba20     libucrt:nlsdata.obj
 0002:00004a24       ??_C@_03CNMDKL@May@        1006ba24     libucrt:nlsdata.obj
 0002:00004a28       ??_C@_03IDFGHECI@Jun@      1006ba28     libucrt:nlsdata.obj
 0002:00004a2c       ??_C@_03LBGABGKK@Jul@      1006ba2c     libucrt:nlsdata.obj
 0002:00004a30       ??_C@_03IFJFEIGA@Aug@      1006ba30     libucrt:nlsdata.obj
 0002:00004a34       ??_C@_03GGCAPAJC@Sep@      1006ba34     libucrt:nlsdata.obj
 0002:00004a38       ??_C@_03BMAOKBAD@Oct@      1006ba38     libucrt:nlsdata.obj
 0002:00004a3c       ??_C@_03JPJOFNIA@Nov@      1006ba3c     libucrt:nlsdata.obj
 0002:00004a40       ??_C@_03MKABNOCG@Dec@      1006ba40     libucrt:nlsdata.obj
 0002:00004a44       ??_C@_07CGJPFGJA@January@  1006ba44     libucrt:nlsdata.obj
 0002:00004a4c       ??_C@_08GNJGEPFN@February@ 1006ba4c     libucrt:nlsdata.obj
 0002:00004a58       ??_C@_05HPCKOFNC@March@    1006ba58     libucrt:nlsdata.obj
 0002:00004a60       ??_C@_05DMJDNLEJ@April@    1006ba60     libucrt:nlsdata.obj
 0002:00004a68       ??_C@_04CNLMGBGM@June@     1006ba68     libucrt:nlsdata.obj
 0002:00004a70       ??_C@_04MIEPOIFP@July@     1006ba70     libucrt:nlsdata.obj
 0002:00004a78       ??_C@_06LBBHFDDG@August@   1006ba78     libucrt:nlsdata.obj
 0002:00004a80       ??_C@_09BHHEALKD@September@ 1006ba80     libucrt:nlsdata.obj
 0002:00004a8c       ??_C@_07JJNFCEND@October@  1006ba8c     libucrt:nlsdata.obj
 0002:00004a94       ??_C@_08HCHEGEOA@November@ 1006ba94     libucrt:nlsdata.obj
 0002:00004aa0       ??_C@_08EDHMEBNP@December@ 1006baa0     libucrt:nlsdata.obj
 0002:00004aac       ??_C@_02DEDBPAFC@AM@       1006baac     libucrt:nlsdata.obj
 0002:00004ab0       ??_C@_02CJNFDJBF@PM@       1006bab0     libucrt:nlsdata.obj
 0002:00004ab4       ??_C@_08BPBNCDIB@MM?1dd?1yy@ 1006bab4     libucrt:nlsdata.obj
 0002:00004ac0       ??_C@_0BE@CKGJFCPC@dddd?0?5MMMM?5dd?0?5yyyy@ 1006bac0     libucrt:nlsdata.obj
 0002:00004ad4       ??_C@_08JCCMCCIL@HH?3mm?3ss@ 1006bad4     libucrt:nlsdata.obj
 0002:00004ae0       ??_C@_17MBGCMIPB@?$AAS?$AAu?$AAn@ 1006bae0     libucrt:nlsdata.obj
 0002:00004ae8       ??_C@_17KBOMKBF@?$AAM?$AAo?$AAn@ 1006bae8     libucrt:nlsdata.obj
 0002:00004af0       ??_C@_17BMKGEGOJ@?$AAT?$AAu?$AAe@ 1006baf0     libucrt:nlsdata.obj
 0002:00004af8       ??_C@_17CJEDCEPE@?$AAW?$AAe?$AAd@ 1006baf8     libucrt:nlsdata.obj
 0002:00004b00       ??_C@_17PDPHAADD@?$AAT?$AAh?$AAu@ 1006bb00     libucrt:nlsdata.obj
 0002:00004b08       ??_C@_17HFOLPPLP@?$AAF?$AAr?$AAi@ 1006bb08     libucrt:nlsdata.obj
 0002:00004b10       ??_C@_17GGIBDPIH@?$AAS?$AAa?$AAt@ 1006bb10     libucrt:nlsdata.obj
 0002:00004b18       ??_C@_1O@IHNHDHPB@?$AAS?$AAu?$AAn?$AAd?$AAa?$AAy@ 1006bb18     libucrt:nlsdata.obj
 0002:00004b28       ??_C@_1O@MMNBFLIA@?$AAM?$AAo?$AAn?$AAd?$AAa?$AAy@ 1006bb28     libucrt:nlsdata.obj
 0002:00004b38       ??_C@_1BA@ENFBFFEK@?$AAT?$AAu?$AAe?$AAs?$AAd?$AAa?$AAy@ 1006bb38     libucrt:nlsdata.obj
 0002:00004b48       ??_C@_1BE@EBOGMDOH@?$AAW?$AAe?$AAd?$AAn?$AAe?$AAs?$AAd?$AAa?$AAy@ 1006bb48     libucrt:nlsdata.obj
 0002:00004b5c       ??_C@_1BC@HHMNLIHE@?$AAT?$AAh?$AAu?$AAr?$AAs?$AAd?$AAa?$AAy@ 1006bb5c     libucrt:nlsdata.obj
 0002:00004b70       ??_C@_1O@PDICJHAG@?$AAF?$AAr?$AAi?$AAd?$AAa?$AAy@ 1006bb70     libucrt:nlsdata.obj
 0002:00004b80       ??_C@_1BC@ENMNNPAJ@?$AAS?$AAa?$AAt?$AAu?$AAr?$AAd?$AAa?$AAy@ 1006bb80     libucrt:nlsdata.obj
 0002:00004b94       ??_C@_17DKNBKCHM@?$AAJ?$AAa?$AAn@ 1006bb94     libucrt:nlsdata.obj
 0002:00004b9c       ??_C@_17LMDJEKJN@?$AAF?$AAe?$AAb@ 1006bb9c     libucrt:nlsdata.obj
 0002:00004ba4       ??_C@_17CKNLEDEC@?$AAM?$AAa?$AAr@ 1006bba4     libucrt:nlsdata.obj
 0002:00004bac       ??_C@_17LFPOIHDD@?$AAA?$AAp?$AAr@ 1006bbac     libucrt:nlsdata.obj
 0002:00004bb4       ??_C@_17PNNKMEED@?$AAM?$AAa?$AAy@ 1006bbb4     libucrt:nlsdata.obj
 0002:00004bbc       ??_C@_17KCJGOCPB@?$AAJ?$AAu?$AAn@ 1006bbbc     libucrt:nlsdata.obj
 0002:00004bc4       ??_C@_17IJPCKHK@?$AAJ?$AAu?$AAl@ 1006bbc4     libucrt:nlsdata.obj
 0002:00004bcc       ??_C@_17ICPELBCN@?$AAA?$AAu?$AAg@ 1006bbcc     libucrt:nlsdata.obj
 0002:00004bd4       ??_C@_17HCHCOKMG@?$AAS?$AAe?$AAp@ 1006bbd4     libucrt:nlsdata.obj
 0002:00004bdc       ??_C@_17FNLKOI@?$AAO?$AAc?$AAt@ 1006bbdc     libucrt:nlsdata.obj
 0002:00004be4       ??_C@_17BBDMLCIG@?$AAN?$AAo?$AAv@ 1006bbe4     libucrt:nlsdata.obj
 0002:00004bec       ??_C@_17EGKACKIF@?$AAD?$AAe?$AAc@ 1006bbec     libucrt:nlsdata.obj
 0002:00004bf4       ??_C@_1BA@EFMEIEBA@?$AAJ?$AAa?$AAn?$AAu?$AAa?$AAr?$AAy@ 1006bbf4     libucrt:nlsdata.obj
 0002:00004c04       ??_C@_1BC@JGDDFFAM@?$AAF?$AAe?$AAb?$AAr?$AAu?$AAa?$AAr?$AAy@ 1006bc04     libucrt:nlsdata.obj
 0002:00004c18       ??_C@_1M@IKEENEDF@?$AAM?$AAa?$AAr?$AAc?$AAh@ 1006bc18     libucrt:nlsdata.obj
 0002:00004c24       ??_C@_1M@GJNLMHFD@?$AAA?$AAp?$AAr?$AAi?$AAl@ 1006bc24     libucrt:nlsdata.obj
 0002:00004c30       ??_C@_19EPFLPGAP@?$AAJ?$AAu?$AAn?$AAe@ 1006bc30     libucrt:nlsdata.obj
 0002:00004c3c       ??_C@_19BIFMLPCD@?$AAJ?$AAu?$AAl?$AAy@ 1006bc3c     libucrt:nlsdata.obj
 0002:00004c48       ??_C@_1O@PAHLKOAC@?$AAA?$AAu?$AAg?$AAu?$AAs?$AAt@ 1006bc48     libucrt:nlsdata.obj
 0002:00004c58       ??_C@_1BE@DKAAMBJL@?$AAS?$AAe?$AAp?$AAt?$AAe?$AAm?$AAb?$AAe?$AAr@ 1006bc58     libucrt:nlsdata.obj
 0002:00004c6c       ??_C@_1BA@EPANDLNG@?$AAO?$AAc?$AAt?$AAo?$AAb?$AAe?$AAr@ 1006bc6c     libucrt:nlsdata.obj
 0002:00004c7c       ??_C@_1BC@BGLIFPF@?$AAN?$AAo?$AAv?$AAe?$AAm?$AAb?$AAe?$AAr@ 1006bc7c     libucrt:nlsdata.obj
 0002:00004c90       ??_C@_1BC@FEMKIFH@?$AAD?$AAe?$AAc?$AAe?$AAm?$AAb?$AAe?$AAr@ 1006bc90     libucrt:nlsdata.obj
 0002:00004ca4       ??_C@_15ODEHAHHF@?$AAA?$AAM@ 1006bca4     libucrt:nlsdata.obj
 0002:00004cac       ??_C@_15CLMNNGEL@?$AAP?$AAM@ 1006bcac     libucrt:nlsdata.obj
 0002:00004cb4       ??_C@_1BC@IEBCMHCM@?$AAM?$AAM?$AA?1?$AAd?$AAd?$AA?1?$AAy?$AAy@ 1006bcb4     libucrt:nlsdata.obj
 0002:00004cc8       ??_C@_1CI@KNAKOEBC@?$AAd?$AAd?$AAd?$AAd?$AA?0?$AA?5?$AAM?$AAM?$AAM?$AAM?$AA?5?$AAd?$AAd?$AA?0?$AA?5@ 1006bcc8     libucrt:nlsdata.obj
 0002:00004cf0       ??_C@_1BC@GDGBMEMK@?$AAH?$AAH?$AA?3?$AAm?$AAm?$AA?3?$AAs?$AAs@ 1006bcf0     libucrt:nlsdata.obj
 0002:00004d04       ??_C@_1M@BMHNFIME@?$AAe?$AAn?$AA?9?$AAU?$AAS@ 1006bd04     libucrt:nlsdata.obj
 0002:00004d50       ??_C@_03OEIAHPBN@INF@      1006bd50     libucrt:cvt.obj
 0002:00004d54       ??_C@_03OJHLLCGB@inf@      1006bd54     libucrt:cvt.obj
 0002:00004d58       ??_C@_03LKNCIKJB@NAN@      1006bd58     libucrt:cvt.obj
 0002:00004d5c       ??_C@_03LHCJEHON@nan@      1006bd5c     libucrt:cvt.obj
 0002:00004d60       ??_C@_09OFJJIMPC@NAN?$CISNAN?$CJ@ 1006bd60     libucrt:cvt.obj
 0002:00004d6c       ??_C@_09IPFBKMDL@nan?$CIsnan?$CJ@ 1006bd6c     libucrt:cvt.obj
 0002:00004d78       ??_C@_08IKHNHAJ@NAN?$CIIND?$CJ@ 1006bd78     libucrt:cvt.obj
 0002:00004d84       ??_C@_08OFCDMILK@nan?$CIind?$CJ@ 1006bd84     libucrt:cvt.obj
 0002:00004d90       ??_C@_05KLBDPFGC@e?$CL000@ 1006bd90     libucrt:cvt.obj
 0002:00004de8       ??_C@_1EA@JGEFHKEI@?$AAa?$AAp?$AAi?$AA?9?$AAm?$AAs?$AA?9?$AAw?$AAi?$AAn?$AA?9?$AAc?$AAo?$AAr?$AAe@ 1006bde8     libucrt:winapi_thunks.obj
 0002:00004e28       ??_C@_1DI@IJCEHOCB@?$AAa?$AAp?$AAi?$AA?9?$AAm?$AAs?$AA?9?$AAw?$AAi?$AAn?$AA?9?$AAc?$AAo?$AAr?$AAe@ 1006be28     libucrt:winapi_thunks.obj
 0002:00004e60       ??_C@_1EI@MPIAOHOC@?$AAa?$AAp?$AAi?$AA?9?$AAm?$AAs?$AA?9?$AAw?$AAi?$AAn?$AA?9?$AAc?$AAo?$AAr?$AAe@ 1006be60     libucrt:winapi_thunks.obj
 0002:00004ea8       ??_C@_1FK@FPHCKFIE@?$AAa?$AAp?$AAi?$AA?9?$AAm?$AAs?$AA?9?$AAw?$AAi?$AAn?$AA?9?$AAc?$AAo?$AAr?$AAe@ 1006bea8     libucrt:winapi_thunks.obj
 0002:00004f08       ??_C@_1EM@DILCGIIO@?$AAa?$AAp?$AAi?$AA?9?$AAm?$AAs?$AA?9?$AAw?$AAi?$AAn?$AA?9?$AAc?$AAo?$AAr?$AAe@ 1006bf08     libucrt:winapi_thunks.obj
 0002:00004f54       ??_C@_1DM@LNCGDDPN@?$AAa?$AAp?$AAi?$AA?9?$AAm?$AAs?$AA?9?$AAw?$AAi?$AAn?$AA?9?$AAc?$AAo?$AAr?$AAe@ 1006bf54     libucrt:winapi_thunks.obj
 0002:00004f90       ??_C@_1DO@FPAPJEMD@?$AAa?$AAp?$AAi?$AA?9?$AAm?$AAs?$AA?9?$AAw?$AAi?$AAn?$AA?9?$AAc?$AAo?$AAr?$AAe@ 1006bf90     libucrt:winapi_thunks.obj
 0002:00004fd0       ??_C@_1DK@NDHNAHIO@?$AAa?$AAp?$AAi?$AA?9?$AAm?$AAs?$AA?9?$AAw?$AAi?$AAn?$AA?9?$AAc?$AAo?$AAr?$AAe@ 1006bfd0     libucrt:winapi_thunks.obj
 0002:0000500c       ??_C@_1DM@KGHDGBCM@?$AAa?$AAp?$AAi?$AA?9?$AAm?$AAs?$AA?9?$AAw?$AAi?$AAn?$AA?9?$AAc?$AAo?$AAr?$AAe@ 1006c00c     libucrt:winapi_thunks.obj
 0002:00005048       ??_C@_1EO@IJIOEFOH@?$AAa?$AAp?$AAi?$AA?9?$AAm?$AAs?$AA?9?$AAw?$AAi?$AAn?$AA?9?$AAr?$AAt?$AAc?$AAo@ 1006c048     libucrt:winapi_thunks.obj
 0002:00005098       ??_C@_1FG@HHGEKANL@?$AAa?$AAp?$AAi?$AA?9?$AAm?$AAs?$AA?9?$AAw?$AAi?$AAn?$AA?9?$AAs?$AAe?$AAc?$AAu@ 1006c098     libucrt:winapi_thunks.obj
 0002:000050f0       ??_C@_1EG@DBIOJECG@?$AAe?$AAx?$AAt?$AA?9?$AAm?$AAs?$AA?9?$AAw?$AAi?$AAn?$AA?9?$AAn?$AAt?$AAu?$AAs@ 1006c0f0     libucrt:winapi_thunks.obj
 0002:00005138       ??_C@_1EO@FIHMJCLF@?$AAe?$AAx?$AAt?$AA?9?$AAm?$AAs?$AA?9?$AAw?$AAi?$AAn?$AA?9?$AAn?$AAt?$AAu?$AAs@ 1006c138     libucrt:winapi_thunks.obj
 0002:00005188       ??_C@_1BC@DNHGCMLG@?$AAa?$AAd?$AAv?$AAa?$AAp?$AAi?$AA3?$AA2@ 1006c188     libucrt:winapi_thunks.obj
 0002:0000519c       ??_C@_1M@OAIMIKLP@?$AAn?$AAt?$AAd?$AAl?$AAl@ 1006c19c     libucrt:winapi_thunks.obj
 0002:000051a8       ??_C@_1EG@DPGNFKGC@?$AAa?$AAp?$AAi?$AA?9?$AAm?$AAs?$AA?9?$AAw?$AAi?$AAn?$AA?9?$AAa?$AAp?$AAp?$AAm@ 1006c1a8     libucrt:winapi_thunks.obj
 0002:000051f0       ??_C@_1O@BCCLBEOE@?$AAu?$AAs?$AAe?$AAr?$AA3?$AA2@ 1006c1f0     libucrt:winapi_thunks.obj
 0002:00005200       ??_C@_1DM@BPJLHKCE@?$AAa?$AAp?$AAi?$AA?9?$AAm?$AAs?$AA?9?$AAw?$AAi?$AAn?$AA?9?$AAc?$AAo?$AAr?$AAe@ 1006c200     libucrt:winapi_thunks.obj
 0002:0000523c       ??_C@_1BA@IAIFMGEF@?$AAe?$AAx?$AAt?$AA?9?$AAm?$AAs?$AA?9@ 1006c23c     libucrt:winapi_thunks.obj
 0002:00005250       ??_C@_0BA@FHFNEAED@AreFileApisANSI@ 1006c250     libucrt:winapi_thunks.obj
 0002:00005268       ??_C@_0BA@IHGNDAEB@CompareStringEx@ 1006c268     libucrt:winapi_thunks.obj
 0002:00005280       ??_C@_0BE@LJANKFHF@EnumSystemLocalesEx@ 1006c280     libucrt:winapi_thunks.obj
 0002:0000529c       ??_C@_0BA@EPCJIIPD@GetDateFormatEx@ 1006c29c     libucrt:winapi_thunks.obj
 0002:000052b4       ??_C@_0BA@ONOKGCMP@GetLocaleInfoEx@ 1006c2b4     libucrt:winapi_thunks.obj
 0002:000052cc       ??_C@_0BA@CIJJKCJJ@GetTimeFormatEx@ 1006c2cc     libucrt:winapi_thunks.obj
 0002:000052e4       ??_C@_0BJ@PBCCBIPI@GetUserDefaultLocaleName@ 1006c2e4     libucrt:winapi_thunks.obj
 0002:00005310       ??_C@_0BC@CELBKLLA@IsValidLocaleName@ 1006c310     libucrt:winapi_thunks.obj
 0002:0000532c       ??_C@_0O@KKBNKAPF@LCMapStringEx@ 1006c32c     libucrt:winapi_thunks.obj
 0002:00005344       ??_C@_0BB@CDHDDLLP@LCIDToLocaleName@ 1006c344     libucrt:winapi_thunks.obj
 0002:00005360       ??_C@_0BB@HBDEELFH@LocaleNameToLCID@ 1006c360     libucrt:winapi_thunks.obj
 0002:00005378       ??_C@_0CF@OJOFEIGO@AppPolicyGetProcessTerminationM@ 1006c378     libucrt:winapi_thunks.obj
 0002:000053c0       ?ccs@?1???$__acrt_stdio_parse_mode@D@@YA?AU__acrt_stdio_stream_mode@@QBD@Z@4QBDB 1006c3c0     libucrt:openfile.obj
 0002:000053c4       ?utf8_encoding@?1???$__acrt_stdio_parse_mode@D@@YA?AU__acrt_stdio_stream_mode@@QBD@Z@4QBDB 1006c3c4     libucrt:openfile.obj
 0002:000053cc       ?utf16_encoding@?1???$__acrt_stdio_parse_mode@D@@YA?AU__acrt_stdio_stream_mode@@QBD@Z@4QBDB 1006c3cc     libucrt:openfile.obj
 0002:000053d4       ?unicode_encoding@?1???$__acrt_stdio_parse_mode@D@@YA?AU__acrt_stdio_stream_mode@@QBD@Z@4QBDB 1006c3d4     libucrt:openfile.obj
 0002:000053dc       ??_C@_15HNJCPLHL@?$AAT?$AAZ@ 1006c3dc     libucrt:tzset.obj
 0002:000053e4       __days                     1006c3e4     libucrt:days.obj
 0002:00005418       __lpdays                   1006c418     libucrt:days.obj
 0002:00005538       ??_C@_03KHJOGHMM@exp@      1006c538     libucrt:fpexcept.obj
 0002:0000553c       ??_C@_03JGHBODFD@pow@      1006c53c     libucrt:fpexcept.obj
 0002:00005540       ??_C@_03MGHMBJCF@log@      1006c540     libucrt:fpexcept.obj
 0002:00005544       ??_C@_05HGHHAHAP@log10@    1006c544     libucrt:fpexcept.obj
 0002:0000554c       ??_C@_04COOMCNPB@sinh@     1006c54c     libucrt:fpexcept.obj
 0002:00005554       ??_C@_04HPJJNFIM@cosh@     1006c554     libucrt:fpexcept.obj
 0002:0000555c       ??_C@_04FJHINJAO@tanh@     1006c55c     libucrt:fpexcept.obj
 0002:00005564       ??_C@_04FIHNOPOL@asin@     1006c564     libucrt:fpexcept.obj
 0002:0000556c       ??_C@_04PDIFKINK@acos@     1006c56c     libucrt:fpexcept.obj
 0002:00005574       ??_C@_04MLLJIGOK@atan@     1006c574     libucrt:fpexcept.obj
 0002:0000557c       ??_C@_05KNGEOGJB@atan2@    1006c57c     libucrt:fpexcept.obj
 0002:00005584       ??_C@_04EIAKFFMI@sqrt@     1006c584     libucrt:fpexcept.obj
 0002:0000558c       ??_C@_03BLEJJJBH@sin@      1006c58c     libucrt:fpexcept.obj
 0002:00005590       ??_C@_03LALBNOCG@cos@      1006c590     libucrt:fpexcept.obj
 0002:00005594       ??_C@_03IIINPABG@tan@      1006c594     libucrt:fpexcept.obj
 0002:00005598       ??_C@_04GFPJNGEK@ceil@     1006c598     libucrt:fpexcept.obj
 0002:000055a0       ??_C@_05PBJFFIGL@floor@    1006c5a0     libucrt:fpexcept.obj
 0002:000055a8       ??_C@_04ODHECPBC@fabs@     1006c5a8     libucrt:fpexcept.obj
 0002:000055b0       ??_C@_04EHEDPDJG@modf@     1006c5b0     libucrt:fpexcept.obj
 0002:000055b8       ??_C@_05CEJMAHNP@ldexp@    1006c5b8     libucrt:fpexcept.obj
 0002:000055c0       ??_C@_05KBKMEMPO@_cabs@    1006c5c0     libucrt:fpexcept.obj
 0002:000055c8       ??_C@_06MEIMCGCF@_hypot@   1006c5c8     libucrt:fpexcept.obj
 0002:000055d0       ??_C@_04KEPJIHGP@fmod@     1006c5d0     libucrt:fpexcept.obj
 0002:000055d8       ??_C@_05GKKHEGJL@frexp@    1006c5d8     libucrt:fpexcept.obj
 0002:000055e0       ??_C@_03MJLDFKDL@_y0@      1006c5e0     libucrt:fpexcept.obj
 0002:000055e4       ??_C@_03NAKIGLHK@_y1@      1006c5e4     libucrt:fpexcept.obj
 0002:000055e8       ??_C@_03ONILCKOB@_yn@      1006c5e8     libucrt:fpexcept.obj
 0002:000055ec       ??_C@_05JGDBENOH@_logb@    1006c5ec     libucrt:fpexcept.obj
 0002:000055f4       ??_C@_0L@KDOEJCKC@_nextafter@ 1006c5f4     libucrt:fpexcept.obj
 0002:00005600       __d_inf                    1006c600     libucrt:util.obj
 0002:00005608       __d_max                    1006c608     libucrt:util.obj
 0002:00005610       __d_mzero                  1006c610     libucrt:util.obj
 0002:000056f0       __infinity                 1006c6f0     libucrt:87tran.obj
 0002:000056fa       __minfinity                1006c6fa     libucrt:87tran.obj
 0002:00005704       __logemax                  1006c704     libucrt:87tran.obj
 0002:0000572a       __OP_EXPjmptab             1006c72a     libucrt:87tran.obj
 0002:00005750       __indefinite               1006c750     libucrt:87disp.obj
 0002:0000575a       __piby2                    1006c75a     libucrt:87disp.obj
 0002:00005764       __piby4                    1006c764     libucrt:87disp.obj
 0002:00005798       __DEFAULT_CW_in_mem        1006c798     libucrt:common.obj
 0002:0000579a       __pi_by_2_to_61            1006c79a     libucrt:common.obj
 0002:000057e4       ??_C@_1M@HPNHIDJI@?$AAj?$AAa?$AA?9?$AAJ?$AAP@ 1006c7e4     libucrt:mbctype.obj
 0002:000057f0       ??_C@_1M@BIBDDEMK@?$AAz?$AAh?$AA?9?$AAC?$AAN@ 1006c7f0     libucrt:mbctype.obj
 0002:000057fc       ??_C@_1M@JLOOOEGK@?$AAk?$AAo?$AA?9?$AAK?$AAR@ 1006c7fc     libucrt:mbctype.obj
 0002:00005808       ??_C@_1M@CLNBBOPM@?$AAz?$AAh?$AA?9?$AAT?$AAW@ 1006c808     libucrt:mbctype.obj
 0002:00005818       ___acrt_rg_language        1006c818     libucrt:get_qualified_locale.obj
 0002:00005b24       ___acrt_rg_language_count  1006cb24     libucrt:get_qualified_locale.obj
 0002:00005b28       ___acrt_rg_country         1006cb28     libucrt:get_qualified_locale.obj
 0002:00005c3c       ___acrt_rg_country_count   1006cc3c     libucrt:get_qualified_locale.obj
 0002:00005c40       ??_C@_1BC@LLOKLNP@?$AAa?$AAm?$AAe?$AAr?$AAi?$AAc?$AAa?$AAn@ 1006cc40     libucrt:get_qualified_locale.obj
 0002:00005c54       ??_C@_1CC@HEIGCDGG@?$AAa?$AAm?$AAe?$AAr?$AAi?$AAc?$AAa?$AAn?$AA?5?$AAe?$AAn?$AAg?$AAl?$AAi?$AAs@ 1006cc54     libucrt:get_qualified_locale.obj
 0002:00005c78       ??_C@_1CC@IHCNOMIN@?$AAa?$AAm?$AAe?$AAr?$AAi?$AAc?$AAa?$AAn?$AA?9?$AAe?$AAn?$AAg?$AAl?$AAi?$AAs@ 1006cc78     libucrt:get_qualified_locale.obj
 0002:00005c9c       ??_C@_1BG@GKAGPCGG@?$AAa?$AAu?$AAs?$AAt?$AAr?$AAa?$AAl?$AAi?$AAa?$AAn@ 1006cc9c     libucrt:get_qualified_locale.obj
 0002:00005cb4       ??_C@_1BA@GMENCENF@?$AAb?$AAe?$AAl?$AAg?$AAi?$AAa?$AAn@ 1006ccb4     libucrt:get_qualified_locale.obj
 0002:00005cc4       ??_C@_1BC@PJMIIAAN@?$AAc?$AAa?$AAn?$AAa?$AAd?$AAi?$AAa?$AAn@ 1006ccc4     libucrt:get_qualified_locale.obj
 0002:00005cd8       ??_C@_17NOIMNFBF@?$AAc?$AAh?$AAh@ 1006ccd8     libucrt:get_qualified_locale.obj
 0002:00005ce0       ??_C@_17GGDALCHA@?$AAc?$AAh?$AAi@ 1006cce0     libucrt:get_qualified_locale.obj
 0002:00005ce8       ??_C@_1BA@NPNJKIBL@?$AAc?$AAh?$AAi?$AAn?$AAe?$AAs?$AAe@ 1006cce8     libucrt:get_qualified_locale.obj
 0002:00005cf8       ??_C@_1CC@DINBAMMJ@?$AAc?$AAh?$AAi?$AAn?$AAe?$AAs?$AAe?$AA?9?$AAh?$AAo?$AAn?$AAg?$AAk?$AAo?$AAn@ 1006ccf8     libucrt:get_qualified_locale.obj
 0002:00005d1c       ??_C@_1CG@IOBJPACO@?$AAc?$AAh?$AAi?$AAn?$AAe?$AAs?$AAe?$AA?9?$AAs?$AAi?$AAm?$AAp?$AAl?$AAi?$AAf@ 1006cd1c     libucrt:get_qualified_locale.obj
 0002:00005d44       ??_C@_1CE@GAJNDCKG@?$AAc?$AAh?$AAi?$AAn?$AAe?$AAs?$AAe?$AA?9?$AAs?$AAi?$AAn?$AAg?$AAa?$AAp?$AAo@ 1006cd44     libucrt:get_qualified_locale.obj
 0002:00005d68       ??_C@_1CI@PAJPIOOD@?$AAc?$AAh?$AAi?$AAn?$AAe?$AAs?$AAe?$AA?9?$AAt?$AAr?$AAa?$AAd?$AAi?$AAt?$AAi@ 1006cd68     libucrt:get_qualified_locale.obj
 0002:00005d90       ??_C@_1BM@NILJBMMD@?$AAd?$AAu?$AAt?$AAc?$AAh?$AA?9?$AAb?$AAe?$AAl?$AAg?$AAi?$AAa?$AAn@ 1006cd90     libucrt:get_qualified_locale.obj
 0002:00005dac       ??_C@_1CC@OOJPJNEJ@?$AAe?$AAn?$AAg?$AAl?$AAi?$AAs?$AAh?$AA?9?$AAa?$AAm?$AAe?$AAr?$AAi?$AAc?$AAa@ 1006cdac     libucrt:get_qualified_locale.obj
 0002:00005dd0       ??_C@_1BI@IOLFEEM@?$AAe?$AAn?$AAg?$AAl?$AAi?$AAs?$AAh?$AA?9?$AAa?$AAu?$AAs@ 1006cdd0     libucrt:get_qualified_locale.obj
 0002:00005de8       ??_C@_1BO@HFFNLENJ@?$AAe?$AAn?$AAg?$AAl?$AAi?$AAs?$AAh?$AA?9?$AAb?$AAe?$AAl?$AAi?$AAz?$AAe@ 1006cde8     libucrt:get_qualified_locale.obj
 0002:00005e08       ??_C@_1BI@HAPKJMPO@?$AAe?$AAn?$AAg?$AAl?$AAi?$AAs?$AAh?$AA?9?$AAc?$AAa?$AAn@ 1006ce08     libucrt:get_qualified_locale.obj
 0002:00005e20       ??_C@_1CE@HLNDMIOJ@?$AAe?$AAn?$AAg?$AAl?$AAi?$AAs?$AAh?$AA?9?$AAc?$AAa?$AAr?$AAi?$AAb?$AAb?$AAe@ 1006ce20     libucrt:get_qualified_locale.obj
 0002:00005e44       ??_C@_1BI@LDHJHHAC@?$AAe?$AAn?$AAg?$AAl?$AAi?$AAs?$AAh?$AA?9?$AAi?$AAr?$AAe@ 1006ce44     libucrt:get_qualified_locale.obj
 0002:00005e5c       ??_C@_1CA@NJMMCFOC@?$AAe?$AAn?$AAg?$AAl?$AAi?$AAs?$AAh?$AA?9?$AAj?$AAa?$AAm?$AAa?$AAi?$AAc?$AAa@ 1006ce5c     libucrt:get_qualified_locale.obj
 0002:00005e7c       ??_C@_1BG@BHJEBBGG@?$AAe?$AAn?$AAg?$AAl?$AAi?$AAs?$AAh?$AA?9?$AAn?$AAz@ 1006ce7c     libucrt:get_qualified_locale.obj
 0002:00005e94       ??_C@_1CK@FGOEJJCO@?$AAe?$AAn?$AAg?$AAl?$AAi?$AAs?$AAh?$AA?9?$AAs?$AAo?$AAu?$AAt?$AAh?$AA?5?$AAa@ 1006ce94     libucrt:get_qualified_locale.obj
 0002:00005ec0       ??_C@_1DE@PDBJPCJ@?$AAe?$AAn?$AAg?$AAl?$AAi?$AAs?$AAh?$AA?9?$AAt?$AAr?$AAi?$AAn?$AAi?$AAd?$AAa@ 1006cec0     libucrt:get_qualified_locale.obj
 0002:00005ef4       ??_C@_1BG@JGCANDME@?$AAe?$AAn?$AAg?$AAl?$AAi?$AAs?$AAh?$AA?9?$AAu?$AAk@ 1006cef4     libucrt:get_qualified_locale.obj
 0002:00005f0c       ??_C@_1BG@DINKMLE@?$AAe?$AAn?$AAg?$AAl?$AAi?$AAs?$AAh?$AA?9?$AAu?$AAs@ 1006cf0c     libucrt:get_qualified_locale.obj
 0002:00005f24       ??_C@_1BI@NMFDBHJE@?$AAe?$AAn?$AAg?$AAl?$AAi?$AAs?$AAh?$AA?9?$AAu?$AAs?$AAa@ 1006cf24     libucrt:get_qualified_locale.obj
 0002:00005f3c       ??_C@_1BO@OIHKJKII@?$AAf?$AAr?$AAe?$AAn?$AAc?$AAh?$AA?9?$AAb?$AAe?$AAl?$AAg?$AAi?$AAa?$AAn@ 1006cf3c     libucrt:get_qualified_locale.obj
 0002:00005f5c       ??_C@_1CA@NKAELJKI@?$AAf?$AAr?$AAe?$AAn?$AAc?$AAh?$AA?9?$AAc?$AAa?$AAn?$AAa?$AAd?$AAi?$AAa?$AAn@ 1006cf5c     libucrt:get_qualified_locale.obj
 0002:00005f7c       ??_C@_1CE@MGKCNLGN@?$AAf?$AAr?$AAe?$AAn?$AAc?$AAh?$AA?9?$AAl?$AAu?$AAx?$AAe?$AAm?$AAb?$AAo?$AAu@ 1006cf7c     libucrt:get_qualified_locale.obj
 0002:00005fa0       ??_C@_1BK@CEGEAILM@?$AAf?$AAr?$AAe?$AAn?$AAc?$AAh?$AA?9?$AAs?$AAw?$AAi?$AAs?$AAs@ 1006cfa0     libucrt:get_qualified_locale.obj
 0002:00005fbc       ??_C@_1CA@PAFKEOCC@?$AAg?$AAe?$AAr?$AAm?$AAa?$AAn?$AA?9?$AAa?$AAu?$AAs?$AAt?$AAr?$AAi?$AAa?$AAn@ 1006cfbc     libucrt:get_qualified_locale.obj
 0002:00005fdc       ??_C@_1CI@HCFHGOFD@?$AAg?$AAe?$AAr?$AAm?$AAa?$AAn?$AA?9?$AAl?$AAi?$AAc?$AAh?$AAt?$AAe?$AAn?$AAs@ 1006cfdc     libucrt:get_qualified_locale.obj
 0002:00006004       ??_C@_1CE@FEDDNPDG@?$AAg?$AAe?$AAr?$AAm?$AAa?$AAn?$AA?9?$AAl?$AAu?$AAx?$AAe?$AAm?$AAb?$AAo?$AAu@ 1006d004     libucrt:get_qualified_locale.obj
 0002:00006028       ??_C@_1BK@LIMINNMN@?$AAg?$AAe?$AAr?$AAm?$AAa?$AAn?$AA?9?$AAs?$AAw?$AAi?$AAs?$AAs@ 1006d028     libucrt:get_qualified_locale.obj
 0002:00006044       ??_C@_1BM@LGMDBEPD@?$AAi?$AAr?$AAi?$AAs?$AAh?$AA?9?$AAe?$AAn?$AAg?$AAl?$AAi?$AAs?$AAh@ 1006d044     libucrt:get_qualified_locale.obj
 0002:00006060       ??_C@_1BM@NNCFBAEE@?$AAi?$AAt?$AAa?$AAl?$AAi?$AAa?$AAn?$AA?9?$AAs?$AAw?$AAi?$AAs?$AAs@ 1006d060     libucrt:get_qualified_locale.obj
 0002:0000607c       ??_C@_1BE@FEDJNPIB@?$AAn?$AAo?$AAr?$AAw?$AAe?$AAg?$AAi?$AAa?$AAn@ 1006d07c     libucrt:get_qualified_locale.obj
 0002:00006090       ??_C@_1CC@CILKDEIE@?$AAn?$AAo?$AAr?$AAw?$AAe?$AAg?$AAi?$AAa?$AAn?$AA?9?$AAb?$AAo?$AAk?$AAm?$AAa@ 1006d090     libucrt:get_qualified_locale.obj
 0002:000060b4       ??_C@_1CE@DHMMHEPL@?$AAn?$AAo?$AAr?$AAw?$AAe?$AAg?$AAi?$AAa?$AAn?$AA?9?$AAn?$AAy?$AAn?$AAo?$AAr@ 1006d0b4     libucrt:get_qualified_locale.obj
 0002:000060d8       ??_C@_1CK@OPNMHECD@?$AAp?$AAo?$AAr?$AAt?$AAu?$AAg?$AAu?$AAe?$AAs?$AAe?$AA?9?$AAb?$AAr?$AAa?$AAz@ 1006d0d8     libucrt:get_qualified_locale.obj
 0002:00006104       ??_C@_1CE@KEEHCDB@?$AAs?$AAp?$AAa?$AAn?$AAi?$AAs?$AAh?$AA?9?$AAa?$AAr?$AAg?$AAe?$AAn?$AAt?$AAi@ 1006d104     libucrt:get_qualified_locale.obj
 0002:00006128       ??_C@_1CA@GIAOLHJD@?$AAs?$AAp?$AAa?$AAn?$AAi?$AAs?$AAh?$AA?9?$AAb?$AAo?$AAl?$AAi?$AAv?$AAi?$AAa@ 1006d128     libucrt:get_qualified_locale.obj
 0002:00006148       ??_C@_1BM@OJNDFNPD@?$AAs?$AAp?$AAa?$AAn?$AAi?$AAs?$AAh?$AA?9?$AAc?$AAh?$AAi?$AAl?$AAe@ 1006d148     libucrt:get_qualified_locale.obj
 0002:00006164       ??_C@_1CC@OCOLPALL@?$AAs?$AAp?$AAa?$AAn?$AAi?$AAs?$AAh?$AA?9?$AAc?$AAo?$AAl?$AAo?$AAm?$AAb?$AAi@ 1006d164     libucrt:get_qualified_locale.obj
 0002:00006188       ??_C@_1CG@BPOFMKBB@?$AAs?$AAp?$AAa?$AAn?$AAi?$AAs?$AAh?$AA?9?$AAc?$AAo?$AAs?$AAt?$AAa?$AA?5?$AAr@ 1006d188     libucrt:get_qualified_locale.obj
 0002:000061b0       ??_C@_1DG@IGOBAPBB@?$AAs?$AAp?$AAa?$AAn?$AAi?$AAs?$AAh?$AA?9?$AAd?$AAo?$AAm?$AAi?$AAn?$AAi?$AAc@ 1006d1b0     libucrt:get_qualified_locale.obj
 0002:000061e8       ??_C@_1CA@JHAPGEGI@?$AAs?$AAp?$AAa?$AAn?$AAi?$AAs?$AAh?$AA?9?$AAe?$AAc?$AAu?$AAa?$AAd?$AAo?$AAr@ 1006d1e8     libucrt:get_qualified_locale.obj
 0002:00006208       ??_C@_1CI@LAPALJPP@?$AAs?$AAp?$AAa?$AAn?$AAi?$AAs?$AAh?$AA?9?$AAe?$AAl?$AA?5?$AAs?$AAa?$AAl?$AAv@ 1006d208     libucrt:get_qualified_locale.obj
 0002:00006230       ??_C@_1CE@PDGBOFOM@?$AAs?$AAp?$AAa?$AAn?$AAi?$AAs?$AAh?$AA?9?$AAg?$AAu?$AAa?$AAt?$AAe?$AAm?$AAa@ 1006d230     libucrt:get_qualified_locale.obj
 0002:00006254       ??_C@_1CC@NBEBAODI@?$AAs?$AAp?$AAa?$AAn?$AAi?$AAs?$AAh?$AA?9?$AAh?$AAo?$AAn?$AAd?$AAu?$AAr?$AAa@ 1006d254     libucrt:get_qualified_locale.obj
 0002:00006278       ??_C@_1CA@LLKGHBMF@?$AAs?$AAp?$AAa?$AAn?$AAi?$AAs?$AAh?$AA?9?$AAm?$AAe?$AAx?$AAi?$AAc?$AAa?$AAn@ 1006d278     libucrt:get_qualified_locale.obj
 0002:00006298       ??_C@_1BO@LKNDOIGD@?$AAs?$AAp?$AAa?$AAn?$AAi?$AAs?$AAh?$AA?9?$AAm?$AAo?$AAd?$AAe?$AAr?$AAn@ 1006d298     libucrt:get_qualified_locale.obj
 0002:000062b8       ??_C@_1CE@NMDMOEEB@?$AAs?$AAp?$AAa?$AAn?$AAi?$AAs?$AAh?$AA?9?$AAn?$AAi?$AAc?$AAa?$AAr?$AAa?$AAg@ 1006d2b8     libucrt:get_qualified_locale.obj
 0002:000062dc       ??_C@_1BO@LLCBEJGB@?$AAs?$AAp?$AAa?$AAn?$AAi?$AAs?$AAh?$AA?9?$AAp?$AAa?$AAn?$AAa?$AAm?$AAa@ 1006d2dc     libucrt:get_qualified_locale.obj
 0002:000062fc       ??_C@_1CC@FKPGGIHO@?$AAs?$AAp?$AAa?$AAn?$AAi?$AAs?$AAh?$AA?9?$AAp?$AAa?$AAr?$AAa?$AAg?$AAu?$AAa@ 1006d2fc     libucrt:get_qualified_locale.obj
 0002:00006320       ??_C@_1BK@CDEIHOOP@?$AAs?$AAp?$AAa?$AAn?$AAi?$AAs?$AAh?$AA?9?$AAp?$AAe?$AAr?$AAu@ 1006d320     libucrt:get_qualified_locale.obj
 0002:0000633c       ??_C@_1CI@GAHAKKGP@?$AAs?$AAp?$AAa?$AAn?$AAi?$AAs?$AAh?$AA?9?$AAp?$AAu?$AAe?$AAr?$AAt?$AAo?$AA?5@ 1006d33c     libucrt:get_qualified_locale.obj
 0002:00006364       ??_C@_1CA@NKJBCAGP@?$AAs?$AAp?$AAa?$AAn?$AAi?$AAs?$AAh?$AA?9?$AAu?$AAr?$AAu?$AAg?$AAu?$AAa?$AAy@ 1006d364     libucrt:get_qualified_locale.obj
 0002:00006384       ??_C@_1CE@ODILCONM@?$AAs?$AAp?$AAa?$AAn?$AAi?$AAs?$AAh?$AA?9?$AAv?$AAe?$AAn?$AAe?$AAz?$AAu?$AAe@ 1006d384     libucrt:get_qualified_locale.obj
 0002:000063a8       ??_C@_1CA@OBNMCGFO@?$AAs?$AAw?$AAe?$AAd?$AAi?$AAs?$AAh?$AA?9?$AAf?$AAi?$AAn?$AAl?$AAa?$AAn?$AAd@ 1006d3a8     libucrt:get_qualified_locale.obj
 0002:000063c8       ??_C@_1M@PIPDDPPI@?$AAs?$AAw?$AAi?$AAs?$AAs@ 1006d3c8     libucrt:get_qualified_locale.obj
 0002:000063d4       ??_C@_15PJPFLCCM@?$AAu?$AAk@ 1006d3d4     libucrt:get_qualified_locale.obj
 0002:000063dc       ??_C@_15GMFIMNFM@?$AAu?$AAs@ 1006d3dc     libucrt:get_qualified_locale.obj
 0002:000063e4       ??_C@_17HAEBFAGL@?$AAu?$AAs?$AAa@ 1006d3e4     libucrt:get_qualified_locale.obj
 0002:000063ec       ??_C@_1BA@DPFJEPHB@?$AAa?$AAm?$AAe?$AAr?$AAi?$AAc?$AAa@ 1006d3ec     libucrt:get_qualified_locale.obj
 0002:000063fc       ??_C@_1BA@ELOGGFK@?$AAb?$AAr?$AAi?$AAt?$AAa?$AAi?$AAn@ 1006d3fc     libucrt:get_qualified_locale.obj
 0002:0000640c       ??_C@_1M@GHBGIGDA@?$AAc?$AAh?$AAi?$AAn?$AAa@ 1006d40c     libucrt:get_qualified_locale.obj
 0002:00006418       ??_C@_1M@NCHEJOPO@?$AAc?$AAz?$AAe?$AAc?$AAh@ 1006d418     libucrt:get_qualified_locale.obj
 0002:00006424       ??_C@_1BA@BKPAPBLA@?$AAe?$AAn?$AAg?$AAl?$AAa?$AAn?$AAd@ 1006d424     libucrt:get_qualified_locale.obj
 0002:00006434       ??_C@_1BM@HKBCKIPC@?$AAg?$AAr?$AAe?$AAa?$AAt?$AA?5?$AAb?$AAr?$AAi?$AAt?$AAa?$AAi?$AAn@ 1006d434     libucrt:get_qualified_locale.obj
 0002:00006450       ??_C@_1BA@PPCHPGJB@?$AAh?$AAo?$AAl?$AAl?$AAa?$AAn?$AAd@ 1006d450     libucrt:get_qualified_locale.obj
 0002:00006460       ??_C@_1BE@JBMPEGDG@?$AAh?$AAo?$AAn?$AAg?$AA?9?$AAk?$AAo?$AAn?$AAg@ 1006d460     libucrt:get_qualified_locale.obj
 0002:00006474       ??_C@_1BI@KOELBBPJ@?$AAn?$AAe?$AAw?$AA?9?$AAz?$AAe?$AAa?$AAl?$AAa?$AAn?$AAd@ 1006d474     libucrt:get_qualified_locale.obj
 0002:0000648c       ??_C@_15HIEBHAIO@?$AAn?$AAz@ 1006d48c     libucrt:get_qualified_locale.obj
 0002:00006494       ??_C@_1BC@CHBCPFPI@?$AAp?$AAr?$AA?5?$AAc?$AAh?$AAi?$AAn?$AAa@ 1006d494     libucrt:get_qualified_locale.obj
 0002:000064a8       ??_C@_1BC@JAOIIFKD@?$AAp?$AAr?$AA?9?$AAc?$AAh?$AAi?$AAn?$AAa@ 1006d4a8     libucrt:get_qualified_locale.obj
 0002:000064bc       ??_C@_1BI@BEHPPHKC@?$AAp?$AAu?$AAe?$AAr?$AAt?$AAo?$AA?9?$AAr?$AAi?$AAc?$AAo@ 1006d4bc     libucrt:get_qualified_locale.obj
 0002:000064d4       ??_C@_1O@PAEOFKDI@?$AAs?$AAl?$AAo?$AAv?$AAa?$AAk@ 1006d4d4     libucrt:get_qualified_locale.obj
 0002:000064e4       ??_C@_1BK@FIHMCKAM@?$AAs?$AAo?$AAu?$AAt?$AAh?$AA?5?$AAa?$AAf?$AAr?$AAi?$AAc?$AAa@ 1006d4e4     libucrt:get_qualified_locale.obj
 0002:00006500       ??_C@_1BI@NAEOODKB@?$AAs?$AAo?$AAu?$AAt?$AAh?$AA?5?$AAk?$AAo?$AAr?$AAe?$AAa@ 1006d500     libucrt:get_qualified_locale.obj
 0002:00006518       ??_C@_1BK@FBDGGIFF@?$AAs?$AAo?$AAu?$AAt?$AAh?$AA?9?$AAa?$AAf?$AAr?$AAi?$AAc?$AAa@ 1006d518     libucrt:get_qualified_locale.obj
 0002:00006534       ??_C@_1BI@GHLEJDPK@?$AAs?$AAo?$AAu?$AAt?$AAh?$AA?9?$AAk?$AAo?$AAr?$AAe?$AAa@ 1006d534     libucrt:get_qualified_locale.obj
 0002:0000654c       ??_C@_1CE@PLHLOMJF@?$AAt?$AAr?$AAi?$AAn?$AAi?$AAd?$AAa?$AAd?$AA?5?$AA?$CG?$AA?5?$AAt?$AAo?$AAb?$AAa@ 1006d54c     libucrt:get_qualified_locale.obj
 0002:00006570       ??_C@_1BO@MODIMHHI@?$AAu?$AAn?$AAi?$AAt?$AAe?$AAd?$AA?9?$AAk?$AAi?$AAn?$AAg?$AAd?$AAo?$AAm@ 1006d570     libucrt:get_qualified_locale.obj
 0002:00006590       ??_C@_1BM@FFHJONBJ@?$AAu?$AAn?$AAi?$AAt?$AAe?$AAd?$AA?9?$AAs?$AAt?$AAa?$AAt?$AAe?$AAs@ 1006d590     libucrt:get_qualified_locale.obj
 0002:000065ac       ??_C@_19MPDNHKDG@?$AAu?$AAt?$AAf?$AA8@ 1006d5ac     libucrt:get_qualified_locale.obj
 0002:000065b8       ??_C@_17DNCLJFIF@?$AAA?$AAC?$AAP@ 1006d5b8     libucrt:get_qualified_locale.obj
 0002:000065c0       ??_C@_1M@FPEIIFAM@?$AAu?$AAt?$AAf?$AA?9?$AA8@ 1006d5c0     libucrt:get_qualified_locale.obj
 0002:000065cc       ??_C@_17CIKBIHLH@?$AAO?$AAC?$AAP@ 1006d5cc     libucrt:get_qualified_locale.obj
 0002:000065d4       ___rglangidNotDefault      1006d5d4     libucrt:getqloc_downlevel.obj
 0002:000065e8       ??_C@_01GBGANLPD@0@        1006d5e8     libucrt:cfout.obj
 0002:000065ec       ??_C@_05DNEBIAHO@1?$CDINF@ 1006d5ec     libucrt:cfout.obj
 0002:000065f4       ??_C@_06IMKFLFPG@1?$CDQNAN@ 1006d5f4     libucrt:cfout.obj
 0002:000065fc       ??_C@_06PGGFOGJG@1?$CDSNAN@ 1006d5fc     libucrt:cfout.obj
 0002:00006604       ??_C@_05PHHOCPM@1?$CDIND@  1006d604     libucrt:cfout.obj
 0002:00006d30       ??_C@_15EMKDOKLE@?$AAa?$AAr@ 1006dd30     libucrt:lcidtoname_downlevel.obj
 0002:00006d38       ??_C@_15KNPADPLH@?$AAb?$AAg@ 1006dd38     libucrt:lcidtoname_downlevel.obj
 0002:00006d40       ??_C@_15EDMHLDMO@?$AAc?$AAa@ 1006dd40     libucrt:lcidtoname_downlevel.obj
 0002:00006d48       ??_C@_1O@BPEAJADD@?$AAz?$AAh?$AA?9?$AAC?$AAH?$AAS@ 1006dd48     libucrt:lcidtoname_downlevel.obj
 0002:00006d58       ??_C@_15LJNHCMNK@?$AAc?$AAs@ 1006dd58     libucrt:lcidtoname_downlevel.obj
 0002:00006d60       ??_C@_15FOMCIDHG@?$AAd?$AAa@ 1006dd60     libucrt:lcidtoname_downlevel.obj
 0002:00006d68       ??_C@_15NBKABECB@?$AAd?$AAe@ 1006dd68     libucrt:lcidtoname_downlevel.obj
 0002:00006d70       ??_C@_15GHPEIIAO@?$AAe?$AAl@ 1006dd70     libucrt:lcidtoname_downlevel.obj
 0002:00006d78       ??_C@_15MNPNEAIF@?$AAe?$AAn@ 1006dd78     libucrt:lcidtoname_downlevel.obj
 0002:00006d80       ??_C@_15GPIOMPMH@?$AAe?$AAs@ 1006dd80     libucrt:lcidtoname_downlevel.obj
 0002:00006d88       ??_C@_15NGLOAKJC@?$AAf?$AAi@ 1006dd88     libucrt:lcidtoname_downlevel.obj
 0002:00006d90       ??_C@_15FBKGNKAM@?$AAf?$AAr@ 1006dd90     libucrt:lcidtoname_downlevel.obj
 0002:00006d98       ??_C@_15KGGCNEFK@?$AAh?$AAe@ 1006dd98     libucrt:lcidtoname_downlevel.obj
 0002:00006da0       ??_C@_15PGHLIDMF@?$AAh?$AAu@ 1006dda0     libucrt:lcidtoname_downlevel.obj
 0002:00006da8       ??_C@_15BIEMAPLM@?$AAi?$AAs@ 1006dda8     libucrt:lcidtoname_downlevel.obj
 0002:00006db0       ??_C@_15IFJLDHAF@?$AAi?$AAt@ 1006ddb0     libucrt:lcidtoname_downlevel.obj
 0002:00006db8       ??_C@_15GEMIOCAG@?$AAj?$AAa@ 1006ddb8     libucrt:lcidtoname_downlevel.obj
 0002:00006dc0       ??_C@_15EPELEGJA@?$AAk?$AAo@ 1006ddc0     libucrt:lcidtoname_downlevel.obj
 0002:00006dc8       ??_C@_15NDDHIMN@?$AAn?$AAl@ 1006ddc8     libucrt:lcidtoname_downlevel.obj
 0002:00006dd0       ??_C@_15BPIGNHCD@?$AAn?$AAo@ 1006ddd0     libucrt:lcidtoname_downlevel.obj
 0002:00006dd8       ??_C@_15DEOPBLCG@?$AAp?$AAl@ 1006ddd8     libucrt:lcidtoname_downlevel.obj
 0002:00006de0       ??_C@_15KBECGEFG@?$AAp?$AAt@ 1006dde0     libucrt:lcidtoname_downlevel.obj
 0002:00006de8       ??_C@_15GLJCBFMD@?$AAr?$AAo@ 1006dde8     libucrt:lcidtoname_downlevel.obj
 0002:00006df0       ??_C@_15FEDGKCDI@?$AAr?$AAu@ 1006ddf0     libucrt:lcidtoname_downlevel.obj
 0002:00006df8       ??_C@_15GLKMLLHM@?$AAh?$AAr@ 1006ddf8     libucrt:lcidtoname_downlevel.obj
 0002:00006e00       ??_C@_15CPKMFBDB@?$AAs?$AAk@ 1006de00     libucrt:lcidtoname_downlevel.obj
 0002:00006e08       ??_C@_15BAAIOGMK@?$AAs?$AAq@ 1006de08     libucrt:lcidtoname_downlevel.obj
 0002:00006e10       ??_C@_15INNPNOHD@?$AAs?$AAv@ 1006de10     libucrt:lcidtoname_downlevel.obj
 0002:00006e18       ??_C@_15CABMMOGH@?$AAt?$AAh@ 1006de18     libucrt:lcidtoname_downlevel.obj
 0002:00006e20       ??_C@_15BPLIHJJM@?$AAt?$AAr@ 1006de20     libucrt:lcidtoname_downlevel.obj
 0002:00006e28       ??_C@_15NEOEKKDJ@?$AAu?$AAr@ 1006de28     libucrt:lcidtoname_downlevel.obj
 0002:00006e30       ??_C@_15NFICGAJK@?$AAi?$AAd@ 1006de30     libucrt:lcidtoname_downlevel.obj
 0002:00006e38       ??_C@_15HPJPHDM@?$AAb?$AAe@ 1006de38     libucrt:lcidtoname_downlevel.obj
 0002:00006e40       ??_C@_15LCHLGJII@?$AAs?$AAl@ 1006de40     libucrt:lcidtoname_downlevel.obj
 0002:00006e48       ??_C@_15PCFJPHHO@?$AAe?$AAt@ 1006de48     libucrt:lcidtoname_downlevel.obj
 0002:00006e50       ??_C@_15HPFPGODN@?$AAl?$AAv@ 1006de50     libucrt:lcidtoname_downlevel.obj
 0002:00006e58       ??_C@_15NFFGKGLG@?$AAl?$AAt@ 1006de58     libucrt:lcidtoname_downlevel.obj
 0002:00006e60       ??_C@_15BDAKCCHN@?$AAf?$AAa@ 1006de60     libucrt:lcidtoname_downlevel.obj
 0002:00006e68       ??_C@_15NFGIAIAJ@?$AAv?$AAi@ 1006de68     libucrt:lcidtoname_downlevel.obj
 0002:00006e70       ??_C@_15LMKNDMHN@?$AAh?$AAy@ 1006de70     libucrt:lcidtoname_downlevel.obj
 0002:00006e78       ??_C@_15IJBHMCFL@?$AAa?$AAz@ 1006de78     libucrt:lcidtoname_downlevel.obj
 0002:00006e80       ??_C@_15EKOFJABL@?$AAe?$AAu@ 1006de80     libucrt:lcidtoname_downlevel.obj
 0002:00006e88       ??_C@_15BGHADCNK@?$AAm?$AAk@ 1006de88     libucrt:lcidtoname_downlevel.obj
 0002:00006e90       ??_C@_15JDNICKHM@?$AAa?$AAf@ 1006de90     libucrt:lcidtoname_downlevel.obj
 0002:00006e98       ??_C@_15KPJEDBKD@?$AAk?$AAa@ 1006de98     libucrt:lcidtoname_downlevel.obj
 0002:00006ea0       ??_C@_15PDNFFFEO@?$AAf?$AAo@ 1006dea0     libucrt:lcidtoname_downlevel.obj
 0002:00006ea8       ??_C@_15OMLEGLOC@?$AAh?$AAi@ 1006dea8     libucrt:lcidtoname_downlevel.obj
 0002:00006eb0       ??_C@_15IDNNENKK@?$AAm?$AAs@ 1006deb0     libucrt:lcidtoname_downlevel.obj
 0002:00006eb8       ??_C@_15MACJNBMH@?$AAk?$AAk@ 1006deb8     libucrt:lcidtoname_downlevel.obj
 0002:00006ec0       ??_C@_15DKDJEOND@?$AAk?$AAy@ 1006dec0     libucrt:lcidtoname_downlevel.obj
 0002:00006ec8       ??_C@_15DFGDLJBG@?$AAs?$AAw@ 1006dec8     libucrt:lcidtoname_downlevel.obj
 0002:00006ed0       ??_C@_15BBFAICNG@?$AAu?$AAz@ 1006ded0     libucrt:lcidtoname_downlevel.obj
 0002:00006ed8       ??_C@_15DKNDCGEA@?$AAt?$AAt@ 1006ded8     libucrt:lcidtoname_downlevel.obj
 0002:00006ee0       ??_C@_15MGIFMDPL@?$AAp?$AAa@ 1006dee0     libucrt:lcidtoname_downlevel.obj
 0002:00006ee8       ??_C@_15HCNDBBA@?$AAg?$AAu@ 1006dee8     libucrt:lcidtoname_downlevel.obj
 0002:00006ef0       ??_C@_15FNBEIBON@?$AAt?$AAa@ 1006def0     libucrt:lcidtoname_downlevel.obj
 0002:00006ef8       ??_C@_15NCHGBGLK@?$AAt?$AAe@ 1006def8     libucrt:lcidtoname_downlevel.obj
 0002:00006f00       ??_C@_15PHPHCBPF@?$AAk?$AAn@ 1006df00     libucrt:lcidtoname_downlevel.obj
 0002:00006f08       ??_C@_15DLGBCKMP@?$AAm?$AAr@ 1006df08     libucrt:lcidtoname_downlevel.obj
 0002:00006f10       ??_C@_15EABBLBFF@?$AAs?$AAa@ 1006df10     libucrt:lcidtoname_downlevel.obj
 0002:00006f18       ??_C@_15CBKOMCOI@?$AAm?$AAn@ 1006df18     libucrt:lcidtoname_downlevel.obj
 0002:00006f20       ??_C@_15CKDMCJAF@?$AAg?$AAl@ 1006df20     libucrt:lcidtoname_downlevel.obj
 0002:00006f28       ??_C@_17CNJFBPG@?$AAk?$AAo?$AAk@ 1006df28     libucrt:lcidtoname_downlevel.obj
 0002:00006f30       ??_C@_17FFBJICPL@?$AAs?$AAy?$AAr@ 1006df30     libucrt:lcidtoname_downlevel.obj
 0002:00006f38       ??_C@_17KPNDCPAF@?$AAd?$AAi?$AAv@ 1006df38     libucrt:lcidtoname_downlevel.obj
 0002:00006f40       ??_C@_1M@OKAHONE@?$AAa?$AAr?$AA?9?$AAS?$AAA@ 1006df40     libucrt:lcidtoname_downlevel.obj
 0002:00006f4c       ??_C@_1M@FFFIGIGK@?$AAb?$AAg?$AA?9?$AAB?$AAG@ 1006df4c     libucrt:lcidtoname_downlevel.obj
 0002:00006f58       ??_C@_1M@BJNKEDC@?$AAc?$AAa?$AA?9?$AAE?$AAS@ 1006df58     libucrt:lcidtoname_downlevel.obj
 0002:00006f64       ??_C@_1M@IJJHFJHA@?$AAc?$AAs?$AA?9?$AAC?$AAZ@ 1006df64     libucrt:lcidtoname_downlevel.obj
 0002:00006f70       ??_C@_1M@CLPEOBGI@?$AAd?$AAa?$AA?9?$AAD?$AAK@ 1006df70     libucrt:lcidtoname_downlevel.obj
 0002:00006f7c       ??_C@_1M@MCMADGCB@?$AAd?$AAe?$AA?9?$AAD?$AAE@ 1006df7c     libucrt:lcidtoname_downlevel.obj
 0002:00006f88       ??_C@_1M@OOCKEMAM@?$AAe?$AAl?$AA?9?$AAG?$AAR@ 1006df88     libucrt:lcidtoname_downlevel.obj
 0002:00006f94       ??_C@_1M@DDNJFGID@?$AAf?$AAi?$AA?9?$AAF?$AAI@ 1006df94     libucrt:lcidtoname_downlevel.obj
 0002:00006fa0       ??_C@_1M@GLIPPMAC@?$AAf?$AAr?$AA?9?$AAF?$AAR@ 1006dfa0     libucrt:lcidtoname_downlevel.obj
 0002:00006fac       ??_C@_1M@GFMCHPE@?$AAh?$AAe?$AA?9?$AAI?$AAL@ 1006dfac     libucrt:lcidtoname_downlevel.obj
 0002:00006fb8       ??_C@_1M@MHLPGNKM@?$AAh?$AAu?$AA?9?$AAH?$AAU@ 1006dfb8     libucrt:lcidtoname_downlevel.obj
 0002:00006fc4       ??_C@_1M@LPDDNNPN@?$AAi?$AAs?$AA?9?$AAI?$AAS@ 1006dfc4     libucrt:lcidtoname_downlevel.obj
 0002:00006fd0       ??_C@_1M@MADIPODN@?$AAi?$AAt?$AA?9?$AAI?$AAT@ 1006dfd0     libucrt:lcidtoname_downlevel.obj
 0002:00006fdc       ??_C@_1M@IHBJJGG@?$AAn?$AAl?$AA?9?$AAN?$AAL@ 1006dfdc     libucrt:lcidtoname_downlevel.obj
 0002:00006fe8       ??_C@_1M@EANAGDL@?$AAn?$AAb?$AA?9?$AAN?$AAO@ 1006dfe8     libucrt:lcidtoname_downlevel.obj
 0002:00006ff4       ??_C@_1M@NEIEMEGP@?$AAp?$AAl?$AA?9?$AAP?$AAL@ 1006dff4     libucrt:lcidtoname_downlevel.obj
 0002:00007000       ??_C@_1M@BOCFIGEP@?$AAp?$AAt?$AA?9?$AAB?$AAR@ 1006e000     libucrt:lcidtoname_downlevel.obj
 0002:0000700c       ??_C@_1M@IMPFOPBG@?$AAr?$AAo?$AA?9?$AAR?$AAO@ 1006e00c     libucrt:lcidtoname_downlevel.obj
 0002:00007018       ??_C@_1M@IDNNEJMM@?$AAr?$AAu?$AA?9?$AAR?$AAU@ 1006e018     libucrt:lcidtoname_downlevel.obj
 0002:00007024       ??_C@_1M@LILEEOGM@?$AAh?$AAr?$AA?9?$AAH?$AAR@ 1006e024     libucrt:lcidtoname_downlevel.obj
 0002:00007030       ??_C@_1M@FKIFEHPB@?$AAs?$AAk?$AA?9?$AAS?$AAK@ 1006e030     libucrt:lcidtoname_downlevel.obj
 0002:0000703c       ??_C@_1M@LJMAMNPJ@?$AAs?$AAq?$AA?9?$AAA?$AAL@ 1006e03c     libucrt:lcidtoname_downlevel.obj
 0002:00007048       ??_C@_1M@GIAKDKJK@?$AAs?$AAv?$AA?9?$AAS?$AAE@ 1006e048     libucrt:lcidtoname_downlevel.obj
 0002:00007054       ??_C@_1M@MKJKIKCL@?$AAt?$AAh?$AA?9?$AAT?$AAH@ 1006e054     libucrt:lcidtoname_downlevel.obj
 0002:00007060       ??_C@_1M@MFLCCMPB@?$AAt?$AAr?$AA?9?$AAT?$AAR@ 1006e060     libucrt:lcidtoname_downlevel.obj
 0002:0000706c       ??_C@_1M@OIJHDKJN@?$AAu?$AAr?$AA?9?$AAP?$AAK@ 1006e06c     libucrt:lcidtoname_downlevel.obj
 0002:00007078       ??_C@_1M@LHIPCIEK@?$AAi?$AAd?$AA?9?$AAI?$AAD@ 1006e078     libucrt:lcidtoname_downlevel.obj
 0002:00007084       ??_C@_1M@MFMOBGI@?$AAu?$AAk?$AA?9?$AAU?$AAA@ 1006e084     libucrt:lcidtoname_downlevel.obj
 0002:00007090       ??_C@_1M@OBGLJIPL@?$AAb?$AAe?$AA?9?$AAB?$AAY@ 1006e090     libucrt:lcidtoname_downlevel.obj
 0002:0000709c       ??_C@_1M@BCFAJEAD@?$AAs?$AAl?$AA?9?$AAS?$AAI@ 1006e09c     libucrt:lcidtoname_downlevel.obj
 0002:000070a8       ??_C@_1M@FKFFEDDN@?$AAe?$AAt?$AA?9?$AAE?$AAE@ 1006e0a8     libucrt:lcidtoname_downlevel.obj
 0002:000070b4       ??_C@_1M@KGKKAACI@?$AAl?$AAv?$AA?9?$AAL?$AAV@ 1006e0b4     libucrt:lcidtoname_downlevel.obj
 0002:000070c0       ??_C@_1M@IFGBIJO@?$AAl?$AAt?$AA?9?$AAL?$AAT@ 1006e0c0     libucrt:lcidtoname_downlevel.obj
 0002:000070cc       ??_C@_1M@FGEAHEDM@?$AAf?$AAa?$AA?9?$AAI?$AAR@ 1006e0cc     libucrt:lcidtoname_downlevel.obj
 0002:000070d8       ??_C@_1M@KBMAIBFN@?$AAv?$AAi?$AA?9?$AAV?$AAN@ 1006e0d8     libucrt:lcidtoname_downlevel.obj
 0002:000070e4       ??_C@_1M@GPCBKDJK@?$AAh?$AAy?$AA?9?$AAA?$AAM@ 1006e0e4     libucrt:lcidtoname_downlevel.obj
 0002:000070f0       ??_C@_1BG@BECMDDJB@?$AAa?$AAz?$AA?9?$AAA?$AAZ?$AA?9?$AAL?$AAa?$AAt?$AAn@ 1006e0f0     libucrt:lcidtoname_downlevel.obj
 0002:00007108       ??_C@_1M@MAOFCAEA@?$AAe?$AAu?$AA?9?$AAE?$AAS@ 1006e108     libucrt:lcidtoname_downlevel.obj
 0002:00007114       ??_C@_1M@IGHABKPI@?$AAm?$AAk?$AA?9?$AAM?$AAK@ 1006e114     libucrt:lcidtoname_downlevel.obj
 0002:00007120       ??_C@_1M@IAIGNEJG@?$AAt?$AAn?$AA?9?$AAZ?$AAA@ 1006e120     libucrt:lcidtoname_downlevel.obj
 0002:0000712c       ??_C@_1M@IIJCOJFA@?$AAx?$AAh?$AA?9?$AAZ?$AAA@ 1006e12c     libucrt:lcidtoname_downlevel.obj
 0002:00007138       ??_C@_1M@LGPJHNJH@?$AAz?$AAu?$AA?9?$AAZ?$AAA@ 1006e138     libucrt:lcidtoname_downlevel.obj
 0002:00007144       ??_C@_1M@HOKAOIO@?$AAa?$AAf?$AA?9?$AAZ?$AAA@ 1006e144     libucrt:lcidtoname_downlevel.obj
 0002:00007150       ??_C@_1M@DPCLHLIE@?$AAk?$AAa?$AA?9?$AAG?$AAE@ 1006e150     libucrt:lcidtoname_downlevel.obj
 0002:0000715c       ??_C@_1M@BLKMHJBI@?$AAf?$AAo?$AA?9?$AAF?$AAO@ 1006e15c     libucrt:lcidtoname_downlevel.obj
 0002:00007168       ??_C@_1M@LGGJAPPB@?$AAh?$AAi?$AA?9?$AAI?$AAN@ 1006e168     libucrt:lcidtoname_downlevel.obj
 0002:00007174       ??_C@_1M@FIKPIHFE@?$AAm?$AAt?$AA?9?$AAM?$AAT@ 1006e174     libucrt:lcidtoname_downlevel.obj
 0002:00007180       ??_C@_1M@HEGGPBFA@?$AAs?$AAe?$AA?9?$AAN?$AAO@ 1006e180     libucrt:lcidtoname_downlevel.obj
 0002:0000718c       ??_C@_1M@EIBJEEPA@?$AAm?$AAs?$AA?9?$AAM?$AAY@ 1006e18c     libucrt:lcidtoname_downlevel.obj
 0002:00007198       ??_C@_1M@FHLBGMPP@?$AAk?$AAk?$AA?9?$AAK?$AAZ@ 1006e198     libucrt:lcidtoname_downlevel.obj
 0002:000071a4       ??_C@_1M@NGJJLCGI@?$AAk?$AAy?$AA?9?$AAK?$AAG@ 1006e1a4     libucrt:lcidtoname_downlevel.obj
 0002:000071b0       ??_C@_1M@GIENNBFC@?$AAs?$AAw?$AA?9?$AAK?$AAE@ 1006e1b0     libucrt:lcidtoname_downlevel.obj
 0002:000071bc       ??_C@_1BG@NDGMJIMJ@?$AAu?$AAz?$AA?9?$AAU?$AAZ?$AA?9?$AAL?$AAa?$AAt?$AAn@ 1006e1bc     libucrt:lcidtoname_downlevel.obj
 0002:000071d4       ??_C@_1M@IDCCIHBC@?$AAt?$AAt?$AA?9?$AAR?$AAU@ 1006e1d4     libucrt:lcidtoname_downlevel.obj
 0002:000071e0       ??_C@_1M@LOICPMOJ@?$AAb?$AAn?$AA?9?$AAI?$AAN@ 1006e1e0     libucrt:lcidtoname_downlevel.obj
 0002:000071ec       ??_C@_1M@KPKKNEAH@?$AAp?$AAa?$AA?9?$AAI?$AAN@ 1006e1ec     libucrt:lcidtoname_downlevel.obj
 0002:000071f8       ??_C@_1M@PJGPPBOG@?$AAg?$AAu?$AA?9?$AAI?$AAN@ 1006e1f8     libucrt:lcidtoname_downlevel.obj
 0002:00007204       ??_C@_1M@KMKMOPHI@?$AAt?$AAa?$AA?9?$AAI?$AAN@ 1006e204     libucrt:lcidtoname_downlevel.obj
 0002:00007210       ??_C@_1M@KFEHEPAC@?$AAt?$AAe?$AA?9?$AAI?$AAN@ 1006e210     libucrt:lcidtoname_downlevel.obj
 0002:0000721c       ??_C@_1M@CDCLMGHI@?$AAk?$AAn?$AA?9?$AAI?$AAN@ 1006e21c     libucrt:lcidtoname_downlevel.obj
 0002:00007228       ??_C@_1M@MIODLDKF@?$AAm?$AAl?$AA?9?$AAI?$AAN@ 1006e228     libucrt:lcidtoname_downlevel.obj
 0002:00007234       ??_C@_1M@PBIEACPO@?$AAm?$AAr?$AA?9?$AAI?$AAN@ 1006e234     libucrt:lcidtoname_downlevel.obj
 0002:00007240       ??_C@_1M@NIDEAGPH@?$AAs?$AAa?$AA?9?$AAI?$AAN@ 1006e240     libucrt:lcidtoname_downlevel.obj
 0002:0000724c       ??_C@_1M@FHIHCBIO@?$AAm?$AAn?$AA?9?$AAM?$AAN@ 1006e24c     libucrt:lcidtoname_downlevel.obj
 0002:00007258       ??_C@_1M@JAIJPENP@?$AAc?$AAy?$AA?9?$AAG?$AAB@ 1006e258     libucrt:lcidtoname_downlevel.obj
 0002:00007264       ??_C@_1M@PHGFBEPN@?$AAg?$AAl?$AA?9?$AAE?$AAS@ 1006e264     libucrt:lcidtoname_downlevel.obj
 0002:00007270       ??_C@_1O@KPIPDNCP@?$AAk?$AAo?$AAk?$AA?9?$AAI?$AAN@ 1006e270     libucrt:lcidtoname_downlevel.obj
 0002:00007280       ??_C@_1O@KNHJLDJA@?$AAs?$AAy?$AAr?$AA?9?$AAS?$AAY@ 1006e280     libucrt:lcidtoname_downlevel.obj
 0002:00007290       ??_C@_1O@MKEKBLAH@?$AAd?$AAi?$AAv?$AA?9?$AAM?$AAV@ 1006e290     libucrt:lcidtoname_downlevel.obj
 0002:000072a0       ??_C@_1O@OHDCKDDF@?$AAq?$AAu?$AAz?$AA?9?$AAB?$AAO@ 1006e2a0     libucrt:lcidtoname_downlevel.obj
 0002:000072b0       ??_C@_1M@LEPJNLFD@?$AAn?$AAs?$AA?9?$AAZ?$AAA@ 1006e2b0     libucrt:lcidtoname_downlevel.obj
 0002:000072bc       ??_C@_1M@OMLEIIJB@?$AAm?$AAi?$AA?9?$AAN?$AAZ@ 1006e2bc     libucrt:lcidtoname_downlevel.obj
 0002:000072c8       ??_C@_1M@PMPEAILG@?$AAa?$AAr?$AA?9?$AAI?$AAQ@ 1006e2c8     libucrt:lcidtoname_downlevel.obj
 0002:000072d4       ??_C@_1M@CNKPNOEE@?$AAd?$AAe?$AA?9?$AAC?$AAH@ 1006e2d4     libucrt:lcidtoname_downlevel.obj
 0002:000072e0       ??_C@_1M@LKMGMLKO@?$AAe?$AAn?$AA?9?$AAG?$AAB@ 1006e2e0     libucrt:lcidtoname_downlevel.obj
 0002:000072ec       ??_C@_1M@PGKJFFGL@?$AAe?$AAs?$AA?9?$AAM?$AAX@ 1006e2ec     libucrt:lcidtoname_downlevel.obj
 0002:000072f8       ??_C@_1M@DNNANBDC@?$AAf?$AAr?$AA?9?$AAB?$AAE@ 1006e2f8     libucrt:lcidtoname_downlevel.obj
 0002:00007304       ??_C@_1M@HLGMDFHM@?$AAi?$AAt?$AA?9?$AAC?$AAH@ 1006e304     libucrt:lcidtoname_downlevel.obj
 0002:00007310       ??_C@_1M@CLLBGJH@?$AAn?$AAl?$AA?9?$AAB?$AAE@ 1006e310     libucrt:lcidtoname_downlevel.obj
 0002:0000731c       ??_C@_1M@BODBOGLF@?$AAn?$AAn?$AA?9?$AAN?$AAO@ 1006e31c     libucrt:lcidtoname_downlevel.obj
 0002:00007328       ??_C@_1M@HFFAHKAD@?$AAp?$AAt?$AA?9?$AAP?$AAT@ 1006e328     libucrt:lcidtoname_downlevel.obj
 0002:00007334       ??_C@_1BG@LNOAKHIE@?$AAs?$AAr?$AA?9?$AAS?$AAP?$AA?9?$AAL?$AAa?$AAt?$AAn@ 1006e334     libucrt:lcidtoname_downlevel.obj
 0002:0000734c       ??_C@_1M@HBMHBGAK@?$AAs?$AAv?$AA?9?$AAF?$AAI@ 1006e34c     libucrt:lcidtoname_downlevel.obj
 0002:00007358       ??_C@_1BG@DGCJGJBE@?$AAa?$AAz?$AA?9?$AAA?$AAZ?$AA?9?$AAC?$AAy?$AAr?$AAl@ 1006e358     libucrt:lcidtoname_downlevel.obj
 0002:00007370       ??_C@_1M@KEJDAAHB@?$AAs?$AAe?$AA?9?$AAS?$AAE@ 1006e370     libucrt:lcidtoname_downlevel.obj
 0002:0000737c       ??_C@_1M@HEIBJJAD@?$AAm?$AAs?$AA?9?$AAB?$AAN@ 1006e37c     libucrt:lcidtoname_downlevel.obj
 0002:00007388       ??_C@_1BG@PBGJMCEM@?$AAu?$AAz?$AA?9?$AAU?$AAZ?$AA?9?$AAC?$AAy?$AAr?$AAl@ 1006e388     libucrt:lcidtoname_downlevel.obj
 0002:000073a0       ??_C@_1O@LAOBCMDF@?$AAq?$AAu?$AAz?$AA?9?$AAE?$AAC@ 1006e3a0     libucrt:lcidtoname_downlevel.obj
 0002:000073b0       ??_C@_1M@POEEMAIO@?$AAa?$AAr?$AA?9?$AAE?$AAG@ 1006e3b0     libucrt:lcidtoname_downlevel.obj
 0002:000073bc       ??_C@_1M@EFAKDEDL@?$AAz?$AAh?$AA?9?$AAH?$AAK@ 1006e3bc     libucrt:lcidtoname_downlevel.obj
 0002:000073c8       ??_C@_1M@HKKIJHGI@?$AAd?$AAe?$AA?9?$AAA?$AAT@ 1006e3c8     libucrt:lcidtoname_downlevel.obj
 0002:000073d4       ??_C@_1M@KBFBEHJF@?$AAe?$AAn?$AA?9?$AAA?$AAU@ 1006e3d4     libucrt:lcidtoname_downlevel.obj
 0002:000073e0       ??_C@_1M@MNPLFAAH@?$AAe?$AAs?$AA?9?$AAE?$AAS@ 1006e3e0     libucrt:lcidtoname_downlevel.obj
 0002:000073ec       ??_C@_1M@HJOOJFMA@?$AAf?$AAr?$AA?9?$AAC?$AAA@ 1006e3ec     libucrt:lcidtoname_downlevel.obj
 0002:000073f8       ??_C@_1BG@JPOFPNAB@?$AAs?$AAr?$AA?9?$AAS?$AAP?$AA?9?$AAC?$AAy?$AAr?$AAl@ 1006e3f8     libucrt:lcidtoname_downlevel.obj
 0002:00007410       ??_C@_1M@LNFOCMOB@?$AAs?$AAe?$AA?9?$AAF?$AAI@ 1006e410     libucrt:lcidtoname_downlevel.obj
 0002:0000741c       ??_C@_1O@MGJBOAMB@?$AAq?$AAu?$AAz?$AA?9?$AAP?$AAE@ 1006e41c     libucrt:lcidtoname_downlevel.obj
 0002:0000742c       ??_C@_1M@GJINLBOK@?$AAa?$AAr?$AA?9?$AAL?$AAY@ 1006e42c     libucrt:lcidtoname_downlevel.obj
 0002:00007438       ??_C@_1M@GGMNHJNL@?$AAz?$AAh?$AA?9?$AAS?$AAG@ 1006e438     libucrt:lcidtoname_downlevel.obj
 0002:00007444       ??_C@_1M@HOIKODND@?$AAd?$AAe?$AA?9?$AAL?$AAU@ 1006e444     libucrt:lcidtoname_downlevel.obj
 0002:00007450       ??_C@_1M@DDOCCGFG@?$AAe?$AAn?$AA?9?$AAC?$AAA@ 1006e450     libucrt:lcidtoname_downlevel.obj
 0002:0000745c       ??_C@_1M@BNOEMJLF@?$AAe?$AAs?$AA?9?$AAG?$AAT@ 1006e45c     libucrt:lcidtoname_downlevel.obj
 0002:00007468       ??_C@_1M@EOGNKEK@?$AAf?$AAr?$AA?9?$AAC?$AAH@ 1006e468     libucrt:lcidtoname_downlevel.obj
 0002:00007474       ??_C@_1M@FLIDJFHL@?$AAh?$AAr?$AA?9?$AAB?$AAA@ 1006e474     libucrt:lcidtoname_downlevel.obj
 0002:00007480       ??_C@_1O@FMCELNAJ@?$AAs?$AAm?$AAj?$AA?9?$AAN?$AAO@ 1006e480     libucrt:lcidtoname_downlevel.obj
 0002:00007490       ??_C@_1M@JHGLJMGJ@?$AAa?$AAr?$AA?9?$AAD?$AAZ@ 1006e490     libucrt:lcidtoname_downlevel.obj
 0002:0000749c       ??_C@_1M@JKKFDCNP@?$AAz?$AAh?$AA?9?$AAM?$AAO@ 1006e49c     libucrt:lcidtoname_downlevel.obj
 0002:000074a8       ??_C@_1M@GEEFALPE@?$AAd?$AAe?$AA?9?$AAL?$AAI@ 1006e4a8     libucrt:lcidtoname_downlevel.obj
 0002:000074b4       ??_C@_1M@IGEOFBG@?$AAe?$AAn?$AA?9?$AAN?$AAZ@ 1006e4b4     libucrt:lcidtoname_downlevel.obj
 0002:000074c0       ??_C@_1M@KDBONEHP@?$AAe?$AAs?$AA?9?$AAC?$AAR@ 1006e4c0     libucrt:lcidtoname_downlevel.obj
 0002:000074cc       ??_C@_1M@FHMDOHNN@?$AAf?$AAr?$AA?9?$AAL?$AAU@ 1006e4cc     libucrt:lcidtoname_downlevel.obj
 0002:000074d8       ??_C@_1BG@NFKKMAFG@?$AAb?$AAs?$AA?9?$AAB?$AAA?$AA?9?$AAL?$AAa?$AAt?$AAn@ 1006e4d8     libucrt:lcidtoname_downlevel.obj
 0002:000074f0       ??_C@_1O@IMNBEMCI@?$AAs?$AAm?$AAj?$AA?9?$AAS?$AAE@ 1006e4f0     libucrt:lcidtoname_downlevel.obj
 0002:00007500       ??_C@_1M@DHHMBNDP@?$AAa?$AAr?$AA?9?$AAM?$AAA@ 1006e500     libucrt:lcidtoname_downlevel.obj
 0002:0000750c       ??_C@_1M@BNBLJCGH@?$AAe?$AAn?$AA?9?$AAI?$AAE@ 1006e50c     libucrt:lcidtoname_downlevel.obj
 0002:00007518       ??_C@_1M@GEPAFMDL@?$AAe?$AAs?$AA?9?$AAP?$AAA@ 1006e518     libucrt:lcidtoname_downlevel.obj
 0002:00007524       ??_C@_1M@OJONDMDL@?$AAf?$AAr?$AA?9?$AAM?$AAC@ 1006e524     libucrt:lcidtoname_downlevel.obj
 0002:00007530       ??_C@_1BG@OBCNFJB@?$AAs?$AAr?$AA?9?$AAB?$AAA?$AA?9?$AAL?$AAa?$AAt?$AAn@ 1006e530     libucrt:lcidtoname_downlevel.obj
 0002:00007548       ??_C@_1O@KEMEEGPO@?$AAs?$AAm?$AAa?$AA?9?$AAN?$AAO@ 1006e548     libucrt:lcidtoname_downlevel.obj
 0002:00007558       ??_C@_1M@ELMGFODK@?$AAa?$AAr?$AA?9?$AAT?$AAN@ 1006e558     libucrt:lcidtoname_downlevel.obj
 0002:00007564       ??_C@_1M@BHDLHFAF@?$AAe?$AAn?$AA?9?$AAZ?$AAA@ 1006e564     libucrt:lcidtoname_downlevel.obj
 0002:00007570       ??_C@_1M@BMGIGLIF@?$AAe?$AAs?$AA?9?$AAD?$AAO@ 1006e570     libucrt:lcidtoname_downlevel.obj
 0002:0000757c       ??_C@_1BG@CMBHIPBE@?$AAs?$AAr?$AA?9?$AAB?$AAA?$AA?9?$AAC?$AAy?$AAr?$AAl@ 1006e57c     libucrt:lcidtoname_downlevel.obj
 0002:00007594       ??_C@_1O@HEDBLHNP@?$AAs?$AAm?$AAa?$AA?9?$AAS?$AAE@ 1006e594     libucrt:lcidtoname_downlevel.obj
 0002:000075a4       ??_C@_1M@DAGCADIM@?$AAa?$AAr?$AA?9?$AAO?$AAM@ 1006e5a4     libucrt:lcidtoname_downlevel.obj
 0002:000075b0       ??_C@_1M@FODLMICG@?$AAe?$AAn?$AA?9?$AAJ?$AAM@ 1006e5b0     libucrt:lcidtoname_downlevel.obj
 0002:000075bc       ??_C@_1M@DNMLCIHB@?$AAe?$AAs?$AA?9?$AAV?$AAE@ 1006e5bc     libucrt:lcidtoname_downlevel.obj
 0002:000075c8       ??_C@_1O@EOKHMKJK@?$AAs?$AAm?$AAs?$AA?9?$AAF?$AAI@ 1006e5c8     libucrt:lcidtoname_downlevel.obj
 0002:000075d8       ??_C@_1M@CAFJMKOF@?$AAa?$AAr?$AA?9?$AAY?$AAE@ 1006e5d8     libucrt:lcidtoname_downlevel.obj
 0002:000075e4       ??_C@_1M@CBFHIJLI@?$AAe?$AAn?$AA?9?$AAC?$AAB@ 1006e5e4     libucrt:lcidtoname_downlevel.obj
 0002:000075f0       ??_C@_1M@BGNFLDN@?$AAe?$AAs?$AA?9?$AAC?$AAO@ 1006e5f0     libucrt:lcidtoname_downlevel.obj
 0002:000075fc       ??_C@_1O@JMPHMAMC@?$AAs?$AAm?$AAn?$AA?9?$AAF?$AAI@ 1006e5fc     libucrt:lcidtoname_downlevel.obj
 0002:0000760c       ??_C@_1M@JLANABKE@?$AAa?$AAr?$AA?9?$AAS?$AAY@ 1006e60c     libucrt:lcidtoname_downlevel.obj
 0002:00007618       ??_C@_1M@HPKGCFGN@?$AAe?$AAn?$AA?9?$AAB?$AAZ@ 1006e618     libucrt:lcidtoname_downlevel.obj
 0002:00007624       ??_C@_1M@OLJCMLGM@?$AAe?$AAs?$AA?9?$AAP?$AAE@ 1006e624     libucrt:lcidtoname_downlevel.obj
 0002:00007630       ??_C@_1M@MKKGFKLE@?$AAa?$AAr?$AA?9?$AAJ?$AAO@ 1006e630     libucrt:lcidtoname_downlevel.obj
 0002:0000763c       ??_C@_1M@EKPGLDNI@?$AAe?$AAn?$AA?9?$AAT?$AAT@ 1006e63c     libucrt:lcidtoname_downlevel.obj
 0002:00007648       ??_C@_1M@OONGHFHE@?$AAe?$AAs?$AA?9?$AAA?$AAR@ 1006e648     libucrt:lcidtoname_downlevel.obj
 0002:00007654       ??_C@_1M@OOJFGBHE@?$AAa?$AAr?$AA?9?$AAL?$AAB@ 1006e654     libucrt:lcidtoname_downlevel.obj
 0002:00007660       ??_C@_1M@GCEJHNEG@?$AAe?$AAn?$AA?9?$AAZ?$AAW@ 1006e660     libucrt:lcidtoname_downlevel.obj
 0002:0000766c       ??_C@_1M@JNOCAHJI@?$AAe?$AAs?$AA?9?$AAE?$AAC@ 1006e66c     libucrt:lcidtoname_downlevel.obj
 0002:00007678       ??_C@_1M@JEFHPGGB@?$AAa?$AAr?$AA?9?$AAK?$AAW@ 1006e678     libucrt:lcidtoname_downlevel.obj
 0002:00007684       ??_C@_1M@MLKIBJOJ@?$AAe?$AAn?$AA?9?$AAP?$AAH@ 1006e684     libucrt:lcidtoname_downlevel.obj
 0002:00007690       ??_C@_1M@BDNIPEND@?$AAe?$AAs?$AA?9?$AAC?$AAL@ 1006e690     libucrt:lcidtoname_downlevel.obj
 0002:0000769c       ??_C@_1M@MPNMEKBD@?$AAa?$AAr?$AA?9?$AAA?$AAE@ 1006e69c     libucrt:lcidtoname_downlevel.obj
 0002:000076a8       ??_C@_1M@KBJALCPI@?$AAe?$AAs?$AA?9?$AAU?$AAY@ 1006e6a8     libucrt:lcidtoname_downlevel.obj
 0002:000076b4       ??_C@_1M@LLCCOAGA@?$AAa?$AAr?$AA?9?$AAB?$AAH@ 1006e6b4     libucrt:lcidtoname_downlevel.obj
 0002:000076c0       ??_C@_1M@PBFNCDEL@?$AAe?$AAs?$AA?9?$AAP?$AAY@ 1006e6c0     libucrt:lcidtoname_downlevel.obj
 0002:000076cc       ??_C@_1M@EDGINPNP@?$AAa?$AAr?$AA?9?$AAQ?$AAA@ 1006e6cc     libucrt:lcidtoname_downlevel.obj
 0002:000076d8       ??_C@_1M@MKDBIIJI@?$AAe?$AAs?$AA?9?$AAB?$AAO@ 1006e6d8     libucrt:lcidtoname_downlevel.obj
 0002:000076e4       ??_C@_1M@CPKKEBLD@?$AAe?$AAs?$AA?9?$AAS?$AAV@ 1006e6e4     libucrt:lcidtoname_downlevel.obj
 0002:000076f0       ??_C@_1M@NDBGMMJL@?$AAe?$AAs?$AA?9?$AAH?$AAN@ 1006e6f0     libucrt:lcidtoname_downlevel.obj
 0002:000076fc       ??_C@_1M@JIJIBHDP@?$AAe?$AAs?$AA?9?$AAN?$AAI@ 1006e6fc     libucrt:lcidtoname_downlevel.obj
 0002:00007708       ??_C@_1M@CGFMKEEK@?$AAe?$AAs?$AA?9?$AAP?$AAR@ 1006e708     libucrt:lcidtoname_downlevel.obj
 0002:00007714       ??_C@_1O@ICJHKIIK@?$AAz?$AAh?$AA?9?$AAC?$AAH?$AAT@ 1006e714     libucrt:lcidtoname_downlevel.obj
 0002:00007724       ??_C@_15CLNEJCE@?$AAs?$AAr@ 1006e724     libucrt:lcidtoname_downlevel.obj
 0002:00007e50       ??_C@_1M@KAHEKEIG@?$AAa?$AAf?$AA?9?$AAz?$AAa@ 1006ee50     libucrt:lcidtoname_downlevel.obj
 0002:00007e5c       ??_C@_1M@GIECOABL@?$AAa?$AAr?$AA?9?$AAa?$AAe@ 1006ee5c     libucrt:lcidtoname_downlevel.obj
 0002:00007e68       ??_C@_1M@BMLMEKGI@?$AAa?$AAr?$AA?9?$AAb?$AAh@ 1006ee68     libucrt:lcidtoname_downlevel.obj
 0002:00007e74       ??_C@_1M@DAPFDGGB@?$AAa?$AAr?$AA?9?$AAd?$AAz@ 1006ee74     libucrt:lcidtoname_downlevel.obj
 0002:00007e80       ??_C@_1M@FJNKGKIG@?$AAa?$AAr?$AA?9?$AAe?$AAg@ 1006ee80     libucrt:lcidtoname_downlevel.obj
 0002:00007e8c       ??_C@_1M@FLGKKCLO@?$AAa?$AAr?$AA?9?$AAi?$AAq@ 1006ee8c     libucrt:lcidtoname_downlevel.obj
 0002:00007e98       ??_C@_1M@GNDIPALM@?$AAa?$AAr?$AA?9?$AAj?$AAo@ 1006ee98     libucrt:lcidtoname_downlevel.obj
 0002:00007ea4       ??_C@_1M@DDMJFMGJ@?$AAa?$AAr?$AA?9?$AAk?$AAw@ 1006eea4     libucrt:lcidtoname_downlevel.obj
 0002:00007eb0       ??_C@_1M@EJALMLHM@?$AAa?$AAr?$AA?9?$AAl?$AAb@ 1006eeb0     libucrt:lcidtoname_downlevel.obj
 0002:00007ebc       ??_C@_1M@MOBDBLOC@?$AAa?$AAr?$AA?9?$AAl?$AAy@ 1006eebc     libucrt:lcidtoname_downlevel.obj
 0002:00007ec8       ??_C@_1M@JAOCLHDH@?$AAa?$AAr?$AA?9?$AAm?$AAa@ 1006eec8     libucrt:lcidtoname_downlevel.obj
 0002:00007ed4       ??_C@_1M@JHPMKJIE@?$AAa?$AAr?$AA?9?$AAo?$AAm@ 1006eed4     libucrt:lcidtoname_downlevel.obj
 0002:00007ee0       ??_C@_1M@OEPGHFNH@?$AAa?$AAr?$AA?9?$AAq?$AAa@ 1006eee0     libucrt:lcidtoname_downlevel.obj
 0002:00007eec       ??_C@_1M@KJDONENM@?$AAa?$AAr?$AA?9?$AAs?$AAa@ 1006eeec     libucrt:lcidtoname_downlevel.obj
 0002:00007ef8       ??_C@_1M@DMJDKLKM@?$AAa?$AAr?$AA?9?$AAs?$AAy@ 1006eef8     libucrt:lcidtoname_downlevel.obj
 0002:00007f04       ??_C@_1M@OMFIPEDC@?$AAa?$AAr?$AA?9?$AAt?$AAn@ 1006ef04     libucrt:lcidtoname_downlevel.obj
 0002:00007f10       ??_C@_1M@IHMHGAON@?$AAa?$AAr?$AA?9?$AAy?$AAe@ 1006ef10     libucrt:lcidtoname_downlevel.obj
 0002:00007f1c       ??_C@_1BG@KDCPGJGB@?$AAa?$AAz?$AA?9?$AAa?$AAz?$AA?9?$AAc?$AAy?$AAr?$AAl@ 1006ef1c     libucrt:lcidtoname_downlevel.obj
 0002:00007f34       ??_C@_1BG@IBCKDDOE@?$AAa?$AAz?$AA?9?$AAa?$AAz?$AA?9?$AAl?$AAa?$AAt?$AAn@ 1006ef34     libucrt:lcidtoname_downlevel.obj
 0002:00007f4c       ??_C@_1M@EGPFDCPD@?$AAb?$AAe?$AA?9?$AAb?$AAy@ 1006ef4c     libucrt:lcidtoname_downlevel.obj
 0002:00007f58       ??_C@_1M@PCMGMCGC@?$AAb?$AAg?$AA?9?$AAb?$AAg@ 1006ef58     libucrt:lcidtoname_downlevel.obj
 0002:00007f64       ??_C@_1M@BJBMFGOB@?$AAb?$AAn?$AA?9?$AAi?$AAn@ 1006ef64     libucrt:lcidtoname_downlevel.obj
 0002:00007f70       ??_C@_1BG@EAKMMACD@?$AAb?$AAs?$AA?9?$AAb?$AAa?$AA?9?$AAl?$AAa?$AAt?$AAn@ 1006ef70     libucrt:lcidtoname_downlevel.obj
 0002:00007f88       ??_C@_1M@KGADAODK@?$AAc?$AAa?$AA?9?$AAe?$AAs@ 1006ef88     libucrt:lcidtoname_downlevel.obj
 0002:00007f94       ??_C@_1M@COAJPDHI@?$AAc?$AAs?$AA?9?$AAc?$AAz@ 1006ef94     libucrt:lcidtoname_downlevel.obj
 0002:00007fa0       ??_C@_1M@DHBHFONH@?$AAc?$AAy?$AA?9?$AAg?$AAb@ 1006efa0     libucrt:lcidtoname_downlevel.obj
 0002:00007fac       ??_C@_1M@IMGKELGA@?$AAd?$AAa?$AA?9?$AAd?$AAk@ 1006efac     libucrt:lcidtoname_downlevel.obj
 0002:00007fb8       ??_C@_1M@NNDGDNGA@?$AAd?$AAe?$AA?9?$AAa?$AAt@ 1006efb8     libucrt:lcidtoname_downlevel.obj
 0002:00007fc4       ??_C@_1M@IKDBHEEM@?$AAd?$AAe?$AA?9?$AAc?$AAh@ 1006efc4     libucrt:lcidtoname_downlevel.obj
 0002:00007fd0       ??_C@_1M@GFFOJMCJ@?$AAd?$AAe?$AA?9?$AAd?$AAe@ 1006efd0     libucrt:lcidtoname_downlevel.obj
 0002:00007fdc       ??_C@_1M@MDNLKBPM@?$AAd?$AAe?$AA?9?$AAl?$AAi@ 1006efdc     libucrt:lcidtoname_downlevel.obj
 0002:00007fe8       ??_C@_1M@NJBEEJNL@?$AAd?$AAe?$AA?9?$AAl?$AAu@ 1006efe8     libucrt:lcidtoname_downlevel.obj
 0002:00007ff4       ??_C@_1O@GNNELBAP@?$AAd?$AAi?$AAv?$AA?9?$AAm?$AAv@ 1006eff4     libucrt:lcidtoname_downlevel.obj
 0002:00008004       ??_C@_1M@EJLEOGAE@?$AAe?$AAl?$AA?9?$AAg?$AAr@ 1006f004     libucrt:lcidtoname_downlevel.obj
 0002:00008010       ??_C@_1M@GMPONJN@?$AAe?$AAn?$AA?9?$AAa?$AAu@ 1006f010     libucrt:lcidtoname_downlevel.obj
 0002:0000801c       ??_C@_1M@NIDIIPGF@?$AAe?$AAn?$AA?9?$AAb?$AAz@ 1006f01c     libucrt:lcidtoname_downlevel.obj
 0002:00008028       ??_C@_1M@JEHMIMFO@?$AAe?$AAn?$AA?9?$AAc?$AAa@ 1006f028     libucrt:lcidtoname_downlevel.obj
 0002:00008034       ??_C@_1M@IGMJCDLA@?$AAe?$AAn?$AA?9?$AAc?$AAb@ 1006f034     libucrt:lcidtoname_downlevel.obj
 0002:00008040       ??_C@_1M@BNFIGBKG@?$AAe?$AAn?$AA?9?$AAg?$AAb@ 1006f040     libucrt:lcidtoname_downlevel.obj
 0002:0000804c       ??_C@_1M@LKIFDIGP@?$AAe?$AAn?$AA?9?$AAi?$AAe@ 1006f04c     libucrt:lcidtoname_downlevel.obj
 0002:00008058       ??_C@_1M@PJKFGCCO@?$AAe?$AAn?$AA?9?$AAj?$AAm@ 1006f058     libucrt:lcidtoname_downlevel.obj
 0002:00008064       ??_C@_1M@KPPKEPBO@?$AAe?$AAn?$AA?9?$AAn?$AAz@ 1006f064     libucrt:lcidtoname_downlevel.obj
 0002:00008070       ??_C@_1M@GMDGLDOB@?$AAe?$AAn?$AA?9?$AAp?$AAh@ 1006f070     libucrt:lcidtoname_downlevel.obj
 0002:0000807c       ??_C@_1M@ONGIBJNA@?$AAe?$AAn?$AA?9?$AAt?$AAt@ 1006f07c     libucrt:lcidtoname_downlevel.obj
 0002:00008088       ??_C@_1M@LLODPCMM@?$AAe?$AAn?$AA?9?$AAu?$AAs@ 1006f088     libucrt:lcidtoname_downlevel.obj
 0002:00008094       ??_C@_1M@LAKFNPAN@?$AAe?$AAn?$AA?9?$AAz?$AAa@ 1006f094     libucrt:lcidtoname_downlevel.obj
 0002:000080a0       ??_C@_1M@MFNHNHEO@?$AAe?$AAn?$AA?9?$AAz?$AAw@ 1006f0a0     libucrt:lcidtoname_downlevel.obj
 0002:000080ac       ??_C@_1M@EJEINPHM@?$AAe?$AAs?$AA?9?$AAa?$AAr@ 1006f0ac     libucrt:lcidtoname_downlevel.obj
 0002:000080b8       ??_C@_1M@GNKPCCJA@?$AAe?$AAs?$AA?9?$AAb?$AAo@ 1006f0b8     libucrt:lcidtoname_downlevel.obj
 0002:000080c4       ??_C@_1M@LEEGFONL@?$AAe?$AAs?$AA?9?$AAc?$AAl@ 1006f0c4     libucrt:lcidtoname_downlevel.obj
 0002:000080d0       ??_C@_1M@KGPDPBDF@?$AAe?$AAs?$AA?9?$AAc?$AAo@ 1006f0d0     libucrt:lcidtoname_downlevel.obj
 0002:000080dc       ??_C@_1M@EIAHOHH@?$AAe?$AAs?$AA?9?$AAc?$AAr@ 1006f0dc     libucrt:lcidtoname_downlevel.obj
 0002:000080e8       ??_C@_1M@LLPGMBIN@?$AAe?$AAs?$AA?9?$AAd?$AAo@ 1006f0e8     libucrt:lcidtoname_downlevel.obj
 0002:000080f4       ??_C@_1M@DKHMKNJA@?$AAe?$AAs?$AA?9?$AAe?$AAc@ 1006f0f4     libucrt:lcidtoname_downlevel.obj
 0002:00008100       ??_C@_1M@GKGFPKAP@?$AAe?$AAs?$AA?9?$AAe?$AAs@ 1006f100     libucrt:lcidtoname_downlevel.obj
 0002:0000810c       ??_C@_1M@LKHKGDLN@?$AAe?$AAs?$AA?9?$AAg?$AAt@ 1006f10c     libucrt:lcidtoname_downlevel.obj
 0002:00008118       ??_C@_1M@HEIIGGJD@?$AAe?$AAs?$AA?9?$AAh?$AAn@ 1006f118     libucrt:lcidtoname_downlevel.obj
 0002:00008124       ??_C@_1M@FBDHPPGD@?$AAe?$AAs?$AA?9?$AAm?$AAx@ 1006f124     libucrt:lcidtoname_downlevel.obj
 0002:00008130       ??_C@_1M@DPAGLNDH@?$AAe?$AAs?$AA?9?$AAn?$AAi@ 1006f130     libucrt:lcidtoname_downlevel.obj
 0002:0000813c       ??_C@_1M@MDGOPGDD@?$AAe?$AAs?$AA?9?$AAp?$AAa@ 1006f13c     libucrt:lcidtoname_downlevel.obj
 0002:00008148       ??_C@_1M@EMAMGBGE@?$AAe?$AAs?$AA?9?$AAp?$AAe@ 1006f148     libucrt:lcidtoname_downlevel.obj
 0002:00008154       ??_C@_1M@IBMCAOEC@?$AAe?$AAs?$AA?9?$AAp?$AAr@ 1006f154     libucrt:lcidtoname_downlevel.obj
 0002:00008160       ??_C@_1M@FGMDIJED@?$AAe?$AAs?$AA?9?$AAp?$AAy@ 1006f160     libucrt:lcidtoname_downlevel.obj
 0002:0000816c       ??_C@_1M@IIDEOLLL@?$AAe?$AAs?$AA?9?$AAs?$AAv@ 1006f16c     libucrt:lcidtoname_downlevel.obj
 0002:00008178       ??_C@_1M@GAOBIPA@?$AAe?$AAs?$AA?9?$AAu?$AAy@ 1006f178     libucrt:lcidtoname_downlevel.obj
 0002:00008184       ??_C@_1M@JKFFICHJ@?$AAe?$AAs?$AA?9?$AAv?$AAe@ 1006f184     libucrt:lcidtoname_downlevel.obj
 0002:00008190       ??_C@_1M@PNMLOJDF@?$AAe?$AAt?$AA?9?$AAe?$AAe@ 1006f190     libucrt:lcidtoname_downlevel.obj
 0002:0000819c       ??_C@_1M@GHHLIKEI@?$AAe?$AAu?$AA?9?$AAe?$AAs@ 1006f19c     libucrt:lcidtoname_downlevel.obj
 0002:000081a8       ??_C@_1M@PBNONODE@?$AAf?$AAa?$AA?9?$AAi?$AAr@ 1006f1a8     libucrt:lcidtoname_downlevel.obj
 0002:000081b4       ??_C@_1M@JEEHPMIL@?$AAf?$AAi?$AA?9?$AAf?$AAi@ 1006f1b4     libucrt:lcidtoname_downlevel.obj
 0002:000081c0       ??_C@_1M@LMDCNDBA@?$AAf?$AAo?$AA?9?$AAf?$AAo@ 1006f1c0     libucrt:lcidtoname_downlevel.obj
 0002:000081cc       ??_C@_1M@JKEOHLDK@?$AAf?$AAr?$AA?9?$AAb?$AAe@ 1006f1cc     libucrt:lcidtoname_downlevel.obj
 0002:000081d8       ??_C@_1M@NOHADPMI@?$AAf?$AAr?$AA?9?$AAc?$AAa@ 1006f1d8     libucrt:lcidtoname_downlevel.obj
 0002:000081e4       ??_C@_1M@KDHIHAEC@?$AAf?$AAr?$AA?9?$AAc?$AAh@ 1006f1e4     libucrt:lcidtoname_downlevel.obj
 0002:000081f0       ??_C@_1M@MMBBFGAK@?$AAf?$AAr?$AA?9?$AAf?$AAr@ 1006f1f0     libucrt:lcidtoname_downlevel.obj
 0002:000081fc       ??_C@_1M@PAFNENNF@?$AAf?$AAr?$AA?9?$AAl?$AAu@ 1006f1fc     libucrt:lcidtoname_downlevel.obj
 0002:00008208       ??_C@_1M@EOHDJGDD@?$AAf?$AAr?$AA?9?$AAm?$AAc@ 1006f208     libucrt:lcidtoname_downlevel.obj
 0002:00008214       ??_C@_1M@FAPLLOPF@?$AAg?$AAl?$AA?9?$AAe?$AAs@ 1006f214     libucrt:lcidtoname_downlevel.obj
 0002:00008220       ??_C@_1M@FOPBFLOO@?$AAg?$AAu?$AA?9?$AAi?$AAn@ 1006f220     libucrt:lcidtoname_downlevel.obj
 0002:0000822c       ??_C@_1M@KBMCINPM@?$AAh?$AAe?$AA?9?$AAi?$AAl@ 1006f22c     libucrt:lcidtoname_downlevel.obj
 0002:00008238       ??_C@_1M@BBPHKFPJ@?$AAh?$AAi?$AA?9?$AAi?$AAn@ 1006f238     libucrt:lcidtoname_downlevel.obj
 0002:00008244       ??_C@_1M@PMBNDPHD@?$AAh?$AAr?$AA?9?$AAb?$AAa@ 1006f244     libucrt:lcidtoname_downlevel.obj
 0002:00008250       ??_C@_1M@BPCKOEGE@?$AAh?$AAr?$AA?9?$AAh?$AAr@ 1006f250     libucrt:lcidtoname_downlevel.obj
 0002:0000825c       ??_C@_1M@GACBMHKE@?$AAh?$AAu?$AA?9?$AAh?$AAu@ 1006f25c     libucrt:lcidtoname_downlevel.obj
 0002:00008268       ??_C@_1M@MILPAJJC@?$AAh?$AAy?$AA?9?$AAa?$AAm@ 1006f268     libucrt:lcidtoname_downlevel.obj
 0002:00008274       ??_C@_1M@BABBICEC@?$AAi?$AAd?$AA?9?$AAi?$AAd@ 1006f274     libucrt:lcidtoname_downlevel.obj
 0002:00008280       ??_C@_1M@BIKNHHPF@?$AAi?$AAs?$AA?9?$AAi?$AAs@ 1006f280     libucrt:lcidtoname_downlevel.obj
 0002:0000828c       ??_C@_1M@NMPCJPHE@?$AAi?$AAt?$AA?9?$AAc?$AAh@ 1006f28c     libucrt:lcidtoname_downlevel.obj
 0002:00008298       ??_C@_1M@GHKGFEDF@?$AAi?$AAt?$AA?9?$AAi?$AAt@ 1006f298     libucrt:lcidtoname_downlevel.obj
 0002:000082a4       ??_C@_1M@NIEJCJJA@?$AAj?$AAa?$AA?9?$AAj?$AAp@ 1006f2a4     libucrt:lcidtoname_downlevel.obj
 0002:000082b0       ??_C@_1M@JILFNBIM@?$AAk?$AAa?$AA?9?$AAg?$AAe@ 1006f2b0     libucrt:lcidtoname_downlevel.obj
 0002:000082bc       ??_C@_1M@PACPMGPH@?$AAk?$AAk?$AA?9?$AAk?$AAz@ 1006f2bc     libucrt:lcidtoname_downlevel.obj
 0002:000082c8       ??_C@_1M@IELFGMHA@?$AAk?$AAn?$AA?9?$AAi?$AAn@ 1006f2c8     libucrt:lcidtoname_downlevel.obj
 0002:000082d4       ??_C@_1O@IBBJHCH@?$AAk?$AAo?$AAk?$AA?9?$AAi?$AAn@ 1006f2d4     libucrt:lcidtoname_downlevel.obj
 0002:000082e4       ??_C@_1M@DMHAEOGC@?$AAk?$AAo?$AA?9?$AAk?$AAr@ 1006f2e4     libucrt:lcidtoname_downlevel.obj
 0002:000082f0       ??_C@_1M@HBAHBIGA@?$AAk?$AAy?$AA?9?$AAk?$AAg@ 1006f2f0     libucrt:lcidtoname_downlevel.obj
 0002:000082fc       ??_C@_1M@KPMILCJG@?$AAl?$AAt?$AA?9?$AAl?$AAt@ 1006f2fc     libucrt:lcidtoname_downlevel.obj
 0002:00008308       ??_C@_1M@BDEKKCA@?$AAl?$AAv?$AA?9?$AAl?$AAv@ 1006f308     libucrt:lcidtoname_downlevel.obj
 0002:00008314       ??_C@_1M@ELCKCCJJ@?$AAm?$AAi?$AA?9?$AAn?$AAz@ 1006f314     libucrt:lcidtoname_downlevel.obj
 0002:00008320       ??_C@_1M@CBOOLAPA@?$AAm?$AAk?$AA?9?$AAm?$AAk@ 1006f320     libucrt:lcidtoname_downlevel.obj
 0002:0000832c       ??_C@_1M@GPHNBJKN@?$AAm?$AAl?$AA?9?$AAi?$AAn@ 1006f32c     libucrt:lcidtoname_downlevel.obj
 0002:00008338       ??_C@_1M@PABJILIG@?$AAm?$AAn?$AA?9?$AAm?$AAn@ 1006f338     libucrt:lcidtoname_downlevel.obj
 0002:00008344       ??_C@_1M@FGBKKIPG@?$AAm?$AAr?$AA?9?$AAi?$AAn@ 1006f344     libucrt:lcidtoname_downlevel.obj
 0002:00008350       ??_C@_1M@NDBPDDAL@?$AAm?$AAs?$AA?9?$AAb?$AAn@ 1006f350     libucrt:lcidtoname_downlevel.obj
 0002:0000835c       ??_C@_1M@OPIHOOPI@?$AAm?$AAs?$AA?9?$AAm?$AAy@ 1006f35c     libucrt:lcidtoname_downlevel.obj
 0002:00008368       ??_C@_1M@PPDBCNFM@?$AAm?$AAt?$AA?9?$AAm?$AAt@ 1006f368     libucrt:lcidtoname_downlevel.obj
 0002:00008374       ??_C@_1M@KDJDKMDD@?$AAn?$AAb?$AA?9?$AAn?$AAo@ 1006f374     libucrt:lcidtoname_downlevel.obj
 0002:00008380       ??_C@_1M@KFCFLMJP@?$AAn?$AAl?$AA?9?$AAb?$AAe@ 1006f380     libucrt:lcidtoname_downlevel.obj
 0002:0000838c       ??_C@_1M@KPOPDDGO@?$AAn?$AAl?$AA?9?$AAn?$AAl@ 1006f38c     libucrt:lcidtoname_downlevel.obj
 0002:00008398       ??_C@_1M@LJKPEMLN@?$AAn?$AAn?$AA?9?$AAn?$AAo@ 1006f398     libucrt:lcidtoname_downlevel.obj
 0002:000083a4       ??_C@_1M@BDGHHBFL@?$AAn?$AAs?$AA?9?$AAz?$AAa@ 1006f3a4     libucrt:lcidtoname_downlevel.obj
 0002:000083b0       ??_C@_1M@IDEHOAP@?$AAp?$AAa?$AA?9?$AAi?$AAn@ 1006f3b0     libucrt:lcidtoname_downlevel.obj
 0002:000083bc       ??_C@_1M@HDBKGOGH@?$AAp?$AAl?$AA?9?$AAp?$AAl@ 1006f3bc     libucrt:lcidtoname_downlevel.obj
 0002:000083c8       ??_C@_1M@LJLLCMEH@?$AAp?$AAt?$AA?9?$AAb?$AAr@ 1006f3c8     libucrt:lcidtoname_downlevel.obj
 0002:000083d4       ??_C@_1M@NCMONAAL@?$AAp?$AAt?$AA?9?$AAp?$AAt@ 1006f3d4     libucrt:lcidtoname_downlevel.obj
 0002:000083e0       ??_C@_1O@EAKMAJDN@?$AAq?$AAu?$AAz?$AA?9?$AAb?$AAo@ 1006f3e0     libucrt:lcidtoname_downlevel.obj
 0002:000083f0       ??_C@_1O@BHHPIGDN@?$AAq?$AAu?$AAz?$AA?9?$AAe?$AAc@ 1006f3f0     libucrt:lcidtoname_downlevel.obj
 0002:00008400       ??_C@_1O@GBAPEKMJ@?$AAq?$AAu?$AAz?$AA?9?$AAp?$AAe@ 1006f400     libucrt:lcidtoname_downlevel.obj
 0002:00008410       ??_C@_1M@CLGLEFBO@?$AAr?$AAo?$AA?9?$AAr?$AAo@ 1006f410     libucrt:lcidtoname_downlevel.obj
 0002:0000841c       ??_C@_1M@CEEDODME@?$AAr?$AAu?$AA?9?$AAr?$AAu@ 1006f41c     libucrt:lcidtoname_downlevel.obj
 0002:00008428       ??_C@_1M@HPKKKMPP@?$AAs?$AAa?$AA?9?$AAi?$AAn@ 1006f428     libucrt:lcidtoname_downlevel.obj
 0002:00008434       ??_C@_1M@BKMAIGOJ@?$AAs?$AAe?$AA?9?$AAf?$AAi@ 1006f434     libucrt:lcidtoname_downlevel.obj
 0002:00008440       ??_C@_1M@NDPIFLFI@?$AAs?$AAe?$AA?9?$AAn?$AAo@ 1006f440     libucrt:lcidtoname_downlevel.obj
 0002:0000844c       ??_C@_1M@DANKKHJ@?$AAs?$AAe?$AA?9?$AAs?$AAe@ 1006f44c     libucrt:lcidtoname_downlevel.obj
 0002:00008458       ??_C@_1M@PNBLONPJ@?$AAs?$AAk?$AA?9?$AAs?$AAk@ 1006f458     libucrt:lcidtoname_downlevel.obj
 0002:00008464       ??_C@_1M@LFMODOAL@?$AAs?$AAl?$AA?9?$AAs?$AAi@ 1006f464     libucrt:lcidtoname_downlevel.obj
 0002:00008470       ??_C@_1O@DFKOMPG@?$AAs?$AAm?$AAa?$AA?9?$AAn?$AAo@ 1006f470     libucrt:lcidtoname_downlevel.obj
 0002:00008480       ??_C@_1O@NDKPBNNH@?$AAs?$AAm?$AAa?$AA?9?$AAs?$AAe@ 1006f480     libucrt:lcidtoname_downlevel.obj
 0002:00008490       ??_C@_1O@PLLKBHAB@?$AAs?$AAm?$AAj?$AA?9?$AAn?$AAo@ 1006f490     libucrt:lcidtoname_downlevel.obj
 0002:000084a0       ??_C@_1O@CLEPOGCA@?$AAs?$AAm?$AAj?$AA?9?$AAs?$AAe@ 1006f4a0     libucrt:lcidtoname_downlevel.obj
 0002:000084b0       ??_C@_1O@DLGJGKMK@?$AAs?$AAm?$AAn?$AA?9?$AAf?$AAi@ 1006f4b0     libucrt:lcidtoname_downlevel.obj
 0002:000084c0       ??_C@_1O@OJDJGAJC@?$AAs?$AAm?$AAs?$AA?9?$AAf?$AAi@ 1006f4c0     libucrt:lcidtoname_downlevel.obj
 0002:000084d0       ??_C@_1M@BOFOGHPB@?$AAs?$AAq?$AA?9?$AAa?$AAl@ 1006f4d0     libucrt:lcidtoname_downlevel.obj
 0002:000084dc       ??_C@_1BG@LJBBIPGB@?$AAs?$AAr?$AA?9?$AAb?$AAa?$AA?9?$AAc?$AAy?$AAr?$AAl@ 1006f4dc     libucrt:lcidtoname_downlevel.obj
 0002:000084f4       ??_C@_1BG@JLBENFOE@?$AAs?$AAr?$AA?9?$AAb?$AAa?$AA?9?$AAl?$AAa?$AAt?$AAn@ 1006f4f4     libucrt:lcidtoname_downlevel.obj
 0002:0000850c       ??_C@_1BG@KODPNHE@?$AAs?$AAr?$AA?9?$AAs?$AAp?$AA?9?$AAc?$AAy?$AAr?$AAl@ 1006f50c     libucrt:lcidtoname_downlevel.obj
 0002:00008524       ??_C@_1BG@CIOGKHPB@?$AAs?$AAr?$AA?9?$AAs?$AAp?$AA?9?$AAl?$AAa?$AAt?$AAn@ 1006f524     libucrt:lcidtoname_downlevel.obj
 0002:0000853c       ??_C@_1M@NGFJLMAC@?$AAs?$AAv?$AA?9?$AAf?$AAi@ 1006f53c     libucrt:lcidtoname_downlevel.obj
 0002:00008548       ??_C@_1M@MPJEJAJC@?$AAs?$AAv?$AA?9?$AAs?$AAe@ 1006f548     libucrt:lcidtoname_downlevel.obj
 0002:00008554       ??_C@_1M@MPNDHLFK@?$AAs?$AAw?$AA?9?$AAk?$AAe@ 1006f554     libucrt:lcidtoname_downlevel.obj
 0002:00008560       ??_C@_1O@KOHBJJI@?$AAs?$AAy?$AAr?$AA?9?$AAs?$AAy@ 1006f560     libucrt:lcidtoname_downlevel.obj
 0002:00008570       ??_C@_1M@LDCEFHA@?$AAt?$AAa?$AA?9?$AAi?$AAn@ 1006f570     libucrt:lcidtoname_downlevel.obj
 0002:0000857c       ??_C@_1M@CNJOFAK@?$AAt?$AAe?$AA?9?$AAi?$AAn@ 1006f57c     libucrt:lcidtoname_downlevel.obj
 0002:00008588       ??_C@_1M@GNAECACD@?$AAt?$AAh?$AA?9?$AAt?$AAh@ 1006f588     libucrt:lcidtoname_downlevel.obj
 0002:00008594       ??_C@_1M@CHBIHOJO@?$AAt?$AAn?$AA?9?$AAz?$AAa@ 1006f594     libucrt:lcidtoname_downlevel.obj
 0002:000085a0       ??_C@_1M@GCCMIGPJ@?$AAt?$AAr?$AA?9?$AAt?$AAr@ 1006f5a0     libucrt:lcidtoname_downlevel.obj
 0002:000085ac       ??_C@_1M@CELMCNBK@?$AAt?$AAt?$AA?9?$AAr?$AAu@ 1006f5ac     libucrt:lcidtoname_downlevel.obj
 0002:000085b8       ??_C@_1M@KLMCELGA@?$AAu?$AAk?$AA?9?$AAu?$AAa@ 1006f5b8     libucrt:lcidtoname_downlevel.obj
 0002:000085c4       ??_C@_1M@EPAJJAJF@?$AAu?$AAr?$AA?9?$AAp?$AAk@ 1006f5c4     libucrt:lcidtoname_downlevel.obj
 0002:000085d0       ??_C@_1BG@GEGPMCDJ@?$AAu?$AAz?$AA?9?$AAu?$AAz?$AA?9?$AAc?$AAy?$AAr?$AAl@ 1006f5d0     libucrt:lcidtoname_downlevel.obj
 0002:000085e8       ??_C@_1BG@EGGKJILM@?$AAu?$AAz?$AA?9?$AAu?$AAz?$AA?9?$AAl?$AAa?$AAt?$AAn@ 1006f5e8     libucrt:lcidtoname_downlevel.obj
 0002:00008600       ??_C@_1M@GFOCLFF@?$AAv?$AAi?$AA?9?$AAv?$AAn@ 1006f600     libucrt:lcidtoname_downlevel.obj
 0002:0000860c       ??_C@_1M@CPAMEDFI@?$AAx?$AAh?$AA?9?$AAz?$AAa@ 1006f60c     libucrt:lcidtoname_downlevel.obj
 0002:00008618       ??_C@_1O@EBKIFIGN@?$AAz?$AAh?$AA?9?$AAc?$AAh?$AAs@ 1006f618     libucrt:lcidtoname_downlevel.obj
 0002:00008628       ??_C@_1O@NMHPGANE@?$AAz?$AAh?$AA?9?$AAc?$AAh?$AAt@ 1006f628     libucrt:lcidtoname_downlevel.obj
 0002:00008638       ??_C@_1M@LPINJOMC@?$AAz?$AAh?$AA?9?$AAc?$AAn@ 1006f638     libucrt:lcidtoname_downlevel.obj
 0002:00008644       ??_C@_1M@OCJEJODD@?$AAz?$AAh?$AA?9?$AAh?$AAk@ 1006f644     libucrt:lcidtoname_downlevel.obj
 0002:00008650       ??_C@_1M@DNDLJINH@?$AAz?$AAh?$AA?9?$AAm?$AAo@ 1006f650     libucrt:lcidtoname_downlevel.obj
 0002:0000865c       ??_C@_1M@MBFDNDND@?$AAz?$AAh?$AA?9?$AAs?$AAg@ 1006f65c     libucrt:lcidtoname_downlevel.obj
 0002:00008668       ??_C@_1M@IMEPLEPE@?$AAz?$AAh?$AA?9?$AAt?$AAw@ 1006f668     libucrt:lcidtoname_downlevel.obj
 0002:00008674       ??_C@_1M@BBGHNHJP@?$AAz?$AAu?$AA?9?$AAz?$AAa@ 1006f674     libucrt:lcidtoname_downlevel.obj
 0002:000086a8       ___acrt_pow_rcp_t1         1006f6a8     libucrt:pow_tables.obj
 0002:00008ac0       ___acrt_pow_log2_t1        1006fac0     libucrt:pow_tables.obj
 0002:000092d0       ___acrt_pow_rcp_t2         100702d0     libucrt:pow_tables.obj
 0002:000096e0       ___acrt_pow_log2_t2        100706e0     libucrt:pow_tables.obj
 0002:00009ef0       ___acrt_pow_rcp_t3         10070ef0     libucrt:pow_tables.obj
 0002:0000a700       ___acrt_pow_log2_t3        10071700     libucrt:pow_tables.obj
 0002:0000b710       ___acrt_pow_clv            10072710     libucrt:pow_tables.obj
 0002:0000b730       ___acrt_pow_exp2_tbl       10072730     libucrt:pow_tables.obj
 0002:0000bf88       ??_C@_1BA@BALFACEM@?$AAC?$AAO?$AAN?$AAO?$AAU?$AAT?$AA$@ 10072f88     libucrt:initcon.obj
 0002:0000c0a0       ___acrt_log10_table_t      100730a0     libucrt:log10_tables.obj
 0002:0000c4b0       ___acrt_log10_table_cb     100734b0     libucrt:log10_tables.obj
 0002:000463a8       ??_C@_0BC@EOODALEL@Unknown?5exception@ 100ad3a8     Aimbot.obj
 0002:000463bc       ??_C@_0BF@KINCDENJ@bad?5array?5new?5length@ 100ad3bc     Aimbot.obj
 0002:000463d4       ??_C@_0BC@KBDMBKEH@deque?$DMT?$DO?5too?5long@ 100ad3d4     Aimbot.obj
 0002:000463e8       ??_C@_0BA@JFNIOLAK@string?5too?5long@ 100ad3e8     Cvars.obj
 0002:000463f8       ??_C@_02LMMGGCAJ@?3?5@     100ad3f8     Menu.obj
 0002:00046400       ??_7_System_error@std@@6B@ 100ad400     Menu.obj
 0002:0004640c       ??_7system_error@std@@6B@  100ad40c     Menu.obj
 0002:00046414       ??_C@_00CNPNBAHC@@         100ad414     World.obj
 0002:00046418       ??_C@_08LLGCOLLL@iostream@ 100ad418     World.obj
 0002:00046424       ??_C@_08EPJLHIJG@bad?5cast@ 100ad424     World.obj
 0002:00046430       ??_C@_0BA@ELKIONDK@bad?5locale?5name@ 100ad430     World.obj
 0002:00046440       ??_C@_0BF@PHHKMMFD@ios_base?3?3badbit?5set@ 100ad440     World.obj
 0002:00046458       ??_C@_0BG@FMKFHCIL@ios_base?3?3failbit?5set@ 100ad458     World.obj
 0002:00046470       ??_C@_0BF@OOHOMBOF@ios_base?3?3eofbit?5set@ 100ad470     World.obj
 0002:00046488       ??_C@_0BI@CFPLBAOH@invalid?5string?5position@ 100ad488     World.obj
 0002:000464a4       ??_7?$basic_streambuf@DU?$char_traits@D@std@@@std@@6B@ 100ad4a4     World.obj
 0002:000464e0       ?_Iostream_error@?4??message@_Iostream_error_category2@std@@UBE?AV?$basic_string@DU?$char_traits@D@std@@V?$allocator@D@2@@3@H@Z@4QBDB 100ad4e0     World.obj
 0002:000464fc       ??_7ios_base@std@@6B@      100ad4fc     World.obj
 0002:00046500       ??_8?$basic_istream@DU?$char_traits@D@std@@@std@@7B@ 100ad500     World.obj
 0002:0004650c       ??_7?$basic_filebuf@DU?$char_traits@D@std@@@std@@6B@ 100ad50c     World.obj
 0002:0004654c       ??_7?$basic_ios@DU?$char_traits@D@std@@@std@@6B@ 100ad54c     World.obj
 0002:00046554       ??_7_Iostream_error_category2@std@@6B@ 100ad554     World.obj
 0002:0004656c       ??_8?$basic_ifstream@DU?$char_traits@D@std@@@std@@7B@ 100ad56c     World.obj
 0002:00046578       ??_7?$basic_istream@DU?$char_traits@D@std@@@std@@6B@ 100ad578     World.obj
 0002:00046580       ??_7?$basic_ifstream@DU?$char_traits@D@std@@@std@@6B@ 100ad580     World.obj
 0002:00046588       ??_7failure@ios_base@std@@6B@ 100ad588     World.obj
 0002:00046594       ??_7configor_type_error@configor@@6B@ 100ad594     Pipi_edit.obj
 0002:000465a0       ??_7?$basic_serializer@V?$basic_config@Ujson_args@configor@@@configor@@@configor@@6B@ 100ad5a0     Pipi_edit.obj
 0002:000465b8       ??_7configor_serialization_error@configor@@6B@ 100ad5b8     Pipi_edit.obj
 0002:000465c4       ??_7?$fast_string_istreambuf@D@detail@configor@@6B@ 100ad5c4     Pipi_edit.obj
 0002:00046604       ??_7configor_exception@configor@@6B@ 100ad604     Pipi_edit.obj
 0002:00046610       ?utf8_extra_bytes@?1??decode@?$utf8@D@encoding@configor@@SA_NAAV?$basic_istream@DU?$char_traits@D@std@@@std@@AAI@Z@4V?$array@E$0BAA@@6@B 100ad610     Pipi_edit.obj
 0002:00046714       ??_7?$basic_ofstream@DU?$char_traits@D@std@@@std@@6B@ 100ad714     Pipi_edit.obj
 0002:00046718       ??_8?$basic_ofstream@DU?$char_traits@D@std@@@std@@7B@ 100ad718     Pipi_edit.obj
 0002:00046724       ??_7?$fast_string_ostreambuf@D@detail@configor@@6B@ 100ad724     Pipi_edit.obj
 0002:00046764       ??_7?$fast_basic_ostringstream@D@detail@configor@@6B@ 100ad764     Pipi_edit.obj
 0002:00046768       ??_8?$basic_ostream@DU?$char_traits@D@std@@@std@@7B@ 100ad768     Pipi_edit.obj
 0002:00046770       ?_BUF_SIZE@?$basic_string@DU?$char_traits@D@std@@V?$allocator@D@2@@std@@0IB 100ad770     Pipi_edit.obj
 0002:00046778       ??_7configor_invalid_key@configor@@6B@ 100ad778     Pipi_edit.obj
 0002:00046784       ??_7?$json_serializer@V?$basic_config@Ujson_args@configor@@@configor@@@detail@configor@@6B@ 100ad784     Pipi_edit.obj
 0002:0004679c       ??_7?$basic_ostream@DU?$char_traits@D@std@@@std@@6B@ 100ad79c     Pipi_edit.obj
 0002:000467a0       ?utf8_offsets@?1??decode@?$utf8@D@encoding@configor@@SA_NAAV?$basic_istream@DU?$char_traits@D@std@@@std@@AAI@Z@4V?$array@I$05@6@B 100ad7a0     Pipi_edit.obj
 0002:000467b8       ??_8?$fast_basic_ostringstream@D@detail@configor@@7B@ 100ad7b8     Pipi_edit.obj
 0002:000467c0       ??_C@_05LAPONLG@false@     100ad7c0     Pipi_edit.obj
 0002:000467c8       ??_C@_04LOAJBDKD@true@     100ad7c8     Pipi_edit.obj
 0002:000467d0       ??_C@_0BB@GCADKGJO@map?1set?5too?5long@ 100ad7d0     Pipi_edit.obj
 0002:000467e4       ??_C@_0BE@MJELODJL@config?5type?5error?3?5@ 100ad7e4     Pipi_edit.obj
 0002:000467f8       ??_C@_0BL@ELAMKLNB@invalid?5config?5key?5error?3?5@ 100ad7f8     Pipi_edit.obj
 0002:00046814       ??_C@_0BN@KKJHBKHM@config?5serialization?5error?3?5@ 100ad814     Pipi_edit.obj
 0002:00046834       ??_C@_01GEODFPGF@?8@       100ad834     Pipi_edit.obj
 0002:00046838       ??_C@_02OCDGNCGI@?5?8@     100ad838     Pipi_edit.obj
 0002:0004683c       ??_C@_0CE@FJCOPEDA@initializer_list?5is?5not?5object?5@ 100ad83c     Pipi_edit.obj
 0002:00046860       ??_C@_0BF@IPEBGEBJ@unexpected?5character@ 100ad860     Pipi_edit.obj
 0002:00046878       ??_C@_0BP@BHNJKPJG@encoding?5failed?5with?5codepoint@ 100ad878     Pipi_edit.obj
 0002:00046898       ??_C@_02BBAHNLBA@?$CFp@    100ad898     Pipi_edit.obj
 0002:0004689c       ??_C@_02CLHGNPPK@Lu@       100ad89c     Pipi_edit.obj
 0002:000468a0       ??_C@_02HIKPPMOK@Ld@       100ad8a0     Pipi_edit.obj
 0002:000468a4       ??_C@_02BDDLJJBK@lu@       100ad8a4     Pipi_edit.obj
 0002:000468a8       ??_C@_02EAOCLKAK@ld@       100ad8a8     Pipi_edit.obj
 0002:000468ac       ??_C@_02ONCLHLPE@?40@      100ad8ac     Pipi_edit.obj
 0002:000468b0       ??_C@_02MDKMJEGG@eE@       100ad8b0     Pipi_edit.obj
 0002:000468b4       ??_C@_02OOPEBDOJ@pP@       100ad8b4     Pipi_edit.obj
 0002:000468b8       ??_C@_01LFCBOECM@?4@       100ad8b8     Pipi_edit.obj
 0002:000468bc       ??_C@_0BA@FOIKENOD@vector?5too?5long@ 100ad8bc     Pipi_edit.obj
 0002:000468cc       ??_C@_0CG@BNBDPOFI@operator?$FL?$FN?5called?5on?5a?5non?9arra@ 100ad8cc     Pipi_edit.obj
 0002:000468f4       ??_C@_0BO@PIHPJJFL@operator?$FL?$FN?5index?5out?5of?5range@ 100ad8f4     Pipi_edit.obj
 0002:00046914       ??_C@_0BJ@DHFDPMIM@invalid?5vector?5subscript@ 100ad914     Pipi_edit.obj
 0002:00046930       __real@00000000            100ad930     OpenGL.obj
 0002:00046938       __real@0000000000000000    100ad938     OpenGL.obj
 0002:00046940       __real@3a83126f            100ad940     Weapons.obj
 0002:00046944       __real@3be56042            100ad944     Weapons.obj
 0002:00046948       __real@3c23d70a            100ad948     Weapons.obj
 0002:0004694c       __real@3c8efa35            100ad94c     Visuals.obj
 0002:00046950       __real@3cb851ec            100ad950     Weapons.obj
 0002:00046954       __real@3ccccccd            100ad954     Weapons.obj
 0002:00046958       __real@3d0f5c29            100ad958     Weapons.obj
 0002:0004695c       __real@3d4ccccd            100ad95c     Misc.obj
 0002:00046960       __real@3d6147ae            100ad960     Weapons.obj
 0002:00046964       __real@3d75c28f            100ad964     Visuals.obj
 0002:00046968       __real@3d99999a            100ad968     Weapons.obj
 0002:0004696c       __real@3da3d70a            100ad96c     Weapons.obj
 0002:00046970       __real@3dcccccd            100ad970     Weapons.obj
 0002:00046974       __real@3e19999a            100ad974     Weapons.obj
 0002:00046978       __real@3e45798ee2308c3a    100ad978     Utils.obj
 0002:00046980       __real@3e4ccccd            100ad980     Weapons.obj
 0002:00046984       __real@3e800000            100ad984     Weapons.obj
 0002:00046988       __real@3e8ccccd            100ad988     Weapons.obj
 0002:0004698c       __real@3e99999a            100ad98c     Weapons.obj
 0002:00046990       __real@3ea66666            100ad990     Weapons.obj
 0002:00046994       __real@3eb33333            100ad994     Weapons.obj
 0002:00046998       __real@3ecccccd            100ad998     Weapons.obj
 0002:0004699c       __real@3ee66666            100ad99c     Weapons.obj
 0002:000469a0       __real@3f000000            100ad9a0     Weapons.obj
 0002:000469a4       __real@3f0ccccd            100ad9a4     Weapons.obj
 0002:000469a8       __real@3f19999a            100ad9a8     Weapons.obj
 0002:000469ac       __real@3f266666            100ad9ac     Weapons.obj
 0002:000469b0       __real@3f39999a            100ad9b0     Weapons.obj
 0002:000469b4       __real@3f400000            100ad9b4     Weapons.obj
 0002:000469b8       __real@3f490fdb            100ad9b8     Misc.obj
 0002:000469bc       __real@3f4a3d71            100ad9bc     Weapons.obj
 0002:000469c0       __real@3f4ccccd            100ad9c0     Weapons.obj
 0002:000469c4       __real@3f4f5c29            100ad9c4     Weapons.obj
 0002:000469c8       __real@3f50624dd2f1a9fc    100ad9c8     Vector.obj
 0002:000469d0       __real@3f51eb85            100ad9d0     Weapons.obj
 0002:000469d4       __real@3f570a3d            100ad9d4     Weapons.obj
 0002:000469d8       __real@3f59999a            100ad9d8     Weapons.obj
 0002:000469dc       __real@3f6147ae            100ad9dc     Weapons.obj
 0002:000469e0       __real@3f628f5c            100ad9e0     Weapons.obj
 0002:000469e4       __real@3f666666            100ad9e4     Weapons.obj
 0002:000469e8       __real@3f6b851f            100ad9e8     Weapons.obj
 0002:000469ec       __real@3f733333            100ad9ec     Weapons.obj
 0002:000469f0       __real@3f747ae1            100ad9f0     Weapons.obj
 0002:000469f4       __real@3f75c28f            100ad9f4     Weapons.obj
 0002:000469f8       __real@3f7851ec            100ad9f8     Weapons.obj
 0002:000469fc       __real@3f7ae148            100ad9fc     Weapons.obj
 0002:00046a00       __real@3f7d70a4            100ada00     Weapons.obj
 0002:00046a04       __real@3f800000            100ada04     Visuals.obj
 0002:00046a08       __real@3f91df46a2529d39    100ada08     QAngle.obj
 0002:00046a10       __real@3f947ae147ae147b    100ada10     Weapons.obj
 0002:00046a18       __real@3f9999999999999a    100ada18     Weapons.obj
 0002:00046a20       __real@3f99999a            100ada20     Systems.obj
 0002:00046a28       __real@3f9c28f5c28f5c29    100ada28     Weapons.obj
 0002:00046a30       __real@3f9eb851eb851eb8    100ada30     Weapons.obj
 0002:00046a38       __real@3fa00000            100ada38     Weapons.obj
 0002:00046a40       __real@3fa1eb851eb851ec    100ada40     Weapons.obj
 0002:00046a48       __real@3fa3333333333333    100ada48     Weapons.obj
 0002:00046a50       __real@3fa47ae147ae147b    100ada50     Weapons.obj
 0002:00046a58       __real@3fa70a3d70a3d70a    100ada58     Weapons.obj
 0002:00046a60       __real@3fa999999999999a    100ada60     Weapons.obj
 0002:00046a68       __real@3fb1eb851eb851ec    100ada68     Weapons.obj
 0002:00046a70       __real@3fb33333            100ada70     Weapons.obj
 0002:00046a78       __real@3fb3333333333333    100ada78     Weapons.obj
 0002:00046a80       __real@3fb47ae147ae147b    100ada80     Weapons.obj
 0002:00046a88       __real@3fb851eb851eb852    100ada88     Weapons.obj
 0002:00046a90       __real@3fb999999999999a    100ada90     Weapons.obj
 0002:00046a98       __real@3fbd70a3d70a3d71    100ada98     Weapons.obj
 0002:00046aa0       __real@3fc0000000000000    100adaa0     parsemsg.obj
 0002:00046aa8       __real@3fc0a3d70a3d70a4    100adaa8     Weapons.obj
 0002:00046ab0       __real@3fc3333333333333    100adab0     Weapons.obj
 0002:00046ab8       __real@3fc51eb851eb851f    100adab8     Weapons.obj
 0002:00046ac0       __real@3fc6666666666666    100adac0     Weapons.obj
 0002:00046ac8       __real@3fc7ae147ae147ae    100adac8     Weapons.obj
 0002:00046ad0       __real@3fc999999999999a    100adad0     Weapons.obj
 0002:00046ad8       __real@3fcccccccccccccd    100adad8     Weapons.obj
 0002:00046ae0       __real@3fceb851eb851eb8    100adae0     Weapons.obj
 0002:00046ae8       __real@3fd0000000000000    100adae8     Weapons.obj
 0002:00046af0       __real@3fd051eb851eb852    100adaf0     Weapons.obj
 0002:00046af8       __real@3fd33333            100adaf8     Weapons.obj
 0002:00046b00       __real@3fd3333333333333    100adb00     Weapons.obj
 0002:00046b08       __real@3fd8000000000000    100adb08     Weapons.obj
 0002:00046b10       __real@3fd999999999999a    100adb10     Weapons.obj
 0002:00046b18       __real@3fdcccccc0000000    100adb18     Weapons.obj
 0002:00046b20       __real@3fdccccccccccccd    100adb20     Weapons.obj
 0002:00046b28       __real@3fe00000            100adb28     Visuals.obj
 0002:00046b30       __real@3fe0000000000000    100adb30     Visuals.obj
 0002:00046b38       __real@3fe4cccccccccccd    100adb38     Utils.obj
 0002:00046b40       __real@3fe6666666666666    100adb40     Systems.obj
 0002:00046b48       __real@3fe8000000000000    100adb48     Utils.obj
 0002:00046b50       __real@3fec71c71c71c71c    100adb50     Visuals.obj
 0002:00046b58       __real@3feccccccccccccd    100adb58     Visuals.obj
 0002:00046b60       __real@3ff0000000000000    100adb60     OpenGL.obj
 0002:00046b68       __real@3ff1c71c71c71c72    100adb68     Visuals.obj
 0002:00046b70       __real@3ff3333333333333    100adb70     Weapons.obj
 0002:00046b78       __real@3ff4cccccccccccd    100adb78     Weapons.obj
 0002:00046b80       __real@3ff8000000000000    100adb80     Weapons.obj
 0002:00046b88       __real@3ffb333333333333    100adb88     NoFlash.obj
 0002:00046b90       __real@40000000            100adb90     OpenGL.obj
 0002:00046b98       __real@4000000000000000    100adb98     NoSpread.obj
 0002:00046ba0       __real@400921fb54442d18    100adba0     Utils.obj
 0002:00046ba8       __real@401921fb54442d18    100adba8     Drawing.obj
 0002:00046bb0       __real@4023d70a            100adbb0     Systems.obj
 0002:00046bb8       __real@4024000000000000    100adbb8     Cvars.obj
 0002:00046bc0       __real@402c000000000000    100adbc0     World.obj
 0002:00046bc8       __real@40400000            100adbc8     Cvars.obj
 0002:00046bd0       __real@4046800000000000    100adbd0     NoSpread.obj
 0002:00046bd8       __real@4066800000000000    100adbd8     Utils.obj
 0002:00046be0       __real@406b833333333333    100adbe0     Weapons.obj
 0002:00046be8       __real@40700000            100adbe8     Visuals.obj
 0002:00046bf0       __real@4072c00000000000    100adbf0     Systems.obj
 0002:00046bf8       __real@4076800000000000    100adbf8     Systems.obj
 0002:00046c00       __real@40800000            100adc00     Misc.obj
 0002:00046c04       __real@40a00000            100adc04     Misc.obj
 0002:00046c08       __real@40c00000            100adc08     Misc.obj
 0002:00046c0c       __real@40c90fdb            100adc0c     Drawing.obj
 0002:00046c10       __real@40e00000            100adc10     Misc.obj
 0002:00046c14       __real@41000000            100adc14     Visuals.obj
 0002:00046c18       __real@41200000            100adc18     Weapons.obj
 0002:00046c1c       __real@41400000            100adc1c     Client.obj
 0002:00046c20       __real@41500000            100adc20     Visuals.obj
 0002:00046c24       __real@41600000            100adc24     Visuals.obj
 0002:00046c28       __real@41700000            100adc28     Systems.obj
 0002:00046c2c       __real@41800000            100adc2c     Client.obj
 0002:00046c30       __real@41880000            100adc30     Client.obj
 0002:00046c34       __real@41900000            100adc34     World.obj
 0002:00046c38       __real@41a00000            100adc38     World.obj
 0002:00046c3c       __real@41c80000            100adc3c     Visuals.obj
 0002:00046c40       __real@41f00000            100adc40     Visuals.obj
 0002:00046c44       __real@42000000            100adc44     Client.obj
 0002:00046c48       __real@4202a05f20000000    100adc48     Pipi_edit.obj
 0002:00046c50       __real@42080000            100adc50     Visuals.obj
 0002:00046c54       __real@42100000            100adc54     Client.obj
 0002:00046c58       __real@42280000            100adc58     Utils.obj
 0002:00046c5c       __real@42340000            100adc5c     Visuals.obj
 0002:00046c60       __real@42480000            100adc60     Systems.obj
 0002:00046c64       __real@42580000            100adc64     Visuals.obj
 0002:00046c68       __real@42652ee0            100adc68     Misc.obj
 0002:00046c6c       __real@42800000            100adc6c     World.obj
 0002:00046c70       __real@42820000            100adc70     Systems.obj
 0002:00046c74       __real@42aa0000            100adc74     Cvars.obj
 0002:00046c78       __real@42b00000            100adc78     Misc.obj
 0002:00046c7c       __real@42b20000            100adc7c     Utils.obj
 0002:00046c80       __real@42b40000            100adc80     Visuals.obj
 0002:00046c84       __real@42c80000            100adc84     Cvars.obj
 0002:00046c88       __real@42da0000            100adc88     Cvars.obj
 0002:00046c8c       __real@43000000            100adc8c     Misc.obj
 0002:00046c90       __real@430c0000            100adc90     Weapons.obj
 0002:00046c94       __real@43190000            100adc94     Cvars.obj
 0002:00046c98       __real@432a0000            100adc98     Weapons.obj
 0002:00046c9c       __real@43340000            100adc9c     Aimbot.obj
 0002:00046ca0       __real@43480000            100adca0     Cvars.obj
 0002:00046ca4       __real@437f0000            100adca4     OpenGL.obj
 0002:00046ca8       __real@43870000            100adca8     Utils.obj
 0002:00046cac       __real@43af0000            100adcac     World.obj
 0002:00046cb0       __real@43b40000            100adcb0     Aimbot.obj
 0002:00046cb4       __real@43fa0000            100adcb4     Visuals.obj
 0002:00046cb8       __real@44480000            100adcb8     Systems.obj
 0002:00046cbc       __real@447a0000            100adcbc     NoSpread.obj
 0002:00046cc0       __real@44834000            100adcc0     World.obj
 0002:00046cc4       __real@44c80000            100adcc4     Systems.obj
 0002:00046cc8       __real@44dac000            100adcc8     World.obj
 0002:00046ccc       __real@44fa0000            100adccc     Utils.obj
 0002:00046cd0       __real@45000000            100adcd0     World.obj
 0002:00046cd4       __real@453b8000            100adcd4     Weapons.obj
 0002:00046cd8       __real@453e8000            100adcd8     Weapons.obj
 0002:00046cdc       __real@457a0000            100adcdc     Utils.obj
 0002:00046ce0       __real@45800000            100adce0     Weapons.obj
 0002:00046ce4       __real@459c4000            100adce4     Utils.obj
 0002:00046ce8       __real@45fa0000            100adce8     Utils.obj
 0002:00046cec       __real@46000000            100adcec     Weapons.obj
 0002:00046cf0       __real@461c3c00            100adcf0     Systems.obj
 0002:00046cf4       __real@47800000            100adcf4     NoSpread.obj
 0002:00046cf8       __real@7f7fffff            100adcf8     Utils.obj
 0002:00046cfc       __real@bf000000            100adcfc     NoSpread.obj
 0002:00046d00       __real@bf800000            100add00     Utils.obj
 0002:00046d08       __real@bff0000000000000    100add08     NoSpread.obj
 0002:00046d10       __real@c024000000000000    100add10     Visuals.obj
 0002:00046d18       __real@c072c00000000000    100add18     Systems.obj
 0002:00046d20       __real@c1000000            100add20     Utils.obj
 0002:00046d24       __real@c1800000            100add24     Client.obj
 0002:00046d28       __real@c2100000            100add28     Client.obj
 0002:00046d2c       __real@c2b00000            100add2c     Misc.obj
 0002:00046d30       __real@c2b20000            100add30     Utils.obj
 0002:00046d34       __real@c2b40000            100add34     Utils.obj
 0002:00046d38       __real@c3340000            100add38     Aimbot.obj
 0002:00046d3c       __real@c5800000            100add3c     World.obj
 0002:00046d40       __real@ff7fffff            100add40     Utils.obj
 0002:00046d50       __xmm@41f00000000000000000000000000000 100add50     NoSpread.obj
 0002:00046d60       __xmm@7fffffffffffffff7fffffffffffffff 100add60     Pipi_edit.obj
 0002:00046d70       __xmm@80000000000000008000000000000000 100add70     Cvars.obj
 0002:00046d80       __xmm@80000000800000008000000080000000 100add80     Utils.obj
 0002:00046db0       __OP_FMODjmptab            100addb0     libucrt:87fmod_impl.obj
 0002:00047320       __OP_ATAN2jmptab           100ae320     libucrt:87triga.obj
 0002:000473b0       ___acrt_acos_asin_tbl_addr 100ae3b0     libucrt:acos_asin_tbl_addr.obj
 0002:000482b0       ___acrt_acos_asin_t_table  100af2b0     libucrt:acos_asin_t_table.obj
 0002:00048ac0       ___acrt_cos_sin_ctable     100afac0     libucrt:cos_sin_ctable.obj
 0002:000492e0       ___acrt_tan_ctable         100b02e0     libucrt:tan_tables.obj
 0002:0004ac70       __load_config_used         100b1c70     LIBCMT:loadcfg.obj
 0002:0004ad40       __tls_used                 100b1d40     LIBCMT:tlssup.obj
 0002:0004ad58       ??_R4length_error@std@@6B@ 100b1d58     libcpmt:xthrow.obj
 0002:0004ad6c       ??_R3length_error@std@@8   100b1d6c     libcpmt:xthrow.obj
 0002:0004ad7c       ??_R2length_error@std@@8   100b1d7c     libcpmt:xthrow.obj
 0002:0004ad8c       ??_R1A@?0A@EA@length_error@std@@8 100b1d8c     libcpmt:xthrow.obj
 0002:0004ada8       ??_R4_Locimp@locale@std@@6B@ 100b1da8     libcpmt:locale0.obj
 0002:0004adbc       ??_R3_Locimp@locale@std@@8 100b1dbc     libcpmt:locale0.obj
 0002:0004adcc       ??_R2_Locimp@locale@std@@8 100b1dcc     libcpmt:locale0.obj
 0002:0004ade0       ??_R1A@?0A@EA@_Locimp@locale@std@@8 100b1de0     libcpmt:locale0.obj
 0002:0004adfc       ??_R4bad_exception@std@@6B@ 100b1dfc     libcpmt:excptptr.obj
 0002:0004ae10       ??_R3bad_exception@std@@8  100b1e10     libcpmt:excptptr.obj
 0002:0004ae20       ??_R2bad_exception@std@@8  100b1e20     libcpmt:excptptr.obj
 0002:0004ae2c       ??_R1A@?0A@EA@bad_exception@std@@8 100b1e2c     libcpmt:excptptr.obj
 0002:0004ae48       ??_R3_Ref_count_base@std@@8 100b1e48     libcpmt:excptptr.obj
 0002:0004ae58       ??_R2_Ref_count_base@std@@8 100b1e58     libcpmt:excptptr.obj
 0002:0004ae60       ??_R1A@?0A@EA@_Ref_count_base@std@@8 100b1e60     libcpmt:excptptr.obj
 0002:0004af60       ??_R4type_info@@6B@        100b1f60     LIBCMT:std_type_info_static.obj
 0002:0004af74       ??_R3type_info@@8          100b1f74     LIBCMT:std_type_info_static.obj
 0002:0004af84       ??_R2type_info@@8          100b1f84     LIBCMT:std_type_info_static.obj
 0002:0004af8c       ??_R1A@?0A@EA@type_info@@8 100b1f8c     LIBCMT:std_type_info_static.obj
 0002:0004afa8       ??_R4exception@std@@6B@    100b1fa8     Aimbot.obj
 0002:0004afbc       ??_R2bad_array_new_length@std@@8 100b1fbc     Aimbot.obj
 0002:0004afcc       ??_R2bad_alloc@std@@8      100b1fcc     Aimbot.obj
 0002:0004afd8       ??_R1A@?0A@EA@exception@std@@8 100b1fd8     Aimbot.obj
 0002:0004aff4       ??_R1A@?0A@EA@bad_alloc@std@@8 100b1ff4     Aimbot.obj
 0002:0004b010       ??_R2exception@std@@8      100b2010     Aimbot.obj
 0002:0004b018       ??_R3exception@std@@8      100b2018     Aimbot.obj
 0002:0004b028       ??_R4bad_alloc@std@@6B@    100b2028     Aimbot.obj
 0002:0004b03c       ??_R3bad_array_new_length@std@@8 100b203c     Aimbot.obj
 0002:0004b04c       ??_R3bad_alloc@std@@8      100b204c     Aimbot.obj
 0002:0004b05c       ??_R4bad_array_new_length@std@@6B@ 100b205c     Aimbot.obj
 0002:0004b070       ??_R1A@?0A@EA@bad_array_new_length@std@@8 100b2070     Aimbot.obj
 0002:0004b08c       ??_R2system_error@std@@8   100b208c     Menu.obj
 0002:0004b0a0       ??_R1A@?0A@EA@system_error@std@@8 100b20a0     Menu.obj
 0002:0004b0bc       ??_R4runtime_error@std@@6B@ 100b20bc     Menu.obj
 0002:0004b0d0       ??_R4_System_error@std@@6B@ 100b20d0     Menu.obj
 0002:0004b0e4       ??_R1A@?0A@EA@runtime_error@std@@8 100b20e4     Menu.obj
 0002:0004b100       ??_R2_System_error@std@@8  100b2100     Menu.obj
 0002:0004b110       ??_R4system_error@std@@6B@ 100b2110     Menu.obj
 0002:0004b124       ??_R3_System_error@std@@8  100b2124     Menu.obj
 0002:0004b134       ??_R2error_category@std@@8 100b2134     Menu.obj
 0002:0004b13c       ??_R1A@?0A@EA@_System_error@std@@8 100b213c     Menu.obj
 0002:0004b158       ??_R3error_category@std@@8 100b2158     Menu.obj
 0002:0004b168       ??_R2runtime_error@std@@8  100b2168     Menu.obj
 0002:0004b174       ??_R3system_error@std@@8   100b2174     Menu.obj
 0002:0004b184       ??_R3runtime_error@std@@8  100b2184     Menu.obj
 0002:0004b194       ??_R1A@?0A@EA@error_category@std@@8 100b2194     Menu.obj
 0002:0004b1b0       ??_R3?$basic_istream@DU?$char_traits@D@std@@@std@@8 100b21b0     World.obj
 0002:0004b1c0       ??_R4facet@locale@std@@6B@ 100b21c0     World.obj
 0002:0004b1d4       ??_R3?$ctype@D@std@@8      100b21d4     World.obj
 0002:0004b1e4       ??_R1A@?0A@EA@?$basic_istream@DU?$char_traits@D@std@@@std@@8 100b21e4     World.obj
 0002:0004b200       ??_R3_Facet_base@std@@8    100b2200     World.obj
 0002:0004b210       ??_R1A@?0A@EA@bad_cast@std@@8 100b2210     World.obj
 0002:0004b22c       ??_R3?$basic_ifstream@DU?$char_traits@D@std@@@std@@8 100b222c     World.obj
 0002:0004b23c       ??_R3_Crt_new_delete@std@@8 100b223c     World.obj
 0002:0004b24c       ??_R2?$codecvt@DDU_Mbstatet@@@std@@8 100b224c     World.obj
 0002:0004b264       ??_R13?0A@EA@_Crt_new_delete@std@@8 100b2264     World.obj
 0002:0004b280       ??_R1A@?0A@EA@?$basic_ifstream@DU?$char_traits@D@std@@@std@@8 100b2280     World.obj
 0002:0004b29c       ??_R17A@3EA@?$_Iosb@H@std@@8 100b229c     World.obj
 0002:0004b2b8       ??_R4ios_base@std@@6B@     100b22b8     World.obj
 0002:0004b2cc       ??_R1A@?0A@EA@?$basic_streambuf@DU?$char_traits@D@std@@@std@@8 100b22cc     World.obj
 0002:0004b2e8       ??_R1A@?0A@EA@_Facet_base@std@@8 100b22e8     World.obj
 0002:0004b304       ??_R2?$basic_istream@DU?$char_traits@D@std@@@std@@8 100b2304     World.obj
 0002:0004b318       ??_R4?$basic_ios@DU?$char_traits@D@std@@@std@@6B@ 100b2318     World.obj
 0002:0004b32c       ??_R2bad_cast@std@@8       100b232c     World.obj
 0002:0004b338       ??_R4failure@ios_base@std@@6B@ 100b2338     World.obj
 0002:0004b34c       ??_R3?$basic_ios@DU?$char_traits@D@std@@@std@@8 100b234c     World.obj
 0002:0004b35c       ??_R4_Iostream_error_category2@std@@6B@ 100b235c     World.obj
 0002:0004b370       ??_R1A@?0A@EA@_Iostream_error_category2@std@@8 100b2370     World.obj
 0002:0004b38c       ??_R1A@?0A@EA@facet@locale@std@@8 100b238c     World.obj
 0002:0004b3a8       ??_R2failure@ios_base@std@@8 100b23a8     World.obj
 0002:0004b3c0       ??_R3failure@ios_base@std@@8 100b23c0     World.obj
 0002:0004b3d0       ??_R2codecvt_base@std@@8   100b23d0     World.obj
 0002:0004b3e4       ??_R2?$ctype@D@std@@8      100b23e4     World.obj
 0002:0004b3fc       ??_R1A@?0A@EA@codecvt_base@std@@8 100b23fc     World.obj
 0002:0004b418       ??_R4?$basic_ifstream@DU?$char_traits@D@std@@@std@@6B@ 100b2418     World.obj
 0002:0004b42c       ??_R1A@?0A@EA@ios_base@std@@8 100b242c     World.obj
 0002:0004b448       ??_R3codecvt_base@std@@8   100b2448     World.obj
 0002:0004b458       ??_R4?$basic_filebuf@DU?$char_traits@D@std@@@std@@6B@ 100b2458     World.obj
 0002:0004b46c       ??_R1A@?0A@EA@failure@ios_base@std@@8 100b246c     World.obj
 0002:0004b488       ??_R2?$basic_streambuf@DU?$char_traits@D@std@@@std@@8 100b2488     World.obj
 0002:0004b490       ??_R1A@?0A@EA@?$_Iosb@H@std@@8 100b2490     World.obj
 0002:0004b4ac       ??_R3facet@locale@std@@8   100b24ac     World.obj
 0002:0004b4bc       ??_R3ctype_base@std@@8     100b24bc     World.obj
 0002:0004b4cc       ??_R3bad_cast@std@@8       100b24cc     World.obj
 0002:0004b4dc       ??_R4ctype_base@std@@6B@   100b24dc     World.obj
 0002:0004b4f0       ??_R4bad_cast@std@@6B@     100b24f0     World.obj
 0002:0004b504       ??_R1A@?0A@EA@_Crt_new_delete@std@@8 100b2504     World.obj
 0002:0004b520       ??_R3?$codecvt@DDU_Mbstatet@@@std@@8 100b2520     World.obj
 0002:0004b530       ??_R4_Facet_base@std@@6B@  100b2530     World.obj
 0002:0004b544       ??_R1A@?0A@EA@?$basic_filebuf@DU?$char_traits@D@std@@@std@@8 100b2544     World.obj
 0002:0004b560       ??_R3_Iostream_error_category2@std@@8 100b2560     World.obj
 0002:0004b570       ??_R1A@A@3FA@?$basic_ios@DU?$char_traits@D@std@@@std@@8 100b2570     World.obj
 0002:0004b58c       ??_R3?$basic_filebuf@DU?$char_traits@D@std@@@std@@8 100b258c     World.obj
 0002:0004b59c       ??_R4?$basic_streambuf@DU?$char_traits@D@std@@@std@@6B@ 100b259c     World.obj
 0002:0004b5b0       ??_R2ios_base@std@@8       100b25b0     World.obj
 0002:0004b5bc       ??_R4?$codecvt@DDU_Mbstatet@@@std@@6B@ 100b25bc     World.obj
 0002:0004b5d0       ??_R1A@?0A@EA@ctype_base@std@@8 100b25d0     World.obj
 0002:0004b5ec       ??_R2_Iostream_error_category2@std@@8 100b25ec     World.obj
 0002:0004b5f8       ??_R2_Crt_new_delete@std@@8 100b25f8     World.obj
 0002:0004b600       ??_R1A@?0A@EA@?$ctype@D@std@@8 100b2600     World.obj
 0002:0004b61c       ??_R3ios_base@std@@8       100b261c     World.obj
 0002:0004b62c       ??_R2?$basic_filebuf@DU?$char_traits@D@std@@@std@@8 100b262c     World.obj
 0002:0004b638       ??_R3?$basic_streambuf@DU?$char_traits@D@std@@@std@@8 100b2638     World.obj
 0002:0004b648       ??_R2?$_Iosb@H@std@@8      100b2648     World.obj
 0002:0004b650       ??_R1A@A@3EA@ios_base@std@@8 100b2650     World.obj
 0002:0004b66c       ??_R1A@?0A@EA@?$basic_ios@DU?$char_traits@D@std@@@std@@8 100b266c     World.obj
 0002:0004b688       ??_R4codecvt_base@std@@6B@ 100b2688     World.obj
 0002:0004b69c       ??_R2?$basic_ifstream@DU?$char_traits@D@std@@@std@@8 100b269c     World.obj
 0002:0004b6b4       ??_R3?$_Iosb@H@std@@8      100b26b4     World.obj
 0002:0004b6c4       ??_R2_Facet_base@std@@8    100b26c4     World.obj
 0002:0004b6cc       ??_R2facet@locale@std@@8   100b26cc     World.obj
 0002:0004b6dc       ??_R17?0A@EA@?$_Iosb@H@std@@8 100b26dc     World.obj
 0002:0004b6f8       ??_R4?$ctype@D@std@@6B@    100b26f8     World.obj
 0002:0004b70c       ??_R4?$basic_istream@DU?$char_traits@D@std@@@std@@6B@ 100b270c     World.obj
 0002:0004b720       ??_R2?$basic_ios@DU?$char_traits@D@std@@@std@@8 100b2720     World.obj
 0002:0004b730       ??_R2ctype_base@std@@8     100b2730     World.obj
 0002:0004b744       ??_R1A@?0A@EA@?$codecvt@DDU_Mbstatet@@@std@@8 100b2744     World.obj
 0002:0004b760       ??_R1A@?0A@EA@logic_error@std@@8 100b2760     Pipi_edit.obj
 0002:0004b77c       ??_R3?$fast_basic_ostringstream@D@detail@configor@@8 100b277c     Pipi_edit.obj
 0002:0004b78c       ??_R4?$basic_ofstream@DU?$char_traits@D@std@@@std@@6B@ 100b278c     Pipi_edit.obj
 0002:0004b7a0       ??_R4?$basic_ostream@DU?$char_traits@D@std@@@std@@6B@ 100b27a0     Pipi_edit.obj
 0002:0004b7b4       ??_R2?$fast_string_istreambuf@D@detail@configor@@8 100b27b4     Pipi_edit.obj
 0002:0004b7c0       ??_R3configor_invalid_key@configor@@8 100b27c0     Pipi_edit.obj
 0002:0004b7d0       ??_R3?$basic_ofstream@DU?$char_traits@D@std@@@std@@8 100b27d0     Pipi_edit.obj
 0002:0004b7e0       ??_R1A@?0A@EA@?$fast_basic_ostringstream@D@detail@configor@@8 100b27e0     Pipi_edit.obj
 0002:0004b7fc       ??_R4?$fast_basic_ostringstream@D@detail@configor@@6B@ 100b27fc     Pipi_edit.obj
 0002:0004b810       ??_R2?$num_put@DV?$ostreambuf_iterator@DU?$char_traits@D@std@@@std@@@std@@8 100b2810     Pipi_edit.obj
 0002:0004b824       ??_R4configor_exception@configor@@6B@ 100b2824     Pipi_edit.obj
 0002:0004b838       ??_R1A@?0A@EA@configor_invalid_key@configor@@8 100b2838     Pipi_edit.obj
 0002:0004b854       ??_R3configor_exception@configor@@8 100b2854     Pipi_edit.obj
 0002:0004b864       ??_R1A@?0A@EA@?$fast_string_ostreambuf@D@detail@configor@@8 100b2864     Pipi_edit.obj
 0002:0004b880       ??_R2?$json_serializer@V?$basic_config@Ujson_args@configor@@@configor@@@detail@configor@@8 100b2880     Pipi_edit.obj
 0002:0004b88c       ??_R2?$basic_serializer@V?$basic_config@Ujson_args@configor@@@configor@@@configor@@8 100b288c     Pipi_edit.obj
 0002:0004b894       ??_R2?$basic_ofstream@DU?$char_traits@D@std@@@std@@8 100b2894     Pipi_edit.obj
 0002:0004b8ac       ??_R3configor_serialization_error@configor@@8 100b28ac     Pipi_edit.obj
 0002:0004b8bc       ??_R4?$basic_serializer@V?$basic_config@Ujson_args@configor@@@configor@@@configor@@6B@ 100b28bc     Pipi_edit.obj
 0002:0004b8d0       ??_R4?$fast_string_istreambuf@D@detail@configor@@6B@ 100b28d0     Pipi_edit.obj
 0002:0004b8e4       ??_R2configor_exception@configor@@8 100b28e4     Pipi_edit.obj
 0002:0004b8f4       ??_R1A@?0A@EA@configor_exception@configor@@8 100b28f4     Pipi_edit.obj
 0002:0004b910       ??_R2logic_error@std@@8    100b2910     Pipi_edit.obj
 0002:0004b91c       ??_R4configor_type_error@configor@@6B@ 100b291c     Pipi_edit.obj
 0002:0004b930       ??_R1A@?0A@EA@configor_type_error@configor@@8 100b2930     Pipi_edit.obj
 0002:0004b94c       ??_R3?$json_serializer@V?$basic_config@Ujson_args@configor@@@configor@@@detail@configor@@8 100b294c     Pipi_edit.obj
 0002:0004b95c       ??_R2?$fast_string_ostreambuf@D@detail@configor@@8 100b295c     Pipi_edit.obj
 0002:0004b968       ??_R4configor_serialization_error@configor@@6B@ 100b2968     Pipi_edit.obj
 0002:0004b97c       ??_R2?$basic_ostream@DU?$char_traits@D@std@@@std@@8 100b297c     Pipi_edit.obj
 0002:0004b990       ??_R1A@?0A@EA@out_of_range@std@@8 100b2990     Pipi_edit.obj
 0002:0004b9ac       ??_R2?$fast_basic_ostringstream@D@detail@configor@@8 100b29ac     Pipi_edit.obj
 0002:0004b9c4       ??_R3configor_type_error@configor@@8 100b29c4     Pipi_edit.obj
 0002:0004b9d4       ??_R4out_of_range@std@@6B@ 100b29d4     Pipi_edit.obj
 0002:0004b9e8       ??_R1A@?0A@EA@configor_serialization_error@configor@@8 100b29e8     Pipi_edit.obj
 0002:0004ba04       ??_R3logic_error@std@@8    100b2a04     Pipi_edit.obj
 0002:0004ba14       ??_R1A@?0A@EA@?$basic_ostream@DU?$char_traits@D@std@@@std@@8 100b2a14     Pipi_edit.obj
 0002:0004ba30       ??_R2configor_serialization_error@configor@@8 100b2a30     Pipi_edit.obj
 0002:0004ba44       ??_R4logic_error@std@@6B@  100b2a44     Pipi_edit.obj
 0002:0004ba58       ??_R2configor_type_error@configor@@8 100b2a58     Pipi_edit.obj
 0002:0004ba6c       ??_R2?$numpunct@D@std@@8   100b2a6c     Pipi_edit.obj
 0002:0004ba80       ??_R2out_of_range@std@@8   100b2a80     Pipi_edit.obj
 0002:0004ba90       ??_R4?$fast_string_ostreambuf@D@detail@configor@@6B@ 100b2a90     Pipi_edit.obj
 0002:0004baa4       ??_R1A@?0A@EA@?$json_serializer@V?$basic_config@Ujson_args@configor@@@configor@@@detail@configor@@8 100b2aa4     Pipi_edit.obj
 0002:0004bac0       ??_R3out_of_range@std@@8   100b2ac0     Pipi_edit.obj
 0002:0004bad0       ??_R1A@?0A@EA@?$basic_ofstream@DU?$char_traits@D@std@@@std@@8 100b2ad0     Pipi_edit.obj
 0002:0004baec       ??_R3?$numpunct@D@std@@8   100b2aec     Pipi_edit.obj
 0002:0004bafc       ??_R4?$numpunct@D@std@@6B@ 100b2afc     Pipi_edit.obj
 0002:0004bb10       ??_R1A@?0A@EA@?$num_put@DV?$ostreambuf_iterator@DU?$char_traits@D@std@@@std@@@std@@8 100b2b10     Pipi_edit.obj
 0002:0004bb2c       ??_R4configor_invalid_key@configor@@6B@ 100b2b2c     Pipi_edit.obj
 0002:0004bb40       ??_R3?$basic_serializer@V?$basic_config@Ujson_args@configor@@@configor@@@configor@@8 100b2b40     Pipi_edit.obj
 0002:0004bb50       ??_R3?$basic_ostream@DU?$char_traits@D@std@@@std@@8 100b2b50     Pipi_edit.obj
 0002:0004bb60       ??_R1A@?0A@EA@?$basic_serializer@V?$basic_config@Ujson_args@configor@@@configor@@@configor@@8 100b2b60     Pipi_edit.obj
 0002:0004bb7c       ??_R1A@?0A@EA@?$numpunct@D@std@@8 100b2b7c     Pipi_edit.obj
 0002:0004bb98       ??_R3?$fast_string_istreambuf@D@detail@configor@@8 100b2b98     Pipi_edit.obj
 0002:0004bba8       ??_R4?$json_serializer@V?$basic_config@Ujson_args@configor@@@configor@@@detail@configor@@6B@ 100b2ba8     Pipi_edit.obj
 0002:0004bbbc       ??_R2configor_invalid_key@configor@@8 100b2bbc     Pipi_edit.obj
 0002:0004bbd0       ??_R4?$num_put@DV?$ostreambuf_iterator@DU?$char_traits@D@std@@@std@@@std@@6B@ 100b2bd0     Pipi_edit.obj
 0002:0004bbe4       ??_R1A@?0A@EA@?$fast_string_istreambuf@D@detail@configor@@8 100b2be4     Pipi_edit.obj
 0002:0004bc00       ??_R3?$num_put@DV?$ostreambuf_iterator@DU?$char_traits@D@std@@@std@@@std@@8 100b2c00     Pipi_edit.obj
 0002:0004bc10       ??_R3?$fast_string_ostreambuf@D@detail@configor@@8 100b2c10     Pipi_edit.obj
 0002:0004c028       ___rtc_iaa                 100b3028     LIBCMT:initsect.obj
 0002:0004c02c       ___rtc_izz                 100b302c     LIBCMT:initsect.obj
 0002:0004c030       ___rtc_taa                 100b3030     LIBCMT:initsect.obj
 0002:0004c034       ___rtc_tzz                 100b3034     LIBCMT:initsect.obj
 0002:0004c038       __tls_start                100b3038     LIBCMT:tlssup.obj
 0002:0004c03c       __Init_thread_epoch        100b303c     LIBCMT:thread_safe_statics.obj
 0002:0004c040       __tls_end                  100b3040     LIBCMT:tlssup.obj
 0002:0004e2d4       __TI2?AVbad_alloc@std@@    100b52d4     libcpmt:xthrow.obj
 0002:0004e2e4       __CTA2?AVbad_alloc@std@@   100b52e4     libcpmt:xthrow.obj
 0002:0004e2f0       __TI3?AVlength_error@std@@ 100b52f0     libcpmt:xthrow.obj
 0002:0004e300       __CTA3?AVlength_error@std@@ 100b5300     libcpmt:xthrow.obj
 0002:0004e310       __CT??_R0?AVlength_error@std@@@8??0length_error@std@@QAE@ABV01@@Z12 100b5310     libcpmt:xthrow.obj
 0002:0004e32c       __TI2?AVruntime_error@std@@ 100b532c     libcpmt:xthrow.obj
 0002:0004e33c       __CTA2?AVruntime_error@std@@ 100b533c     libcpmt:xthrow.obj
 0002:0004e650       __TI2?AVbad_exception@std@@ 100b5650     libcpmt:excptptr.obj
 0002:0004e660       __CTA2?AVbad_exception@std@@ 100b5660     libcpmt:excptptr.obj
 0002:0004e66c       __CT??_R0?AVbad_exception@std@@@8??0bad_exception@std@@QAE@ABV01@@Z12 100b566c     libcpmt:excptptr.obj
 0002:0004ef5c       __CTA3?AVbad_array_new_length@std@@ 100b5f5c     Aimbot.obj
 0002:0004ef6c       __CT??_R0?AVbad_alloc@std@@@8??0bad_alloc@std@@QAE@ABV01@@Z12 100b5f6c     Aimbot.obj
 0002:0004ef88       __CT??_R0?AVexception@std@@@8??0exception@std@@QAE@ABV01@@Z12 100b5f88     Aimbot.obj
 0002:0004efa4       __TI3?AVbad_array_new_length@std@@ 100b5fa4     Aimbot.obj
 0002:0004efb4       __CT??_R0?AVbad_array_new_length@std@@@8??0bad_array_new_length@std@@QAE@ABV01@@Z12 100b5fb4     Aimbot.obj
 0002:0004efd0       __CT??_R0?AVsystem_error@std@@@8??0system_error@std@@QAE@ABV01@@Z20 100b5fd0     Menu.obj
 0002:0004efec       __CT??_R0?AVruntime_error@std@@@8??0runtime_error@std@@QAE@ABV01@@Z12 100b5fec     Menu.obj
 0002:0004f008       __CT??_R0?AV_System_error@std@@@8??0_System_error@std@@QAE@ABV01@@Z20 100b6008     Menu.obj
 0002:0004f024       __CTA2?AVbad_cast@std@@    100b6024     World.obj
 0002:0004f030       __CT??_R0?AVbad_cast@std@@@8??0bad_cast@std@@QAE@ABV01@@Z12 100b6030     World.obj
 0002:0004f04c       __TI2?AVbad_cast@std@@     100b604c     World.obj
 0002:0004f05c       __TI5?AVfailure@ios_base@std@@ 100b605c     World.obj
 0002:0004f06c       __CTA5?AVfailure@ios_base@std@@ 100b606c     World.obj
 0002:0004f084       __CT??_R0?AVfailure@ios_base@std@@@8??0failure@ios_base@std@@QAE@ABV012@@Z20 100b6084     World.obj
 0002:0004f0a0       __CT??_R0?AVconfigor_invalid_key@configor@@@8??0configor_invalid_key@configor@@QAE@ABV01@@Z12 100b60a0     Pipi_edit.obj
 0002:0004f0bc       __CTA4?AVconfigor_invalid_key@configor@@ 100b60bc     Pipi_edit.obj
 0002:0004f0d0       __CTA4?AVconfigor_type_error@configor@@ 100b60d0     Pipi_edit.obj
 0002:0004f0e4       __TI3?AVout_of_range@std@@ 100b60e4     Pipi_edit.obj
 0002:0004f0f4       __TI4?AVconfigor_invalid_key@configor@@ 100b60f4     Pipi_edit.obj
 0002:0004f104       __CT??_R0?AVconfigor_serialization_error@configor@@@8??0configor_serialization_error@configor@@QAE@ABV01@@Z12 100b6104     Pipi_edit.obj
 0002:0004f120       __TI4?AVconfigor_type_error@configor@@ 100b6120     Pipi_edit.obj
 0002:0004f130       __TI4?AVconfigor_serialization_error@configor@@ 100b6130     Pipi_edit.obj
 0002:0004f140       __CT??_R0?AVconfigor_type_error@configor@@@8??0configor_type_error@configor@@QAE@ABV01@@Z12 100b6140     Pipi_edit.obj
 0002:0004f15c       __CT??_R0?AVconfigor_exception@configor@@@8??0configor_exception@configor@@QAE@ABV01@@Z12 100b615c     Pipi_edit.obj
 0002:0004f178       __CT??_R0?AVout_of_range@std@@@8??0out_of_range@std@@QAE@ABV01@@Z12 100b6178     Pipi_edit.obj
 0002:0004f194       __CTA4?AVconfigor_serialization_error@configor@@ 100b6194     Pipi_edit.obj
 0002:0004f1a8       __CTA3?AVout_of_range@std@@ 100b61a8     Pipi_edit.obj
 0002:0004f1b8       __CT??_R0?AVlogic_error@std@@@8??0logic_error@std@@QAE@ABV01@@Z12 100b61b8     Pipi_edit.obj
 0002:0004f240       __IMPORT_DESCRIPTOR_KERNEL32 100b6240     kernel32:KERNEL32.dll
 0002:0004f254       __IMPORT_DESCRIPTOR_USER32 100b6254     user32:USER32.dll
 0002:0004f268       __IMPORT_DESCRIPTOR_GDI32  100b6268     gdi32:GDI32.dll
 0002:0004f27c       __IMPORT_DESCRIPTOR_SHELL32 100b627c     shell32:SHELL32.dll
 0002:0004f290       __IMPORT_DESCRIPTOR_ole32  100b6290     ole32:ole32.dll
 0002:0004f2a4       __IMPORT_DESCRIPTOR_OLEAUT32 100b62a4     oleaut32:OLEAUT32.dll
 0002:0004f2b8       __IMPORT_DESCRIPTOR_OPENGL32 100b62b8     OpenGL32:OPENGL32.dll
 0002:0004f2cc       __NULL_IMPORT_DESCRIPTOR   100b62cc     kernel32:KERNEL32.dll
 0003:000000ac       ?_Sync@ios_base@std@@0_NA  100b70ac     libcpmt:ios.obj
 0003:000000b0       ?valid@?1???$_Xfiopen@D@std@@YAPAU_iobuf@@PBDHH@Z@4QBHB 100b70b0     libcpmt:fiopen.obj
 0003:000001c4       __Init_global_epoch        100b71c4     LIBCMT:thread_safe_statics.obj
 0003:000001c8       ___scrt_native_dllmain_reason 100b71c8     LIBCMT:utility.obj
 0003:000001cc       ___security_cookie_complement 100b71cc     LIBCMT:gs_cookie.obj
 0003:000001d0       ___security_cookie         100b71d0     LIBCMT:gs_cookie.obj
 0003:000001e0       __fltused                  100b71e0     LIBCMT:fltused.obj
 0003:000001f0       ___isa_enabled             100b71f0     LIBCMT:cpu_disp.obj
 0003:00000200       __NLG_Destination          100b7200     libvcruntime:exsup.obj
 0003:00000220       __iob                      100b7220     libucrt:_file.obj
 0003:000002d0       ___acrt_lconv_c            100b72d0     libucrt:localeconv.obj
 0003:00000320       ___acrt_lconv              100b7320     libucrt:localeconv.obj
 0003:00000324       ___acrt_lconv_static_decimal 100b7324     libucrt:localeconv.obj
 0003:00000328       ___acrt_lconv_static_W_decimal 100b7328     libucrt:localeconv.obj
 0003:00000330       __pctype                   100b7330     libucrt:ctype.obj
 0003:00000334       __pwctype                  100b7334     libucrt:ctype.obj
 0003:00000338       ___abort_behavior          100b7338     libucrt:abort.obj
 0003:00000358       ___acrt_initial_locale_data 100b7358     libucrt:nlsdata.obj
 0003:00000410       ___acrt_initial_locale_pointers 100b7410     libucrt:nlsdata.obj
 0003:00000418       ___acrt_wide_c_locale_string 100b7418     libucrt:nlsdata.obj
 0003:0000041c       ___mb_cur_max              100b741c     libucrt:nlsdata.obj
 0003:00000420       ___badioinfo               100b7420     libucrt:ioinit.obj
 0003:00000460       __lookuptrailbytes         100b7460     libucrt:read.obj
 0003:0000070c       ___globallocalestatus      100b770c     libucrt:glstatus.obj
 0003:00000710       ___acrt_initial_multibyte_data 100b7710     libucrt:mbctype.obj
 0003:00000c48       ?seed_table@@3PAIA         100b7c48     NoSpread.obj
 0003:00001048       ?g_Systems@@3VCSystems@@A  100b8048     Systems.obj
 0003:000012e8       ?Cstrike_SequenceInfo@@3PAIA 100b82e8     Utils.obj
 0003:000014cc       ?_Static@?1???$_Immortalize_memcpy_image@V_Iostream_error_category2@std@@@std@@YAABV_Iostream_error_category2@1@XZ@4U?$_Constexpr_immortalize_impl@V_Iostream_error_category2@std@@@1@A 100b84cc     World.obj
 0003:000014e0       ??_R0?AVlength_error@std@@@8 100b84e0     libcpmt:xthrow.obj
 0003:00001500       ??_R0?AVbad_exception@std@@@8 100b8500     libcpmt:excptptr.obj
 0003:00001520       ??_R0?AVbad_alloc@std@@@8  100b8520     Aimbot.obj
 0003:0000153c       ??_R0?AVexception@std@@@8  100b853c     Aimbot.obj
 0003:00001558       ??_R0?AVbad_array_new_length@std@@@8 100b8558     Aimbot.obj
 0003:00001580       ??_R0?AVruntime_error@std@@@8 100b8580     Menu.obj
 0003:000015a0       ??_R0?AVsystem_error@std@@@8 100b85a0     Menu.obj
 0003:000015c0       ??_R0?AV_System_error@std@@@8 100b85c0     Menu.obj
 0003:000015e0       ??_R0?AVfailure@ios_base@std@@@8 100b85e0     World.obj
 0003:00001604       ??_R0?AVbad_cast@std@@@8   100b8604     World.obj
 0003:00001620       ??_R0?AVconfigor_serialization_error@configor@@@8 100b8620     Pipi_edit.obj
 0003:00001654       ??_R0?AVconfigor_invalid_key@configor@@@8 100b8654     Pipi_edit.obj
 0003:00001680       ??_R0?AVlogic_error@std@@@8 100b8680     Pipi_edit.obj
 0003:000016a0       ??_R0?AVconfigor_type_error@configor@@@8 100b86a0     Pipi_edit.obj
 0003:000016cc       ??_R0?AVout_of_range@std@@@8 100b86cc     Pipi_edit.obj
 0003:000016ec       ??_R0?AVconfigor_exception@configor@@@8 100b86ec     Pipi_edit.obj
 0003:00001718       ??_R0?AV_Locimp@locale@std@@@8 100b8718     libcpmt:locale0.obj
 0003:0000173c       ??_R0?AV_Ref_count_base@std@@@8 100b873c     libcpmt:excptptr.obj
 0003:00001820       ??_R0?AVtype_info@@@8      100b8820     LIBCMT:std_type_info_static.obj
 0003:00001838       ??_R0?AVerror_category@std@@@8 100b8838     Menu.obj
 0003:0000185c       ??_R0?AV?$basic_filebuf@DU?$char_traits@D@std@@@std@@@8 100b885c     World.obj
 0003:00001898       ??_R0?AV?$codecvt@DDU_Mbstatet@@@std@@@8 100b8898     World.obj
 0003:000018c4       ??_R0?AV?$basic_ifstream@DU?$char_traits@D@std@@@std@@@8 100b88c4     World.obj
 0003:00001900       ??_R0?AVios_base@std@@@8   100b8900     World.obj
 0003:0000191c       ??_R0?AV?$ctype@D@std@@@8  100b891c     World.obj
 0003:00001938       ??_R0?AVcodecvt_base@std@@@8 100b8938     World.obj
 0003:00001958       ??_R0?AV_Facet_base@std@@@8 100b8958     World.obj
 0003:00001978       ??_R0?AU_Crt_new_delete@std@@@8 100b8978     World.obj
 0003:0000199c       ??_R0?AV?$_Iosb@H@std@@@8  100b899c     World.obj
 0003:000019b8       ??_R0?AV_Iostream_error_category2@std@@@8 100b89b8     World.obj
 0003:000019e4       ??_R0?AV?$basic_streambuf@DU?$char_traits@D@std@@@std@@@8 100b89e4     World.obj
 0003:00001a20       ??_R0?AUctype_base@std@@@8 100b8a20     World.obj
 0003:00001a40       ??_R0?AV?$basic_istream@DU?$char_traits@D@std@@@std@@@8 100b8a40     World.obj
 0003:00001a7c       ??_R0?AV?$basic_ios@DU?$char_traits@D@std@@@std@@@8 100b8a7c     World.obj
 0003:00001ab4       ??_R0?AVfacet@locale@std@@@8 100b8ab4     World.obj
 0003:00001ad4       ??_R0?AV?$fast_string_istreambuf@D@detail@configor@@@8 100b8ad4     Pipi_edit.obj
 0003:00001b10       ??_R0?AV?$json_serializer@V?$basic_config@Ujson_args@configor@@@configor@@@detail@configor@@@8 100b8b10     Pipi_edit.obj
 0003:00001b74       ??_R0?AV?$fast_string_ostreambuf@D@detail@configor@@@8 100b8b74     Pipi_edit.obj
 0003:00001bb0       ??_R0?AV?$basic_ofstream@DU?$char_traits@D@std@@@std@@@8 100b8bb0     Pipi_edit.obj
 0003:00001bec       ??_R0?AV?$numpunct@D@std@@@8 100b8bec     Pipi_edit.obj
 0003:00001c10       ??_R0?AV?$basic_serializer@V?$basic_config@Ujson_args@configor@@@configor@@@configor@@@8 100b8c10     Pipi_edit.obj
 0003:00001c6c       ??_R0?AV?$fast_basic_ostringstream@D@detail@configor@@@8 100b8c6c     Pipi_edit.obj
