 CS1.6 data collector

 Timestamp is 6104140a (Fri Jul 30 23:00:26 2021)

 Preferred load address is 10000000

 Start         Length     Name                   Class
 0001:00000000 00000c50H .text                   CODE
 0001:00000c50 00000350H .text$di                CODE
 0001:00000fa0 00061cf0H .text$mn                CODE
 0001:00062c90 00002bf0H .text$x                 CODE
 0001:00065880 00000107H .text$yd                CODE
 0002:00000000 0000024cH .idata$5                DATA
 0002:0000024c 00000004H .00cfg                  DATA
 0002:00000250 00000004H .CRT$XCA                DATA
 0002:00000254 0000000cH .CRT$XCC                DATA
 0002:00000260 00000008H .CRT$XCL                DATA
 0002:00000268 00000044H .CRT$XCU                DATA
 0002:000002ac 00000004H .CRT$XCZ                DATA
 0002:000002b0 00000004H .CRT$XIA                DATA
 0002:000002b4 00000018H .CRT$XIC                DATA
 0002:000002cc 00000004H .CRT$XIZ                DATA
 0002:000002d0 00000004H .CRT$XLA                DATA
 0002:000002d4 00000004H .CRT$XLZ                DATA
 0002:000002d8 00000004H .CRT$XPA                DATA
 0002:000002dc 00000008H .CRT$XPX                DATA
 0002:000002e4 00000004H .CRT$XPXA               DATA
 0002:000002e8 00000004H .CRT$XPZ                DATA
 0002:000002ec 00000004H .CRT$XTA                DATA
 0002:000002f0 00000010H .CRT$XTZ                DATA
 0002:000002f4 00000000H .gfids$y                DATA
 0002:00000300 0004aa40H .rdata                  DATA
 0002:0004ad40 00000000H .rdata$CastGuardVftablesA DATA
 0002:0004ad40 00000000H .rdata$CastGuardVftablesC DATA
 0002:0004ad40 00000018H .rdata$T                DATA
 0002:0004ad58 00000ec8H .rdata$r                DATA
 0002:0004bc20 00000408H .rdata$zzzdbg           DATA
 0002:0004c028 00000004H .rtc$IAA                DATA
 0002:0004c02c 00000004H .rtc$IZZ                DATA
 0002:0004c030 00000004H .rtc$TAA                DATA
 0002:0004c034 00000004H .rtc$TZZ                DATA
 0002:0004c038 00000004H .tls                    DATA
 0002:0004c03c 00000004H .tls$                   DATA
 0002:0004c040 00000008H .tls$ZZZ                DATA
 0002:0004c048 00003198H .xdata$x                DATA
 0002:0004f1e0 00000060H .edata                  DATA
 0002:0004f240 0000008cH .idata$2                DATA
 0002:0004f2cc 00000014H .idata$3                DATA
 0002:0004f2e0 0000024cH .idata$4                DATA
 0002:0004f52c 000009f2H .idata$6                DATA
 0003:00000000 000014e0H .data                   DATA
 0003:000014e0 00000238H .data$r                 DATA
 0003:00001718 00000628H .data$rs                DATA
 0003:00001d40 00023090H .bss                    DATA
 0004:00000000 00000060H .rsrc$01                DATA
 0004:00000060 00000180H .rsrc$02                DATA

  Address         Publics by Value              Rva+Base       Lib:Object

 0000:00000000       ___guard_longjmp_table     00000000     <absolute>
 0000:00000000       ___arm64x_extra_rfe_table  00000000     <absolute>
 0000:00000000       ___arm64x_redirection_metadata 00000000     <absolute>
 0000:00000000       ___guard_eh_cont_count     00000000     <absolute>
 0000:00000000       ___arm64x_native_entrypoint 00000000     <absolute>
 0000:00000000       ___safe_se_handler_table   00000000     <absolute>
 0000:00000000       ___guard_fids_count        00000000     <absolute>
 0000:00000000       ___hybrid_code_map_count   00000000     <absolute>
 0000:00000000       ___guard_eh_cont_table     00000000     <absolute>
 0000:00000000       ___x64_code_ranges_to_entry_points 00000000     <absolute>
 0000:00000000       ___guard_iat_count         00000000     <absolute>
 0000:00000000       __except_list              00000000     <absolute>
 0000:00000000       ___x64_code_ranges_to_entry_points_count 00000000     <absolute>
 0000:00000000       ___volatile_metadata       00000000     <absolute>
 0000:00000000       ___hybrid_code_map         00000000     <absolute>
 0000:00000000       ___guard_iat_table         00000000     <absolute>
 0000:00000000       ___arm64x_extra_rfe_table_size 00000000     <absolute>
 0000:00000000       ___safe_se_handler_count   00000000     <absolute>
 0000:00000000       ___guard_longjmp_count     00000000     <absolute>
 0000:00000000       ___guard_check_icall_a64n_fptr 00000000     <absolute>
 0000:00000000       ___arm64x_redirection_metadata_count 00000000     <absolute>
 0000:00000000       ___hybrid_auxiliary_iat    00000000     <absolute>
 0000:00000000       ___dynamic_value_reloc_table 00000000     <absolute>
 0000:00000000       ___AbsoluteZero            00000000     <absolute>
 0000:00000000       ___enclave_config          00000000     <absolute>
 0000:00000000       ___guard_fids_table        00000000     <absolute>
 0000:00000000       ___hybrid_auxiliary_iat_copy 00000000     <absolute>
 0000:0000002c       __tls_array                0000002c     <absolute>
 0000:00000100       ___guard_flags             00000100     <absolute>
 0000:00000000       ___ImageBase               10000000     <linker-defined>
 0001:00000000       ??0CDetourEnableWriteOnCodePage@@QAE@PAEJ@Z 10001000 f i detours:detours.obj
 0001:00000080       ??1CDetourEnableWriteOnCodePage@@QAE@XZ 10001080 f i detours:detours.obj
 0001:000000f0       _DetourFunction@8          100010f0 f   detours:detours.obj
 0001:000003e0       ?SetPermission@CDetourEnableWriteOnCodePage@@QAEHK@Z 100013e0 f i detours:detours.obj
 0001:00000420       ?IsValid@CDetourEnableWriteOnCodePage@@QAEHXZ 10001420 f i detours:detours.obj
 0001:000004c0       ?DetourGenJmp@@YAPAEPAE00@Z 100014c0 f i detours:detours.obj
 0001:00000500       ?DetourGenBreak@@YAPAEPAE@Z 10001500 f i detours:detours.obj
 0001:00000520       _DetourGetFinalCode@8      10001520 f   detours:detours.obj
 0001:00000590       _DetourCopyInstruction@12  10001590 f   detours:disasm.obj
 0001:000005c0       ??0CDetourDis@@QAE@PAPAEPAJ@Z 100015c0 f   detours:disasm.obj
 0001:00000640       ?Set16BitOperand@CDetourDis@@IAEXXZ 10001640 f   detours:disasm.obj
 0001:00000660       ?Set32BitOperand@CDetourDis@@IAEXXZ 10001660 f   detours:disasm.obj
 0001:00000680       ?Set16BitAddress@CDetourDis@@IAEXXZ 10001680 f   detours:disasm.obj
 0001:000006a0       ?CopyInstruction@CDetourDis@@QAEPAEPAE0@Z 100016a0 f   detours:disasm.obj
 0001:00000700       ?CopyBytes@CDetourDis@@IAEPAEPBUCOPYENTRY@1@PAE1@Z 10001700 f   detours:disasm.obj
 0001:000008e0       ?CopyBytesPrefix@CDetourDis@@IAEPAEPBUCOPYENTRY@1@PAE1@Z 100018e0 f   detours:disasm.obj
 0001:00000930       ?AdjustTarget@CDetourDis@@IAEPAEPAE0JJ@Z 10001930 f   detours:disasm.obj
 0001:00000a10       ?Invalid@CDetourDis@@IAEPAEPBUCOPYENTRY@1@PAE1@Z 10001a10 f   detours:disasm.obj
 0001:00000a30       ?Copy0F@CDetourDis@@IAEPAEPBUCOPYENTRY@1@PAE1@Z 10001a30 f   detours:disasm.obj
 0001:00000a80       ?Copy66@CDetourDis@@IAEPAEPBUCOPYENTRY@1@PAE1@Z 10001a80 f   detours:disasm.obj
 0001:00000ab0       ?Copy67@CDetourDis@@IAEPAEPBUCOPYENTRY@1@PAE1@Z 10001ab0 f   detours:disasm.obj
 0001:00000ae0       ?CopyF6@CDetourDis@@IAEPAEPBUCOPYENTRY@1@PAE1@Z 10001ae0 f   detours:disasm.obj
 0001:00000b40       ?CopyF7@CDetourDis@@IAEPAEPBUCOPYENTRY@1@PAE1@Z 10001b40 f   detours:disasm.obj
 0001:00000ba0       ?CopyFF@CDetourDis@@IAEPAEPBUCOPYENTRY@1@PAE1@Z 10001ba0 f   detours:disasm.obj
 0001:00000fa0       ??0QAngle@@QAE@XZ          10001fa0 f i Aimbot.obj
 0001:00000fa0       ??0Vector@@QAE@XZ          10001fa0 f i Client.obj
 0001:00000fd0       ??0QAngle@@QAE@MMM@Z       10001fd0 f i Aimbot.obj
 0001:00000fd0       ??0Vector@@QAE@MMM@Z       10001fd0 f i Client.obj
 0001:00001010       ??4QAngle@@QAEAAV0@ABV0@@Z 10002010 f i Aimbot.obj
 0001:00001010       ??0Vector@@QAE@ABV0@@Z     10002010 f i Client.obj
 0001:00001010       ??4Vector@@QAEAAV0@ABV0@@Z 10002010 f i Client.obj
 0001:00001050       ?_Orphan_all@_Container_base12@std@@QAEXXZ 10002050 f i Aimbot.obj
 0001:00001050       ?Init@CFunctions@@QAEXXZ   10002050 f i Cvars.obj
 0001:00001050       ?_Lock@?$basic_streambuf@DU?$char_traits@D@std@@@std@@UAEXXZ 10002050 f i World.obj
 0001:00001050       ??1_Bxty@?$_String_val@U?$_Simple_types@D@std@@@std@@QAE@XZ 10002050 f i Cvars.obj
 0001:00001050       ??1error_category@std@@UAE@XZ 10002050 f i Menu.obj
 0001:00001050       ?_Unlock@?$basic_streambuf@DU?$char_traits@D@std@@@std@@UAEXXZ 10002050 f i World.obj
 0001:00001050       ?_Orphan_all@_Container_base0@std@@QAEXXZ 10002050 f i Cvars.obj
 0001:00001050       ?_Release@_Fake_proxy_ptr_impl@std@@QAEXXZ 10002050 f i Cvars.obj
 0001:00001050       ??1Vector@@QAE@XZ          10002050 f i Client.obj
 0001:00001050       ??1QAngle@@QAE@XZ          10002050 f i Aimbot.obj
 0001:00001060       ?_Get_data@?$deque@Umy_sound_t@@V?$allocator@Umy_sound_t@@@std@@@std@@AAEAAV?$_Deque_val@U?$_Deque_simple_types@Umy_sound_t@@@std@@@2@XZ 10002060 f i Sounds.obj
 0001:00001060       ?_Get_first@?$_Compressed_pair@V?$allocator@V?$basic_config@Ujson_args@configor@@@configor@@@std@@V?$_Vector_val@U?$_Simple_types@V?$basic_config@Ujson_args@configor@@@configor@@@std@@@2@$00@std@@QAEAAV?$allocator@V?$basic_config@Ujson_args@configor@@@configor@@@2@XZ 10002060 f i Pipi_edit.obj
 0001:00001060       ?_Get_data@?$deque@Umy_sound_t@@V?$allocator@Umy_sound_t@@@std@@@std@@ABEABV?$_Deque_val@U?$_Deque_simple_types@Umy_sound_t@@@std@@@2@XZ 10002060 f i Sounds.obj
 0001:00001060       ?_Get_first@?$_Compressed_pair@V?$allocator@I@std@@V?$_Deque_val@U?$_Deque_simple_types@I@std@@@2@$00@std@@QBEABV?$allocator@I@2@XZ 10002060 f i Aimbot.obj
 0001:00001060       ??0?$allocator@V?$vector@V?$basic_config@Ujson_args@configor@@@configor@@V?$allocator@V?$basic_config@Ujson_args@configor@@@configor@@@std@@@std@@@std@@QAE@XZ 10002060 f i Pipi_edit.obj
 0001:00001060       ?_Get_first@?$_Compressed_pair@V?$allocator@VVector@@@std@@V?$_Deque_val@U?$_Deque_simple_types@VVector@@@std@@@2@$00@std@@QBEABV?$allocator@VVector@@@2@XZ 10002060 f i Visuals.obj
 0001:00001060       ?_Get_first@?$_Compressed_pair@V?$allocator@U?$_Tree_node@U?$pair@$$CBV?$basic_string@DU?$char_traits@D@std@@V?$allocator@D@2@@std@@V?$basic_config@Ujson_args@configor@@@configor@@@std@@PAX@std@@@std@@V?$_Tree_val@U?$_Tree_simple_types@U?$pair@$$CBV?$basic_string@DU?$char_traits@D@std@@V?$allocator@D@2@@std@@V?$basic_config@Ujson_args@configor@@@configor@@@std@@@std@@@2@$00@std@@QAEAAV?$allocator@U?$_Tree_node@U?$pair@$$CBV?$basic_string@DU?$char_traits@D@std@@V?$allocator@D@2@@std@@V?$basic_config@Ujson_args@configor@@@configor@@@std@@PAX@std@@@2@XZ 10002060 f i Pipi_edit.obj
 0001:00001060       ?_Get_first@?$_Compressed_pair@V?$allocator@V?$basic_config@Ujson_args@configor@@@configor@@@std@@V?$_Vector_val@U?$_Simple_types@V?$basic_config@Ujson_args@configor@@@configor@@@std@@@2@$00@std@@QBEABV?$allocator@V?$basic_config@Ujson_args@configor@@@configor@@@2@XZ 10002060 f i Pipi_edit.obj
 0001:00001060       ??0?$allocator@V?$basic_string@DU?$char_traits@D@std@@V?$allocator@D@2@@std@@@std@@QAE@XZ 10002060 f i Pipi_edit.obj
 0001:00001060       ?_Get_first@?$_Compressed_pair@V?$allocator@U?$_Tree_node@U?$pair@$$CBV?$basic_string@DU?$char_traits@D@std@@V?$allocator@D@2@@std@@V?$basic_config@Ujson_args@configor@@@configor@@@std@@PAX@std@@@std@@V?$_Tree_val@U?$_Tree_simple_types@U?$pair@$$CBV?$basic_string@DU?$char_traits@D@std@@V?$allocator@D@2@@std@@V?$basic_config@Ujson_args@configor@@@configor@@@std@@@std@@@2@$00@std@@QBEABV?$allocator@U?$_Tree_node@U?$pair@$$CBV?$basic_string@DU?$char_traits@D@std@@V?$allocator@D@2@@std@@V?$basic_config@Ujson_args@configor@@@configor@@@std@@PAX@std@@@2@XZ 10002060 f i Pipi_edit.obj
 0001:00001060       ??E?$ostreambuf_iterator@DU?$char_traits@D@std@@@std@@QAEAAV01@XZ 10002060 f i Pipi_edit.obj
 0001:00001060       ??0?$allocator@V?$map@V?$basic_string@DU?$char_traits@D@std@@V?$allocator@D@2@@std@@V?$basic_config@Ujson_args@configor@@@configor@@U?$less@V?$basic_string@DU?$char_traits@D@std@@V?$allocator@D@2@@std@@@2@V?$allocator@U?$pair@$$CBV?$basic_string@DU?$char_traits@D@std@@V?$allocator@D@2@@std@@V?$basic_config@Ujson_args@configor@@@configor@@@std@@@2@@std@@@std@@QAE@XZ 10002060 f i Pipi_edit.obj
 0001:00001060       ?raw_value@?$basic_config@Ujson_args@configor@@@configor@@QBEABU?$config_value@V?$basic_config@Ujson_args@configor@@@configor@@@detail@2@XZ 10002060 f i Pipi_edit.obj
 0001:00001060       ?_Get_first@?$_Compressed_pair@U?$default_delete@V_Facet_base@std@@@std@@PAV_Facet_base@2@$00@std@@QAEAAU?$default_delete@V_Facet_base@std@@@2@XZ 10002060 f i World.obj
 0001:00001060       ?_Get_data@?$deque@IV?$allocator@I@std@@@std@@AAEAAV?$_Deque_val@U?$_Deque_simple_types@I@std@@@2@XZ 10002060 f i Aimbot.obj
 0001:00001060       ?_Get_data@?$deque@IV?$allocator@I@std@@@std@@ABEABV?$_Deque_val@U?$_Deque_simple_types@I@std@@@2@XZ 10002060 f i Aimbot.obj
 0001:00001060       ??0?$allocator@D@std@@QAE@XZ 10002060 f i Cvars.obj
 0001:00001060       ?_Get_data@?$deque@VVector@@V?$allocator@VVector@@@std@@@std@@ABEABV?$_Deque_val@U?$_Deque_simple_types@VVector@@@std@@@2@XZ 10002060 f i Visuals.obj
 0001:00001060       ??0?$allocator@VVector@@@std@@QAE@XZ 10002060 f i Visuals.obj
 0001:00001060       ?_Get_first@?$_Compressed_pair@V?$allocator@Umy_sound_t@@@std@@V?$_Deque_val@U?$_Deque_simple_types@Umy_sound_t@@@std@@@2@$00@std@@QAEAAV?$allocator@Umy_sound_t@@@2@XZ 10002060 f i Sounds.obj
 0001:00001060       ??D?$ostreambuf_iterator@DU?$char_traits@D@std@@@std@@QAEAAV01@XZ 10002060 f i Pipi_edit.obj
 0001:00001060       ??0?$allocator@V?$basic_config@Ujson_args@configor@@@configor@@@std@@QAE@XZ 10002060 f i Pipi_edit.obj
 0001:00001060       ?_Get_first@?$_Compressed_pair@V?$allocator@Umy_sound_t@@@std@@V?$_Deque_val@U?$_Deque_simple_types@Umy_sound_t@@@std@@@2@$00@std@@QBEABV?$allocator@Umy_sound_t@@@2@XZ 10002060 f i Sounds.obj
 0001:00001060       ?_Get_first@?$_Compressed_pair@U?$less@V?$basic_string@DU?$char_traits@D@std@@V?$allocator@D@2@@std@@@std@@V?$_Compressed_pair@V?$allocator@U?$_Tree_node@U?$pair@$$CBV?$basic_string@DU?$char_traits@D@std@@V?$allocator@D@2@@std@@V?$basic_config@Ujson_args@configor@@@configor@@@std@@PAX@std@@@std@@V?$_Tree_val@U?$_Tree_simple_types@U?$pair@$$CBV?$basic_string@DU?$char_traits@D@std@@V?$allocator@D@2@@std@@V?$basic_config@Ujson_args@configor@@@configor@@@std@@@std@@@2@$00@2@$00@std@@QBEABU?$less@V?$basic_string@DU?$char_traits@D@std@@V?$allocator@D@2@@std@@@2@XZ 10002060 f i Pipi_edit.obj
 0001:00001060       ??BVector@@QAEPAMXZ        10002060 f i Client.obj
 0001:00001060       ??0?$allocator@Umy_sound_t@@@std@@QAE@XZ 10002060 f i Sounds.obj
 0001:00001060       ?_Get_first@?$_Compressed_pair@V?$allocator@I@std@@V?$_Deque_val@U?$_Deque_simple_types@I@std@@@2@$00@std@@QAEAAV?$allocator@I@2@XZ 10002060 f i Aimbot.obj
 0001:00001060       ??0?$allocator@I@std@@QAE@XZ 10002060 f i Aimbot.obj
 0001:00001060       ?_Get_first@?$_Compressed_pair@V?$allocator@VVector@@@std@@V?$_Deque_val@U?$_Deque_simple_types@VVector@@@std@@@2@$00@std@@QAEAAV?$allocator@VVector@@@2@XZ 10002060 f i Visuals.obj
 0001:00001060       ?_Get_data@?$deque@VVector@@V?$allocator@VVector@@@std@@@std@@AAEAAV?$_Deque_val@U?$_Deque_simple_types@VVector@@@std@@@2@XZ 10002060 f i Visuals.obj
 0001:00001060       ?_Get_first@?$_Compressed_pair@V?$allocator@D@std@@V?$_String_val@U?$_Simple_types@D@std@@@2@$00@std@@QAEAAV?$allocator@D@2@XZ 10002060 f i Cvars.obj
 0001:00001060       ??0?$allocator@U?$_Tree_node@U?$pair@$$CBV?$basic_string@DU?$char_traits@D@std@@V?$allocator@D@2@@std@@V?$basic_config@Ujson_args@configor@@@configor@@@std@@PAX@std@@@std@@QAE@XZ 10002060 f i Pipi_edit.obj
 0001:00001060       ??BQAngle@@QAEPAMXZ        10002060 f i Aimbot.obj
 0001:00001060       ?_Get_first@?$_Compressed_pair@V?$allocator@D@std@@V?$_String_val@U?$_Simple_types@D@std@@@2@$00@std@@QBEABV?$allocator@D@2@XZ 10002060 f i Cvars.obj
 0001:00001070       ??4QAngle@@QAEAAV0@PAM@Z   10002070 f i Aimbot.obj
 0001:00001070       ??4Vector@@QAEAAV0@PAM@Z   10002070 f i Client.obj
 0001:000010f0       ??AVector@@QBEAAMH@Z       100020f0 f i Client.obj
 0001:000010f0       ??AQAngle@@QBEAAMH@Z       100020f0 f i Aimbot.obj
 0001:00001120       ??HVector@@QBE?AV0@ABV0@@Z 10002120 f i Client.obj
 0001:00001190       ??DVector@@QBE?AV0@M@Z     10002190 f i Client.obj
 0001:00001200       ?AntiSnapshot@@YAXXZ       10002200 f   Client.obj
 0001:00001210       ?AntiScreenshot@@YAXXZ     10002210 f   Client.obj
 0001:00001220       ?AntiScreen@@YAXXZ         10002220 f   Client.obj
 0001:00001290       ?PaintTraversePanel@@YGXPAVIPanel@vgui@@_N1@Z 10002290 f   Client.obj
 0001:00001510       ?CL_CreateMove@@YAXMPAUusercmd_s@@H@Z 10002510 f   Client.obj
 0001:00001880       ??0pmtrace_s@@QAE@XZ       10002880 f i Client.obj
 0001:000018f0       ??0CBomb@@QAE@XZ           100028f0 f i World.obj
 0001:000018f0       ??0pmplane_t@@QAE@XZ       100028f0 f i Client.obj
 0001:000018f0       ??0my_sound_t@@QAE@XZ      100028f0 f i Sounds.obj
 0001:00001910       ??1pmtrace_s@@QAE@XZ       10002910 f i Client.obj
 0001:00001940       ??1pmplane_t@@QAE@XZ       10002940 f i Client.obj
 0001:00001940       ??1_Iostream_error_category2@std@@UAE@XZ 10002940 f i World.obj
 0001:00001940       ??1CBomb@@QAE@XZ           10002940 f i World.obj
 0001:00001940       ??1my_sound_t@@QAE@XZ      10002940 f i Sounds.obj
 0001:00001940       ??1?$_String_val@U?$_Simple_types@D@std@@@std@@QAE@XZ 10002940 f i Cvars.obj
 0001:00001960       ?HUD_PostRunCmd@@YAXPAUlocal_state_s@@0PAUusercmd_s@@HNI@Z 10002960 f   Client.obj
 0001:000019c0       ?V_CalcRefdef@@YAXPAUref_params_s@@@Z 100029c0 f   Client.obj
 0001:00001a50       ?HUD_Frame@@YAXN@Z         10002a50 f   Client.obj
 0001:00001aa0       ?HUD_Frame_init@@YAXN@Z    10002aa0 f   Client.obj
 0001:00001c10       ?CL_IsThirdPerson@@YAHXZ   10002c10 f   Client.obj
 0001:00001c60       ?HUD_PlayerMoveInit@@YAXPAUplayermove_s@@@Z 10002c60 f   Client.obj
 0001:00001c80       ?StudioCheckBBox@@YAHXZ    10002c80 f   Client.obj
 0001:00001c90       ?StudioSetRemapColors@@YAXHH@Z 10002c90 f   Client.obj
 0001:00001cc0       ?pfnDrawUnicodeCharacter@@YAHHHFHHHK@Z 10002cc0 f   Client.obj
 0001:00001d20       ?HUD_AddEntity@@YAHHPAUcl_entity_s@@PBD@Z 10002d20 f   Client.obj
 0001:000026b0       ?HookUserMessages@@YAXXZ   100036b0 f   Client.obj
 0001:00002770       ?HUD_GetHullBounds@@YAHHPAM0@Z 10003770 f   Client.obj
 0001:000027a0       ?CL_Move@@YAXXZ            100037a0 f   Client.obj
 0001:000027c0       ?HUD_ProcessPlayerState@@YAXPAUentity_state_s@@PBU1@@Z 100037c0 f   Client.obj
 0001:00002890       ?HookClient@@YAXXZ         10003890 f   Client.obj
 0001:000029b0       ??2@YAPAXIPAX@Z            100039b0 f i Aimbot.obj
 0001:000029c0       ?fpclassify@@YAHM@Z        100039c0 f i Aimbot.obj
 0001:000029e0       _acosf                     100039e0 f i Aimbot.obj
 0001:00002a00       _sqrtf                     10003a00 f i Aimbot.obj
 0001:00002a20       ?acos@@YAMM@Z              10003a20 f i Aimbot.obj
 0001:00002a40       ?sqrt@@YAMM@Z              10003a40 f i Aimbot.obj
 0001:00002a60       ??0exception@std@@QAE@QBDH@Z 10003a60 f i Aimbot.obj
 0001:00002a90       ??0exception@std@@QAE@ABV01@@Z 10003a90 f i Aimbot.obj
 0001:00002ad0       ??1exception@std@@UAE@XZ   10003ad0 f i Aimbot.obj
 0001:00002b00       ?what@exception@std@@UBEPBDXZ 10003b00 f i Aimbot.obj
 0001:00002b30       ??_Eexception@std@@UAEPAXI@Z 10003b30 f i * CIL library *:* CIL module *
 0001:00002b30       ??_Gexception@std@@UAEPAXI@Z 10003b30 f i Aimbot.obj
 0001:00002b60       ??0bad_alloc@std@@AAE@QBD@Z 10003b60 f i Aimbot.obj
 0001:00002b90       ??_Gruntime_error@std@@UAEPAXI@Z 10003b90 f i Menu.obj
 0001:00002b90       ??_Gbad_cast@std@@UAEPAXI@Z 10003b90 f i World.obj
 0001:00002b90       ??_Eruntime_error@std@@UAEPAXI@Z 10003b90 f i * CIL library *:* CIL module *
 0001:00002b90       ??_Ebad_alloc@std@@UAEPAXI@Z 10003b90 f i * CIL library *:* CIL module *
 0001:00002b90       ??_Gbad_alloc@std@@UAEPAXI@Z 10003b90 f i Aimbot.obj
 0001:00002b90       ??_Elogic_error@std@@UAEPAXI@Z 10003b90 f i * CIL library *:* CIL module *
 0001:00002b90       ??_Ebad_cast@std@@UAEPAXI@Z 10003b90 f i * CIL library *:* CIL module *
 0001:00002b90       ??_Glogic_error@std@@UAEPAXI@Z 10003b90 f i Pipi_edit.obj
 0001:00002bc0       ??1bad_cast@std@@UAE@XZ    10003bc0 f i World.obj
 0001:00002bc0       ??1logic_error@std@@UAE@XZ 10003bc0 f i Pipi_edit.obj
 0001:00002bc0       ??1bad_alloc@std@@UAE@XZ   10003bc0 f i Aimbot.obj
 0001:00002bc0       ??1runtime_error@std@@UAE@XZ 10003bc0 f i Menu.obj
 0001:00002be0       ??0bad_array_new_length@std@@QAE@XZ 10003be0 f i Aimbot.obj
 0001:00002c10       ??_Gbad_array_new_length@std@@UAEPAXI@Z 10003c10 f i Aimbot.obj
 0001:00002c10       ??_Ebad_array_new_length@std@@UAEPAXI@Z 10003c10 f i * CIL library *:* CIL module *
 0001:00002c10       ??_Econfigor_exception@configor@@UAEPAXI@Z 10003c10 f i * CIL library *:* CIL module *
 0001:00002c10       ??_Gout_of_range@std@@UAEPAXI@Z 10003c10 f i Pipi_edit.obj
 0001:00002c10       ??_Gconfigor_exception@configor@@UAEPAXI@Z 10003c10 f i Pipi_edit.obj
 0001:00002c10       ??_Eout_of_range@std@@UAEPAXI@Z 10003c10 f i * CIL library *:* CIL module *
 0001:00002c40       ??1out_of_range@std@@UAE@XZ 10003c40 f i Pipi_edit.obj
 0001:00002c40       ??1_System_error@std@@UAE@XZ 10003c40 f i Menu.obj
 0001:00002c40       ??1bad_array_new_length@std@@UAE@XZ 10003c40 f i Aimbot.obj
 0001:00002c40       ??1configor_exception@configor@@UAE@XZ 10003c40 f i Pipi_edit.obj
 0001:00002c60       ?_Throw_bad_array_new_length@std@@YAXXZ 10003c60 f i Aimbot.obj
 0001:00002c80       ??0bad_array_new_length@std@@QAE@ABV01@@Z 10003c80 f i Aimbot.obj
 0001:00002cb0       ??0bad_alloc@std@@QAE@ABV01@@Z 10003cb0 f i Aimbot.obj
 0001:00002ce0       ?max@?$numeric_limits@H@std@@SAHXZ 10003ce0 f i Aimbot.obj
 0001:00002cf0       ?_Allocate@_Default_allocate_traits@std@@SAPAXI@Z 10003cf0 f i Aimbot.obj
 0001:00002d10       ?_Adjust_manually_vector_aligned@std@@YAXAAPAXAAI@Z 10003d10 f i Aimbot.obj
 0001:00002d80       ??0_Container_proxy@std@@QAE@PAU_Container_base12@1@@Z 10003d80 f i Aimbot.obj
 0001:00002d80       ??0?$_Alloc_construct_ptr@V?$allocator@U?$_Tree_node@U?$pair@$$CBV?$basic_string@DU?$char_traits@D@std@@V?$allocator@D@2@@std@@V?$basic_config@Ujson_args@configor@@@configor@@@std@@PAX@std@@@std@@@std@@QAE@AAV?$allocator@U?$_Tree_node@U?$pair@$$CBV?$basic_string@DU?$char_traits@D@std@@V?$allocator@D@2@@std@@V?$basic_config@Ujson_args@configor@@@configor@@@std@@PAX@std@@@1@@Z 10003d80 f i Pipi_edit.obj
 0001:00002db0       ??0QAngle@@QAE@PAM@Z       10003db0 f i Aimbot.obj
 0001:00002db0       ?Init@QAngle@@QAEAAV1@PAM@Z 10003db0 f i NoSpread.obj
 0001:00002db0       ??0Vector@@QAE@PAM@Z       10003db0 f i Aimbot.obj
 0001:00002dd0       ?IsZero@Vector@@QBE_NXZ    10003dd0 f i Aimbot.obj
 0001:00002e30       ?IsZero2D@Vector@@QAE_NXZ  10003e30 f i Aimbot.obj
 0001:00002e80       ?Dot@Vector@@QAEMABV1@@Z   10003e80 f i Aimbot.obj
 0001:00002ed0       ?Length@Vector@@QAEMXZ     10003ed0 f i Aimbot.obj
 0001:00002f00       ?LengthSqr@Vector@@QAEMXZ  10003f00 f i Aimbot.obj
 0001:00002f50       ?Normalize@Vector@@QAEMXZ  10003f50 f i Aimbot.obj
 0001:00002fd0       ?AngleBetween@Vector@@QAEMAAV1@@Z 10003fd0 f i Aimbot.obj
 0001:00003040       ??YVector@@QAEAAV0@ABV0@@Z 10004040 f i Aimbot.obj
 0001:000030a0       ??_0Vector@@QAEAAV0@M@Z    100040a0 f i Aimbot.obj
 0001:00003100       ??GVector@@QBE?AV0@ABV0@@Z 10004100 f i Aimbot.obj
 0001:00003170       ??0QAngle@@QAE@AAV0@@Z     10004170 f i Aimbot.obj
 0001:00003190       ?Normalize@QAngle@@QAEAAV1@XZ 10004190 f i Aimbot.obj
 0001:00003230       ??YQAngle@@QAEAAV0@PAM@Z   10004230 f i Aimbot.obj
 0001:000032a0       ??HQAngle@@QBE?AV0@PAM@Z   100042a0 f i Aimbot.obj
 0001:00003380       ??GQAngle@@QBE?AV0@ABV0@@Z 10004380 f i Aimbot.obj
 0001:00003450       ?SmoothAimAngles@@YAXVQAngle@@0AAV1@M_NMM@Z 10004450 f   Aimbot.obj
 0001:00003650       ?Run@CAimBot@@QAEXPAUusercmd_s@@@Z 10004650 f   Aimbot.obj
 0001:00003690       ?Trigger@CAimBot@@QAEXPAUusercmd_s@@@Z 10004690 f   Aimbot.obj
 0001:00003d30       ?__autoclassinit2@?$deque@IV?$allocator@I@std@@@std@@QAEXI@Z 10004d30 f i Aimbot.obj
 0001:00003d30       ?__autoclassinit2@?$basic_ofstream@DU?$char_traits@D@std@@@std@@QAEXI@Z 10004d30 f i Pipi_edit.obj
 0001:00003d30       ?__autoclassinit2@exception_ptr@std@@QAEXI@Z 10004d30 f i Pipi_edit.obj
 0001:00003d30       ?__autoclassinit2@locale@std@@QAEXI@Z 10004d30 f i World.obj
 0001:00003d30       ?__autoclassinit2@?$_Deque_unchecked_iterator@V?$_Deque_val@U?$_Deque_simple_types@Umy_sound_t@@@std@@@std@@@std@@QAEXI@Z 10004d30 f i Visuals.obj
 0001:00003d30       ?__autoclassinit2@?$_Deque_unchecked_iterator@V?$_Deque_val@U?$_Deque_simple_types@I@std@@@std@@@std@@QAEXI@Z 10004d30 f i Aimbot.obj
 0001:00003d30       ?__autoclassinit2@?$basic_istream@DU?$char_traits@D@std@@@std@@QAEXI@Z 10004d30 f i Pipi_edit.obj
 0001:00003d30       ?__autoclassinit2@?$fast_basic_ostringstream@D@detail@configor@@QAEXI@Z 10004d30 f i Pipi_edit.obj
 0001:00003d30       ?__autoclassinit2@CCvars@@QAEXI@Z 10004d30 f i Cvars.obj
 0001:00003d30       ?__autoclassinit2@?$_Deque_unchecked_iterator@V?$_Deque_val@U?$_Deque_simple_types@VVector@@@std@@@std@@@std@@QAEXI@Z 10004d30 f i Visuals.obj
 0001:00003d30       ?__autoclassinit2@?$numpunct@D@std@@QAEXI@Z 10004d30 f i Pipi_edit.obj
 0001:00003d30       ?__autoclassinit2@?$_Tree_const_iterator@V?$_Tree_val@U?$_Tree_simple_types@U?$pair@$$CBV?$basic_string@DU?$char_traits@D@std@@V?$allocator@D@2@@std@@V?$basic_config@Ujson_args@configor@@@configor@@@std@@@std@@@std@@@std@@QAEXI@Z 10004d30 f i Pipi_edit.obj
 0001:00003d30       ?__autoclassinit2@?$unique_ptr@V_Facet_base@std@@U?$default_delete@V_Facet_base@std@@@2@@std@@QAEXI@Z 10004d30 f i World.obj
 0001:00003d30       ?__autoclassinit2@?$fast_string_istreambuf@D@detail@configor@@QAEXI@Z 10004d30 f i Pipi_edit.obj
 0001:00003d30       ?__autoclassinit2@?$_Uninitialized_backout_al@V?$allocator@V?$basic_config@Ujson_args@configor@@@configor@@@std@@@std@@QAEXI@Z 10004d30 f i Pipi_edit.obj
 0001:00003d30       ?__autoclassinit2@?$json_serializer@V?$basic_config@Ujson_args@configor@@@configor@@@detail@configor@@QAEXI@Z 10004d30 f i Pipi_edit.obj
 0001:00003d30       ?__autoclassinit2@?$basic_ifstream@DU?$char_traits@D@std@@@std@@QAEXI@Z 10004d30 f i World.obj
 0001:00003d30       ?__autoclassinit2@?$deque@Umy_sound_t@@V?$allocator@Umy_sound_t@@@std@@@std@@QAEXI@Z 10004d30 f i Sounds.obj
 0001:00003d50       ?LegitAimbot@CAimBot@@AAEXPAUusercmd_s@@@Z 10004d50 f   Aimbot.obj
 0001:00005120       ?RageAimbot@CAimBot@@AAEXPAUusercmd_s@@@Z 10006120 f   Aimbot.obj
 0001:00005a80       ??E?$_Deque_unchecked_iterator@V?$_Deque_val@U?$_Deque_simple_types@I@std@@@std@@@std@@QAEAAV01@XZ 10006a80 f i Aimbot.obj
 0001:00005a80       ??E?$_Deque_unchecked_iterator@V?$_Deque_val@U?$_Deque_simple_types@Umy_sound_t@@@std@@@std@@@std@@QAEAAV01@XZ 10006a80 f i Visuals.obj
 0001:00005aa0       ??D?$_Deque_unchecked_iterator@V?$_Deque_val@U?$_Deque_simple_types@I@std@@@std@@@std@@QBEAAIXZ 10006aa0 f i Aimbot.obj
 0001:00005ac0       ??9?$_Deque_unchecked_const_iterator@V?$_Deque_val@U?$_Deque_simple_types@Umy_sound_t@@@std@@@std@@@std@@QBE_NABV01@@Z 10006ac0 f i Visuals.obj
 0001:00005ac0       ??9?$_Deque_unchecked_const_iterator@V?$_Deque_val@U?$_Deque_simple_types@I@std@@@std@@@std@@QBE_NABV01@@Z 10006ac0 f i Aimbot.obj
 0001:00005b00       ?push_back@?$deque@IV?$allocator@I@std@@@std@@QAEXABI@Z 10006b00 f i Aimbot.obj
 0001:00005b30       ?push_front@?$deque@IV?$allocator@I@std@@@std@@QAEXABI@Z 10006b30 f i Aimbot.obj
 0001:00005b50       ??$emplace_front@ABI@?$deque@IV?$allocator@I@std@@@std@@QAE?A_TABI@Z 10006b50 f i Aimbot.obj
 0001:00005cc0       ??A?$deque@IV?$allocator@I@std@@@std@@QAEAAII@Z 10006cc0 f i Aimbot.obj
 0001:00005d00       ?empty@?$deque@VVector@@V?$allocator@VVector@@@std@@@std@@QBE_NXZ 10006d00 f i Visuals.obj
 0001:00005d00       ?empty@?$deque@Umy_sound_t@@V?$allocator@Umy_sound_t@@@std@@@std@@QBE_NXZ 10006d00 f i Sounds.obj
 0001:00005d00       ?empty@?$deque@IV?$allocator@I@std@@@std@@QBE_NXZ 10006d00 f i Aimbot.obj
 0001:00005d30       ?size@?$deque@Umy_sound_t@@V?$allocator@Umy_sound_t@@@std@@@std@@QBEIXZ 10006d30 f i Visuals.obj
 0001:00005d30       ?size@?$deque@VVector@@V?$allocator@VVector@@@std@@@std@@QBEIXZ 10006d30 f i Visuals.obj
 0001:00005d30       ?size@?$deque@IV?$allocator@I@std@@@std@@QBEIXZ 10006d30 f i Aimbot.obj
 0001:00005d50       ?_Unchecked_end@?$deque@IV?$allocator@I@std@@@std@@QAE?AV?$_Deque_unchecked_iterator@V?$_Deque_val@U?$_Deque_simple_types@I@std@@@std@@@2@XZ 10006d50 f i Aimbot.obj
 0001:00005d50       ?_Unchecked_end@?$deque@Umy_sound_t@@V?$allocator@Umy_sound_t@@@std@@@std@@QAE?AV?$_Deque_unchecked_iterator@V?$_Deque_val@U?$_Deque_simple_types@Umy_sound_t@@@std@@@std@@@2@XZ 10006d50 f i Visuals.obj
 0001:00005da0       ?_Unchecked_begin@?$deque@Umy_sound_t@@V?$allocator@Umy_sound_t@@@std@@@std@@QAE?AV?$_Deque_unchecked_iterator@V?$_Deque_val@U?$_Deque_simple_types@Umy_sound_t@@@std@@@std@@@2@XZ 10006da0 f i Visuals.obj
 0001:00005da0       ?_Unchecked_begin@?$deque@IV?$allocator@I@std@@@std@@QAE?AV?$_Deque_unchecked_iterator@V?$_Deque_val@U?$_Deque_simple_types@I@std@@@std@@@2@XZ 10006da0 f i Aimbot.obj
 0001:00005da0       ?_Unchecked_begin@?$deque@VVector@@V?$allocator@VVector@@@std@@@std@@QAE?AV?$_Deque_unchecked_iterator@V?$_Deque_val@U?$_Deque_simple_types@VVector@@@std@@@std@@@2@XZ 10006da0 f i Visuals.obj
 0001:00005de0       ??1?$deque@IV?$allocator@I@std@@@std@@QAE@XZ 10006de0 f i Aimbot.obj
 0001:00005e50       ?push_back@?$deque@IV?$allocator@I@std@@@std@@QAEX$$QAI@Z 10006e50 f i Aimbot.obj
 0001:00005e80       ??0?$deque@VVector@@V?$allocator@VVector@@@std@@@std@@QAE@XZ 10006e80 f i Visuals.obj
 0001:00005e80       ??0?$deque@Umy_sound_t@@V?$allocator@Umy_sound_t@@@std@@@std@@QAE@XZ 10006e80 f i Sounds.obj
 0001:00005e80       ??0?$deque@IV?$allocator@I@std@@@std@@QAE@XZ 10006e80 f i Aimbot.obj
 0001:00005ec0       ??0?$_Deque_unchecked_iterator@V?$_Deque_val@U?$_Deque_simple_types@VVector@@@std@@@std@@@std@@QAE@IPBU_Container_base12@1@@Z 10006ec0 f i Visuals.obj
 0001:00005ec0       ??0?$_Deque_unchecked_iterator@V?$_Deque_val@U?$_Deque_simple_types@Umy_sound_t@@@std@@@std@@@std@@QAE@IPBU_Container_base12@1@@Z 10006ec0 f i Visuals.obj
 0001:00005ec0       ??0?$_Deque_unchecked_iterator@V?$_Deque_val@U?$_Deque_simple_types@I@std@@@std@@@std@@QAE@IPBU_Container_base12@1@@Z 10006ec0 f i Aimbot.obj
 0001:00005ee0       ??H?$_Deque_unchecked_iterator@V?$_Deque_val@U?$_Deque_simple_types@I@std@@@std@@@std@@QBE?AV01@H@Z 10006ee0 f i Aimbot.obj
 0001:00005ee0       ??H?$_Deque_unchecked_iterator@V?$_Deque_val@U?$_Deque_simple_types@VVector@@@std@@@std@@@std@@QBE?AV01@H@Z 10006ee0 f i Visuals.obj
 0001:00005f40       ??8?$_Deque_unchecked_const_iterator@V?$_Deque_val@U?$_Deque_simple_types@Umy_sound_t@@@std@@@std@@@std@@QBE_NABV01@@Z 10006f40 f i Visuals.obj
 0001:00005f40       ??8?$_Deque_unchecked_const_iterator@V?$_Deque_val@U?$_Deque_simple_types@I@std@@@std@@@std@@QBE_NABV01@@Z 10006f40 f i Aimbot.obj
 0001:00005f40       ??8error_category@std@@QBE_NABV01@@Z 10006f40 f i Menu.obj
 0001:00005f70       ??E?$_Deque_unchecked_const_iterator@V?$_Deque_val@U?$_Deque_simple_types@I@std@@@std@@@std@@QAEAAV01@XZ 10006f70 f i Aimbot.obj
 0001:00005f70       ??E?$_Deque_unchecked_const_iterator@V?$_Deque_val@U?$_Deque_simple_types@Umy_sound_t@@@std@@@std@@@std@@QAEAAV01@XZ 10006f70 f i Visuals.obj
 0001:00005f90       ??D?$_Deque_unchecked_const_iterator@V?$_Deque_val@U?$_Deque_simple_types@I@std@@@std@@@std@@QBEABIXZ 10006f90 f i Aimbot.obj
 0001:00005fe0       ??0?$_Deque_unchecked_const_iterator@V?$_Deque_val@U?$_Deque_simple_types@I@std@@@std@@@std@@QAE@IPBU_Container_base12@1@@Z 10006fe0 f i Aimbot.obj
 0001:00005fe0       ??0?$_Deque_unchecked_const_iterator@V?$_Deque_val@U?$_Deque_simple_types@Umy_sound_t@@@std@@@std@@@std@@QAE@IPBU_Container_base12@1@@Z 10006fe0 f i Visuals.obj
 0001:00005fe0       ??0?$_Deque_unchecked_const_iterator@V?$_Deque_val@U?$_Deque_simple_types@VVector@@@std@@@std@@@std@@QAE@IPBU_Container_base12@1@@Z 10006fe0 f i Visuals.obj
 0001:00006010       ?_Mysize@?$deque@IV?$allocator@I@std@@@std@@ABEABIXZ 10007010 f i Aimbot.obj
 0001:00006010       ?_Mysize@?$deque@IV?$allocator@I@std@@@std@@AAEAAIXZ 10007010 f i Aimbot.obj
 0001:00006010       ?_Mysize@?$deque@Umy_sound_t@@V?$allocator@Umy_sound_t@@@std@@@std@@AAEAAIXZ 10007010 f i Sounds.obj
 0001:00006010       ?_Mysize@?$deque@Umy_sound_t@@V?$allocator@Umy_sound_t@@@std@@@std@@ABEABIXZ 10007010 f i Sounds.obj
 0001:00006010       ?_Mysize@?$deque@VVector@@V?$allocator@VVector@@@std@@@std@@AAEAAIXZ 10007010 f i Visuals.obj
 0001:00006010       ?_Mysize@?$deque@VVector@@V?$allocator@VVector@@@std@@@std@@ABEABIXZ 10007010 f i Visuals.obj
 0001:00006030       ?_Myoff@?$deque@IV?$allocator@I@std@@@std@@AAEAAIXZ 10007030 f i Aimbot.obj
 0001:00006030       ?_Myoff@?$deque@Umy_sound_t@@V?$allocator@Umy_sound_t@@@std@@@std@@AAEAAIXZ 10007030 f i Sounds.obj
 0001:00006030       ?_Myoff@?$deque@VVector@@V?$allocator@VVector@@@std@@@std@@AAEAAIXZ 10007030 f i Visuals.obj
 0001:00006050       ?_Mapsize@?$deque@IV?$allocator@I@std@@@std@@AAEAAIXZ 10007050 f i Aimbot.obj
 0001:00006050       ?_Mapsize@?$deque@VVector@@V?$allocator@VVector@@@std@@@std@@AAEAAIXZ 10007050 f i Visuals.obj
 0001:00006050       ?_Mapsize@?$deque@Umy_sound_t@@V?$allocator@Umy_sound_t@@@std@@@std@@AAEAAIXZ 10007050 f i Sounds.obj
 0001:00006070       ?_Map@?$deque@VVector@@V?$allocator@VVector@@@std@@@std@@AAEAAPAPAVVector@@XZ 10007070 f i Visuals.obj
 0001:00006070       ?_Map@?$deque@IV?$allocator@I@std@@@std@@AAEAAPAPAIXZ 10007070 f i Aimbot.obj
 0001:00006070       ?_Map@?$deque@Umy_sound_t@@V?$allocator@Umy_sound_t@@@std@@@std@@AAEAAPAPAUmy_sound_t@@XZ 10007070 f i Sounds.obj
 0001:00006090       ?_Getal@?$basic_string@DU?$char_traits@D@std@@V?$allocator@D@2@@std@@ABEABV?$allocator@D@2@XZ 10007090 f i Cvars.obj
 0001:00006090       ?_Getal@?$vector@V?$basic_config@Ujson_args@configor@@@configor@@V?$allocator@V?$basic_config@Ujson_args@configor@@@configor@@@std@@@std@@AAEAAV?$allocator@V?$basic_config@Ujson_args@configor@@@configor@@@2@XZ 10007090 f i Pipi_edit.obj
 0001:00006090       ?_Getal@?$deque@IV?$allocator@I@std@@@std@@AAEAAV?$allocator@I@2@XZ 10007090 f i Aimbot.obj
 0001:00006090       ?_Getal@?$_Tree@V?$_Tmap_traits@V?$basic_string@DU?$char_traits@D@std@@V?$allocator@D@2@@std@@V?$basic_config@Ujson_args@configor@@@configor@@U?$less@V?$basic_string@DU?$char_traits@D@std@@V?$allocator@D@2@@std@@@2@V?$allocator@U?$pair@$$CBV?$basic_string@DU?$char_traits@D@std@@V?$allocator@D@2@@std@@V?$basic_config@Ujson_args@configor@@@configor@@@std@@@2@$0A@@std@@@std@@IAEAAV?$allocator@U?$_Tree_node@U?$pair@$$CBV?$basic_string@DU?$char_traits@D@std@@V?$allocator@D@2@@std@@V?$basic_config@Ujson_args@configor@@@configor@@@std@@PAX@std@@@2@XZ 10007090 f i Pipi_edit.obj
 0001:00006090       ?_Getal@?$deque@VVector@@V?$allocator@VVector@@@std@@@std@@ABEABV?$allocator@VVector@@@2@XZ 10007090 f i Visuals.obj
 0001:00006090       ?_Getal@?$deque@Umy_sound_t@@V?$allocator@Umy_sound_t@@@std@@@std@@AAEAAV?$allocator@Umy_sound_t@@@2@XZ 10007090 f i Sounds.obj
 0001:00006090       ?_Getal@?$deque@IV?$allocator@I@std@@@std@@ABEABV?$allocator@I@2@XZ 10007090 f i Aimbot.obj
 0001:00006090       ?_Getal@?$vector@V?$basic_config@Ujson_args@configor@@@configor@@V?$allocator@V?$basic_config@Ujson_args@configor@@@configor@@@std@@@std@@ABEABV?$allocator@V?$basic_config@Ujson_args@configor@@@configor@@@2@XZ 10007090 f i Pipi_edit.obj
 0001:00006090       ?_Getal@?$basic_string@DU?$char_traits@D@std@@V?$allocator@D@2@@std@@AAEAAV?$allocator@D@2@XZ 10007090 f i Cvars.obj
 0001:00006090       ?_Getal@?$deque@Umy_sound_t@@V?$allocator@Umy_sound_t@@@std@@@std@@ABEABV?$allocator@Umy_sound_t@@@2@XZ 10007090 f i Sounds.obj
 0001:00006090       ?_Getal@?$deque@VVector@@V?$allocator@VVector@@@std@@@std@@AAEAAV?$allocator@VVector@@@2@XZ 10007090 f i Visuals.obj
 0001:00006090       ?_Getcomp@?$_Tree@V?$_Tmap_traits@V?$basic_string@DU?$char_traits@D@std@@V?$allocator@D@2@@std@@V?$basic_config@Ujson_args@configor@@@configor@@U?$less@V?$basic_string@DU?$char_traits@D@std@@V?$allocator@D@2@@std@@@2@V?$allocator@U?$pair@$$CBV?$basic_string@DU?$char_traits@D@std@@V?$allocator@D@2@@std@@V?$basic_config@Ujson_args@configor@@@configor@@@std@@@2@$0A@@std@@@std@@IBEABU?$less@V?$basic_string@DU?$char_traits@D@std@@V?$allocator@D@2@@std@@@2@XZ 10007090 f i Pipi_edit.obj
 0001:00006090       ?_Getal@?$_Tree@V?$_Tmap_traits@V?$basic_string@DU?$char_traits@D@std@@V?$allocator@D@2@@std@@V?$basic_config@Ujson_args@configor@@@configor@@U?$less@V?$basic_string@DU?$char_traits@D@std@@V?$allocator@D@2@@std@@@2@V?$allocator@U?$pair@$$CBV?$basic_string@DU?$char_traits@D@std@@V?$allocator@D@2@@std@@V?$basic_config@Ujson_args@configor@@@configor@@@std@@@2@$0A@@std@@@std@@IBEABV?$allocator@U?$_Tree_node@U?$pair@$$CBV?$basic_string@DU?$char_traits@D@std@@V?$allocator@D@2@@std@@V?$basic_config@Ujson_args@configor@@@configor@@@std@@PAX@std@@@2@XZ 10007090 f i Pipi_edit.obj
 0001:000060b0       ?_Orphan_all@?$deque@VVector@@V?$allocator@VVector@@@std@@@std@@AAEXXZ 100070b0 f i Visuals.obj
 0001:000060b0       ?_Orphan_all@?$deque@IV?$allocator@I@std@@@std@@AAEXXZ 100070b0 f i Aimbot.obj
 0001:000060b0       ?_Orphan_all@?$deque@Umy_sound_t@@V?$allocator@Umy_sound_t@@@std@@@std@@AAEXXZ 100070b0 f i Sounds.obj
 0001:000060d0       ?_Getblock@?$deque@IV?$allocator@I@std@@@std@@ABEII@Z 100070d0 f i Aimbot.obj
 0001:000060f0       ?_Tidy@?$deque@IV?$allocator@I@std@@@std@@AAEXXZ 100070f0 f i Aimbot.obj
 0001:00006220       ?_Growmap@?$deque@IV?$allocator@I@std@@@std@@AAEXI@Z 10007220 f i Aimbot.obj
 0001:00006480       ?allocate@?$allocator@PAUmy_sound_t@@@std@@QAEPAPAUmy_sound_t@@I@Z 10007480 f i Sounds.obj
 0001:00006480       ?allocate@?$allocator@I@std@@QAEPAII@Z 10007480 f i Aimbot.obj
 0001:00006480       ?allocate@?$allocator@PAI@std@@QAEPAPAII@Z 10007480 f i Aimbot.obj
 0001:00006480       ?allocate@?$allocator@PAVVector@@@std@@QAEPAPAVVector@@I@Z 10007480 f i Visuals.obj
 0001:000064b0       ??Y?$_Deque_unchecked_iterator@V?$_Deque_val@U?$_Deque_simple_types@I@std@@@std@@@std@@QAEAAV01@H@Z 100074b0 f i Aimbot.obj
 0001:000064b0       ??Y?$_Deque_unchecked_iterator@V?$_Deque_val@U?$_Deque_simple_types@VVector@@@std@@@std@@@std@@QAEAAV01@H@Z 100074b0 f i Visuals.obj
 0001:000064d0       ?_Xlen@?$deque@IV?$allocator@I@std@@@std@@ABEXXZ 100074d0 f i Aimbot.obj
 0001:000064d0       ?_Xlen@?$deque@VVector@@V?$allocator@VVector@@@std@@@std@@ABEXXZ 100074d0 f i Visuals.obj
 0001:000064d0       ?_Xlen@?$deque@Umy_sound_t@@V?$allocator@Umy_sound_t@@@std@@@std@@ABEXXZ 100074d0 f i Sounds.obj
 0001:000064f0       ?pop_back@?$deque@IV?$allocator@I@std@@@std@@QAEXXZ 100074f0 f i Aimbot.obj
 0001:000065d0       ?max_size@?$deque@IV?$allocator@I@std@@@std@@QBEIXZ 100075d0 f i Aimbot.obj
 0001:00006610       ?_Getblock@?$_Deque_val@U?$_Deque_simple_types@I@std@@@std@@QBEII@Z 10007610 f i Aimbot.obj
 0001:00006630       ?deallocate@?$allocator@PAVVector@@@std@@QAEXQAPAVVector@@I@Z 10007630 f i Visuals.obj
 0001:00006630       ?deallocate@?$allocator@PAI@std@@QAEXQAPAII@Z 10007630 f i Aimbot.obj
 0001:00006630       ?deallocate@?$allocator@PAUmy_sound_t@@@std@@QAEXQAPAUmy_sound_t@@I@Z 10007630 f i Sounds.obj
 0001:00006630       ?deallocate@?$allocator@I@std@@QAEXQAII@Z 10007630 f i Aimbot.obj
 0001:00006650       ??Y?$_Deque_unchecked_const_iterator@V?$_Deque_val@U?$_Deque_simple_types@VVector@@@std@@@std@@@std@@QAEAAV01@H@Z 10007650 f i Visuals.obj
 0001:00006650       ??Y?$_Deque_unchecked_const_iterator@V?$_Deque_val@U?$_Deque_simple_types@I@std@@@std@@@std@@QAEAAV01@H@Z 10007650 f i Aimbot.obj
 0001:00006670       ?max_size@?$_Default_allocator_traits@V?$allocator@I@std@@@std@@SAIABV?$allocator@I@2@@Z 10007670 f i Aimbot.obj
 0001:00006680       ??$isnan@M@@YA_NM@Z        10007680 f i Aimbot.obj
 0001:000066c0       ??$_Emplace_back_internal@ABI@?$deque@IV?$allocator@I@std@@@std@@AAEXABI@Z 100076c0 f i Aimbot.obj
 0001:000066c0       ??$_Emplace_back_internal@I@?$deque@IV?$allocator@I@std@@@std@@AAEX$$QAI@Z 100076c0 f i Aimbot.obj
 0001:00006810       ??$_Kfn@$$CBV?$basic_string@DU?$char_traits@D@std@@V?$allocator@D@2@@std@@V?$basic_config@Ujson_args@configor@@@configor@@@?$_Tmap_traits@V?$basic_string@DU?$char_traits@D@std@@V?$allocator@D@2@@std@@V?$basic_config@Ujson_args@configor@@@configor@@U?$less@V?$basic_string@DU?$char_traits@D@std@@V?$allocator@D@2@@std@@@2@V?$allocator@U?$pair@$$CBV?$basic_string@DU?$char_traits@D@std@@V?$allocator@D@2@@std@@V?$basic_config@Ujson_args@configor@@@configor@@@std@@@2@$0A@@std@@SAABV?$basic_string@DU?$char_traits@D@std@@V?$allocator@D@2@@1@ABU?$pair@$$CBV?$basic_string@DU?$char_traits@D@std@@V?$allocator@D@2@@std@@V?$basic_config@Ujson_args@configor@@@configor@@@1@@Z 10007810 f i Pipi_edit.obj
 0001:00006810       ??$forward@ABU?$less@V?$basic_string@DU?$char_traits@D@std@@V?$allocator@D@2@@std@@@std@@@std@@YAABU?$less@V?$basic_string@DU?$char_traits@D@std@@V?$allocator@D@2@@std@@@0@ABU10@@Z 10007810 f i Pipi_edit.obj
 0001:00006810       ??$move@AAU?$config_value@V?$basic_config@Ujson_args@configor@@@configor@@@detail@configor@@@std@@YA$$QAU?$config_value@V?$basic_config@Ujson_args@configor@@@configor@@@detail@configor@@AAU123@@Z 10007810 f i Pipi_edit.obj
 0001:00006810       ??$_Unfancy@V?$basic_config@Ujson_args@configor@@@configor@@@std@@YAPAV?$basic_config@Ujson_args@configor@@@configor@@PAV12@@Z 10007810 f i Pipi_edit.obj
 0001:00006810       ??$move@AAI@std@@YA$$QAIAAI@Z 10007810 f i Aimbot.obj
 0001:00006810       ??$forward@AAV?$map@V?$basic_string@DU?$char_traits@D@std@@V?$allocator@D@2@@std@@V?$basic_config@Ujson_args@configor@@@configor@@U?$less@V?$basic_string@DU?$char_traits@D@std@@V?$allocator@D@2@@std@@@2@V?$allocator@U?$pair@$$CBV?$basic_string@DU?$char_traits@D@std@@V?$allocator@D@2@@std@@V?$basic_config@Ujson_args@configor@@@configor@@@std@@@2@@std@@@std@@YAAAV?$map@V?$basic_string@DU?$char_traits@D@std@@V?$allocator@D@2@@std@@V?$basic_config@Ujson_args@configor@@@configor@@U?$less@V?$basic_string@DU?$char_traits@D@std@@V?$allocator@D@2@@std@@@2@V?$allocator@U?$pair@$$CBV?$basic_string@DU?$char_traits@D@std@@V?$allocator@D@2@@std@@V?$basic_config@Ujson_args@configor@@@configor@@@std@@@2@@0@AAV10@@Z 10007810 f i Pipi_edit.obj
 0001:00006810       ??$_Unfancy@U_Container_proxy@std@@@std@@YAPAU_Container_proxy@0@PAU10@@Z 10007810 f i Aimbot.obj
 0001:00006810       ??$forward@U?$less@V?$basic_string@DU?$char_traits@D@std@@V?$allocator@D@2@@std@@@std@@@std@@YA$$QAU?$less@V?$basic_string@DU?$char_traits@D@std@@V?$allocator@D@2@@std@@@0@AAU10@@Z 10007810 f i Pipi_edit.obj
 0001:00006810       ??$addressof@PAD@std@@YAPAPADAAPAD@Z 10007810 f i Cvars.obj
 0001:00006810       ??$forward@AAV?$basic_config@Ujson_args@configor@@@configor@@@std@@YAAAV?$basic_config@Ujson_args@configor@@@configor@@AAV12@@Z 10007810 f i Pipi_edit.obj
 0001:00006810       ??$forward@V?$allocator@V?$basic_config@Ujson_args@configor@@@configor@@@std@@@std@@YA$$QAV?$allocator@V?$basic_config@Ujson_args@configor@@@configor@@@0@AAV10@@Z 10007810 f i Pipi_edit.obj
 0001:00006810       ??$forward@AAPAV_Facet_base@std@@@std@@YAAAPAV_Facet_base@0@AAPAV10@@Z 10007810 f i World.obj
 0001:00006810       ??$addressof@V?$_Deque_val@U?$_Deque_simple_types@Umy_sound_t@@@std@@@std@@@std@@YAPAV?$_Deque_val@U?$_Deque_simple_types@Umy_sound_t@@@std@@@0@AAV10@@Z 10007810 f i Visuals.obj
 0001:00006810       ??$forward@AAPAD@std@@YAAAPADAAPAD@Z 10007810 f i Menu.obj
 0001:00006810       ?select_on_container_copy_construction@?$_Default_allocator_traits@V?$allocator@D@std@@@std@@SA?AV?$allocator@D@2@ABV32@@Z 10007810 f i Menu.obj
 0001:00006810       ??$move@AAH@std@@YA$$QAHAAH@Z 10007810 f i Drawing.obj
 0001:00006810       ??$addressof@PAU?$_Tree_node@U?$pair@$$CBV?$basic_string@DU?$char_traits@D@std@@V?$allocator@D@2@@std@@V?$basic_config@Ujson_args@configor@@@configor@@@std@@PAX@std@@@std@@YAPAPAU?$_Tree_node@U?$pair@$$CBV?$basic_string@DU?$char_traits@D@std@@V?$allocator@D@2@@std@@V?$basic_config@Ujson_args@configor@@@configor@@@std@@PAX@0@AAPAU10@@Z 10007810 f i Pipi_edit.obj
 0001:00006810       ?_Extract@?$_In_place_key_extract_map@V?$basic_string@DU?$char_traits@D@std@@V?$allocator@D@2@@std@@V12@V?$basic_config@Ujson_args@configor@@@configor@@@std@@SAABV?$basic_string@DU?$char_traits@D@std@@V?$allocator@D@2@@2@ABV32@ABV?$basic_config@Ujson_args@configor@@@configor@@@Z 10007810 f i Pipi_edit.obj
 0001:00006810       ??$forward@V?$_Tree_iterator@V?$_Tree_val@U?$_Tree_simple_types@U?$pair@$$CBV?$basic_string@DU?$char_traits@D@std@@V?$allocator@D@2@@std@@V?$basic_config@Ujson_args@configor@@@configor@@@std@@@std@@@std@@@std@@@std@@YA$$QAV?$_Tree_iterator@V?$_Tree_val@U?$_Tree_simple_types@U?$pair@$$CBV?$basic_string@DU?$char_traits@D@std@@V?$allocator@D@2@@std@@V?$basic_config@Ujson_args@configor@@@configor@@@std@@@std@@@std@@@0@AAV10@@Z 10007810 f i Pipi_edit.obj
 0001:00006810       ??$_Convert_size@I@std@@YAII@Z 10007810 f i Cvars.obj
 0001:00006810       ??$forward@AAU?$pair@$$CBV?$basic_string@DU?$char_traits@D@std@@V?$allocator@D@2@@std@@V?$basic_config@Ujson_args@configor@@@configor@@@std@@@std@@YAAAU?$pair@$$CBV?$basic_string@DU?$char_traits@D@std@@V?$allocator@D@2@@std@@V?$basic_config@Ujson_args@configor@@@configor@@@0@AAU10@@Z 10007810 f i Pipi_edit.obj
 0001:00006810       ??$addressof@U?$pair@$$CBV?$basic_string@DU?$char_traits@D@std@@V?$allocator@D@2@@std@@V?$basic_config@Ujson_args@configor@@@configor@@@std@@@std@@YAPAU?$pair@$$CBV?$basic_string@DU?$char_traits@D@std@@V?$allocator@D@2@@std@@V?$basic_config@Ujson_args@configor@@@configor@@@0@AAU10@@Z 10007810 f i Pipi_edit.obj
 0001:00006810       ?select_on_container_copy_construction@?$_Default_allocator_traits@V?$allocator@V?$basic_config@Ujson_args@configor@@@configor@@@std@@@std@@SA?AV?$allocator@V?$basic_config@Ujson_args@configor@@@configor@@@2@ABV32@@Z 10007810 f i Pipi_edit.obj
 0001:00006810       ??$forward@U_One_then_variadic_args_t@std@@@std@@YA$$QAU_One_then_variadic_args_t@0@AAU10@@Z 10007810 f i Pipi_edit.obj
 0001:00006810       ??$addressof@V?$_Tree_val@U?$_Tree_simple_types@U?$pair@$$CBV?$basic_string@DU?$char_traits@D@std@@V?$allocator@D@2@@std@@V?$basic_config@Ujson_args@configor@@@configor@@@std@@@std@@@std@@@std@@YAPAV?$_Tree_val@U?$_Tree_simple_types@U?$pair@$$CBV?$basic_string@DU?$char_traits@D@std@@V?$allocator@D@2@@std@@V?$basic_config@Ujson_args@configor@@@configor@@@std@@@std@@@0@AAV10@@Z 10007810 f i Pipi_edit.obj
 0001:00006810       ??$_Voidify_iter@PAI@std@@YAPAXPAI@Z 10007810 f i Aimbot.obj
 0001:00006810       ??$_Voidify_iter@PAPAI@std@@YAPAXPAPAI@Z 10007810 f i Aimbot.obj
 0001:00006810       ??$addressof@PAI@std@@YAPAPAIAAPAI@Z 10007810 f i Aimbot.obj
 0001:00006810       ??$forward@AAPAUmy_sound_t@@@std@@YAAAPAUmy_sound_t@@AAPAU1@@Z 10007810 f i Sounds.obj
 0001:00006810       ??$_Voidify_iter@PAV?$basic_config@Ujson_args@configor@@@configor@@@std@@YAPAXPAV?$basic_config@Ujson_args@configor@@@configor@@@Z 10007810 f i Pipi_edit.obj
 0001:00006810       ??$forward@_N@std@@YA$$QA_NAA_N@Z 10007810 f i Pipi_edit.obj
 0001:00006810       ??$forward@V?$basic_config@Ujson_args@configor@@@configor@@@std@@YA$$QAV?$basic_config@Ujson_args@configor@@@configor@@AAV12@@Z 10007810 f i Pipi_edit.obj
 0001:00006810       ??$addressof@PAUmy_sound_t@@@std@@YAPAPAUmy_sound_t@@AAPAU1@@Z 10007810 f i Sounds.obj
 0001:00006810       ??$_Voidify_iter@PAVVector@@@std@@YAPAXPAVVector@@@Z 10007810 f i Visuals.obj
 0001:00006810       ??$_Unfancy@VVector@@@std@@YAPAVVector@@PAV1@@Z 10007810 f i Visuals.obj
 0001:00006810       ?select_on_container_copy_construction@?$_Default_allocator_traits@V?$allocator@U?$_Tree_node@U?$pair@$$CBV?$basic_string@DU?$char_traits@D@std@@V?$allocator@D@2@@std@@V?$basic_config@Ujson_args@configor@@@configor@@@std@@PAX@std@@@std@@@std@@SA?AV?$allocator@U?$_Tree_node@U?$pair@$$CBV?$basic_string@DU?$char_traits@D@std@@V?$allocator@D@2@@std@@V?$basic_config@Ujson_args@configor@@@configor@@@std@@PAX@std@@@2@ABV32@@Z 10007810 f i Pipi_edit.obj
 0001:00006810       ??$forward@ABUmy_sound_t@@@std@@YAABUmy_sound_t@@ABU1@@Z 10007810 f i Sounds.obj
 0001:00006810       ??$forward@U_Zero_then_variadic_args_t@std@@@std@@YA$$QAU_Zero_then_variadic_args_t@0@AAU10@@Z 10007810 f i Pipi_edit.obj
 0001:00006810       ??$forward@PAU_Container_base12@std@@@std@@YA$$QAPAU_Container_base12@0@AAPAU10@@Z 10007810 f i Aimbot.obj
 0001:00006810       ??$forward@AAH@std@@YAAAHAAH@Z 10007810 f i Pipi_edit.obj
 0001:00006810       ??$_Voidify_iter@PAPAUmy_sound_t@@@std@@YAPAXPAPAUmy_sound_t@@@Z 10007810 f i Sounds.obj
 0001:00006810       ??$forward@AAPAVVector@@@std@@YAAAPAVVector@@AAPAV1@@Z 10007810 f i Visuals.obj
 0001:00006810       ??$move@AAT<unnamed-type-data>@?$config_value@V?$basic_config@Ujson_args@configor@@@configor@@@detail@configor@@@std@@YA$$QAT<unnamed-type-data>@?$config_value@V?$basic_config@Ujson_args@configor@@@configor@@@detail@configor@@AAT1234@@Z 10007810 f i Pipi_edit.obj
 0001:00006810       ??$forward@V?$allocator@D@std@@@std@@YA$$QAV?$allocator@D@0@AAV10@@Z 10007810 f i Menu.obj
 0001:00006810       ??$forward@ABI@std@@YAABIABI@Z 10007810 f i Aimbot.obj
 0001:00006810       ??$forward@PAU?$_Tree_node@U?$pair@$$CBV?$basic_string@DU?$char_traits@D@std@@V?$allocator@D@2@@std@@V?$basic_config@Ujson_args@configor@@@configor@@@std@@PAX@std@@@std@@YA$$QAPAU?$_Tree_node@U?$pair@$$CBV?$basic_string@DU?$char_traits@D@std@@V?$allocator@D@2@@std@@V?$basic_config@Ujson_args@configor@@@configor@@@std@@PAX@0@AAPAU10@@Z 10007810 f i Pipi_edit.obj
 0001:00006810       ??$addressof@V?$basic_filebuf@DU?$char_traits@D@std@@@std@@@std@@YAPAV?$basic_filebuf@DU?$char_traits@D@std@@@0@AAV10@@Z 10007810 f i World.obj
 0001:00006810       ??$_Voidify_iter@PAUmy_sound_t@@@std@@YAPAXPAUmy_sound_t@@@Z 10007810 f i Sounds.obj
 0001:00006810       ??$forward@AAV?$basic_string@DU?$char_traits@D@std@@V?$allocator@D@2@@std@@@std@@YAAAV?$basic_string@DU?$char_traits@D@std@@V?$allocator@D@2@@0@AAV10@@Z 10007810 f i Pipi_edit.obj
 0001:00006810       ??$addressof@$$CBV?$_String_val@U?$_Simple_types@D@std@@@std@@@std@@YAPBV?$_String_val@U?$_Simple_types@D@std@@@0@ABV10@@Z 10007810 f i Menu.obj
 0001:00006810       ??$forward@V?$allocator@U?$_Tree_node@U?$pair@$$CBV?$basic_string@DU?$char_traits@D@std@@V?$allocator@D@2@@std@@V?$basic_config@Ujson_args@configor@@@configor@@@std@@PAX@std@@@std@@@std@@YA$$QAV?$allocator@U?$_Tree_node@U?$pair@$$CBV?$basic_string@DU?$char_traits@D@std@@V?$allocator@D@2@@std@@V?$basic_config@Ujson_args@configor@@@configor@@@std@@PAX@std@@@0@AAV10@@Z 10007810 f i Pipi_edit.obj
 0001:00006810       ??$forward@I@std@@YA$$QAIAAI@Z 10007810 f i Aimbot.obj
 0001:00006810       ??$_Unfancy@I@std@@YAPAIPAI@Z 10007810 f i Aimbot.obj
 0001:00006810       ??$move@AAV?$allocator@D@std@@@std@@YA$$QAV?$allocator@D@0@AAV10@@Z 10007810 f i Menu.obj
 0001:00006810       ??$_Unfancy@D@std@@YAPADPAD@Z 10007810 f i Cvars.obj
 0001:00006810       ??$_Voidify_iter@PAPAU?$_Tree_node@U?$pair@$$CBV?$basic_string@DU?$char_traits@D@std@@V?$allocator@D@2@@std@@V?$basic_config@Ujson_args@configor@@@configor@@@std@@PAX@std@@@std@@YAPAXPAPAU?$_Tree_node@U?$pair@$$CBV?$basic_string@DU?$char_traits@D@std@@V?$allocator@D@2@@std@@V?$basic_config@Ujson_args@configor@@@configor@@@std@@PAX@0@@Z 10007810 f i Pipi_edit.obj
 0001:00006810       ??$addressof@V?$basic_string@DU?$char_traits@D@std@@V?$allocator@D@2@@std@@@std@@YAPAV?$basic_string@DU?$char_traits@D@std@@V?$allocator@D@2@@0@AAV10@@Z 10007810 f i Pipi_edit.obj
 0001:00006810       ??$_Voidify_iter@PAV?$vector@V?$basic_config@Ujson_args@configor@@@configor@@V?$allocator@V?$basic_config@Ujson_args@configor@@@configor@@@std@@@std@@@std@@YAPAXPAV?$vector@V?$basic_config@Ujson_args@configor@@@configor@@V?$allocator@V?$basic_config@Ujson_args@configor@@@configor@@@std@@@0@@Z 10007810 f i Pipi_edit.obj
 0001:00006810       ??$_Voidify_iter@PAPAVVector@@@std@@YAPAXPAPAVVector@@@Z 10007810 f i Visuals.obj
 0001:00006810       ??$_Voidify_iter@PAV?$map@V?$basic_string@DU?$char_traits@D@std@@V?$allocator@D@2@@std@@V?$basic_config@Ujson_args@configor@@@configor@@U?$less@V?$basic_string@DU?$char_traits@D@std@@V?$allocator@D@2@@std@@@2@V?$allocator@U?$pair@$$CBV?$basic_string@DU?$char_traits@D@std@@V?$allocator@D@2@@std@@V?$basic_config@Ujson_args@configor@@@configor@@@std@@@2@@std@@@std@@YAPAXPAV?$map@V?$basic_string@DU?$char_traits@D@std@@V?$allocator@D@2@@std@@V?$basic_config@Ujson_args@configor@@@configor@@U?$less@V?$basic_string@DU?$char_traits@D@std@@V?$allocator@D@2@@std@@@2@V?$allocator@U?$pair@$$CBV?$basic_string@DU?$char_traits@D@std@@V?$allocator@D@2@@std@@V?$basic_config@Ujson_args@configor@@@configor@@@std@@@2@@0@@Z 10007810 f i Pipi_edit.obj
 0001:00006810       ??$addressof@V?$_Deque_val@U?$_Deque_simple_types@I@std@@@std@@@std@@YAPAV?$_Deque_val@U?$_Deque_simple_types@I@std@@@0@AAV10@@Z 10007810 f i Aimbot.obj
 0001:00006810       ??$_Get_unwrapped@AAV?$istreambuf_iterator@DU?$char_traits@D@std@@@std@@@std@@YA?A_TAAV?$istreambuf_iterator@DU?$char_traits@D@std@@@0@@Z 10007810 f i World.obj
 0001:00006810       ??$_Unfancy@Umy_sound_t@@@std@@YAPAUmy_sound_t@@PAU1@@Z 10007810 f i Sounds.obj
 0001:00006810       ??$forward@ABVVector@@@std@@YAABVVector@@ABV1@@Z 10007810 f i Visuals.obj
 0001:00006810       ??$forward@AB_N@std@@YAAB_NAB_N@Z 10007810 f i Pipi_edit.obj
 0001:00006810       ??$_Voidify_iter@PAU_Container_proxy@std@@@std@@YAPAXPAU_Container_proxy@0@@Z 10007810 f i Aimbot.obj
 0001:00006810       ??$forward@PAPAI@std@@YA$$QAPAPAIAAPAPAI@Z 10007810 f i Aimbot.obj
 0001:00006810       ??$addressof@$$CBV?$_Tree_val@U?$_Tree_simple_types@U?$pair@$$CBV?$basic_string@DU?$char_traits@D@std@@V?$allocator@D@2@@std@@V?$basic_config@Ujson_args@configor@@@configor@@@std@@@std@@@std@@@std@@YAPBV?$_Tree_val@U?$_Tree_simple_types@U?$pair@$$CBV?$basic_string@DU?$char_traits@D@std@@V?$allocator@D@2@@std@@V?$basic_config@Ujson_args@configor@@@configor@@@std@@@std@@@0@ABV10@@Z 10007810 f i Pipi_edit.obj
 0001:00006810       ??$addressof@PAVVector@@@std@@YAPAPAVVector@@AAPAV1@@Z 10007810 f i Visuals.obj
 0001:00006810       ??$addressof@U_Container_proxy@std@@@std@@YAPAU_Container_proxy@0@AAU10@@Z 10007810 f i Aimbot.obj
 0001:00006810       ??$addressof@$$CBV?$codecvt@DDU_Mbstatet@@@std@@@std@@YAPBV?$codecvt@DDU_Mbstatet@@@0@ABV10@@Z 10007810 f i World.obj
 0001:00006810       ??$move@AAV?$basic_string@DU?$char_traits@D@std@@V?$allocator@D@2@@std@@@std@@YA$$QAV?$basic_string@DU?$char_traits@D@std@@V?$allocator@D@2@@0@AAV10@@Z 10007810 f i Pipi_edit.obj
 0001:00006810       ??$_Voidify_iter@PAU?$pair@$$CBV?$basic_string@DU?$char_traits@D@std@@V?$allocator@D@2@@std@@V?$basic_config@Ujson_args@configor@@@configor@@@std@@@std@@YAPAXPAU?$pair@$$CBV?$basic_string@DU?$char_traits@D@std@@V?$allocator@D@2@@std@@V?$basic_config@Ujson_args@configor@@@configor@@@0@@Z 10007810 f i Pipi_edit.obj
 0001:00006810       ??$forward@ABQAD@std@@YAABQADABQAD@Z 10007810 f i Cvars.obj
 0001:00006810       ??$addressof@V?$_Deque_val@U?$_Deque_simple_types@VVector@@@std@@@std@@@std@@YAPAV?$_Deque_val@U?$_Deque_simple_types@VVector@@@std@@@0@AAV10@@Z 10007810 f i Visuals.obj
 0001:00006810       ??$forward@PAPAUmy_sound_t@@@std@@YA$$QAPAPAUmy_sound_t@@AAPAPAU1@@Z 10007810 f i Sounds.obj
 0001:00006810       ??$addressof@$$CBU?$pair@$$CBV?$basic_string@DU?$char_traits@D@std@@V?$allocator@D@2@@std@@V?$basic_config@Ujson_args@configor@@@configor@@@std@@@std@@YAPBU?$pair@$$CBV?$basic_string@DU?$char_traits@D@std@@V?$allocator@D@2@@std@@V?$basic_config@Ujson_args@configor@@@configor@@@0@ABU10@@Z 10007810 f i Pipi_edit.obj
 0001:00006810       ??$forward@AAY04$$CBD@std@@YAAAY04$$CBDAAY04$$CBD@Z 10007810 f i Pipi_edit.obj
 0001:00006810       ??$_Voidify_iter@PAV?$basic_string@DU?$char_traits@D@std@@V?$allocator@D@2@@std@@@std@@YAPAXPAV?$basic_string@DU?$char_traits@D@std@@V?$allocator@D@2@@0@@Z 10007810 f i Pipi_edit.obj
 0001:00006810       ??$forward@ABQAU?$_Tree_node@U?$pair@$$CBV?$basic_string@DU?$char_traits@D@std@@V?$allocator@D@2@@std@@V?$basic_config@Ujson_args@configor@@@configor@@@std@@PAX@std@@@std@@YAABQAU?$_Tree_node@U?$pair@$$CBV?$basic_string@DU?$char_traits@D@std@@V?$allocator@D@2@@std@@V?$basic_config@Ujson_args@configor@@@configor@@@std@@PAX@0@ABQAU10@@Z 10007810 f i Pipi_edit.obj
 0001:00006810       ??$forward@V?$basic_string@DU?$char_traits@D@std@@V?$allocator@D@2@@std@@@std@@YA$$QAV?$basic_string@DU?$char_traits@D@std@@V?$allocator@D@2@@0@AAV10@@Z 10007810 f i Pipi_edit.obj
 0001:00006810       ??$forward@AAY07$$CBD@std@@YAAAY07$$CBDAAY07$$CBD@Z 10007810 f i Pipi_edit.obj
 0001:00006810       ??$forward@PAPAVVector@@@std@@YA$$QAPAPAVVector@@AAPAPAV1@@Z 10007810 f i Visuals.obj
 0001:00006810       ??$forward@AAPAU?$_Tree_node@U?$pair@$$CBV?$basic_string@DU?$char_traits@D@std@@V?$allocator@D@2@@std@@V?$basic_config@Ujson_args@configor@@@configor@@@std@@PAX@std@@@std@@YAAAPAU?$_Tree_node@U?$pair@$$CBV?$basic_string@DU?$char_traits@D@std@@V?$allocator@D@2@@std@@V?$basic_config@Ujson_args@configor@@@configor@@@std@@PAX@0@AAPAU10@@Z 10007810 f i Pipi_edit.obj
 0001:00006810       ??$forward@AAPAI@std@@YAAAPAIAAPAI@Z 10007810 f i Aimbot.obj
 0001:00006810       ??$move@AAV?$basic_config@Ujson_args@configor@@@configor@@@std@@YA$$QAV?$basic_config@Ujson_args@configor@@@configor@@AAV12@@Z 10007810 f i Pipi_edit.obj
 0001:00006810       ??$forward@ABV?$allocator@D@std@@@std@@YAABV?$allocator@D@0@ABV10@@Z 10007810 f i World.obj
 0001:00006810       ??$_Voidify_iter@PAPAD@std@@YAPAXPAPAD@Z 10007810 f i Cvars.obj
 0001:00006810       ??$move@AAW4config_value_type@configor@@@std@@YA$$QAW4config_value_type@configor@@AAW412@@Z 10007810 f i Pipi_edit.obj
 0001:00006810       ??$forward@ABV?$basic_config@Ujson_args@configor@@@configor@@@std@@YAABV?$basic_config@Ujson_args@configor@@@configor@@ABV12@@Z 10007810 f i Pipi_edit.obj
 0001:00006810       ??$addressof@V?$_String_val@U?$_Simple_types@D@std@@@std@@@std@@YAPAV?$_String_val@U?$_Simple_types@D@std@@@0@AAV10@@Z 10007810 f i Menu.obj
 0001:00006810       ??$forward@ABV?$basic_string@DU?$char_traits@D@std@@V?$allocator@D@2@@std@@@std@@YAABV?$basic_string@DU?$char_traits@D@std@@V?$allocator@D@2@@0@ABV10@@Z 10007810 f i Pipi_edit.obj
 0001:00006810       ??$forward@AAV?$vector@V?$basic_config@Ujson_args@configor@@@configor@@V?$allocator@V?$basic_config@Ujson_args@configor@@@configor@@@std@@@std@@@std@@YAAAV?$vector@V?$basic_config@Ujson_args@configor@@@configor@@V?$allocator@V?$basic_config@Ujson_args@configor@@@configor@@@std@@@0@AAV10@@Z 10007810 f i Pipi_edit.obj
 0001:00006820       ??$construct@II@?$_Default_allocator_traits@V?$allocator@I@std@@@std@@SAXAAV?$allocator@I@1@QAI$$QAI@Z 10007820 f i Aimbot.obj
 0001:00006820       ??$construct@IABI@?$_Default_allocator_traits@V?$allocator@I@std@@@std@@SAXAAV?$allocator@I@1@QAIABI@Z 10007820 f i Aimbot.obj
 0001:00006860       ??$?0I@?$allocator@PAI@std@@QAE@ABV?$allocator@I@1@@Z 10007860 f i Aimbot.obj
 0001:00006860       ??$?0Umy_sound_t@@@?$allocator@PAUmy_sound_t@@@std@@QAE@ABV?$allocator@Umy_sound_t@@@1@@Z 10007860 f i Sounds.obj
 0001:00006860       ??$?0VVector@@@?$allocator@U_Container_proxy@std@@@std@@QAE@ABV?$allocator@VVector@@@1@@Z 10007860 f i Visuals.obj
 0001:00006860       ??$?0Umy_sound_t@@@?$allocator@U_Container_proxy@std@@@std@@QAE@ABV?$allocator@Umy_sound_t@@@1@@Z 10007860 f i Sounds.obj
 0001:00006860       ??$?0VVector@@@?$allocator@PAVVector@@@std@@QAE@ABV?$allocator@VVector@@@1@@Z 10007860 f i Visuals.obj
 0001:00006860       ??$?0I@?$allocator@U_Container_proxy@std@@@std@@QAE@ABV?$allocator@I@1@@Z 10007860 f i Aimbot.obj
 0001:00006870       ??$exchange@PAU?$_Tree_node@U?$pair@$$CBV?$basic_string@DU?$char_traits@D@std@@V?$allocator@D@2@@std@@V?$basic_config@Ujson_args@configor@@@configor@@@std@@PAX@std@@AAPAU12@@std@@YAPAU?$_Tree_node@U?$pair@$$CBV?$basic_string@DU?$char_traits@D@std@@V?$allocator@D@2@@std@@V?$basic_config@Ujson_args@configor@@@configor@@@std@@PAX@0@AAPAU10@0@Z 10007870 f i Pipi_edit.obj
 0001:00006870       ??$exchange@PAU_Container_proxy@std@@$$T@std@@YAPAU_Container_proxy@0@AAPAU10@$$QA$$T@Z 10007870 f i Aimbot.obj
 0001:00006870       ??$exchange@PAV_Facet_base@std@@$$T@std@@YAPAV_Facet_base@0@AAPAV10@$$QA$$T@Z 10007870 f i World.obj
 0001:00006870       ??$exchange@PAU?$_Tree_node@U?$pair@$$CBV?$basic_string@DU?$char_traits@D@std@@V?$allocator@D@2@@std@@V?$basic_config@Ujson_args@configor@@@configor@@@std@@PAX@std@@$$T@std@@YAPAU?$_Tree_node@U?$pair@$$CBV?$basic_string@DU?$char_traits@D@std@@V?$allocator@D@2@@std@@V?$basic_config@Ujson_args@configor@@@configor@@@std@@PAX@0@AAPAU10@$$QA$$T@Z 10007870 f i Pipi_edit.obj
 0001:00006890       ??$_Delete_plain_internal@V?$allocator@U_Container_proxy@std@@@std@@@std@@YAXAAV?$allocator@U_Container_proxy@std@@@0@QAU_Container_proxy@0@@Z 10007890 f i Aimbot.obj
 0001:000068b0       ??$?0$$V@?$_Compressed_pair@V?$allocator@I@std@@V?$_Deque_val@U?$_Deque_simple_types@I@std@@@2@$00@std@@QAE@U_Zero_then_variadic_args_t@1@@Z 100078b0 f i Aimbot.obj
 0001:000068b0       ??$?0$$V@?$_Compressed_pair@V?$allocator@VVector@@@std@@V?$_Deque_val@U?$_Deque_simple_types@VVector@@@std@@@2@$00@std@@QAE@U_Zero_then_variadic_args_t@1@@Z 100078b0 f i Visuals.obj
 0001:000068b0       ??$?0$$V@?$_Compressed_pair@V?$allocator@Umy_sound_t@@@std@@V?$_Deque_val@U?$_Deque_simple_types@Umy_sound_t@@@std@@@2@$00@std@@QAE@U_Zero_then_variadic_args_t@1@@Z 100078b0 f i Sounds.obj
 0001:000068d0       ??$_Alloc_proxy@V?$allocator@U_Container_proxy@std@@@std@@@_Container_base12@std@@QAEX$$QAV?$allocator@U_Container_proxy@std@@@1@@Z 100078d0 f i Aimbot.obj
 0001:00006920       ??$_Adl_verify_range@PAPAVVector@@PAPAV1@@std@@YAXABQAPAVVector@@0@Z 10007920 f i Visuals.obj
 0001:00006920       ??$_Adl_verify_range@PAPAUmy_sound_t@@PAPAU1@@std@@YAXABQAPAUmy_sound_t@@0@Z 10007920 f i Sounds.obj
 0001:00006920       ??$_Destroy_range@PAPAIPAPAI@std@@YAXPAPAIQAPAI@Z 10007920 f i Aimbot.obj
 0001:00006920       ??$_Destroy_in_place@PAU?$_Tree_node@U?$pair@$$CBV?$basic_string@DU?$char_traits@D@std@@V?$allocator@D@2@@std@@V?$basic_config@Ujson_args@configor@@@configor@@@std@@PAX@std@@@std@@YAXAAPAU?$_Tree_node@U?$pair@$$CBV?$basic_string@DU?$char_traits@D@std@@V?$allocator@D@2@@std@@V?$basic_config@Ujson_args@configor@@@configor@@@std@@PAX@0@@Z 10007920 f i Pipi_edit.obj
 0001:00006920       ??$_Destroy_range@PAPAVVector@@PAPAV1@@std@@YAXPAPAVVector@@QAPAV1@@Z 10007920 f i Visuals.obj
 0001:00006920       ??$_Adl_verify_range@PBV?$basic_config@Ujson_args@configor@@@configor@@PBV12@@std@@YAXABQBV?$basic_config@Ujson_args@configor@@@configor@@0@Z 10007920 f i Pipi_edit.obj
 0001:00006920       ??$_Adl_verify_range@PADPBD@std@@YAXABQADABQBD@Z 10007920 f i World.obj
 0001:00006920       ??$_Adl_verify_range@PAPAIPAPAI@std@@YAXABQAPAI0@Z 10007920 f i Aimbot.obj
 0001:00006920       ??$destroy@I@?$_Default_allocator_traits@V?$allocator@I@std@@@std@@SAXAAV?$allocator@I@1@QAI@Z 10007920 f i Aimbot.obj
 0001:00006920       ??$_Destroy_in_place@PAUmy_sound_t@@@std@@YAXAAPAUmy_sound_t@@@Z 10007920 f i Sounds.obj
 0001:00006920       ??$_Adl_verify_range@PBDPBD@std@@YAXABQBD0@Z 10007920 f i World.obj
 0001:00006920       ??$_Destroy_range@PAPAUmy_sound_t@@PAPAU1@@std@@YAXPAPAUmy_sound_t@@QAPAU1@@Z 10007920 f i Sounds.obj
 0001:00006920       ??$_Adl_verify_range@V?$istreambuf_iterator@DU?$char_traits@D@std@@@std@@V12@@std@@YAXABV?$istreambuf_iterator@DU?$char_traits@D@std@@@0@0@Z 10007920 f i World.obj
 0001:00006920       ??$_Destroy_in_place@PAI@std@@YAXAAPAI@Z 10007920 f i Aimbot.obj
 0001:00006920       ??$_Destroy_in_place@PAD@std@@YAXAAPAD@Z 10007920 f i Cvars.obj
 0001:00006920       ??$_Destroy_in_place@PAVVector@@@std@@YAXAAPAVVector@@@Z 10007920 f i Visuals.obj
 0001:00006930       ??$uninitialized_copy@PAPAIPAPAI@std@@YAPAPAIQAPAI0PAPAI@Z 10007930 f i Aimbot.obj
 0001:00006930       ??$uninitialized_copy@PAPAUmy_sound_t@@PAPAU1@@std@@YAPAPAUmy_sound_t@@QAPAU1@0PAPAU1@@Z 10007930 f i Sounds.obj
 0001:00006930       ??$uninitialized_copy@PAPAVVector@@PAPAV1@@std@@YAPAPAVVector@@QAPAV1@0PAPAV1@@Z 10007930 f i Visuals.obj
 0001:000069d0       ??$_Get_unwrapped@AAPBV?$basic_config@Ujson_args@configor@@@configor@@@std@@YA?A_TAAPBV?$basic_config@Ujson_args@configor@@@configor@@@Z 100079d0 f i Pipi_edit.obj
 0001:000069d0       ??$_To_address@PAPAI@std@@YA?A_PABQAPAI@Z 100079d0 f i Aimbot.obj
 0001:000069d0       ??$_To_address@PAPAVVector@@@std@@YA?A_PABQAPAVVector@@@Z 100079d0 f i Visuals.obj
 0001:000069d0       ??$_Get_unwrapped@ABQBV?$basic_config@Ujson_args@configor@@@configor@@@std@@YA?A_TABQBV?$basic_config@Ujson_args@configor@@@configor@@@Z 100079d0 f i Pipi_edit.obj
 0001:000069d0       ??$_Get_unwrapped@ABQAPAVVector@@@std@@YA?A_TABQAPAVVector@@@Z 100079d0 f i Visuals.obj
 0001:000069d0       ??$_Get_unwrapped_n@AAPAPAIH@std@@YA?A_TAAPAPAIH@Z 100079d0 f i Aimbot.obj
 0001:000069d0       ??$_Get_unwrapped@ABQAPAUmy_sound_t@@@std@@YA?A_TABQAPAUmy_sound_t@@@Z 100079d0 f i Sounds.obj
 0001:000069d0       ??$_Get_unwrapped@ABQAPAI@std@@YA?A_TABQAPAI@Z 100079d0 f i Aimbot.obj
 0001:000069d0       ??$_To_address@PAPAUmy_sound_t@@@std@@YA?A_PABQAPAUmy_sound_t@@@Z 100079d0 f i Sounds.obj
 0001:000069d0       ??$_Get_unwrapped_n@AAPAPAUmy_sound_t@@H@std@@YA?A_TAAPAPAUmy_sound_t@@H@Z 100079d0 f i Sounds.obj
 0001:000069d0       ??$_Get_unwrapped_n@AAPAPAVVector@@H@std@@YA?A_TAAPAPAVVector@@H@Z 100079d0 f i Visuals.obj
 0001:000069d0       ??$_Get_unwrapped@ABQAV?$basic_config@Ujson_args@configor@@@configor@@@std@@YA?A_TABQAV?$basic_config@Ujson_args@configor@@@configor@@@Z 100079d0 f i Pipi_edit.obj
 0001:000069e0       ??$_Idl_distance@PAPAVVector@@PAPAV1@@std@@YA?A_PABQAPAVVector@@0@Z 100079e0 f i Visuals.obj
 0001:000069e0       ??$_Idl_distance@PAPAUmy_sound_t@@PAPAU1@@std@@YA?A_PABQAPAUmy_sound_t@@0@Z 100079e0 f i Sounds.obj
 0001:000069e0       ??$_Idl_distance@PAPAIPAPAI@std@@YA?A_PABQAPAI0@Z 100079e0 f i Aimbot.obj
 0001:00006a00       ??$_Uninitialized_value_construct_n_unchecked1@PAPAII@std@@YAPAPAIPAPAII@Z 10007a00 f i Aimbot.obj
 0001:00006a00       ??$_Uninitialized_value_construct_n_unchecked1@PAPAVVector@@I@std@@YAPAPAVVector@@PAPAV1@I@Z 10007a00 f i Visuals.obj
 0001:00006a00       ??$_Uninitialized_value_construct_n_unchecked1@PAPAUmy_sound_t@@I@std@@YAPAPAUmy_sound_t@@PAPAU1@I@Z 10007a00 f i Sounds.obj
 0001:00006a20       ??$_Get_size_of_n@$03@std@@YAII@Z 10007a20 f i Aimbot.obj
 0001:00006a50       ??$_Allocate@$07U_Default_allocate_traits@std@@$0A@@std@@YAPAXI@Z 10007a50 f i Aimbot.obj
 0001:00006a90       ??$min@I@std@@YAABIABI0@Z  10007a90 f i Aimbot.obj
 0001:00006ac0       ??$_Deallocate@$07$0A@@std@@YAXPAXI@Z 10007ac0 f i Aimbot.obj
 0001:00006b20       ?allocate@?$allocator@U_Container_proxy@std@@@std@@QAEPAU_Container_proxy@2@I@Z 10007b20 f i Aimbot.obj
 0001:00006b50       ??0?$_Deque_val@U?$_Deque_simple_types@VVector@@@std@@@std@@QAE@XZ 10007b50 f i Visuals.obj
 0001:00006b50       ??0?$_Deque_val@U?$_Deque_simple_types@I@std@@@std@@QAE@XZ 10007b50 f i Aimbot.obj
 0001:00006b50       ??0?$_Deque_val@U?$_Deque_simple_types@Umy_sound_t@@@std@@@std@@QAE@XZ 10007b50 f i Sounds.obj
 0001:00006b90       ??0_Container_base12@std@@QAE@XZ 10007b90 f i Aimbot.obj
 0001:00006b90       ??0_Bxty@?$_String_val@U?$_Simple_types@D@std@@@std@@QAE@XZ 10007b90 f i Cvars.obj
 0001:00006bb0       ??$_Deallocate_plain@V?$allocator@U_Container_proxy@std@@@std@@@std@@YAXAAV?$allocator@U_Container_proxy@std@@@0@QAU_Container_proxy@0@@Z 10007bb0 f i Aimbot.obj
 0001:00006c00       ??$_Construct_in_place@U_Container_proxy@std@@PAU_Container_base12@2@@std@@YAXAAU_Container_proxy@0@$$QAPAU_Container_base12@0@@Z 10007c00 f i Aimbot.obj
 0001:00006c50       ??$_Uninitialized_copy_unchecked@PAPAUmy_sound_t@@PAPAU1@@std@@YAPAPAUmy_sound_t@@PAPAU1@QAPAU1@0@Z 10007c50 f i Sounds.obj
 0001:00006c50       ??$_Uninitialized_copy_unchecked@PAPAVVector@@PAPAV1@@std@@YAPAPAVVector@@PAPAV1@QAPAV1@0@Z 10007c50 f i Visuals.obj
 0001:00006c50       ??$_Uninitialized_copy_unchecked@PAPAIPAPAI@std@@YAPAPAIPAPAIQAPAI0@Z 10007c50 f i Aimbot.obj
 0001:00006d00       ??$_Seek_wrapped@PAPAIPAPAI@std@@YAXAAPAPAI$$QAPAPAI@Z 10007d00 f i Aimbot.obj
 0001:00006d00       ??$_Seek_wrapped@PAPAVVector@@PAPAV1@@std@@YAXAAPAPAVVector@@$$QAPAPAV1@@Z 10007d00 f i Visuals.obj
 0001:00006d00       ??$_Seek_wrapped@PAPAUmy_sound_t@@PAPAU1@@std@@YAXAAPAPAUmy_sound_t@@$$QAPAPAU1@@Z 10007d00 f i Sounds.obj
 0001:00006d20       ??$_Zero_range@PAPAVVector@@@std@@YAPAPAVVector@@QAPAV1@0@Z 10007d20 f i Visuals.obj
 0001:00006d20       ??$_Zero_range@PAPAI@std@@YAPAPAIQAPAI0@Z 10007d20 f i Aimbot.obj
 0001:00006d20       ??$_Zero_range@PAPAUmy_sound_t@@@std@@YAPAPAUmy_sound_t@@QAPAU1@0@Z 10007d20 f i Sounds.obj
 0001:00006d60       ??$_Allocate_manually_vector_aligned@U_Default_allocate_traits@std@@@std@@YAPAXI@Z 10007d60 f i Aimbot.obj
 0001:00006dd0       ??$_Get_size_of_n@$07@std@@YAII@Z 10007dd0 f i Aimbot.obj
 0001:00006e00       ?_Release@?$_Uninitialized_backout_al@V?$allocator@V?$basic_config@Ujson_args@configor@@@configor@@@std@@@std@@QAEPAV?$basic_config@Ujson_args@configor@@@configor@@XZ 10007e00 f i Pipi_edit.obj
 0001:00006e00       ?_Release@?$_Uninitialized_backout@PAPAI@std@@QAEPAPAIXZ 10007e00 f i Aimbot.obj
 0001:00006e00       ?_Release@?$_Uninitialized_backout@PAPAVVector@@@std@@QAEPAPAVVector@@XZ 10007e00 f i Visuals.obj
 0001:00006e00       ?_Release@?$_Uninitialized_backout@PAPAUmy_sound_t@@@std@@QAEPAPAUmy_sound_t@@XZ 10007e00 f i Sounds.obj
 0001:00006e20       ??1?$_Uninitialized_backout@PAPAUmy_sound_t@@@std@@QAE@XZ 10007e20 f i Sounds.obj
 0001:00006e20       ??1?$_Uninitialized_backout@PAPAVVector@@@std@@QAE@XZ 10007e20 f i Visuals.obj
 0001:00006e20       ??1?$_Uninitialized_backout@PAPAI@std@@QAE@XZ 10007e20 f i Aimbot.obj
 0001:00006e40       ??0?$_Uninitialized_backout@PAPAVVector@@@std@@QAE@PAPAVVector@@@Z 10007e40 f i Visuals.obj
 0001:00006e40       ??0?$_Uninitialized_backout@PAPAI@std@@QAE@PAPAI@Z 10007e40 f i Aimbot.obj
 0001:00006e40       ??0?$_Uninitialized_backout@PAPAUmy_sound_t@@@std@@QAE@PAPAUmy_sound_t@@@Z 10007e40 f i Sounds.obj
 0001:00006e70       ?deallocate@?$_Default_allocator_traits@V?$allocator@U_Container_proxy@std@@@std@@@std@@SAXAAV?$allocator@U_Container_proxy@std@@@2@QAU_Container_proxy@2@I@Z 10007e70 f i Aimbot.obj
 0001:00006e70       ?deallocate@?$_Default_allocator_traits@V?$allocator@V?$map@V?$basic_string@DU?$char_traits@D@std@@V?$allocator@D@2@@std@@V?$basic_config@Ujson_args@configor@@@configor@@U?$less@V?$basic_string@DU?$char_traits@D@std@@V?$allocator@D@2@@std@@@2@V?$allocator@U?$pair@$$CBV?$basic_string@DU?$char_traits@D@std@@V?$allocator@D@2@@std@@V?$basic_config@Ujson_args@configor@@@configor@@@std@@@2@@std@@@std@@@std@@SAXAAV?$allocator@V?$map@V?$basic_string@DU?$char_traits@D@std@@V?$allocator@D@2@@std@@V?$basic_config@Ujson_args@configor@@@configor@@U?$less@V?$basic_string@DU?$char_traits@D@std@@V?$allocator@D@2@@std@@@2@V?$allocator@U?$pair@$$CBV?$basic_string@DU?$char_traits@D@std@@V?$allocator@D@2@@std@@V?$basic_config@Ujson_args@configor@@@configor@@@std@@@2@@std@@@2@QAV?$map@V?$basic_string@DU?$char_traits@D@std@@V?$allocator@D@2@@std@@V?$basic_config@Ujson_args@configor@@@configor@@U?$less@V?$basic_string@DU?$char_traits@D@std@@V?$allocator@D@2@@std@@@2@V?$allocator@U?$pair@$$CBV?$basic_string@DU?$char_traits@D@std@@V?$allocator@D@2@@std@@V?$basic_config@Ujson_args@configor@@@configor@@@std@@@2@@2@I@Z 10007e70 f i Pipi_edit.obj
 0001:00006e90       ??$_Copy_memmove@PAPAIPAPAI@std@@YAPAPAIPAPAI00@Z 10007e90 f i Aimbot.obj
 0001:00006e90       ??$_Copy_memmove@PAPAUmy_sound_t@@PAPAU1@@std@@YAPAPAUmy_sound_t@@PAPAU1@00@Z 10007e90 f i Sounds.obj
 0001:00006e90       ??$_Copy_memmove@PAPAVVector@@PAPAV1@@std@@YAPAPAVVector@@PAPAV1@00@Z 10007e90 f i Visuals.obj
 0001:00006f00       ??$_Emplace_back@AAPAVVector@@@?$_Uninitialized_backout@PAPAVVector@@@std@@QAEXAAPAVVector@@@Z 10007f00 f i Visuals.obj
 0001:00006f00       ??$_Emplace_back@AAPAUmy_sound_t@@@?$_Uninitialized_backout@PAPAUmy_sound_t@@@std@@QAEXAAPAUmy_sound_t@@@Z 10007f00 f i Sounds.obj
 0001:00006f00       ??$_Emplace_back@AAPAI@?$_Uninitialized_backout@PAPAI@std@@QAEXAAPAI@Z 10007f00 f i Aimbot.obj
 0001:00006f40       ??$_Construct_in_place@PAUmy_sound_t@@AAPAU1@@std@@YAXAAPAUmy_sound_t@@0@Z 10007f40 f i Sounds.obj
 0001:00006f40       ??$_Construct_in_place@PAIAAPAI@std@@YAXAAPAI0@Z 10007f40 f i Aimbot.obj
 0001:00006f40       ??$_Construct_in_place@PAVVector@@AAPAV1@@std@@YAXAAPAVVector@@0@Z 10007f40 f i Visuals.obj
 0001:00006f40       ??$_Construct_in_place@PADABQAD@std@@YAXAAPADABQAD@Z 10007f40 f i Cvars.obj
 0001:00006f40       ??$_Construct_in_place@PADAAPAD@std@@YAXAAPAD0@Z 10007f40 f i Menu.obj
 0001:00006f40       ??$_Construct_in_place@PAU?$_Tree_node@U?$pair@$$CBV?$basic_string@DU?$char_traits@D@std@@V?$allocator@D@2@@std@@V?$basic_config@Ujson_args@configor@@@configor@@@std@@PAX@std@@AAPAU12@@std@@YAXAAPAU?$_Tree_node@U?$pair@$$CBV?$basic_string@DU?$char_traits@D@std@@V?$allocator@D@2@@std@@V?$basic_config@Ujson_args@configor@@@configor@@@std@@PAX@0@0@Z 10007f40 f i Pipi_edit.obj
 0001:00006f40       ??$_Construct_in_place@PAU?$_Tree_node@U?$pair@$$CBV?$basic_string@DU?$char_traits@D@std@@V?$allocator@D@2@@std@@V?$basic_config@Ujson_args@configor@@@configor@@@std@@PAX@std@@ABQAU12@@std@@YAXAAPAU?$_Tree_node@U?$pair@$$CBV?$basic_string@DU?$char_traits@D@std@@V?$allocator@D@2@@std@@V?$basic_config@Ujson_args@configor@@@configor@@@std@@PAX@0@ABQAU10@@Z 10007f40 f i Pipi_edit.obj
 0001:00006f80       ?fpclassify@@YAHN@Z        10007f80 f i Cvars.obj
 0001:00006fa0       ??0_Fake_proxy_ptr_impl@std@@QAE@ABU_Fake_allocator@1@ABU_Container_base0@1@@Z 10007fa0 f i Cvars.obj
 0001:00006fb0       ?_Xlen_string@std@@YAXXZ   10007fb0 f i Cvars.obj
 0001:00006fc0       ??0CCvars@@QAE@XZ          10007fc0 f i Cvars.obj
 0001:00006fe0       ?Init@CCvars@@QAEXXZ       10007fe0 f   Cvars.obj
 0001:000077c0       ?dtoa@@YAPADPADN@Z         100087c0 f   Cvars.obj
 0001:00007b60       ?LoadCvars@CFunctions@@QAEXXZ 10008b60 f   Cvars.obj
 0001:0000a090       ?c_str@?$basic_string@DU?$char_traits@D@std@@V?$allocator@D@2@@std@@QBEPBDXZ 1000b090 f i Cvars.obj
 0001:0000a090       ?data@?$basic_string@DU?$char_traits@D@std@@V?$allocator@D@2@@std@@QBEPBDXZ 1000b090 f i World.obj
 0001:0000a0b0       ?append@?$basic_string@DU?$char_traits@D@std@@V?$allocator@D@2@@std@@QAEAAV12@QBD@Z 1000b0b0 f i Cvars.obj
 0001:0000a0e0       ??1?$basic_string@DU?$char_traits@D@std@@V?$allocator@D@2@@std@@QAE@XZ 1000b0e0 f i Cvars.obj
 0001:0000a100       ??0?$basic_string@DU?$char_traits@D@std@@V?$allocator@D@2@@std@@QAE@QBD@Z 1000b100 f i Cvars.obj
 0001:0000a1a0       ??1?$_Compressed_pair@V?$allocator@D@std@@V?$_String_val@U?$_Simple_types@D@std@@@2@$00@std@@QAE@XZ 1000b1a0 f i Cvars.obj
 0001:0000a1c0       ?_Tidy_deallocate@?$basic_string@DU?$char_traits@D@std@@V?$allocator@D@2@@std@@AAEXXZ 1000b1c0 f i Cvars.obj
 0001:0000a280       ?_Tidy_init@?$basic_string@DU?$char_traits@D@std@@V?$allocator@D@2@@std@@AAEXXZ 1000b280 f i Cvars.obj
 0001:0000a2d0       ?assign@?$basic_string@DU?$char_traits@D@std@@V?$allocator@D@2@@std@@QAEAAV12@QBD@Z 1000b2d0 f i Cvars.obj
 0001:0000a300       ?assign@?$basic_string@DU?$char_traits@D@std@@V?$allocator@D@2@@std@@QAEAAV12@QBDI@Z 1000b300 f i Cvars.obj
 0001:0000a380       ??R<lambda_9366063389c5f42a00a5088cf24e69de>@@QBE@QADIQBD@Z 1000b380 f i Cvars.obj
 0001:0000a3c0       ?append@?$basic_string@DU?$char_traits@D@std@@V?$allocator@D@2@@std@@QAEAAV12@QBDI@Z 1000b3c0 f i Cvars.obj
 0001:0000a460       ??R<lambda_ab246b20b9526e2ef7792587e4298a77>@@QBE@QADQBDI1I@Z 1000b460 f i Cvars.obj
 0001:0000a4c0       ?_Myptr@?$_String_val@U?$_Simple_types@D@std@@@std@@QBEPBDXZ 1000b4c0 f i Cvars.obj
 0001:0000a4c0       ?_Myptr@?$_String_val@U?$_Simple_types@D@std@@@std@@QAEPADXZ 1000b4c0 f i Cvars.obj
 0001:0000a500       ?length@?$_Narrow_char_traits@DH@std@@SAIQBD@Z 1000b500 f i Cvars.obj
 0001:0000a540       ??$max@I@std@@YAABIABI0@Z  1000b540 f i Cvars.obj
 0001:0000a570       ?max_size@?$basic_string@DU?$char_traits@D@std@@V?$allocator@D@2@@std@@QBEIXZ 1000b570 f i Cvars.obj
 0001:0000a5f0       ?_Large_string_engaged@?$_String_val@U?$_Simple_types@D@std@@@std@@QBE_NXZ 1000b5f0 f i Cvars.obj
 0001:0000a620       ?allocate@?$allocator@D@std@@QAEPADI@Z 1000b620 f i Cvars.obj
 0001:0000a650       ?deallocate@?$allocator@D@std@@QAEXQADI@Z 1000b650 f i Cvars.obj
 0001:0000a670       ?assign@?$_Narrow_char_traits@DH@std@@SAXAADABD@Z 1000b670 f i Cvars.obj
 0001:0000a680       ?move@?$_Char_traits@DH@std@@SAPADQADQBDI@Z 1000b680 f i Cvars.obj
 0001:0000a680       ?copy@?$_Char_traits@DH@std@@SAPADQADQBDI@Z 1000b680 f i Cvars.obj
 0001:0000a6a0       ?max_size@?$_Default_allocator_traits@V?$allocator@D@std@@@std@@SAIABV?$allocator@D@2@@Z 1000b6a0 f i Cvars.obj
 0001:0000a6a0       ?eof@?$_Narrow_char_traits@DH@std@@SAHXZ 1000b6a0 f i World.obj
 0001:0000a6b0       ??$isnan@N@@YA_NN@Z        1000b6b0 f i Cvars.obj
 0001:0000a6f0       ??$isinf@N@@YA_NN@Z        1000b6f0 f i Cvars.obj
 0001:0000a730       ??$pow@NH$0A@@@YANNH@Z     1000b730 f i Cvars.obj
 0001:0000a760       ??$?0$$V@?$_Compressed_pair@V?$allocator@D@std@@V?$_String_val@U?$_Simple_types@D@std@@@2@$00@std@@QAE@U_Zero_then_variadic_args_t@1@@Z 1000b760 f i Cvars.obj
 0001:0000a780       ??$_Reallocate_for@V<lambda_9366063389c5f42a00a5088cf24e69de>@@PBD@?$basic_string@DU?$char_traits@D@std@@V?$allocator@D@2@@std@@AAEAAV01@IV<lambda_9366063389c5f42a00a5088cf24e69de>@@PBD@Z 1000b780 f i Cvars.obj
 0001:0000a870       ??$_Reallocate_grow_by@V<lambda_ab246b20b9526e2ef7792587e4298a77>@@PBDI@?$basic_string@DU?$char_traits@D@std@@V?$allocator@D@2@@std@@AAEAAV01@IV<lambda_ab246b20b9526e2ef7792587e4298a77>@@PBDI@Z 1000b870 f i Cvars.obj
 0001:0000a9b0       ??$_Get_size_of_n@$00@std@@YAII@Z 1000b9b0 f i Cvars.obj
 0001:0000a9c0       ?_Calculate_growth@?$basic_string@DU?$char_traits@D@std@@V?$allocator@D@2@@std@@ABEII@Z 1000b9c0 f i Cvars.obj
 0001:0000a9f0       ??0?$_String_val@U?$_Simple_types@D@std@@@std@@QAE@XZ 1000b9f0 f i Cvars.obj
 0001:0000aa20       ?_Calculate_growth@?$basic_string@DU?$char_traits@D@std@@V?$allocator@D@2@@std@@CAIIII@Z 1000ba20 f i Cvars.obj
 0001:0000aa90       _cosf                      1000ba90 f i Drawing.obj
 0001:0000aab0       _sinf                      1000bab0 f i Drawing.obj
 0001:0000aad0       ___local_stdio_printf_options 1000bad0 f i Drawing.obj
 0001:0000aae0       __vsnprintf_l              1000bae0 f i Drawing.obj
 0001:0000ab30       __vsnprintf                1000bb30 f i Drawing.obj
 0001:0000ab50       ?SetupFonts@CDrawing@@QAEXXZ 1000bb50 f   Drawing.obj
 0001:0000ac00       ?DrawCircle@CDrawing@@QAEXQAMMMHHHH@Z 1000bc00 f   Drawing.obj
 0001:0000adb0       ?DrawPlayerBox@CDrawing@@QAEXHHHHHHHH@Z 1000bdb0 f   Drawing.obj
 0001:0000aef0       ?DrawTexture@CDrawing@@QAEXHHHHHHHHH@Z 1000bef0 f   Drawing.obj
 0001:0000af70       ?DrawRect@CDrawing@@QAEXHHHHHHHH@Z 1000bf70 f   Drawing.obj
 0001:0000b030       ?DrawLine@CDrawing@@QAEXHHHHHHHH@Z 1000c030 f   Drawing.obj
 0001:0000b090       ?FillArea@CDrawing@@QAEXHHHHHHHH@Z 1000c090 f   Drawing.obj
 0001:0000b160       ?DrawBox@CDrawing@@QAEXHHHHHHHH@Z 1000c160 f   Drawing.obj
 0001:0000b1c0       ?DrawString@CDrawing@@QAAXKHHHHHHKPBDZZ 1000c1c0 f   Drawing.obj
 0001:0000b370       ?DrawStringACP@CDrawing@@QAAXKHHHHHHKPBDZZ 1000c370 f   Drawing.obj
 0001:0000b520       ?Box@CDrawing@@QAEXHHHHHHHHH@Z 1000c520 f   Drawing.obj
 0001:0000b5f0       ?BoxOutline@CDrawing@@QAEXMMMMMEEEE@Z 1000c5f0 f   Drawing.obj
 0001:0000b700       ?DrawCoalBox@CDrawing@@QAEXHHHHHHHHH@Z 1000c700 f   Drawing.obj
 0001:0000b8b0       ?DrawOutlineCoalBox@CDrawing@@QAEXHHHHHEEEE@Z 1000c8b0 f   Drawing.obj
 0001:0000ba80       ?BoxCorner@CDrawing@@QAEXHHHHHEEEE@Z 1000ca80 f   Drawing.obj
 0001:0000bcb0       ?BoxCornerOutline@CDrawing@@QAEXHHHHHEEEE@Z 1000ccb0 f   Drawing.obj
 0001:0000bdb0       ?DrawCrosshair@CDrawing@@QAEXHHHHHH@Z 1000cdb0 f   Drawing.obj
 0001:0000bfe0       ?DrawDot@CDrawing@@QAEXHHHHHH@Z 1000cfe0 f   Drawing.obj
 0001:0000c050       ??$swap@W4config_value_type@configor@@$0A@@std@@YAXAAW4config_value_type@configor@@0@Z 1000d050 f i Pipi_edit.obj
 0001:0000c050       ??$swap@H$0A@@std@@YAXAAH0@Z 1000d050 f i Drawing.obj
 0001:0000c0b0       ?strstr@@YAPADQADQBD@Z     1000d0b0 f i Misc.obj
 0001:0000c0d0       _fmodf                     1000d0d0 f i Misc.obj
 0001:0000c110       ?cos@@YAMM@Z               1000d110 f i Misc.obj
 0001:0000c130       ?fmod@@YAMMM@Z             1000d130 f i Misc.obj
 0001:0000c160       ?sin@@YAMM@Z               1000d160 f i Misc.obj
 0001:0000c180       ?Distance@Vector@@QAEMAAV1@@Z 1000d180 f i Misc.obj
 0001:0000c200       ?FastZoom@CMisc@@QAEXPAUusercmd_s@@@Z 1000d200 f   Misc.obj
 0001:0000c270       ?FakeLag@CMisc@@QAEXPAUusercmd_s@@@Z 1000d270 f   Misc.obj
 0001:0000c5e0       ?FakeEdge@CMisc@@QAE_NAAM@Z 1000d5e0 f   Misc.obj
 0001:0000c810       ?AntiAim@CMisc@@QAEXPAUusercmd_s@@@Z 1000d810 f   Misc.obj
 0001:0000d340       ?AutoPistol@CMisc@@QAEXPAUusercmd_s@@@Z 1000e340 f   Misc.obj
 0001:0000d3d0       ?AutoReload@CMisc@@QAEXPAUusercmd_s@@@Z 1000e3d0 f   Misc.obj
 0001:0000d430       ?_Alloc_proxy@_Container_base0@std@@QAEXABU_Fake_allocator@2@@Z 1000e430 f   Menu.obj
 0001:0000d430       ?_Swap_proxy_and_iterators@_Container_base0@std@@QAEXAAU12@@Z 1000e430 f   Menu.obj
 0001:0000d430       ?_Orphan_ptr@?$_Tree_val@U?$_Tree_simple_types@U?$pair@$$CBV?$basic_string@DU?$char_traits@D@std@@V?$allocator@D@2@@std@@V?$basic_config@Ujson_args@configor@@@configor@@@std@@@std@@@std@@QAEXQAU?$_Tree_node@U?$pair@$$CBV?$basic_string@DU?$char_traits@D@std@@V?$allocator@D@2@@std@@V?$basic_config@Ujson_args@configor@@@configor@@@std@@PAX@2@@Z 1000e430 f   Pipi_edit.obj
 0001:0000d430       ?ThirdPerson@CMisc@@QAEXPAUref_params_s@@@Z 1000e430 f   Misc.obj
 0001:0000d430       ?imbue@?$basic_streambuf@DU?$char_traits@D@std@@@std@@MAEXABVlocale@2@@Z 1000e430 f   World.obj
 0001:0000d430       ?_Adopt@_Iterator_base0@std@@QAEXPBX@Z 1000e430 f   Pipi_edit.obj
 0001:0000d430       ?_Init@?$num_put@DV?$ostreambuf_iterator@DU?$char_traits@D@std@@@std@@@std@@IAEXABV_Locinfo@2@@Z 1000e430 f   Pipi_edit.obj
 0001:0000d430       ?_Init@?$codecvt@DDU_Mbstatet@@@std@@IAEXABV_Locinfo@2@@Z 1000e430 f   World.obj
 0001:0000d440       ?change_name@@YAXPAD@Z     1000e440 f   Misc.obj
 0001:0000da20       ?NameStealer@CMisc@@QAEXXZ 1000ea20 f   Misc.obj
 0001:0000dcb0       ??$strcpy_s@$0BAA@@@YAHAAY0BAA@DPBD@Z 1000ecb0 f i Misc.obj
 0001:0000dcd0       ??$strcat_s@$0BAA@@@YAHAAY0BAA@DPBD@Z 1000ecd0 f i Misc.obj
 0001:0000dcf0       ??$strcpy_s@$0CA@@@YAHAAY0CA@DPBD@Z 1000ecf0 f i Misc.obj
 0001:0000dd10       ?Redraw@CNoFlash@@QAEXXZ   1000ed10 f   NoFlash.obj
 0001:0000dec0       ??ZVector@@QAEAAV0@ABV0@@Z 1000eec0 f i NoRecoil.obj
 0001:0000df20       ?V_CalcRefdef@CNoRecoil@@QAEXPAUref_params_s@@@Z 1000ef20 f   NoRecoil.obj
 0001:0000e0d0       ?CL_CreateMove@CNoRecoil@@QAEXPAUusercmd_s@@@Z 1000f0d0 f   NoRecoil.obj
 0001:0000e130       ?DrawRecoil@CNoRecoil@@QAEXXZ 1000f130 f   NoRecoil.obj
 0001:0000e2b0       _atan2f                    1000f2b0 f i NoSpread.obj
 0001:0000e2f0       ?abs@@YANN@Z               1000f2f0 f i NoSpread.obj
 0001:0000e2f0       _fabsl                     1000f2f0 f i Pipi_edit.obj
 0001:0000e310       ?atan2@@YAMMM@Z            1000f310 f i NoSpread.obj
 0001:0000e340       ??D@YA?AVVector@@MABV0@@Z  1000f340 f i NoSpread.obj
 0001:0000e380       ?U_Random@@YAIXZ           1000f380 f   NoSpread.obj
 0001:0000e3c0       ?U_Srand@@YAXI@Z           1000f3c0 f   NoSpread.obj
 0001:0000e3e0       ?UTIL_SharedRandomFloat@@YAMIMM@Z 1000f3e0 f   NoSpread.obj
 0001:0000e480       ?GetSpreadXY@CNoSpread@@QAEXIHPAM_N@Z 1000f480 f   NoSpread.obj
 0001:0000e670       ?GetSpreadOffset@CNoSpread@@QAEXIHPAM0@Z 1000f670 f   NoSpread.obj
 0001:0000fc20       ?CL_CreateMove@CNoSpread@@QAEXPAUusercmd_s@@@Z 10010c20 f   NoSpread.obj
 0001:0000fd40       ?DrawSpread@CNoSpread@@QAEXXZ 10010d40 f   NoSpread.obj
 0001:000100a0       ?V_CalcRefdef@CNoSpread@@QAEXPAUref_params_s@@@Z 100110a0 f   NoSpread.obj
 0001:000101a0       ?Dot2D@Vector@@QAEMABV1@@Z 100111a0 f i Systems.obj
 0001:000101e0       ?Length2D@Vector@@QAEMXZ   100111e0 f i Systems.obj
 0001:00010210       ?LengthSqr2D@Vector@@QAEMXZ 10011210 f i Systems.obj
 0001:00010250       ?SimulateKey@@YAXGH@Z      10011250 f i Systems.obj
 0001:000102b0       ?isGoodJump@@YA_NXZ        100112b0 f   Systems.obj
 0001:000105f0       ?isBadJump@@YA_NXZ         100115f0 f   Systems.obj
 0001:00010860       ?asdfg@@YA_NH@Z            10011860 f   Systems.obj
 0001:00010ba0       ?KnifeBot@CSystems@@QAEXPAUusercmd_s@@@Z 10011ba0 f   Systems.obj
 0001:00010f20       ?SimulateMouse@CSystems@@QAEXH@Z 10011f20 f   Systems.obj
 0001:00010fb0       ?BunnyHop@CSystems@@QAEXPAUusercmd_s@@@Z 10011fb0 f   Systems.obj
 0001:00011cc0       ?AutoStrafe@CSystems@@QAEXPAUusercmd_s@@M@Z 10012cc0 f   Systems.obj
 0001:00011ff0       _fabsf                     10012ff0 f i Utils.obj
 0001:00012010       _powf                      10013010 f i Utils.obj
 0001:00012040       ?fabs@@YAMM@Z              10013040 f i Utils.obj
 0001:00012060       ?pow@@YAMMM@Z              10013060 f i Utils.obj
 0001:00012090       ?round@@YAMM@Z             10013090 f i Utils.obj
 0001:000120b0       ??0CUtils@@QAE@XZ          100130b0 f i Utils.obj
 0001:00012150       ??1CUtils@@QAE@XZ          10013150 f i Utils.obj
 0001:000121a0       ?GetTextureInfo@CUtils@@QAE_NUCImageTexture@@AAI11@Z 100131a0 f   Utils.obj
 0001:000121f0       ?bSendpacket@CUtils@@QAEX_N@Z 100131f0 f   Utils.obj
 0001:00012250       ?bCalcScreen@CUtils@@QAE_NPAM0@Z 10013250 f   Utils.obj
 0001:00012390       ?bFileExists@CUtils@@QAE_NPBD@Z 10013390 f   Utils.obj
 0001:000123d0       ?cIniRead@CUtils@@QAEPADPAD000@Z 100133d0 f   Utils.obj
 0001:00012430       ?szDirFile@CUtils@@QAEPADPBD@Z 10013430 f   Utils.obj
 0001:00012500       ?IsPlayer@CUtils@@QAE_NPAUcl_entity_s@@@Z 10013500 f   Utils.obj
 0001:00012540       ?IsEntityAlive@CUtils@@QAE_NPAUcl_entity_s@@@Z 10013540 f   Utils.obj
 0001:000125c0       ?IsPlayerUpdated@CUtils@@QAE_NPAUcl_entity_s@@@Z 100135c0 f   Utils.obj
 0001:000126c0       ?IsPlayerAlive@CUtils@@QAE_NPAUcl_entity_s@@@Z 100136c0 f   Utils.obj
 0001:00012720       ?IsLocalAlive@CUtils@@QAE_NPAUcl_entity_s@@@Z 10013720 f   Utils.obj
 0001:000127e0       ?UTIL_TextureHit@@YAXVVector@@00HAAUpmtrace_s@@@Z 100137e0 f   Utils.obj
 0001:00012b20       ?FireBullets@CUtils@@QAEHVVector@@0MHHHM@Z 10013b20 f   Utils.obj
 0001:00013650       ?bPathFree@CUtils@@QAE_NPAM0@Z 10014650 f   Utils.obj
 0001:00013710       ?VectorAngles@CUtils@@QAEXPBMPAM@Z 10014710 f   Utils.obj
 0001:00013a70       ?FixMoveStart@CUtils@@QAEXPAUusercmd_s@@@Z 10014a70 f   Utils.obj
 0001:00013b90       ?FixMoveEnd@CUtils@@QAEXPAUusercmd_s@@@Z 10014b90 f   Utils.obj
 0001:00014040       ?MakeAngle@CUtils@@QAEX_NPAMPAUusercmd_s@@@Z 10015040 f   Utils.obj
 0001:00014160       ?StringReplace@CUtils@@QAEXPADPBD1@Z 10015160 f   Utils.obj
 0001:00014260       ?IsBoxIntersectingRay@CUtils@@QAE_NABVVector@@000@Z 10015260 f   Utils.obj
 0001:00014420       ?GetFirstNonSolidPoint@CUtils@@QAEXABVVector@@0AAV2@@Z 10015420 f   Utils.obj
 0001:00014700       ?NormalizeAngles@@YAXPAM@Z 10015700 f   Utils.obj
 0001:00014800       ?IsFreezePeriod@@YA_NXZ    10015800 f   Utils.obj
 0001:00014820       ??0exception@std@@QAE@QBD@Z 10015820 f i Menu.obj
 0001:00014880       ??0runtime_error@std@@QAE@ABV?$basic_string@DU?$char_traits@D@std@@V?$allocator@D@2@@1@@Z 10015880 f i Menu.obj
 0001:000148b0       ??0runtime_error@std@@QAE@ABV01@@Z 100158b0 f i Menu.obj
 0001:000148e0       ??0?$initializer_list@V?$basic_config@Ujson_args@configor@@@configor@@@std@@QAE@PBV?$basic_config@Ujson_args@configor@@@configor@@0@Z 100158e0 f i Pipi_edit.obj
 0001:000148e0       ??0?$initializer_list@D@std@@QAE@PBD0@Z 100158e0 f i Pipi_edit.obj
 0001:000148e0       ??0error_code@std@@QAE@HABVerror_category@1@@Z 100158e0 f i Menu.obj
 0001:000148e0       ??0error_condition@std@@QAE@HABVerror_category@1@@Z 100158e0 f i Menu.obj
 0001:00014910       ?type@?$basic_config@Ujson_args@configor@@@configor@@QBE?AW4config_value_type@2@XZ 10015910 f i Pipi_edit.obj
 0001:00014910       ?begin@?$initializer_list@D@std@@QBEPBDXZ 10015910 f i Pipi_edit.obj
 0001:00014910       ?value@error_condition@std@@QBEHXZ 10015910 f i Menu.obj
 0001:00014910       ?begin@?$initializer_list@V?$basic_config@Ujson_args@configor@@@configor@@@std@@QBEPBV?$basic_config@Ujson_args@configor@@@configor@@XZ 10015910 f i Pipi_edit.obj
 0001:00014910       ?value@error_code@std@@QBEHXZ 10015910 f i Menu.obj
 0001:00014920       ?category@error_condition@std@@QBEABVerror_category@2@XZ 10015920 f i Menu.obj
 0001:00014920       ?end@?$initializer_list@V?$basic_config@Ujson_args@configor@@@configor@@@std@@QBEPBV?$basic_config@Ujson_args@configor@@@configor@@XZ 10015920 f i Pipi_edit.obj
 0001:00014920       ?category@error_code@std@@QBEABVerror_category@2@XZ 10015920 f i Menu.obj
 0001:00014940       ?message@error_code@std@@QBE?AV?$basic_string@DU?$char_traits@D@std@@V?$allocator@D@2@@2@XZ 10015940 f i Menu.obj
 0001:00014990       ??8std@@YA_NABVerror_condition@0@0@Z 10015990 f i Menu.obj
 0001:000149f0       ?default_error_condition@error_category@std@@UBE?AVerror_condition@2@H@Z 100159f0 f i Menu.obj
 0001:00014a10       ?equivalent@error_category@std@@UBE_NHABVerror_condition@2@@Z 10015a10 f i Menu.obj
 0001:00014a50       ?equivalent@error_category@std@@UBE_NABVerror_code@2@H@Z 10015a50 f i Menu.obj
 0001:00014aa0       ?_Makestr@_System_error@std@@CA?AV?$basic_string@DU?$char_traits@D@std@@V?$allocator@D@2@@2@Verror_code@2@V32@@Z 10015aa0 f i Menu.obj
 0001:00014b60       ??0_System_error@std@@IAE@Verror_code@1@ABV?$basic_string@DU?$char_traits@D@std@@V?$allocator@D@2@@1@@Z 10015b60 f i Menu.obj
 0001:00014c10       ??_G_System_error@std@@UAEPAXI@Z 10015c10 f i Menu.obj
 0001:00014c10       ??_E_System_error@std@@UAEPAXI@Z 10015c10 f i * CIL library *:* CIL module *
 0001:00014c40       ??0system_error@std@@QAE@Verror_code@1@PBD@Z 10015c40 f i Menu.obj
 0001:00014cc0       ??_Esystem_error@std@@UAEPAXI@Z 10015cc0 f i * CIL library *:* CIL module *
 0001:00014cc0       ??_Gsystem_error@std@@UAEPAXI@Z 10015cc0 f i Menu.obj
 0001:00014cf0       ??1configor_serialization_error@configor@@UAE@XZ 10015cf0 f i Pipi_edit.obj
 0001:00014cf0       ??1system_error@std@@UAE@XZ 10015cf0 f i Menu.obj
 0001:00014cf0       ??1configor_invalid_key@configor@@UAE@XZ 10015cf0 f i Pipi_edit.obj
 0001:00014cf0       ??1configor_type_error@configor@@UAE@XZ 10015cf0 f i Pipi_edit.obj
 0001:00014d10       ??0system_error@std@@QAE@ABV01@@Z 10015d10 f i Menu.obj
 0001:00014d40       ??0_System_error@std@@QAE@ABV01@@Z 10015d40 f i Menu.obj
 0001:00014d80       ?Init@CMenu@@AAEXXZ        10015d80 f   Menu.obj
 0001:00014e40       ?Run@CMenu@@QAEXXZ         10015e40 f   Menu.obj
 0001:00015170       ?Tabs@CMenu@@AAEXXZ        10016170 f   Menu.obj
 0001:000154b0       ?DrawButton@CMenu@@AAE_NHHPAD@Z 100164b0 f   Menu.obj
 0001:00015760       ?Palette@CMenu@@AAEXHHAAM00@Z 10016760 f   Menu.obj
 0001:00015c30       ?SliderInPallete@CMenu@@AAEXHHMMAAMPAD_N12@Z 10016c30 f   Menu.obj
 0001:00016170       ?Drag@CMenu@@AAEXXZ        10017170 f   Menu.obj
 0001:00016380       ?Checkbox@CMenu@@AAEXHHAA_NPAD@Z 10017380 f   Menu.obj
 0001:000165a0       ?DrawBox@CMenu@@AAEXHHHH@Z 100175a0 f   Menu.obj
 0001:00016650       ?empty@?$basic_string@DU?$char_traits@D@std@@V?$allocator@D@2@@std@@QBE_NXZ 10017650 f i Menu.obj
 0001:00016680       ?append@?$basic_string@DU?$char_traits@D@std@@V?$allocator@D@2@@std@@QAEAAV12@ABV12@@Z 10017680 f i Menu.obj
 0001:000166b0       ??0?$basic_string@DU?$char_traits@D@std@@V?$allocator@D@2@@std@@QAE@$$QAV01@@Z 100176b0 f i Menu.obj
 0001:00016700       ??0?$basic_string@DU?$char_traits@D@std@@V?$allocator@D@2@@std@@QAE@QBDI@Z 10017700 f i Menu.obj
 0001:000167a0       ??0?$basic_string@DU?$char_traits@D@std@@V?$allocator@D@2@@std@@QAE@ABV01@@Z 100177a0 f i Menu.obj
 0001:00016850       ?size@?$basic_string@DU?$char_traits@D@std@@V?$allocator@D@2@@std@@QBEIXZ 10017850 f i Menu.obj
 0001:00016870       ?_Construct_lv_contents@?$basic_string@DU?$char_traits@D@std@@V?$allocator@D@2@@std@@AAEXABV12@@Z 10017870 f i Menu.obj
 0001:00016990       ?_Take_contents@?$basic_string@DU?$char_traits@D@std@@V?$allocator@D@2@@std@@AAEXAAV12@@Z 10017990 f i Menu.obj
 0001:00016a70       ?_Swap_proxy_and_iterators@?$basic_string@DU?$char_traits@D@std@@V?$allocator@D@2@@std@@AAEXAAV12@@Z 10017a70 f i Menu.obj
 0001:00016a90       ?_Memcpy_val_from@?$basic_string@DU?$char_traits@D@std@@V?$allocator@D@2@@std@@AAEXABV12@@Z 10017a90 f i Menu.obj
 0001:00016af0       ??$?0ABV?$allocator@D@std@@$$V@?$_Compressed_pair@V?$allocator@D@std@@V?$_String_val@U?$_Simple_types@D@std@@@2@$00@std@@QAE@U_One_then_variadic_args_t@1@ABV?$allocator@D@1@@Z 10017af0 f i World.obj
 0001:00016af0       ??$?0V?$allocator@D@std@@$$V@?$_Compressed_pair@V?$allocator@D@std@@V?$_String_val@U?$_Simple_types@D@std@@@2@$00@std@@QAE@U_One_then_variadic_args_t@1@$$QAV?$allocator@D@1@@Z 10017af0 f i Menu.obj
 0001:00016b30       ?ShotsFiredCounter@@YAXHPAD@Z 10017b30 f   Sounds.obj
 0001:00017870       ?PreS_DynamicSound@@YAXHKPADPAMMMHH@Z 10018870 f   Sounds.obj
 0001:00017bd0       ?push_back@?$deque@Umy_sound_t@@V?$allocator@Umy_sound_t@@@std@@@std@@QAEXABUmy_sound_t@@@Z 10018bd0 f i Sounds.obj
 0001:00017c00       ??1?$deque@Umy_sound_t@@V?$allocator@Umy_sound_t@@@std@@@std@@QAE@XZ 10018c00 f i Sounds.obj
 0001:00017c70       ?_Tidy@?$deque@Umy_sound_t@@V?$allocator@Umy_sound_t@@@std@@@std@@AAEXXZ 10018c70 f i Sounds.obj
 0001:00017da0       ?pop_back@?$deque@Umy_sound_t@@V?$allocator@Umy_sound_t@@@std@@@std@@QAEXXZ 10018da0 f i Sounds.obj
 0001:00017e80       ?deallocate@?$allocator@Umy_sound_t@@@std@@QAEXQAUmy_sound_t@@I@Z 10018e80 f i Sounds.obj
 0001:00017ea0       ?_Getblock@?$deque@VVector@@V?$allocator@VVector@@@std@@@std@@ABEII@Z 10018ea0 f i Visuals.obj
 0001:00017ea0       ?_Getblock@?$deque@Umy_sound_t@@V?$allocator@Umy_sound_t@@@std@@@std@@ABEII@Z 10018ea0 f i Sounds.obj
 0001:00017ec0       ?_Getblock@?$_Deque_val@U?$_Deque_simple_types@VVector@@@std@@@std@@QBEII@Z 10018ec0 f i Visuals.obj
 0001:00017ec0       ?_Getblock@?$_Deque_val@U?$_Deque_simple_types@Umy_sound_t@@@std@@@std@@QBEII@Z 10018ec0 f i Sounds.obj
 0001:00017ee0       ??$_Emplace_back_internal@ABUmy_sound_t@@@?$deque@Umy_sound_t@@V?$allocator@Umy_sound_t@@@std@@@std@@AAEXABUmy_sound_t@@@Z 10018ee0 f i Sounds.obj
 0001:00018020       ??$destroy@Umy_sound_t@@@?$_Default_allocator_traits@V?$allocator@Umy_sound_t@@@std@@@std@@SAXAAV?$allocator@Umy_sound_t@@@1@QAUmy_sound_t@@@Z 10019020 f i Sounds.obj
 0001:00018030       ??_Gmy_sound_t@@QAEPAXI@Z  10019030 f i Sounds.obj
 0001:00018060       ?_Growmap@?$deque@Umy_sound_t@@V?$allocator@Umy_sound_t@@@std@@@std@@AAEXI@Z 10019060 f i Sounds.obj
 0001:000182c0       ?allocate@?$allocator@Umy_sound_t@@@std@@QAEPAUmy_sound_t@@I@Z 100192c0 f i Sounds.obj
 0001:000182f0       ?max_size@?$deque@Umy_sound_t@@V?$allocator@Umy_sound_t@@@std@@@std@@QBEIXZ 100192f0 f i Sounds.obj
 0001:00018330       ?max_size@?$_Default_allocator_traits@V?$allocator@Umy_sound_t@@@std@@@std@@SAIABV?$allocator@Umy_sound_t@@@2@@Z 10019330 f i Sounds.obj
 0001:00018340       ??$construct@Umy_sound_t@@ABU1@@?$_Default_allocator_traits@V?$allocator@Umy_sound_t@@@std@@@std@@SAXAAV?$allocator@Umy_sound_t@@@1@QAUmy_sound_t@@ABU3@@Z 10019340 f i Sounds.obj
 0001:00018380       ??$_Get_size_of_n@$0BI@@std@@YAII@Z 10019380 f i Sounds.obj
 0001:000183b0       ??0my_sound_t@@QAE@ABU0@@Z 100193b0 f i Sounds.obj
 0001:000183f0       _tanf                      100193f0 f i Visuals.obj
 0001:00018410       __vfprintf_l               10019410 f i Visuals.obj
 0001:00018440       _printf                    10019440 f i Visuals.obj
 0001:00018480       ?Normalize2D@Vector@@QAEMXZ 10019480 f i Visuals.obj
 0001:000184f0       ??9Vector@@QBE_NABV0@@Z    100194f0 f i Visuals.obj
 0001:00018550       ??0grenadetracer_t@@QAE@XZ 10019550 f i Visuals.obj
 0001:00018570       ??1grenadetracer_t@@QAE@XZ 10019570 f i Visuals.obj
 0001:00018590       ?IconInit@CVisuals@@QAEXXZ 10019590 f   Visuals.obj
 0001:000193e0       ?DrawHistory@CVisuals@@AAEXH@Z 1001a3e0 f   Visuals.obj
 0001:00019b20       ?TriggerStatus@@YAXXZ      1001ab20 f   Visuals.obj
 0001:00019d00       ?Run@CVisuals@@QAEXXZ      1001ad00 f   Visuals.obj
 0001:00019f60       ?DrawAimBotFOV@CVisuals@@AAEXXZ 1001af60 f   Visuals.obj
 0001:0001a160       ?RemoveScope@CVisuals@@AAEXXZ 1001b160 f   Visuals.obj
 0001:0001a1e0       ?CustomFOV@CVisuals@@AAEXXZ 1001b1e0 f   Visuals.obj
 0001:0001a280       ?PenetrationInfo@CVisuals@@AAEXXZ 1001b280 f   Visuals.obj
 0001:0001a730       ?Crosshair@CVisuals@@AAEXXZ 1001b730 f   Visuals.obj
 0001:0001a940       ?TraceGrenade@CVisuals@@AAEXXZ 1001b940 f   Visuals.obj
 0001:0001b2a0       ?SoundESP@CVisuals@@AAEXXZ 1001c2a0 f   Visuals.obj
 0001:0001b5f0       ?PlayerESP@CVisuals@@AAEXI@Z 1001c5f0 f   Visuals.obj
 0001:0001be30       ?Debug@CVisuals@@AAEXXZ    1001ce30 f   Visuals.obj
 0001:0001c0d0       ?FindPoint@@YAXPAMHHH@Z    1001d0d0 f   Visuals.obj
 0001:0001c200       ?WorldToScreen@@YA_NPAM0AA_N@Z 1001d200 f   Visuals.obj
 0001:0001c390       ?ScreenESP@CVisuals@@AAEXIEEEE@Z 1001d390 f   Visuals.obj
 0001:0001c5c0       ?UTIL_EntityInSphere@@YA_NPAUcl_entity_s@@VVector@@M@Z 1001d5c0 f   Visuals.obj
 0001:0001c700       ?GetAmountOfPlayerVisible@@YAMVVector@@PAUcl_entity_s@@@Z 1001d700 f   Visuals.obj
 0001:0001cda0       ?Bomb@CVisuals@@AAEXXZ     1001dda0 f   Visuals.obj
 0001:0001d080       ?Lightmap@CVisuals@@QAEXXZ 1001e080 f   Visuals.obj
 0001:0001d2e0       ?DrawFake@CVisuals@@AAEXHH@Z 1001e2e0 f   Visuals.obj
 0001:0001d760       ?DrawEntities@CVisuals@@AAEXXZ 1001e760 f   Visuals.obj
 0001:0001e470       ??D?$_Deque_unchecked_iterator@V?$_Deque_val@U?$_Deque_simple_types@Umy_sound_t@@@std@@@std@@@std@@QBEAAUmy_sound_t@@XZ 1001f470 f i Visuals.obj
 0001:0001e490       ?pop_front@?$deque@Umy_sound_t@@V?$allocator@Umy_sound_t@@@std@@@std@@QAEXXZ 1001f490 f i Visuals.obj
 0001:0001e570       ?front@?$deque@Umy_sound_t@@V?$allocator@Umy_sound_t@@@std@@@std@@QAEAAUmy_sound_t@@XZ 1001f570 f i Visuals.obj
 0001:0001e590       ?clear@?$deque@VVector@@V?$allocator@VVector@@@std@@@std@@QAEXXZ 1001f590 f i Visuals.obj
 0001:0001e5b0       ?push_back@?$deque@VVector@@V?$allocator@VVector@@@std@@@std@@QAEXABVVector@@@Z 1001f5b0 f i Visuals.obj
 0001:0001e5e0       ??A?$deque@VVector@@V?$allocator@VVector@@@std@@@std@@QAEAAVVector@@I@Z 1001f5e0 f i Visuals.obj
 0001:0001e620       ??1?$deque@VVector@@V?$allocator@VVector@@@std@@@std@@QAE@XZ 1001f620 f i Visuals.obj
 0001:0001e690       ??D?$_Deque_unchecked_iterator@V?$_Deque_val@U?$_Deque_simple_types@VVector@@@std@@@std@@@std@@QBEAAVVector@@XZ 1001f690 f i Visuals.obj
 0001:0001e6b0       ??D?$_Deque_unchecked_const_iterator@V?$_Deque_val@U?$_Deque_simple_types@Umy_sound_t@@@std@@@std@@@std@@QBEABUmy_sound_t@@XZ 1001f6b0 f i Visuals.obj
 0001:0001e700       ?_Tidy@?$deque@VVector@@V?$allocator@VVector@@@std@@@std@@AAEXXZ 1001f700 f i Visuals.obj
 0001:0001e830       ??D?$_Deque_unchecked_const_iterator@V?$_Deque_val@U?$_Deque_simple_types@VVector@@@std@@@std@@@std@@QBEABVVector@@XZ 1001f830 f i Visuals.obj
 0001:0001e880       ?pop_back@?$deque@VVector@@V?$allocator@VVector@@@std@@@std@@QAEXXZ 1001f880 f i Visuals.obj
 0001:0001e960       ?deallocate@?$allocator@VVector@@@std@@QAEXQAVVector@@I@Z 1001f960 f i Visuals.obj
 0001:0001e980       ??$pow@MH$0A@@@YANMH@Z     1001f980 f i Visuals.obj
 0001:0001e9b0       ??$_Emplace_back_internal@ABVVector@@@?$deque@VVector@@V?$allocator@VVector@@@std@@@std@@AAEXABVVector@@@Z 1001f9b0 f i Visuals.obj
 0001:0001eaf0       ??$destroy@VVector@@@?$_Default_allocator_traits@V?$allocator@VVector@@@std@@@std@@SAXAAV?$allocator@VVector@@@1@QAVVector@@@Z 1001faf0 f i Visuals.obj
 0001:0001eb00       ??_GVector@@QAEPAXI@Z      1001fb00 f i Visuals.obj
 0001:0001eb30       ?_Growmap@?$deque@VVector@@V?$allocator@VVector@@@std@@@std@@AAEXI@Z 1001fb30 f i Visuals.obj
 0001:0001ed90       ?allocate@?$allocator@VVector@@@std@@QAEPAVVector@@I@Z 1001fd90 f i Visuals.obj
 0001:0001edc0       ?max_size@?$deque@VVector@@V?$allocator@VVector@@@std@@@std@@QBEIXZ 1001fdc0 f i Visuals.obj
 0001:0001ee00       ?max_size@?$_Default_allocator_traits@V?$allocator@VVector@@@std@@@std@@SAIABV?$allocator@VVector@@@2@@Z 1001fe00 f i Visuals.obj
 0001:0001ee10       ??$construct@VVector@@ABV1@@?$_Default_allocator_traits@V?$allocator@VVector@@@std@@@std@@SAXAAV?$allocator@VVector@@@1@QAVVector@@ABV3@@Z 1001fe10 f i Visuals.obj
 0001:0001ee50       ??$_Get_size_of_n@$0M@@std@@YAII@Z 1001fe50 f i Visuals.obj
 0001:0001ee80       ?PM_FindTextureType@@YADPAD@Z 1001fe80 f   Textures.obj
 0001:0001ef10       ?GetTextureType@@YADPAUpmtrace_s@@PAM1@Z 1001ff10 f   Textures.obj
 0001:0001f060       ?PM_SwapTextures@@YAXHH@Z  10020060 f   Textures.obj
 0001:0001f170       ?PM_SortTextures@@YAXXZ    10020170 f   Textures.obj
 0001:0001f1f0       ?PM_InitTextureTypes@@YAXPAUplayermove_s@@@Z 100201f0 f   Textures.obj
 0001:0001f5b0       ?ResetAccuracy@@YAXXZ      100205b0 f   Weapons.obj
 0001:0001f6d0       ?UpdateWeaponData@@YAXXZ   100206d0 f   Weapons.obj
 0001:00020fb0       ?Reload@@YAXXZ             10021fb0 f   Weapons.obj
 0001:00020fc0       ?Simulate@@YAXAAM0@Z       10021fc0 f   Weapons.obj
 0001:000226f0       ?PrimaryAttack@@YAXXZ      100236f0 f   Weapons.obj
 0001:000231a0       ?ItemPostFrame@@YAXPAUusercmd_s@@@Z 100241a0 f   Weapons.obj
 0001:000232d0       ?ItemPreFrame@@YAXPAUlocal_state_s@@0PAUusercmd_s@@HNI@Z 100242d0 f   Weapons.obj
 0001:000233f0       ?IsCurWeaponSilenced@@YA_NXZ 100243f0 f   Weapons.obj
 0001:00023430       ?IsCurWeaponInBurst@@YA_NXZ 10024430 f   Weapons.obj
 0001:00023470       ?CurPenetration@@YAHXZ     10024470 f   Weapons.obj
 0001:00023480       ?CurBulletType@@YAHXZ      10024480 f   Weapons.obj
 0001:00023490       ?CurDistance@@YAMXZ        10024490 f   Weapons.obj
 0001:000234a0       ?CurWallPierce@@YAMXZ      100244a0 f   Weapons.obj
 0001:000234d0       ?CurDamage@@YAHXZ          100244d0 f   Weapons.obj
 0001:00023520       ?IsCurWeaponKnife@@YA_NXZ  10024520 f   Weapons.obj
 0001:00023540       ?IsCurWeaponSniper@@YA_NXZ 10024540 f   Weapons.obj
 0001:000235a0       ?IsCurWeaponPistol@@YA_NXZ 100245a0 f   Weapons.obj
 0001:00023600       ?IsCurWeaponGun@@YA_NXZ    10024600 f   Weapons.obj
 0001:00023630       ?IsCurWeaponNonAttack@@YA_NXZ 10024630 f   Weapons.obj
 0001:00023660       ?IsCurWeaponNade@@YA_NXZ   10024660 f   Weapons.obj
 0001:00023690       ?CanAttack@@YA_NXZ         10024690 f   Weapons.obj
 0001:000236d0       __vsprintf_l               100246d0 f i World.obj
 0001:000236f0       _sprintf                   100246f0 f i World.obj
 0001:00023730       ?make_error_code@std@@YA?AVerror_code@1@W4io_errc@1@@Z 10024730 f i World.obj
 0001:00023750       ?name@_Iostream_error_category2@std@@UBEPBDXZ 10024750 f i World.obj
 0001:00023760       ?message@_Iostream_error_category2@std@@UBE?AV?$basic_string@DU?$char_traits@D@std@@V?$allocator@D@2@@2@H@Z 10024760 f i World.obj
 0001:000237d0       ??_E_Iostream_error_category2@std@@UAEPAXI@Z 100247d0 f i * CIL library *:* CIL module *
 0001:000237d0       ??_G_Iostream_error_category2@std@@UAEPAXI@Z 100247d0 f i World.obj
 0001:00023800       ?iostream_category@std@@YAABVerror_category@1@XZ 10024800 f i World.obj
 0001:00023810       ??0bad_cast@std@@QAE@XZ    10024810 f i World.obj
 0001:00023840       ?_Throw_bad_cast@std@@YAXXZ 10024840 f i World.obj
 0001:00023860       ??0bad_cast@std@@QAE@ABV01@@Z 10024860 f i World.obj
 0001:00023890       ??1_Facet_base@std@@UAE@XZ 10024890 f i World.obj
 0001:000238b0       ??_E_Facet_base@std@@UAEPAXI@Z 100248b0 f i * CIL library *:* CIL module *
 0001:000238b0       ??_G_Facet_base@std@@UAEPAXI@Z 100248b0 f i World.obj
 0001:000238e0       ??0_Locinfo@std@@QAE@PBD@Z 100248e0 f i World.obj
 0001:000239b0       ??1_Locinfo@std@@QAE@XZ    100249b0 f i World.obj
 0001:00023a40       ?_Getctype@_Locinfo@std@@QBE?AU_Ctypevec@@XZ 10024a40 f i World.obj
 0001:00023a90       ??0id@locale@std@@QAE@I@Z  10024a90 f i World.obj
 0001:00023a90       ??0<lambda_59a2c67489030a4876926c40fd567950>@@QAE@QAV?$basic_config@Ujson_args@configor@@@configor@@@Z 10024a90 f i Pipi_edit.obj
 0001:00023ab0       ??Bid@locale@std@@QAEIXZ   10024ab0 f i World.obj
 0001:00023b20       ?_Incref@facet@locale@std@@UAEXXZ 10024b20 f i World.obj
 0001:00023b40       ?_Decref@facet@locale@std@@UAEPAV_Facet_base@3@XZ 10024b40 f i World.obj
 0001:00023b70       ??0facet@locale@std@@IAE@I@Z 10024b70 f i World.obj
 0001:00023ba0       ??1facet@locale@std@@MAE@XZ 10024ba0 f i World.obj
 0001:00023bc0       ??0locale@std@@QAE@ABV01@@Z 10024bc0 f i World.obj
 0001:00023bf0       ??0locale@std@@QAE@XZ      10024bf0 f i World.obj
 0001:00023c40       ??1locale@std@@QAE@XZ      10024c40 f i World.obj
 0001:00023c90       ?c_str@locale@std@@QBEPBDXZ 10024c90 f i World.obj
 0001:00023cd0       ?_Getfacet@locale@std@@QBEPBVfacet@12@I@Z 10024cd0 f i World.obj
 0001:00023d50       ??_Efacet@locale@std@@MAEPAXI@Z 10024d50 f i * CIL library *:* CIL module *
 0001:00023d50       ??_Gfacet@locale@std@@MAEPAXI@Z 10024d50 f i World.obj
 0001:00023d80       ??0_Facet_base@std@@QAE@XZ 10024d80 f i World.obj
 0001:00023da0       ??0codecvt_base@std@@QAE@I@Z 10024da0 f i World.obj
 0001:00023dd0       ?decimal_point@?$numpunct@D@std@@QBEDXZ 10024dd0 f i Pipi_edit.obj
 0001:00023dd0       ?always_noconv@codecvt_base@std@@QBE_NXZ 10024dd0 f i World.obj
 0001:00023df0       ??1codecvt_base@std@@UAE@XZ 10024df0 f i World.obj
 0001:00023e10       ?do_always_noconv@codecvt_base@std@@MBE_NXZ 10024e10 f i World.obj
 0001:00023e20       ?do_max_length@codecvt_base@std@@MBEHXZ 10024e20 f i World.obj
 0001:00023e20       ?do_encoding@codecvt_base@std@@MBEHXZ 10024e20 f i World.obj
 0001:00023e30       ??_Gcodecvt_base@std@@UAEPAXI@Z 10024e30 f i World.obj
 0001:00023e30       ??_Ecodecvt_base@std@@UAEPAXI@Z 10024e30 f i * CIL library *:* CIL module *
 0001:00023e60       ??0ctype_base@std@@QAE@I@Z 10024e60 f i World.obj
 0001:00023e90       ??1ctype_base@std@@UAE@XZ  10024e90 f i World.obj
 0001:00023eb0       ??_Gctype_base@std@@UAEPAXI@Z 10024eb0 f i World.obj
 0001:00023eb0       ??_Ectype_base@std@@UAEPAXI@Z 10024eb0 f i * CIL library *:* CIL module *
 0001:00023ee0       ?widen@?$ctype@D@std@@QBEDD@Z 10024ee0 f i World.obj
 0001:00023f00       ??0?$ctype@D@std@@QAE@ABV_Locinfo@1@I@Z 10024f00 f i World.obj
 0001:00023f70       ?_Getcat@?$ctype@D@std@@SAIPAPBVfacet@locale@2@PBV42@@Z 10024f70 f i World.obj
 0001:00024060       ??1?$ctype@D@std@@MAE@XZ   10025060 f i World.obj
 0001:00024090       ?_Init@?$ctype@D@std@@IAEXABV_Locinfo@2@@Z 10025090 f i World.obj
 0001:000240d0       ?_Tidy@?$ctype@D@std@@IAEXXZ 100250d0 f i World.obj
 0001:00024130       ?do_tolower@?$ctype@D@std@@MBEDD@Z 10025130 f i World.obj
 0001:00024160       ?do_tolower@?$ctype@D@std@@MBEPBDPADPBD@Z 10025160 f i World.obj
 0001:000241b0       ?do_toupper@?$ctype@D@std@@MBEDD@Z 100251b0 f i World.obj
 0001:000241e0       ?do_toupper@?$ctype@D@std@@MBEPBDPADPBD@Z 100251e0 f i World.obj
 0001:00024230       ?do_widen@?$ctype@D@std@@MBEDD@Z 10025230 f i World.obj
 0001:00024240       ?do_widen@?$ctype@D@std@@MBEPBDPBD0PAD@Z 10025240 f i World.obj
 0001:00024280       ?do_narrow@?$ctype@D@std@@MBEDDD@Z 10025280 f i World.obj
 0001:00024290       ?do_narrow@?$ctype@D@std@@MBEPBDPBD0DPAD@Z 10025290 f i World.obj
 0001:000242d0       ??_G?$ctype@D@std@@MAEPAXI@Z 100252d0 f i World.obj
 0001:000242d0       ??_E?$ctype@D@std@@MAEPAXI@Z 100252d0 f i * CIL library *:* CIL module *
 0001:00024300       ??0failure@ios_base@std@@QAE@PBDABVerror_code@2@@Z 10025300 f i World.obj
 0001:00024330       ?clear@ios_base@std@@QAEXH_N@Z 10025330 f i World.obj
 0001:000243d0       ?clear@ios_base@std@@QAEXH@Z 100253d0 f i World.obj
 0001:000243f0       ?rdstate@ios_base@std@@QBEHXZ 100253f0 f i World.obj
 0001:00024410       ?getloc@ios_base@std@@QBE?AVlocale@2@XZ 10025410 f i World.obj
 0001:00024450       ??1ios_base@std@@UAE@XZ    10025450 f i World.obj
 0001:000244a0       ??0ios_base@std@@IAE@XZ    100254a0 f i World.obj
 0001:000244e0       ?_Init@ios_base@std@@IAEXXZ 100254e0 f i World.obj
 0001:00024590       ??_Efailure@ios_base@std@@UAEPAXI@Z 10025590 f i * CIL library *:* CIL module *
 0001:00024590       ??_Gfailure@ios_base@std@@UAEPAXI@Z 10025590 f i World.obj
 0001:000245c0       ??1failure@ios_base@std@@UAE@XZ 100255c0 f i World.obj
 0001:000245e0       ??0failure@ios_base@std@@QAE@ABV012@@Z 100255e0 f i World.obj
 0001:00024610       ??_Gios_base@std@@UAEPAXI@Z 10025610 f i World.obj
 0001:00024610       ??_Eios_base@std@@UAEPAXI@Z 10025610 f i * CIL library *:* CIL module *
 0001:00024640       ??$_Fgetc@D@std@@YA_NAADPAU_iobuf@@@Z 10025640 f i World.obj
 0001:00024670       ??$_Fputc@D@std@@YA_NDPAU_iobuf@@@Z 10025670 f i World.obj
 0001:000246b0       ??$_Ungetc@D@std@@YA_NABDPAU_iobuf@@@Z 100256b0 f i World.obj
 0001:000246f0       ??0CBaseLocal@@QAE@XZ      100256f0 f i World.obj
 0001:000247f0       ??1CBaseLocal@@QAE@XZ      100257f0 f i World.obj
 0001:00024890       ??0CBasePlayer@@QAE@XZ     10025890 f i World.obj
 0001:00024910       ??1CBasePlayer@@QAE@XZ     10025910 f i World.obj
 0001:00024950       ??0CBaseEntity@@QAE@XZ     10025950 f i World.obj
 0001:00024970       ??1CBaseEntity@@QAE@XZ     10025970 f i World.obj
 0001:00024990       ??0player_extra_info_t@@QAE@XZ 10025990 f i World.obj
 0001:00024a60       ??1player_extra_info_t@@QAE@XZ 10025a60 f i World.obj
 0001:00024b10       ?MyVectorTransform@@YAXVVector@@QAY03MPAMHM@Z 10025b10 f   World.obj
 0001:00024ca0       ?GetHitboxes@CWorld@@QAEXPAUcl_entity_s@@@Z 10025ca0 f   World.obj
 0001:00025d40       ?UpdateLocalPlayer@CWorld@@QAEXMPAUusercmd_s@@@Z 10026d40 f   World.obj
 0001:00026210       ?UpdateEntities@CWorld@@QAEXXZ 10027210 f   World.obj
 0001:00026850       ?UpdatePlayers@CWorld@@QAEXXZ 10027850 f   World.obj
 0001:00026e50       ?UpdateVisibility@CWorld@@QAEXH@Z 10027e50 f   World.obj
 0001:00027af0       ?ClearLocalPlayer@CWorld@@QAEXXZ 10028af0 f   World.obj
 0001:00027b10       ?ClearPlayers@CWorld@@QAEXXZ 10028b10 f   World.obj
 0001:00027b60       ?ClearEntities@CWorld@@QAEXXZ 10028b60 f   World.obj
 0001:00027b90       ?ClearMapInfo@CWorld@@QAEXXZ 10028b90 f   World.obj
 0001:00027bb0       ?Reset@CWorld@@QAEXXZ      10028bb0 f   World.obj
 0001:00027be0       ?Update@CWorld@@QAEXMPAUusercmd_s@@@Z 10028be0 f   World.obj
 0001:00027c20       ?UpdateMapInfo@CWorld@@QAEXXZ 10028c20 f   World.obj
 0001:00028020       ??_D?$basic_ifstream@DU?$char_traits@D@std@@@std@@QAEXXZ 10029020 f i World.obj
 0001:00028050       ??0?$istreambuf_iterator@DU?$char_traits@D@std@@@std@@QAE@AAV?$basic_istream@DU?$char_traits@D@std@@@1@@Z 10029050 f i World.obj
 0001:000280d0       ??0?$istreambuf_iterator@DU?$char_traits@D@std@@@std@@QAE@XZ 100290d0 f i World.obj
 0001:00028100       ?imbue@?$basic_filebuf@DU?$char_traits@D@std@@@std@@MAEXABVlocale@2@@Z 10029100 f i World.obj
 0001:00028130       ?sync@?$basic_filebuf@DU?$char_traits@D@std@@@std@@MAEHXZ 10029130 f i World.obj
 0001:000281a0       ?setbuf@?$basic_filebuf@DU?$char_traits@D@std@@@std@@MAEPAV?$basic_streambuf@DU?$char_traits@D@std@@@2@PAD_J@Z 100291a0 f i World.obj
 0001:00028220       ?seekpos@?$basic_filebuf@DU?$char_traits@D@std@@@std@@MAE?AV?$fpos@U_Mbstatet@@@2@V32@H@Z 10029220 f i World.obj
 0001:000282e0       ?seekoff@?$basic_filebuf@DU?$char_traits@D@std@@@std@@MAE?AV?$fpos@U_Mbstatet@@@2@_JHH@Z 100292e0 f i World.obj
 0001:000283d0       ?xsputn@?$basic_filebuf@DU?$char_traits@D@std@@@std@@MAE_JPBD_J@Z 100293d0 f i World.obj
 0001:000284f0       ?xsgetn@?$basic_filebuf@DU?$char_traits@D@std@@@std@@MAE_JPAD_J@Z 100294f0 f i World.obj
 0001:00028670       ?uflow@?$basic_filebuf@DU?$char_traits@D@std@@@std@@MAEHXZ 10029670 f i World.obj
 0001:000288e0       ?underflow@?$basic_filebuf@DU?$char_traits@D@std@@@std@@MAEHXZ 100298e0 f i World.obj
 0001:00028990       ?pbackfail@?$basic_filebuf@DU?$char_traits@D@std@@@std@@MAEHH@Z 10029990 f i World.obj
 0001:00028ae0       ?overflow@?$basic_filebuf@DU?$char_traits@D@std@@@std@@MAEHH@Z 10029ae0 f i World.obj
 0001:00028cc0       ?to_char_type@?$_Narrow_char_traits@DH@std@@SADABH@Z 10029cc0 f i World.obj
 0001:00028cd0       ?_Unlock@?$basic_filebuf@DU?$char_traits@D@std@@@std@@UAEXXZ 10029cd0 f i World.obj
 0001:00028d00       ?_Lock@?$basic_filebuf@DU?$char_traits@D@std@@@std@@UAEXXZ 10029d00 f i World.obj
 0001:00028d30       ??1?$basic_filebuf@DU?$char_traits@D@std@@@std@@UAE@XZ 10029d30 f i World.obj
 0001:00028da0       ?sync@?$basic_streambuf@DU?$char_traits@D@std@@@std@@MAEHXZ 10029da0 f i World.obj
 0001:00028db0       ?setbuf@?$basic_streambuf@DU?$char_traits@D@std@@@std@@MAEPAV12@PAD_J@Z 10029db0 f i World.obj
 0001:00028dc0       ?seekpos@?$basic_streambuf@DU?$char_traits@D@std@@@std@@MAE?AV?$fpos@U_Mbstatet@@@2@V32@H@Z 10029dc0 f i World.obj
 0001:00028de0       ?seekoff@?$basic_streambuf@DU?$char_traits@D@std@@@std@@MAE?AV?$fpos@U_Mbstatet@@@2@_JHH@Z 10029de0 f i World.obj
 0001:00028e00       ?xsputn@?$basic_streambuf@DU?$char_traits@D@std@@@std@@MAE_JPBD_J@Z 10029e00 f i World.obj
 0001:00028f20       ?xsgetn@?$basic_streambuf@DU?$char_traits@D@std@@@std@@MAE_JPAD_J@Z 10029f20 f i World.obj
 0001:00029050       ?uflow@?$basic_streambuf@DU?$char_traits@D@std@@@std@@MAEHXZ 1002a050 f i World.obj
 0001:000290b0       ?underflow@?$basic_streambuf@DU?$char_traits@D@std@@@std@@MAEHXZ 1002a0b0 f i World.obj
 0001:000290c0       ?showmanyc@?$basic_streambuf@DU?$char_traits@D@std@@@std@@MAE_JXZ 1002a0c0 f i World.obj
 0001:000290d0       ?overflow@?$basic_streambuf@DU?$char_traits@D@std@@@std@@MAEHH@Z 1002a0d0 f i World.obj
 0001:000290d0       ?pbackfail@?$basic_streambuf@DU?$char_traits@D@std@@@std@@MAEHH@Z 1002a0d0 f i World.obj
 0001:000290f0       ??1?$basic_streambuf@DU?$char_traits@D@std@@@std@@UAE@XZ 1002a0f0 f i World.obj
 0001:00029130       ??1?$basic_ifstream@DU?$char_traits@D@std@@@std@@UAE@XZ 1002a130 f i World.obj
 0001:00029190       ??0?$basic_ifstream@DU?$char_traits@D@std@@@std@@QAE@PBDHH@Z 1002a190 f i World.obj
 0001:000292a0       ??1?$basic_istream@DU?$char_traits@D@std@@@std@@UAE@XZ 1002a2a0 f i World.obj
 0001:000292e0       ??1?$basic_ios@DU?$char_traits@D@std@@@std@@UAE@XZ 1002a2e0 f i World.obj
 0001:00029300       ??1?$_Yarn@D@std@@QAE@XZ   1002a300 f i World.obj
 0001:00029300       ??1?$_Yarn@_W@std@@QAE@XZ  1002a300 f i World.obj
 0001:00029320       ??0?$_Yarn@_W@std@@QAE@XZ  1002a320 f i World.obj
 0001:00029340       ?c_str@?$_Yarn@D@std@@QBEPBDXZ 1002a340 f i World.obj
 0001:00029370       ??0?$_Yarn@D@std@@QAE@XZ   1002a370 f i World.obj
 0001:00029390       ?substr@?$basic_string@DU?$char_traits@D@std@@V?$allocator@D@2@@std@@QBE?AV12@II@Z 1002a390 f i World.obj
 0001:000293e0       ?find@?$basic_string@DU?$char_traits@D@std@@V?$allocator@D@2@@std@@QBEIQBDI@Z 1002a3e0 f i World.obj
 0001:00029420       ??0?$basic_string@DU?$char_traits@D@std@@V?$allocator@D@2@@std@@QAE@XZ 1002a420 f i World.obj
 0001:00029460       ??_E?$basic_filebuf@DU?$char_traits@D@std@@@std@@UAEPAXI@Z 1002a460 f i * CIL library *:* CIL module *
 0001:00029460       ??_G?$basic_filebuf@DU?$char_traits@D@std@@@std@@UAEPAXI@Z 1002a460 f i World.obj
 0001:00029490       ??_E?$basic_streambuf@DU?$char_traits@D@std@@@std@@UAEPAXI@Z 1002a490 f i * CIL library *:* CIL module *
 0001:00029490       ??_G?$basic_streambuf@DU?$char_traits@D@std@@@std@@UAEPAXI@Z 1002a490 f i World.obj
 0001:000294c0       ??_Glocale@std@@QAEPAXI@Z  1002a4c0 f i World.obj
 0001:000294f0       ??_G?$basic_ifstream@DU?$char_traits@D@std@@@std@@UAEPAXI@Z 1002a4f0 f i World.obj
 0001:000294f0       ??_E?$basic_ifstream@DU?$char_traits@D@std@@@std@@UAEPAXI@Z 1002a4f0 f i * CIL library *:* CIL module *
 0001:00029530       ??_E?$basic_istream@DU?$char_traits@D@std@@@std@@UAEPAXI@Z 1002a530 f i * CIL library *:* CIL module *
 0001:00029530       ??_G?$basic_istream@DU?$char_traits@D@std@@@std@@UAEPAXI@Z 1002a530 f i World.obj
 0001:00029570       ??_G?$basic_ios@DU?$char_traits@D@std@@@std@@UAEPAXI@Z 1002a570 f i World.obj
 0001:00029570       ??_E?$basic_ios@DU?$char_traits@D@std@@@std@@UAEPAXI@Z 1002a570 f i * CIL library *:* CIL module *
 0001:000295a0       ??_D?$basic_istream@DU?$char_traits@D@std@@@std@@QAEXXZ 1002a5a0 f i World.obj
 0001:000295d0       ?do_length@?$codecvt@DDU_Mbstatet@@@std@@MBEHAAU_Mbstatet@@PBD1I@Z 1002a5d0 f i World.obj
 0001:00029630       ?do_unshift@?$codecvt@DDU_Mbstatet@@@std@@MBEHAAU_Mbstatet@@PAD1AAPAD@Z 1002a630 f i World.obj
 0001:00029650       ?do_out@?$codecvt@DDU_Mbstatet@@@std@@MBEHAAU_Mbstatet@@PBD1AAPBDPAD3AAPAD@Z 1002a650 f i World.obj
 0001:00029650       ?do_in@?$codecvt@DDU_Mbstatet@@@std@@MBEHAAU_Mbstatet@@PBD1AAPBDPAD3AAPAD@Z 1002a650 f i World.obj
 0001:00029680       ?do_always_noconv@?$codecvt@DDU_Mbstatet@@@std@@MBE_NXZ 1002a680 f i World.obj
 0001:00029690       ??1?$codecvt@DDU_Mbstatet@@@std@@MAE@XZ 1002a690 f i World.obj
 0001:000296b0       ?out@?$codecvt@DDU_Mbstatet@@@std@@QBEHAAU_Mbstatet@@PBD1AAPBDPAD3AAPAD@Z 1002a6b0 f i World.obj
 0001:000296f0       ?in@?$codecvt@DDU_Mbstatet@@@std@@QBEHAAU_Mbstatet@@PBD1AAPBDPAD3AAPAD@Z 1002a6f0 f i World.obj
 0001:00029730       ??B?$fpos@U_Mbstatet@@@std@@QBE_JXZ 1002a730 f i World.obj
 0001:00029760       ?state@?$fpos@U_Mbstatet@@@std@@QBE?AU_Mbstatet@@XZ 1002a760 f i World.obj
 0001:00029790       ??0?$fpos@U_Mbstatet@@@std@@QAE@U_Mbstatet@@_J@Z 1002a790 f i World.obj
 0001:000297d0       ??0?$fpos@U_Mbstatet@@@std@@QAE@_J@Z 1002a7d0 f i World.obj
 0001:00029810       ?_Set_back@?$basic_filebuf@DU?$char_traits@D@std@@@std@@AAEXXZ 1002a810 f i World.obj
 0001:00029870       ?_Reset_back@?$basic_filebuf@DU?$char_traits@D@std@@@std@@AAEXXZ 1002a870 f i World.obj
 0001:000298b0       ?_Initcvt@?$basic_filebuf@DU?$char_traits@D@std@@@std@@IAEXABV?$codecvt@DDU_Mbstatet@@@2@@Z 1002a8b0 f i World.obj
 0001:00029900       ?_Endwrite@?$basic_filebuf@DU?$char_traits@D@std@@@std@@IAE_NXZ 1002a900 f i World.obj
 0001:00029a20       ?_Init@?$basic_filebuf@DU?$char_traits@D@std@@@std@@IAEXPAU_iobuf@@W4_Initfl@12@@Z 1002aa20 f i World.obj
 0001:00029b00       ?close@?$basic_filebuf@DU?$char_traits@D@std@@@std@@QAEPAV12@XZ 1002ab00 f i World.obj
 0001:00029b70       ?open@?$basic_filebuf@DU?$char_traits@D@std@@@std@@QAEPAV12@PBDHH@Z 1002ab70 f i World.obj
 0001:00029c30       ??0?$basic_filebuf@DU?$char_traits@D@std@@@std@@QAE@XZ 1002ac30 f i World.obj
 0001:00029ca0       ?_Pnavail@?$basic_streambuf@DU?$char_traits@D@std@@@std@@IBE_JXZ 1002aca0 f i World.obj
 0001:00029cd0       ?_Pninc@?$basic_streambuf@DU?$char_traits@D@std@@@std@@IAEPADXZ 1002acd0 f i World.obj
 0001:00029d20       ?pbump@?$basic_streambuf@DU?$char_traits@D@std@@@std@@IAEXH@Z 1002ad20 f i World.obj
 0001:00029d60       ?_Gnavail@?$basic_streambuf@DU?$char_traits@D@std@@@std@@IBE_JXZ 1002ad60 f i World.obj
 0001:00029d90       ?_Gninc@?$basic_streambuf@DU?$char_traits@D@std@@@std@@IAEPADXZ 1002ad90 f i World.obj
 0001:00029de0       ?_Gndec@?$basic_streambuf@DU?$char_traits@D@std@@@std@@IAEPADXZ 1002ade0 f i World.obj
 0001:00029e20       ?epptr@?$basic_streambuf@DU?$char_traits@D@std@@@std@@IBEPADXZ 1002ae20 f i World.obj
 0001:00029e40       ?gbump@?$basic_streambuf@DU?$char_traits@D@std@@@std@@IAEXH@Z 1002ae40 f i World.obj
 0001:00029e80       ?egptr@?$basic_streambuf@DU?$char_traits@D@std@@@std@@IBEPADXZ 1002ae80 f i World.obj
 0001:00029ea0       ?pptr@?$basic_streambuf@DU?$char_traits@D@std@@@std@@IBEPADXZ 1002aea0 f i World.obj
 0001:00029ec0       ?gptr@?$basic_streambuf@DU?$char_traits@D@std@@@std@@IBEPADXZ 1002aec0 f i World.obj
 0001:00029ee0       ?eback@?$basic_streambuf@DU?$char_traits@D@std@@@std@@IBEPADXZ 1002aee0 f i World.obj
 0001:00029f00       ??0?$basic_istream@DU?$char_traits@D@std@@@std@@QAE@PAV?$basic_streambuf@DU?$char_traits@D@std@@@1@_N@Z 1002af00 f i World.obj
 0001:00029fd0       ??0?$basic_ios@DU?$char_traits@D@std@@@std@@IAE@XZ 1002afd0 f i World.obj
 0001:00029ff0       ?rdbuf@?$basic_ios@DU?$char_traits@D@std@@@std@@QBEPAV?$basic_streambuf@DU?$char_traits@D@std@@@2@XZ 1002aff0 f i World.obj
 0001:0002a010       ?setstate@?$basic_ios@DU?$char_traits@D@std@@@std@@QAEXH_N@Z 1002b010 f i World.obj
 0001:0002a040       ?_Tidy@?$_Yarn@D@std@@AAEXXZ 1002b040 f i World.obj
 0001:0002a040       ?_Tidy@?$_Yarn@_W@std@@AAEXXZ 1002b040 f i World.obj
 0001:0002a070       ?get_allocator@?$basic_string@DU?$char_traits@D@std@@V?$allocator@D@2@@std@@QBE?AV?$allocator@D@2@XZ 1002b070 f i World.obj
 0001:0002a070       ?key_comp@?$_Tree@V?$_Tmap_traits@V?$basic_string@DU?$char_traits@D@std@@V?$allocator@D@2@@std@@V?$basic_config@Ujson_args@configor@@@configor@@U?$less@V?$basic_string@DU?$char_traits@D@std@@V?$allocator@D@2@@std@@@2@V?$allocator@U?$pair@$$CBV?$basic_string@DU?$char_traits@D@std@@V?$allocator@D@2@@std@@V?$basic_config@Ujson_args@configor@@@configor@@@std@@@2@$0A@@std@@@std@@QBE?AU?$less@V?$basic_string@DU?$char_traits@D@std@@V?$allocator@D@2@@std@@@2@XZ 1002b070 f i Pipi_edit.obj
 0001:0002a090       ?front@?$basic_string@DU?$char_traits@D@std@@V?$allocator@D@2@@std@@QAEAADXZ 1002b090 f i World.obj
 0001:0002a0b0       ?push_back@?$basic_string@DU?$char_traits@D@std@@V?$allocator@D@2@@std@@QAEXD@Z 1002b0b0 f i World.obj
 0001:0002a140       ??R<lambda_15711c68e099a15a58f4d77303cb286d>@@QBE@QADQBDID@Z 1002b140 f i World.obj
 0001:0002a1a0       ?erase@?$basic_string@DU?$char_traits@D@std@@V?$allocator@D@2@@std@@QAEAAV12@II@Z 1002b1a0 f i World.obj
 0001:0002a1d0       ??0?$basic_string@DU?$char_traits@D@std@@V?$allocator@D@2@@std@@QAE@ABV01@IIABV?$allocator@D@1@@Z 1002b1d0 f i World.obj
 0001:0002a280       ?not_eof@?$_Narrow_char_traits@DH@std@@SAHABH@Z 1002b280 f i World.obj
 0001:0002a2d0       ?eq_int_type@?$_Narrow_char_traits@DH@std@@SA_NABH0@Z 1002b2d0 f i World.obj
 0001:0002a300       ?to_int_type@?$_Narrow_char_traits@DH@std@@SAHABD@Z 1002b300 f i World.obj
 0001:0002a310       ??_E?$codecvt@DDU_Mbstatet@@@std@@MAEPAXI@Z 1002b310 f i * CIL library *:* CIL module *
 0001:0002a310       ??_G?$codecvt@DDU_Mbstatet@@@std@@MAEPAXI@Z 1002b310 f i World.obj
 0001:0002a340       ?unshift@?$codecvt@DDU_Mbstatet@@@std@@QBEHAAU_Mbstatet@@PAD1AAPAD@Z 1002b340 f i World.obj
 0001:0002a370       ?_Init@?$basic_streambuf@DU?$char_traits@D@std@@@std@@IAEXPAPAD0PAH001@Z 1002b370 f i World.obj
 0001:0002a3c0       ?_Init@?$basic_streambuf@DU?$char_traits@D@std@@@std@@IAEXXZ 1002b3c0 f i World.obj
 0001:0002a430       ?setg@?$basic_streambuf@DU?$char_traits@D@std@@@std@@IAEXPAD00@Z 1002b430 f i World.obj
 0001:0002a470       ?getloc@?$basic_streambuf@DU?$char_traits@D@std@@@std@@QBE?AVlocale@2@XZ 1002b470 f i World.obj
 0001:0002a4b0       ??0?$basic_streambuf@DU?$char_traits@D@std@@@std@@IAE@XZ 1002b4b0 f i World.obj
 0001:0002a510       ?init@?$basic_ios@DU?$char_traits@D@std@@@std@@IAEXPAV?$basic_streambuf@DU?$char_traits@D@std@@@2@_N@Z 1002b510 f i World.obj
 0001:0002a580       ?clear@?$basic_ios@DU?$char_traits@D@std@@@std@@QAEXH_N@Z 1002b580 f i World.obj
 0001:0002a5c0       ?_Erase_noexcept@?$basic_string@DU?$char_traits@D@std@@V?$allocator@D@2@@std@@AAEAAV12@II@Z 1002b5c0 f i World.obj
 0001:0002a640       ?assign@?$basic_string@DU?$char_traits@D@std@@V?$allocator@D@2@@std@@QAEAAV12@ABV12@II@Z 1002b640 f i World.obj
 0001:0002a690       ?_Check_offset@?$_String_val@U?$_Simple_types@D@std@@@std@@QBEXI@Z 1002b690 f i World.obj
 0001:0002a6b0       ?setp@?$basic_streambuf@DU?$char_traits@D@std@@@std@@IAEXPAD0@Z 1002b6b0 f i World.obj
 0001:0002a6f0       ?widen@?$basic_ios@DU?$char_traits@D@std@@@std@@QBEDD@Z 1002b6f0 f i World.obj
 0001:0002a780       ?_Clamp_suffix_size@?$_String_val@U?$_Simple_types@D@std@@@std@@QBEIII@Z 1002b780 f i World.obj
 0001:0002a7b0       ?_Xran@?$_String_val@U?$_Simple_types@D@std@@@std@@SAXXZ 1002b7b0 f i World.obj
 0001:0002a7c0       ??$_Immortalize_memcpy_image@V_Iostream_error_category2@std@@@std@@YAABV_Iostream_error_category2@0@XZ 1002b7c0 f i World.obj
 0001:0002a7d0       ??$min@H@std@@YAABHABH0@Z  1002b7d0 f i World.obj
 0001:0002a800       ??$use_facet@V?$ctype@D@std@@@std@@YAABV?$ctype@D@0@ABVlocale@0@@Z 1002b800 f i World.obj
 0001:0002a920       ??$?0V?$istreambuf_iterator@DU?$char_traits@D@std@@@std@@$0A@@?$basic_string@DU?$char_traits@D@std@@V?$allocator@D@2@@std@@QAE@V?$istreambuf_iterator@DU?$char_traits@D@std@@@1@0ABV?$allocator@D@1@@Z 1002b920 f i World.obj
 0001:0002aa00       ??$use_facet@V?$codecvt@DDU_Mbstatet@@@std@@@std@@YAABV?$codecvt@DDU_Mbstatet@@@0@ABVlocale@0@@Z 1002ba00 f i World.obj
 0001:0002ab20       ??$_Traits_find@U?$char_traits@D@std@@@std@@YAIQBDII0I@Z 1002bb20 f i World.obj
 0001:0002abc0       ??$_Reallocate_grow_by@V<lambda_15711c68e099a15a58f4d77303cb286d>@@D@?$basic_string@DU?$char_traits@D@std@@V?$allocator@D@2@@std@@AAEAAV01@IV<lambda_15711c68e099a15a58f4d77303cb286d>@@D@Z 1002bbc0 f i World.obj
 0001:0002acf0       ?release@?$unique_ptr@V_Facet_base@std@@U?$default_delete@V_Facet_base@std@@@2@@std@@QAEPAV_Facet_base@2@XZ 1002bcf0 f i World.obj
 0001:0002ad20       ??1?$unique_ptr@V_Facet_base@std@@U?$default_delete@V_Facet_base@std@@@2@@std@@QAE@XZ 1002bd20 f i World.obj
 0001:0002ad50       ?_Getcat@?$codecvt@DDU_Mbstatet@@@std@@SAIPAPBVfacet@locale@2@PBV42@@Z 1002bd50 f i World.obj
 0001:0002ae40       ?find@?$_Narrow_char_traits@DH@std@@SAPBDQBDIABD@Z 1002be40 f i World.obj
 0001:0002ae70       ?compare@?$_Narrow_char_traits@DH@std@@SAHQBD0I@Z 1002be70 f i World.obj
 0001:0002aea0       ??R?$default_delete@V_Facet_base@std@@@std@@QBEXPAV_Facet_base@1@@Z 1002bea0 f i World.obj
 0001:0002aee0       ??0?$codecvt@DDU_Mbstatet@@@std@@QAE@ABV_Locinfo@1@I@Z 1002bee0 f i World.obj
 0001:0002af50       ??$?0U?$default_delete@V_Facet_base@std@@@std@@$0A@@?$unique_ptr@V_Facet_base@std@@U?$default_delete@V_Facet_base@std@@@2@@std@@QAE@PAV_Facet_base@1@@Z 1002bf50 f i World.obj
 0001:0002af80       ??$_Construct@V?$istreambuf_iterator@DU?$char_traits@D@std@@@std@@@?$basic_string@DU?$char_traits@D@std@@V?$allocator@D@2@@std@@QAEXV?$istreambuf_iterator@DU?$char_traits@D@std@@@1@V21@Uinput_iterator_tag@1@@Z 1002bf80 f i World.obj
 0001:0002b020       ??1?$_Tidy_deallocate_guard@V?$basic_string@DU?$char_traits@D@std@@V?$allocator@D@2@@std@@@std@@QAE@XZ 1002c020 f i World.obj
 0001:0002b040       ??E?$istreambuf_iterator@DU?$char_traits@D@std@@@std@@QAEAAV01@XZ 1002c040 f i World.obj
 0001:0002b060       ??D?$istreambuf_iterator@DU?$char_traits@D@std@@@std@@QBEDXZ 1002c060 f i World.obj
 0001:0002b090       ?_Peek@?$istreambuf_iterator@DU?$char_traits@D@std@@@std@@ABEDXZ 1002c090 f i World.obj
 0001:0002b110       ?_Inc@?$istreambuf_iterator@DU?$char_traits@D@std@@@std@@AAEXXZ 1002c110 f i World.obj
 0001:0002b170       ?sgetc@?$basic_streambuf@DU?$char_traits@D@std@@@std@@QAEHXZ 1002c170 f i World.obj
 0001:0002b1d0       ?sbumpc@?$basic_streambuf@DU?$char_traits@D@std@@@std@@QAEHXZ 1002c1d0 f i World.obj
 0001:0002b230       ??$?0AAPAV_Facet_base@std@@@?$_Compressed_pair@U?$default_delete@V_Facet_base@std@@@std@@PAV_Facet_base@2@$00@std@@QAE@U_Zero_then_variadic_args_t@1@AAPAV_Facet_base@1@@Z 1002c230 f i World.obj
 0001:0002b260       ??$?9DU?$char_traits@D@std@@@std@@YA_NABV?$istreambuf_iterator@DU?$char_traits@D@std@@@0@0@Z 1002c260 f i World.obj
 0001:0002b2a0       ??$?8DU?$char_traits@D@std@@@std@@YA_NABV?$istreambuf_iterator@DU?$char_traits@D@std@@@0@0@Z 1002c2a0 f i World.obj
 0001:0002b2c0       ?equal@?$istreambuf_iterator@DU?$char_traits@D@std@@@std@@QBE_NABV12@@Z 1002c2c0 f i World.obj
 0001:0002b328       ??_E?$basic_ifstream@DU?$char_traits@D@std@@@std@@$4PPPPPPPM@A@AEPAXI@Z 1002c328 f i World.obj
 0001:0002b330       ??_E?$basic_istream@DU?$char_traits@D@std@@@std@@$4PPPPPPPM@A@AEPAXI@Z 1002c330 f i World.obj
 0001:0002b340       ?CommandByName@@YAPAUcmd_s@@PAD@Z 1002c340 f   Hook.obj
 0001:0002b3e0       ?UserMsgByName@@YAPAU_UserMsg@@PAD@Z 1002c3e0 f   Hook.obj
 0001:0002b480       ?HookUserMsg@@YAP6AHPBDHPAX@ZPADP6AH0H1@Z@Z 1002c480 f   Hook.obj
 0001:0002b4e0       ?HookTable@VHookTable@@QAE_NK@Z 1002c4e0 f   Hook.obj
 0001:0002b5b0       ?HookIndex@VHookTable@@QAEXKPAX@Z 1002c5b0 f   Hook.obj
 0001:0002b5d0       ?UnHook@VHookTable@@QAEXXZ 1002c5d0 f   Hook.obj
 0001:0002b5f0       ?ReHook@VHookTable@@QAEXXZ 1002c5f0 f   Hook.obj
 0001:0002b610       ?startDebugWindow@@YAXXZ   1002c610 f   Main.obj
 0001:0002b710       ?Hooked_WndProc@@YGJPAUHWND__@@IIJ@Z 1002c710 f   Main.obj
 0001:0002b7e0       ?Hook@@YGKPAX@Z            1002c7e0 f   Main.obj
 0001:0002bb20       _DllMain@12                1002cb20 f   Main.obj
 0001:0002bcb0       ??A?$basic_string@DU?$char_traits@D@std@@V?$allocator@D@2@@std@@QBEABDI@Z 1002ccb0 f i Main.obj
 0001:0002bcb0       ??A?$basic_string@DU?$char_traits@D@std@@V?$allocator@D@2@@std@@QAEAADI@Z 1002ccb0 f i Main.obj
 0001:0002bcd0       ?Error@COffsets@@QAEXPAD@Z 1002ccd0 f   Offsets.obj
 0001:0002bd00       ?FindSpeed@COffsets@@QAEKXZ 1002cd00 f   Offsets.obj
 0001:0002bd90       ?CL_Move@COffsets@@QAEKXZ  1002cd90 f   Offsets.obj
 0001:0002be50       ?GlobalTime@COffsets@@QAEXXZ 1002ce50 f   Offsets.obj
 0001:0002bee0       ?FindStudioModelRenderer@COffsets@@QAEPAXXZ 1002cee0 f   Offsets.obj
 0001:0002bf50       ?PreS_DynamicSound@COffsets@@QAEKXZ 1002cf50 f   Offsets.obj
 0001:0002c010       ?FindUserMsgBase@COffsets@@QAEPAU_UserMsg@@XZ 1002d010 f   Offsets.obj
 0001:0002c0d0       ?FindPlayerMove@COffsets@@QAEPAXXZ 1002d0d0 f   Offsets.obj
 0001:0002c150       ?FindEngine@COffsets@@QAEPAXXZ 1002d150 f   Offsets.obj
 0001:0002c220       ?FindStudio@COffsets@@QAEPAXXZ 1002d220 f   Offsets.obj
 0001:0002c2a0       ?FindClient@COffsets@@QAEPAXXZ 1002d2a0 f   Offsets.obj
 0001:0002c320       ?FindHardware@COffsets@@QAE_NXZ 1002d320 f   Offsets.obj
 0001:0002c3b0       ?Absolute@COffsets@@QAEKK@Z 1002d3b0 f   Offsets.obj
 0001:0002c3d0       ?FarProc@COffsets@@QAEKKKK@Z 1002d3d0 f   Offsets.obj
 0001:0002c410       ?FindReference@COffsets@@QAEKKKK@Z 1002d410 f   Offsets.obj
 0001:0002c470       ?FindPush@COffsets@@QAEKKKPAD@Z 1002d470 f   Offsets.obj
 0001:0002c4f0       ?GetModuleSize@COffsets@@QAEKK@Z 1002d4f0 f   Offsets.obj
 0001:0002c510       ?FindModuleByName@COffsets@@QAE_NPBDPAUModule@@@Z 1002d510 f   Offsets.obj
 0001:0002c590       ?EnablePageWrite@COffsets@@QAE_NKK@Z 1002d590 f   Offsets.obj
 0001:0002c5d0       ?RestorePageProtection@COffsets@@QAE_NKK@Z 1002d5d0 f   Offsets.obj
 0001:0002c630       ?FindPattern@COffsets@@QAEKPAD0KKK@Z 1002d630 f   Offsets.obj
 0001:0002c710       ?FindPattern@COffsets@@QAEKPADKKK@Z 1002d710 f   Offsets.obj
 0001:0002c7e0       ?Hooked_glBegin@@YGXI@Z    1002d7e0 f   OpenGL.obj
 0001:0002c8f0       ?Hooked_glVertex3fv@@YGXPAM@Z 1002d8f0 f   OpenGL.obj
 0001:0002c970       ?Hooked_glColor4f@@YGXMMMM@Z 1002d970 f   OpenGL.obj
 0001:0002ca60       ?Hooked_wglSwapBuffers@@YGHPAUHDC__@@@Z 1002da60 f   OpenGL.obj
 0001:0002cc70       ?Hooked_glClear@@YGXI@Z    1002dc70 f   OpenGL.obj
 0001:0002ccc0       ?Hooked_glViewport@@YGXHHHH@Z 1002dcc0 f   OpenGL.obj
 0001:0002cd20       ?HookOpenGL@@YAXXZ         1002dd20 f   OpenGL.obj
 0001:0002cdf0       _frexpl                    1002ddf0 f i Pipi_edit.obj
 0001:0002ce10       __vsprintf_s_l             1002de10 f i Pipi_edit.obj
 0001:0002ce60       _sprintf_s                 1002de60 f i Pipi_edit.obj
 0001:0002cea0       ??0exception_ptr@std@@QAE@XZ 1002dea0 f i Pipi_edit.obj
 0001:0002cec0       ??1exception_ptr@std@@QAE@XZ 1002dec0 f i Pipi_edit.obj
 0001:0002cee0       ??0exception_ptr@std@@QAE@ABV01@@Z 1002dee0 f i Pipi_edit.obj
 0001:0002cf00       ?_Current_exception@exception_ptr@std@@SA?AV12@XZ 1002df00 f i Pipi_edit.obj
 0001:0002cf60       ?current_exception@std@@YA?AVexception_ptr@1@XZ 1002df60 f i Pipi_edit.obj
 0001:0002cf80       ??0logic_error@std@@QAE@PBD@Z 1002df80 f i Pipi_edit.obj
 0001:0002cfb0       ??0out_of_range@std@@QAE@PBD@Z 1002dfb0 f i Pipi_edit.obj
 0001:0002d000       ?_Getcvt@_Locinfo@std@@QBE?AU_Cvtvec@@XZ 1002e000 f i Pipi_edit.obj
 0001:0002d040       ?_Getlconv@_Locinfo@std@@QBEPBUlconv@@XZ 1002e040 f i Pipi_edit.obj
 0001:0002d050       ?_Getfalse@_Locinfo@std@@QBEPBDXZ 1002e050 f i Pipi_edit.obj
 0001:0002d060       ?_Gettrue@_Locinfo@std@@QBEPBDXZ 1002e060 f i Pipi_edit.obj
 0001:0002d070       ?is@?$ctype@D@std@@QBE_NFD@Z 1002e070 f i Pipi_edit.obj
 0001:0002d0b0       ?widen@?$ctype@D@std@@QBEPBDPBD0PAD@Z 1002e0b0 f i Pipi_edit.obj
 0001:0002d0e0       ?good@ios_base@std@@QBE_NXZ 1002e0e0 f i Pipi_edit.obj
 0001:0002d110       ?eof@ios_base@std@@QBE_NXZ 1002e110 f i Pipi_edit.obj
 0001:0002d140       ?flags@ios_base@std@@QBEHXZ 1002e140 f i Pipi_edit.obj
 0001:0002d160       ?setf@ios_base@std@@QAEHH@Z 1002e160 f i Pipi_edit.obj
 0001:0002d190       ?setf@ios_base@std@@QAEHHH@Z 1002e190 f i Pipi_edit.obj
 0001:0002d1d0       ?unsetf@ios_base@std@@QAEXH@Z 1002e1d0 f i Pipi_edit.obj
 0001:0002d1f0       ?precision@ios_base@std@@QBE_JXZ 1002e1f0 f i Pipi_edit.obj
 0001:0002d210       ?width@ios_base@std@@QBE_JXZ 1002e210 f i Pipi_edit.obj
 0001:0002d230       ?width@ios_base@std@@QAE_J_J@Z 1002e230 f i Pipi_edit.obj
 0001:0002d270       ?dec@std@@YAAAVios_base@1@AAV21@@Z 1002e270 f i Pipi_edit.obj
 0001:0002d290       ?hex@std@@YAAAVios_base@1@AAV21@@Z 1002e290 f i Pipi_edit.obj
 0001:0002d2b0       ?noshowbase@std@@YAAAVios_base@1@AAV21@@Z 1002e2b0 f i Pipi_edit.obj
 0001:0002d2d0       ?nouppercase@std@@YAAAVios_base@1@AAV21@@Z 1002e2d0 f i Pipi_edit.obj
 0001:0002d2f0       ?right@std@@YAAAVios_base@1@AAV21@@Z 1002e2f0 f i Pipi_edit.obj
 0001:0002d310       ?uppercase@std@@YAAAVios_base@1@AAV21@@Z 1002e310 f i Pipi_edit.obj
 0001:0002d330       ?encode_surrogates@unicode@encoding@configor@@YAXIAAI0@Z 1002e330 f i Pipi_edit.obj
 0001:0002d370       ?_Throw_tree_length_error@std@@YAXXZ 1002e370 f i Pipi_edit.obj
 0001:0002d380       ??0configor_exception@configor@@QAE@ABV?$basic_string@DU?$char_traits@D@std@@V?$allocator@D@2@@std@@@Z 1002e380 f i Pipi_edit.obj
 0001:0002d3b0       ??0configor_type_error@configor@@QAE@ABV?$basic_string@DU?$char_traits@D@std@@V?$allocator@D@2@@std@@@Z 1002e3b0 f i Pipi_edit.obj
 0001:0002d440       ??_Econfigor_type_error@configor@@UAEPAXI@Z 1002e440 f i * CIL library *:* CIL module *
 0001:0002d440       ??_Gconfigor_invalid_key@configor@@UAEPAXI@Z 1002e440 f i Pipi_edit.obj
 0001:0002d440       ??_Gconfigor_serialization_error@configor@@UAEPAXI@Z 1002e440 f i Pipi_edit.obj
 0001:0002d440       ??_Econfigor_serialization_error@configor@@UAEPAXI@Z 1002e440 f i * CIL library *:* CIL module *
 0001:0002d440       ??_Econfigor_invalid_key@configor@@UAEPAXI@Z 1002e440 f i * CIL library *:* CIL module *
 0001:0002d440       ??_Gconfigor_type_error@configor@@UAEPAXI@Z 1002e440 f i Pipi_edit.obj
 0001:0002d470       ??0configor_invalid_key@configor@@QAE@ABV?$basic_string@DU?$char_traits@D@std@@V?$allocator@D@2@@std@@@Z 1002e470 f i Pipi_edit.obj
 0001:0002d500       ??0configor_serialization_error@configor@@QAE@ABV?$basic_string@DU?$char_traits@D@std@@V?$allocator@D@2@@std@@@Z 1002e500 f i Pipi_edit.obj
 0001:0002d590       ??_D?$fast_basic_ostringstream@D@detail@configor@@QAEXXZ 1002e590 f i Pipi_edit.obj
 0001:0002d5c0       ??1?$fast_basic_ostringstream@D@detail@configor@@UAE@XZ 1002e5c0 f i Pipi_edit.obj
 0001:0002d5f0       ??1?$fast_string_istreambuf@D@detail@configor@@UAE@XZ 1002e5f0 f i Pipi_edit.obj
 0001:0002d5f0       ??1?$fast_string_ostreambuf@D@detail@configor@@UAE@XZ 1002e5f0 f i Pipi_edit.obj
 0001:0002d610       ??0configor_exception@configor@@QAE@ABV01@@Z 1002e610 f i Pipi_edit.obj
 0001:0002d640       ??_D?$basic_ofstream@DU?$char_traits@D@std@@@std@@QAEXXZ 1002e640 f i Pipi_edit.obj
 0001:0002d670       ?writejson@@YA_NV?$basic_config@Ujson_args@configor@@@configor@@@Z 1002e670 f   Pipi_edit.obj
 0001:0002d700       ??1?$basic_config@Ujson_args@configor@@@configor@@QAE@XZ 1002e700 f i Pipi_edit.obj
 0001:0002d720       ?__saveBitmap@@YA_NPBDPAUHBITMAP__@@PAUHPALETTE__@@@Z 1002e720 f   Pipi_edit.obj
 0001:0002d8c0       ?screenCapture@@YA_NHHHHPBD@Z 1002e8c0 f   Pipi_edit.obj
 0001:0002d9a0       ?GetCurrentTimerMS@@YAXPAD@Z 1002e9a0 f   Pipi_edit.obj
 0001:0002da60       ?GetAIdata@@YAXQAH@Z       1002ea60 f   Pipi_edit.obj
 0001:0002ded0       ?@@YAXXZ     1002eed0 f   Pipi_edit.obj
 0001:0002df10       ?hotkey_thread@@YGKPAX@Z   1002ef10 f   Pipi_edit.obj
 0001:0002df90       ??1?$config_value@V?$basic_config@Ujson_args@configor@@@configor@@@detail@configor@@QAE@XZ 1002ef90 f i Pipi_edit.obj
 0001:0002dfe0       ??0?$basic_config@Ujson_args@configor@@@configor@@QAE@ABV?$initializer_list@V?$basic_config@Ujson_args@configor@@@configor@@@std@@W4config_value_type@1@@Z 1002efe0 f i Pipi_edit.obj
 0001:0002e180       ??R<lambda_e76e69f9a7ae70d577c8760de63108b9>@@QBE@ABV?$basic_config@Ujson_args@configor@@@configor@@@Z 1002f180 f i Pipi_edit.obj
 0001:0002e1e0       ??R<lambda_59a2c67489030a4876926c40fd567950>@@QBE@ABV?$basic_config@Ujson_args@configor@@@configor@@@Z 1002f1e0 f i Pipi_edit.obj
 0001:0002e220       ??0?$basic_config@Ujson_args@configor@@@configor@@QAE@ABV01@@Z 1002f220 f i Pipi_edit.obj
 0001:0002e240       ?put_string@?$json_serializer@V?$basic_config@Ujson_args@configor@@@configor@@@detail@configor@@UAEXABV?$basic_string@DU?$char_traits@D@std@@V?$allocator@D@2@@std@@@Z 1002f240 f i Pipi_edit.obj
 0001:0002e740       ?put_float@?$json_serializer@V?$basic_config@Ujson_args@configor@@@configor@@@detail@configor@@UAEXN@Z 1002f740 f i Pipi_edit.obj
 0001:0002e780       ?put_integer@?$json_serializer@V?$basic_config@Ujson_args@configor@@@configor@@@detail@configor@@UAEX_J@Z 1002f780 f i Pipi_edit.obj
 0001:0002e7c0       ?next@?$json_serializer@V?$basic_config@Ujson_args@configor@@@configor@@@detail@configor@@UAEXW4token_type@3@@Z 1002f7c0 f i Pipi_edit.obj
 0001:0002eaa0       ?target@?$json_serializer@V?$basic_config@Ujson_args@configor@@@configor@@@detail@configor@@UAEXAAV?$basic_ostream@DU?$char_traits@D@std@@@std@@@Z 1002faa0 f i Pipi_edit.obj
 0001:0002eae0       ?close@?$basic_ofstream@DU?$char_traits@D@std@@@std@@QAEXXZ 1002fae0 f i Pipi_edit.obj
 0001:0002eb10       ?open@?$basic_ofstream@DU?$char_traits@D@std@@@std@@QAEXPBDHH@Z 1002fb10 f i Pipi_edit.obj
 0001:0002eb70       ??1?$basic_ofstream@DU?$char_traits@D@std@@@std@@UAE@XZ 1002fb70 f i Pipi_edit.obj
 0001:0002ebd0       ??0?$basic_ofstream@DU?$char_traits@D@std@@@std@@QAE@XZ 1002fbd0 f i Pipi_edit.obj
 0001:0002eca0       ?xsputn@?$fast_string_ostreambuf@D@detail@configor@@MAE_JPBD_J@Z 1002fca0 f i Pipi_edit.obj
 0001:0002ecd0       ?overflow@?$fast_string_ostreambuf@D@detail@configor@@MAEHH@Z 1002fcd0 f i Pipi_edit.obj
 0001:0002ed10       ?str@?$fast_basic_ostringstream@D@detail@configor@@QBEABV?$basic_string@DU?$char_traits@D@std@@V?$allocator@D@2@@std@@XZ 1002fd10 f i Pipi_edit.obj
 0001:0002ed30       ??0?$fast_basic_ostringstream@D@detail@configor@@QAE@XZ 1002fd30 f i Pipi_edit.obj
 0001:0002ee30       ??1?$basic_ostream@DU?$char_traits@D@std@@@std@@UAE@XZ 1002fe30 f i Pipi_edit.obj
 0001:0002ee70       ?compare@?$basic_string@DU?$char_traits@D@std@@V?$allocator@D@2@@std@@QBEHABV12@@Z 1002fe70 f i Pipi_edit.obj
 0001:0002eeb0       ??0?$basic_string@DU?$char_traits@D@std@@V?$allocator@D@2@@std@@QAE@ID@Z 1002feb0 f i Pipi_edit.obj
 0001:0002ef50       ??0configor_type_error@configor@@QAE@ABV01@@Z 1002ff50 f i Pipi_edit.obj
 0001:0002ef80       ??_G?$basic_ofstream@DU?$char_traits@D@std@@@std@@UAEPAXI@Z 1002ff80 f i Pipi_edit.obj
 0001:0002ef80       ??_E?$basic_ofstream@DU?$char_traits@D@std@@@std@@UAEPAXI@Z 1002ff80 f i * CIL library *:* CIL module *
 0001:0002efc0       ??_E?$fast_basic_ostringstream@D@detail@configor@@UAEPAXI@Z 1002ffc0 f i * CIL library *:* CIL module *
 0001:0002efc0       ??_G?$fast_basic_ostringstream@D@detail@configor@@UAEPAXI@Z 1002ffc0 f i Pipi_edit.obj
 0001:0002f000       ??_G?$basic_ostream@DU?$char_traits@D@std@@@std@@UAEPAXI@Z 10030000 f i Pipi_edit.obj
 0001:0002f000       ??_E?$basic_ostream@DU?$char_traits@D@std@@@std@@UAEPAXI@Z 10030000 f i * CIL library *:* CIL module *
 0001:0002f040       ??_D?$basic_ostream@DU?$char_traits@D@std@@@std@@QAEXXZ 10030040 f i Pipi_edit.obj
 0001:0002f070       ?failed@?$ostreambuf_iterator@DU?$char_traits@D@std@@@std@@QBE_NXZ 10030070 f i Pipi_edit.obj
 0001:0002f080       ??0?$ostreambuf_iterator@DU?$char_traits@D@std@@@std@@QAE@PAV?$basic_streambuf@DU?$char_traits@D@std@@@1@@Z 10030080 f i Pipi_edit.obj
 0001:0002f0a0       ?do_put@?$num_put@DV?$ostreambuf_iterator@DU?$char_traits@D@std@@@std@@@std@@MBE?AV?$ostreambuf_iterator@DU?$char_traits@D@std@@@2@V32@AAVios_base@2@DPBX@Z 100300a0 f i Pipi_edit.obj
 0001:0002f110       ?do_put@?$num_put@DV?$ostreambuf_iterator@DU?$char_traits@D@std@@@std@@@std@@MBE?AV?$ostreambuf_iterator@DU?$char_traits@D@std@@@2@V32@AAVios_base@2@DO@Z 10030110 f i Pipi_edit.obj
 0001:0002f300       ?do_put@?$num_put@DV?$ostreambuf_iterator@DU?$char_traits@D@std@@@std@@@std@@MBE?AV?$ostreambuf_iterator@DU?$char_traits@D@std@@@2@V32@AAVios_base@2@DN@Z 10030300 f i Pipi_edit.obj
 0001:0002f4e0       ?do_put@?$num_put@DV?$ostreambuf_iterator@DU?$char_traits@D@std@@@std@@@std@@MBE?AV?$ostreambuf_iterator@DU?$char_traits@D@std@@@2@V32@AAVios_base@2@D_K@Z 100304e0 f i Pipi_edit.obj
 0001:0002f570       ?do_put@?$num_put@DV?$ostreambuf_iterator@DU?$char_traits@D@std@@@std@@@std@@MBE?AV?$ostreambuf_iterator@DU?$char_traits@D@std@@@2@V32@AAVios_base@2@D_J@Z 10030570 f i Pipi_edit.obj
 0001:0002f600       ?do_put@?$num_put@DV?$ostreambuf_iterator@DU?$char_traits@D@std@@@std@@@std@@MBE?AV?$ostreambuf_iterator@DU?$char_traits@D@std@@@2@V32@AAVios_base@2@DK@Z 10030600 f i Pipi_edit.obj
 0001:0002f680       ?do_put@?$num_put@DV?$ostreambuf_iterator@DU?$char_traits@D@std@@@std@@@std@@MBE?AV?$ostreambuf_iterator@DU?$char_traits@D@std@@@2@V32@AAVios_base@2@DJ@Z 10030680 f i Pipi_edit.obj
 0001:0002f700       ?do_put@?$num_put@DV?$ostreambuf_iterator@DU?$char_traits@D@std@@@std@@@std@@MBE?AV?$ostreambuf_iterator@DU?$char_traits@D@std@@@2@V32@AAVios_base@2@D_N@Z 10030700 f i Pipi_edit.obj
 0001:0002f940       ??1?$num_put@DV?$ostreambuf_iterator@DU?$char_traits@D@std@@@std@@@std@@MAE@XZ 10030940 f i Pipi_edit.obj
 0001:0002f960       ??Bsentry@?$basic_ostream@DU?$char_traits@D@std@@@std@@QBE_NXZ 10030960 f i Pipi_edit.obj
 0001:0002f960       ??Bsentry@?$basic_istream@DU?$char_traits@D@std@@@std@@QBE_NXZ 10030960 f i Pipi_edit.obj
 0001:0002f980       ??1sentry@?$basic_ostream@DU?$char_traits@D@std@@@std@@QAE@XZ 10030980 f i Pipi_edit.obj
 0001:0002fa00       ??0sentry@?$basic_ostream@DU?$char_traits@D@std@@@std@@QAE@AAV12@@Z 10030a00 f i Pipi_edit.obj
 0001:0002fac0       ??6detail@configor@@YAAAV?$basic_ostream@DU?$char_traits@D@std@@@std@@AAV23@ABU?$serializable_integer@_J@01@@Z 10030ac0 f i Pipi_edit.obj
 0001:0002fae0       ??6detail@configor@@YAAAV?$basic_ostream@DU?$char_traits@D@std@@@std@@AAV23@ABU?$serializable_float@N@01@@Z 10030ae0 f i Pipi_edit.obj
 0001:0002fb70       ??6detail@configor@@YAAAV?$basic_ostream@DU?$char_traits@D@std@@@std@@AAV23@ABU?$serializable_hex@I@01@@Z 10030b70 f i Pipi_edit.obj
 0001:0002fc10       ??6detail@configor@@YAAAV?$basic_ostream@DU?$char_traits@D@std@@@std@@AAV23@ABU?$serializable_hex@G@01@@Z 10030c10 f i Pipi_edit.obj
 0001:0002fcb0       ?decode@?$auto_utf@D@encoding@configor@@SA_NAAV?$basic_istream@DU?$char_traits@D@std@@@std@@AAI@Z 10030cb0 f i Pipi_edit.obj
 0001:0002fcd0       ?encode@?$auto_utf@D@encoding@configor@@SAXAAV?$basic_ostream@DU?$char_traits@D@std@@@std@@I@Z 10030cd0 f i Pipi_edit.obj
 0001:0002fcf0       ?xsgetn@?$fast_string_istreambuf@D@detail@configor@@MAE_JPAD_J@Z 10030cf0 f i Pipi_edit.obj
 0001:0002fd30       ?uflow@?$fast_string_istreambuf@D@detail@configor@@MAEHXZ 10030d30 f i Pipi_edit.obj
 0001:0002fd60       ?underflow@?$fast_string_istreambuf@D@detail@configor@@MAEHXZ 10030d60 f i Pipi_edit.obj
 0001:0002fda0       ??0?$fast_string_istreambuf@D@detail@configor@@QAE@ABV?$basic_string@DU?$char_traits@D@std@@V?$allocator@D@2@@std@@@Z 10030da0 f i Pipi_edit.obj
 0001:0002fde0       ??A?$vector@V?$basic_config@Ujson_args@configor@@@configor@@V?$allocator@V?$basic_config@Ujson_args@configor@@@configor@@@std@@@std@@QAEAAV?$basic_config@Ujson_args@configor@@@configor@@I@Z 10030de0 f i Pipi_edit.obj
 0001:0002fe00       ?reserve@?$vector@V?$basic_config@Ujson_args@configor@@@configor@@V?$allocator@V?$basic_config@Ujson_args@configor@@@configor@@@std@@@std@@QAEXI@Z 10030e00 f i Pipi_edit.obj
 0001:0002fe40       ?size@?$initializer_list@V?$basic_config@Ujson_args@configor@@@configor@@@std@@QBEIXZ 10030e40 f i Pipi_edit.obj
 0001:0002fe60       ??4?$config_value@V?$basic_config@Ujson_args@configor@@@configor@@@detail@configor@@QAEAAU012@$$QAU012@@Z 10030e60 f i Pipi_edit.obj
 0001:0002fec0       ?clear@?$config_value@V?$basic_config@Ujson_args@configor@@@configor@@@detail@configor@@QAEXXZ 10030ec0 f i Pipi_edit.obj
 0001:0002ff20       ??0?$config_value@V?$basic_config@Ujson_args@configor@@@configor@@@detail@configor@@QAE@ABU012@@Z 10030f20 f i Pipi_edit.obj
 0001:00030000       ??0?$config_value@V?$basic_config@Ujson_args@configor@@@configor@@@detail@configor@@QAE@W4config_value_type@2@@Z 10031000 f i Pipi_edit.obj
 0001:000300a0       ??0?$config_value@V?$basic_config@Ujson_args@configor@@@configor@@@detail@configor@@QAE@XZ 100310a0 f i Pipi_edit.obj
 0001:000300d0       ??A?$basic_config@Ujson_args@configor@@@configor@@QBEAAV01@I@Z 100310d0 f i Pipi_edit.obj
 0001:000300f0       ?size@?$basic_config@Ujson_args@configor@@@configor@@QBEIXZ 100310f0 f i Pipi_edit.obj
 0001:00030140       ?is_string@?$basic_config@Ujson_args@configor@@@configor@@QBE_NXZ 10031140 f i Pipi_edit.obj
 0001:00030170       ?is_array@?$basic_config@Ujson_args@configor@@@configor@@QBE_NXZ 10031170 f i Pipi_edit.obj
 0001:000301a0       ?fail@?$json_serializer@V?$basic_config@Ujson_args@configor@@@configor@@@detail@configor@@QAEXABV?$basic_string@DU?$char_traits@D@std@@V?$allocator@D@2@@std@@I@Z 100311a0 f i Pipi_edit.obj
 0001:000302a0       ?output_newline@?$json_serializer@V?$basic_config@Ujson_args@configor@@@configor@@@detail@configor@@QAEXXZ 100312a0 f i Pipi_edit.obj
 0001:000302d0       ?output_indent@?$json_serializer@V?$basic_config@Ujson_args@configor@@@configor@@@detail@configor@@QAEXI@Z 100312d0 f i Pipi_edit.obj
 0001:00030310       ?output@?$json_serializer@V?$basic_config@Ujson_args@configor@@@configor@@@detail@configor@@QAEXV?$initializer_list@D@std@@@Z 10031310 f i Pipi_edit.obj
 0001:00030340       ?output@?$json_serializer@V?$basic_config@Ujson_args@configor@@@configor@@@detail@configor@@QAEXD@Z 10031340 f i Pipi_edit.obj
 0001:00030360       ??0?$fast_string_ostreambuf@D@detail@configor@@QAE@AAV?$basic_string@DU?$char_traits@D@std@@V?$allocator@D@2@@std@@@Z 10031360 f i Pipi_edit.obj
 0001:00030390       ??0?$basic_ostream@DU?$char_traits@D@std@@@std@@QAE@PAV?$basic_streambuf@DU?$char_traits@D@std@@@1@_N@Z 10031390 f i Pipi_edit.obj
 0001:00030450       ?fill@?$basic_ios@DU?$char_traits@D@std@@@std@@QBEDXZ 10031450 f i Pipi_edit.obj
 0001:00030470       ?rdbuf@?$basic_ios@DU?$char_traits@D@std@@@std@@QAEPAV?$basic_streambuf@DU?$char_traits@D@std@@@2@PAV32@@Z 10031470 f i Pipi_edit.obj
 0001:000304a0       ?assign@?$basic_string@DU?$char_traits@D@std@@V?$allocator@D@2@@std@@QAEAAV12@ID@Z 100314a0 f i Pipi_edit.obj
 0001:00030520       ??R<lambda_c6753c90be971fc9cc00b4f35f237a75>@@QBE@QADID@Z 10031520 f i Pipi_edit.obj
 0001:00030560       ??_G?$num_put@DV?$ostreambuf_iterator@DU?$char_traits@D@std@@@std@@@std@@MAEPAXI@Z 10031560 f i Pipi_edit.obj
 0001:00030560       ??_E?$num_put@DV?$ostreambuf_iterator@DU?$char_traits@D@std@@@std@@@std@@MAEPAXI@Z 10031560 f i * CIL library *:* CIL module *
 0001:00030590       ??_G?$fast_string_istreambuf@D@detail@configor@@UAEPAXI@Z 10031590 f i Pipi_edit.obj
 0001:00030590       ??_E?$fast_string_istreambuf@D@detail@configor@@UAEPAXI@Z 10031590 f i * CIL library *:* CIL module *
 0001:000305c0       ??0configor_serialization_error@configor@@QAE@ABV01@@Z 100315c0 f i Pipi_edit.obj
 0001:000305f0       ??_G?$fast_string_ostreambuf@D@detail@configor@@UAEPAXI@Z 100315f0 f i Pipi_edit.obj
 0001:000305f0       ??_E?$fast_string_ostreambuf@D@detail@configor@@UAEPAXI@Z 100315f0 f i * CIL library *:* CIL module *
 0001:00030620       ?do_truename@?$numpunct@D@std@@MBE?AV?$basic_string@DU?$char_traits@D@std@@V?$allocator@D@2@@2@XZ 10031620 f i Pipi_edit.obj
 0001:00030660       ?do_falsename@?$numpunct@D@std@@MBE?AV?$basic_string@DU?$char_traits@D@std@@V?$allocator@D@2@@2@XZ 10031660 f i Pipi_edit.obj
 0001:000306a0       ?do_grouping@?$numpunct@D@std@@MBE?AV?$basic_string@DU?$char_traits@D@std@@V?$allocator@D@2@@2@XZ 100316a0 f i Pipi_edit.obj
 0001:000306e0       ?do_thousands_sep@?$numpunct@D@std@@MBEDXZ 100316e0 f i Pipi_edit.obj
 0001:00030700       ?do_decimal_point@?$numpunct@D@std@@MBEDXZ 10031700 f i Pipi_edit.obj
 0001:00030720       ??1?$numpunct@D@std@@MAE@XZ 10031720 f i Pipi_edit.obj
 0001:00030750       ?truename@?$numpunct@D@std@@QBE?AV?$basic_string@DU?$char_traits@D@std@@V?$allocator@D@2@@2@XZ 10031750 f i Pipi_edit.obj
 0001:00030790       ?falsename@?$numpunct@D@std@@QBE?AV?$basic_string@DU?$char_traits@D@std@@V?$allocator@D@2@@2@XZ 10031790 f i Pipi_edit.obj
 0001:000307d0       ?_Rep@?$num_put@DV?$ostreambuf_iterator@DU?$char_traits@D@std@@@std@@@std@@ABA?AV?$ostreambuf_iterator@DU?$char_traits@D@std@@@2@V32@DI@Z 100317d0 f i Pipi_edit.obj
 0001:00030820       ?_Put@?$num_put@DV?$ostreambuf_iterator@DU?$char_traits@D@std@@@std@@@std@@ABA?AV?$ostreambuf_iterator@DU?$char_traits@D@std@@@2@V32@PBDI@Z 10031820 f i Pipi_edit.obj
 0001:00030870       ?_Iput@?$num_put@DV?$ostreambuf_iterator@DU?$char_traits@D@std@@@std@@@std@@ABA?AV?$ostreambuf_iterator@DU?$char_traits@D@std@@@2@V32@AAVios_base@2@DPADI@Z 10031870 f i Pipi_edit.obj
 0001:00030c90       ?_Ifmt@?$num_put@DV?$ostreambuf_iterator@DU?$char_traits@D@std@@@std@@@std@@ABAPADPADPBDH@Z 10031c90 f i Pipi_edit.obj
 0001:00030db0       ?_Fput@?$num_put@DV?$ostreambuf_iterator@DU?$char_traits@D@std@@@std@@@std@@ABA?AV?$ostreambuf_iterator@DU?$char_traits@D@std@@@2@V32@AAVios_base@2@DPBDI@Z 10031db0 f i Pipi_edit.obj
 0001:00031290       ?_Ffmt@?$num_put@DV?$ostreambuf_iterator@DU?$char_traits@D@std@@@std@@@std@@ABAPADPADDH@Z 10032290 f i Pipi_edit.obj
 0001:000313b0       ??1_Sentry_base@?$basic_ostream@DU?$char_traits@D@std@@@std@@QAE@XZ 100323b0 f i Pipi_edit.obj
 0001:000313b0       ??1_Sentry_base@?$basic_istream@DU?$char_traits@D@std@@@std@@QAE@XZ 100323b0 f i Pipi_edit.obj
 0001:00031420       ??0_Sentry_base@?$basic_ostream@DU?$char_traits@D@std@@@std@@QAE@AAV12@@Z 10032420 f i Pipi_edit.obj
 0001:00031420       ??0_Sentry_base@?$basic_istream@DU?$char_traits@D@std@@@std@@QAE@AAV12@@Z 10032420 f i Pipi_edit.obj
 0001:00031470       ?decode@?$auto_utf@D@encoding@configor@@CA_NAAV?$basic_istream@DU?$char_traits@D@std@@@std@@AAIU?$integral_constant@H$00@5@@Z 10032470 f i Pipi_edit.obj
 0001:00031490       ?encode@?$auto_utf@D@encoding@configor@@CAXAAV?$basic_ostream@DU?$char_traits@D@std@@@std@@IU?$integral_constant@H$00@5@@Z 10032490 f i Pipi_edit.obj
 0001:000314b0       ?_Xlength@?$vector@V?$basic_config@Ujson_args@configor@@@configor@@V?$allocator@V?$basic_config@Ujson_args@configor@@@configor@@@std@@@std@@CAXXZ 100324b0 f i Pipi_edit.obj
 0001:000314c0       ?capacity@?$vector@V?$basic_config@Ujson_args@configor@@@configor@@V?$allocator@V?$basic_config@Ujson_args@configor@@@configor@@@std@@@std@@QBEIXZ 100324c0 f i Pipi_edit.obj
 0001:000314f0       ?max_size@?$vector@V?$basic_config@Ujson_args@configor@@@configor@@V?$allocator@V?$basic_config@Ujson_args@configor@@@configor@@@std@@@std@@QBEIXZ 100324f0 f i Pipi_edit.obj
 0001:00031530       ?size@?$vector@V?$basic_config@Ujson_args@configor@@@configor@@V?$allocator@V?$basic_config@Ujson_args@configor@@@configor@@@std@@@std@@QBEIXZ 10032530 f i Pipi_edit.obj
 0001:00031560       ?_Reallocate_exactly@?$vector@V?$basic_config@Ujson_args@configor@@@configor@@V?$allocator@V?$basic_config@Ujson_args@configor@@@configor@@@std@@@std@@AAEXI@Z 10032560 f i Pipi_edit.obj
 0001:00031650       ?size@?$_Tree@V?$_Tmap_traits@V?$basic_string@DU?$char_traits@D@std@@V?$allocator@D@2@@std@@V?$basic_config@Ujson_args@configor@@@configor@@U?$less@V?$basic_string@DU?$char_traits@D@std@@V?$allocator@D@2@@std@@@2@V?$allocator@U?$pair@$$CBV?$basic_string@DU?$char_traits@D@std@@V?$allocator@D@2@@std@@V?$basic_config@Ujson_args@configor@@@configor@@@std@@@2@$0A@@std@@@std@@QBEIXZ 10032650 f i Pipi_edit.obj
 0001:00031670       ?at@?$basic_config@Ujson_args@configor@@@configor@@QBEAAV12@I@Z 10032670 f i Pipi_edit.obj
 0001:00031730       ??6detail@configor@@YAAAV?$basic_ostream@DU?$char_traits@D@std@@@std@@AAV23@ABV?$indent@V?$basic_string@DU?$char_traits@D@std@@V?$allocator@D@2@@std@@@01@@Z 10032730 f i Pipi_edit.obj
 0001:00031770       ??D?$indent@V?$basic_string@DU?$char_traits@D@std@@V?$allocator@D@2@@std@@@detail@configor@@QAEAAV012@I@Z 10032770 f i Pipi_edit.obj
 0001:000317d0       ?get@?$basic_istream@DU?$char_traits@D@std@@@std@@QAEHXZ 100327d0 f i Pipi_edit.obj
 0001:00031950       ?flush@?$basic_ostream@DU?$char_traits@D@std@@@std@@QAEAAV12@XZ 10032950 f i Pipi_edit.obj
 0001:00031a10       ?write@?$basic_ostream@DU?$char_traits@D@std@@@std@@QAEAAV12@PBD_J@Z 10032a10 f i Pipi_edit.obj
 0001:00031b60       ?put@?$basic_ostream@DU?$char_traits@D@std@@@std@@QAEAAV12@D@Z 10032b60 f i Pipi_edit.obj
 0001:00031ca0       ??6?$basic_ostream@DU?$char_traits@D@std@@@std@@QAEAAV01@N@Z 10032ca0 f i Pipi_edit.obj
 0001:00031e40       ??6?$basic_ostream@DU?$char_traits@D@std@@@std@@QAEAAV01@_J@Z 10032e40 f i Pipi_edit.obj
 0001:00031fe0       ??6?$basic_ostream@DU?$char_traits@D@std@@@std@@QAEAAV01@I@Z 10032fe0 f i Pipi_edit.obj
 0001:00032170       ??6?$basic_ostream@DU?$char_traits@D@std@@@std@@QAEAAV01@G@Z 10033170 f i Pipi_edit.obj
 0001:00032310       ??6?$basic_ostream@DU?$char_traits@D@std@@@std@@QAEAAV01@P6AAAVios_base@1@AAV21@@Z@Z 10033310 f i Pipi_edit.obj
 0001:00032340       ?_Osfx@?$basic_ostream@DU?$char_traits@D@std@@@std@@QAEXXZ 10033340 f i Pipi_edit.obj
 0001:00032420       ?tie@?$basic_ios@DU?$char_traits@D@std@@@std@@QBEPAV?$basic_ostream@DU?$char_traits@D@std@@@2@XZ 10033420 f i Pipi_edit.obj
 0001:00032440       ?size@?$initializer_list@D@std@@QBEIXZ 10033440 f i Pipi_edit.obj
 0001:00032460       ?copy@?$basic_string@DU?$char_traits@D@std@@V?$allocator@D@2@@std@@QBEIQADII@Z 10033460 f i Pipi_edit.obj
 0001:000324b0       ?resize@?$basic_string@DU?$char_traits@D@std@@V?$allocator@D@2@@std@@QAEXID@Z 100334b0 f i Pipi_edit.obj
 0001:00032500       ?assign@?$basic_string@DU?$char_traits@D@std@@V?$allocator@D@2@@std@@QAEAAV12@$$QAV12@@Z 10033500 f i Pipi_edit.obj
 0001:00032530       ?assign@?$_Narrow_char_traits@DH@std@@SAPADQADID@Z 10033530 f i Pipi_edit.obj
 0001:00032550       ??_G?$numpunct@D@std@@MAEPAXI@Z 10033550 f i Pipi_edit.obj
 0001:00032550       ??_E?$numpunct@D@std@@MAEPAXI@Z 10033550 f i * CIL library *:* CIL module *
 0001:00032580       ??0configor_invalid_key@configor@@QAE@ABV01@@Z 10033580 f i Pipi_edit.obj
 0001:000325b0       ??0out_of_range@std@@QAE@ABV01@@Z 100335b0 f i Pipi_edit.obj
 0001:000325e0       ??0logic_error@std@@QAE@ABV01@@Z 100335e0 f i Pipi_edit.obj
 0001:00032610       ??1sentry@?$basic_istream@DU?$char_traits@D@std@@@std@@QAE@XZ 10033610 f i Pipi_edit.obj
 0001:00032630       ??0sentry@?$basic_istream@DU?$char_traits@D@std@@@std@@QAE@AAV12@_N@Z 10033630 f i Pipi_edit.obj
 0001:000326a0       ?decode@?$utf8@D@encoding@configor@@SA_NAAV?$basic_istream@DU?$char_traits@D@std@@@std@@AAI@Z 100336a0 f i Pipi_edit.obj
 0001:00032820       ?encode@?$utf8@D@encoding@configor@@SAXAAV?$basic_ostream@DU?$char_traits@D@std@@@std@@I@Z 10033820 f i Pipi_edit.obj
 0001:00032940       ?_Tidy@?$numpunct@D@std@@AAEXXZ 10033940 f i Pipi_edit.obj
 0001:00032980       ?grouping@?$numpunct@D@std@@QBE?AV?$basic_string@DU?$char_traits@D@std@@V?$allocator@D@2@@2@XZ 10033980 f i Pipi_edit.obj
 0001:000329c0       ?thousands_sep@?$numpunct@D@std@@QBEDXZ 100339c0 f i Pipi_edit.obj
 0001:000329e0       ??4?$ostreambuf_iterator@DU?$char_traits@D@std@@@std@@QAEAAV01@D@Z 100339e0 f i Pipi_edit.obj
 0001:00032a40       ?put@?$num_put@DV?$ostreambuf_iterator@DU?$char_traits@D@std@@@std@@@std@@QBE?AV?$ostreambuf_iterator@DU?$char_traits@D@std@@@2@V32@AAVios_base@2@DN@Z 10033a40 f i Pipi_edit.obj
 0001:00032a80       ?put@?$num_put@DV?$ostreambuf_iterator@DU?$char_traits@D@std@@@std@@@std@@QBE?AV?$ostreambuf_iterator@DU?$char_traits@D@std@@@2@V32@AAVios_base@2@D_J@Z 10033a80 f i Pipi_edit.obj
 0001:00032ac0       ?put@?$num_put@DV?$ostreambuf_iterator@DU?$char_traits@D@std@@@std@@@std@@QBE?AV?$ostreambuf_iterator@DU?$char_traits@D@std@@@2@V32@AAVios_base@2@DK@Z 10033ac0 f i Pipi_edit.obj
 0001:00032b00       ?_Change_array@?$vector@V?$basic_config@Ujson_args@configor@@@configor@@V?$allocator@V?$basic_config@Ujson_args@configor@@@configor@@@std@@@std@@AAEXQAV?$basic_config@Ujson_args@configor@@@configor@@II@Z 10033b00 f i Pipi_edit.obj
 0001:00032ba0       ?_Umove_if_noexcept@?$vector@V?$basic_config@Ujson_args@configor@@@configor@@V?$allocator@V?$basic_config@Ujson_args@configor@@@configor@@@std@@@std@@AAEXPAV?$basic_config@Ujson_args@configor@@@configor@@00@Z 10033ba0 f i Pipi_edit.obj
 0001:00032bd0       ?max_size@?$_Default_allocator_traits@V?$allocator@V?$basic_config@Ujson_args@configor@@@configor@@@std@@@std@@SAIABV?$allocator@V?$basic_config@Ujson_args@configor@@@configor@@@2@@Z 10033bd0 f i Pipi_edit.obj
 0001:00032be0       ?allocate@?$allocator@V?$basic_config@Ujson_args@configor@@@configor@@@std@@QAEPAV?$basic_config@Ujson_args@configor@@@configor@@I@Z 10033be0 f i Pipi_edit.obj
 0001:00032c10       ?deallocate@?$allocator@V?$basic_config@Ujson_args@configor@@@configor@@@std@@QAEXQAV?$basic_config@Ujson_args@configor@@@configor@@I@Z 10033c10 f i Pipi_edit.obj
 0001:00032c30       ?_Get_scary@?$_Tree@V?$_Tmap_traits@V?$basic_string@DU?$char_traits@D@std@@V?$allocator@D@2@@std@@V?$basic_config@Ujson_args@configor@@@configor@@U?$less@V?$basic_string@DU?$char_traits@D@std@@V?$allocator@D@2@@std@@@2@V?$allocator@U?$pair@$$CBV?$basic_string@DU?$char_traits@D@std@@V?$allocator@D@2@@std@@V?$basic_config@Ujson_args@configor@@@configor@@@std@@@2@$0A@@std@@@std@@IBEPBV?$_Tree_val@U?$_Tree_simple_types@U?$pair@$$CBV?$basic_string@DU?$char_traits@D@std@@V?$allocator@D@2@@std@@V?$basic_config@Ujson_args@configor@@@configor@@@std@@@std@@@2@XZ 10033c30 f i Pipi_edit.obj
 0001:00032c30       ?_Get_scary@?$_Tree@V?$_Tmap_traits@V?$basic_string@DU?$char_traits@D@std@@V?$allocator@D@2@@std@@V?$basic_config@Ujson_args@configor@@@configor@@U?$less@V?$basic_string@DU?$char_traits@D@std@@V?$allocator@D@2@@std@@@2@V?$allocator@U?$pair@$$CBV?$basic_string@DU?$char_traits@D@std@@V?$allocator@D@2@@std@@V?$basic_config@Ujson_args@configor@@@configor@@@std@@@2@$0A@@std@@@std@@IAEPAV?$_Tree_val@U?$_Tree_simple_types@U?$pair@$$CBV?$basic_string@DU?$char_traits@D@std@@V?$allocator@D@2@@std@@V?$basic_config@Ujson_args@configor@@@configor@@@std@@@std@@@2@XZ 10033c30 f i Pipi_edit.obj
 0001:00032c50       ?sputn@?$basic_streambuf@DU?$char_traits@D@std@@@std@@QAE_JPBD_J@Z 10033c50 f i Pipi_edit.obj
 0001:00032c80       ?sputc@?$basic_streambuf@DU?$char_traits@D@std@@@std@@QAEHD@Z 10033c80 f i Pipi_edit.obj
 0001:00032cf0       ?pubsync@?$basic_streambuf@DU?$char_traits@D@std@@@std@@QAEHXZ 10033cf0 f i Pipi_edit.obj
 0001:00032d10       ?_Eos@?$basic_string@DU?$char_traits@D@std@@V?$allocator@D@2@@std@@AAEXI@Z 10033d10 f i Pipi_edit.obj
 0001:00032d50       ?insert@?$basic_string@DU?$char_traits@D@std@@V?$allocator@D@2@@std@@QAEAAV12@IID@Z 10033d50 f i Pipi_edit.obj
 0001:00032e00       ??R<lambda_6607a66f2a10a1261ff9db96cba1015b>@@QBE@QADQBDIIID@Z 10033e00 f i Pipi_edit.obj
 0001:00032e60       ?append@?$basic_string@DU?$char_traits@D@std@@V?$allocator@D@2@@std@@QAEAAV12@ID@Z 10033e60 f i Pipi_edit.obj
 0001:00032f00       ??R<lambda_c1b8c41cb4019640539cfd828748c4d4>@@QBE@QADQBDIID@Z 10033f00 f i Pipi_edit.obj
 0001:00032f60       ??4?$basic_string@DU?$char_traits@D@std@@V?$allocator@D@2@@std@@QAEAAV01@$$QAV01@@Z 10033f60 f i Pipi_edit.obj
 0001:00032fa0       ??A?$array@I$05@std@@QBEABII@Z 10033fa0 f i Pipi_edit.obj
 0001:00032fc0       ??A?$array@E$0BAA@@std@@QBEABEI@Z 10033fc0 f i Pipi_edit.obj
 0001:00032fe0       ?_Destroy@?$vector@V?$basic_config@Ujson_args@configor@@@configor@@V?$allocator@V?$basic_config@Ujson_args@configor@@@configor@@@std@@@std@@AAEXPAV?$basic_config@Ujson_args@configor@@@configor@@0@Z 10033fe0 f i Pipi_edit.obj
 0001:00033010       ?_Umove_if_noexcept1@?$vector@V?$basic_config@Ujson_args@configor@@@configor@@V?$allocator@V?$basic_config@Ujson_args@configor@@@configor@@@std@@@std@@AAEXPAV?$basic_config@Ujson_args@configor@@@configor@@00U?$integral_constant@_N$00@2@@Z 10034010 f i Pipi_edit.obj
 0001:00033040       ?peek@?$basic_istream@DU?$char_traits@D@std@@@std@@QAEHXZ 10034040 f i Pipi_edit.obj
 0001:00033190       ?_Ipfx@?$basic_istream@DU?$char_traits@D@std@@@std@@QAE_N_N@Z 10034190 f i Pipi_edit.obj
 0001:000333a0       ?_Move_assign@?$basic_string@DU?$char_traits@D@std@@V?$allocator@D@2@@std@@AAEXAAV12@U_Equal_allocators@2@@Z 100343a0 f i Pipi_edit.obj
 0001:000333e0       ?snextc@?$basic_streambuf@DU?$char_traits@D@std@@@std@@QAEHXZ 100343e0 f i Pipi_edit.obj
 0001:00033470       ?_Gnpreinc@?$basic_streambuf@DU?$char_traits@D@std@@@std@@IAEPADXZ 10034470 f i Pipi_edit.obj
 0001:000334b0       ??$?HDU?$char_traits@D@std@@V?$allocator@D@1@@std@@YA?AV?$basic_string@DU?$char_traits@D@std@@V?$allocator@D@2@@0@QBDABV10@@Z 100344b0 f i Pipi_edit.obj
 0001:00033540       ??$?HDU?$char_traits@D@std@@V?$allocator@D@1@@std@@YA?AV?$basic_string@DU?$char_traits@D@std@@V?$allocator@D@2@@0@QBD$$QAV10@@Z 10034540 f i Pipi_edit.obj
 0001:00033580       ??$?6U?$char_traits@D@std@@@std@@YAAAV?$basic_ostream@DU?$char_traits@D@std@@@0@AAV10@PBD@Z 10034580 f i Pipi_edit.obj
 0001:000338b0       ??$?6DU?$char_traits@D@std@@V?$allocator@D@1@@std@@YAAAV?$basic_ostream@DU?$char_traits@D@std@@@0@AAV10@ABV?$basic_string@DU?$char_traits@D@std@@V?$allocator@D@2@@0@@Z 100348b0 f i Pipi_edit.obj
 0001:000338e0       ??$?6U?$char_traits@D@std@@@std@@YAAAV?$basic_ostream@DU?$char_traits@D@std@@@0@AAV10@D@Z 100348e0 f i Pipi_edit.obj
 0001:00033bd0       ??$?6V?$basic_config@Ujson_args@configor@@@configor@@X@configor@@YAAAV?$basic_ostream@DU?$char_traits@D@std@@@std@@AAV12@ABV?$basic_config@Ujson_args@configor@@@0@@Z 10034bd0 f i Pipi_edit.obj
 0001:00033c70       ??$?0AAY07$$CBD$$BY07DX@?$basic_config@Ujson_args@configor@@@configor@@QAE@AAY07$$CBD@Z 10034c70 f i Pipi_edit.obj
 0001:00033c70       ??$?0AAY04$$CBD$$BY04DX@?$basic_config@Ujson_args@configor@@@configor@@QAE@AAY04$$CBD@Z 10034c70 f i Pipi_edit.obj
 0001:00033ce0       ??$?0V?$basic_string@DU?$char_traits@D@std@@V?$allocator@D@2@@std@@V01@X@?$basic_config@Ujson_args@configor@@@configor@@QAE@$$QAV?$basic_string@DU?$char_traits@D@std@@V?$allocator@D@2@@std@@@Z 10034ce0 f i Pipi_edit.obj
 0001:00033d50       ??$?0AAHHX@?$basic_config@Ujson_args@configor@@@configor@@QAE@AAH@Z 10034d50 f i Pipi_edit.obj
 0001:00033dc0       ??$all_of@PBV?$basic_config@Ujson_args@configor@@@configor@@V<lambda_e76e69f9a7ae70d577c8760de63108b9>@@@std@@YA_NPBV?$basic_config@Ujson_args@configor@@@configor@@0V<lambda_e76e69f9a7ae70d577c8760de63108b9>@@@Z 10034dc0 f i Pipi_edit.obj
 0001:00033e30       ??$emplace@AAV?$basic_string@DU?$char_traits@D@std@@V?$allocator@D@2@@std@@AAV?$basic_config@Ujson_args@configor@@@configor@@@?$_Tree@V?$_Tmap_traits@V?$basic_string@DU?$char_traits@D@std@@V?$allocator@D@2@@std@@V?$basic_config@Ujson_args@configor@@@configor@@U?$less@V?$basic_string@DU?$char_traits@D@std@@V?$allocator@D@2@@std@@@2@V?$allocator@U?$pair@$$CBV?$basic_string@DU?$char_traits@D@std@@V?$allocator@D@2@@std@@V?$basic_config@Ujson_args@configor@@@configor@@@std@@@2@$0A@@std@@@std@@QAE?AU?$pair@V?$_Tree_iterator@V?$_Tree_val@U?$_Tree_simple_types@U?$pair@$$CBV?$basic_string@DU?$char_traits@D@std@@V?$allocator@D@2@@std@@V?$basic_config@Ujson_args@configor@@@configor@@@std@@@std@@@std@@@std@@_N@1@AAV?$basic_string@DU?$char_traits@D@std@@V?$allocator@D@2@@1@AAV?$basic_config@Ujson_args@configor@@@configor@@@Z 10034e30 f i Pipi_edit.obj
 0001:00033ea0       ??$for_each@PBV?$basic_config@Ujson_args@configor@@@configor@@V<lambda_59a2c67489030a4876926c40fd567950>@@@std@@YA?AV<lambda_59a2c67489030a4876926c40fd567950>@@PBV?$basic_config@Ujson_args@configor@@@configor@@0V1@@Z 10034ea0 f i Pipi_edit.obj
 0001:00033f10       ??$assign@PBV?$basic_config@Ujson_args@configor@@@configor@@$0A@@?$vector@V?$basic_config@Ujson_args@configor@@@configor@@V?$allocator@V?$basic_config@Ujson_args@configor@@@configor@@@std@@@std@@QAEXPBV?$basic_config@Ujson_args@configor@@@configor@@0@Z 10034f10 f i Pipi_edit.obj
 0001:00034000       ??$use_facet@V?$num_put@DV?$ostreambuf_iterator@DU?$char_traits@D@std@@@std@@@std@@@std@@YAABV?$num_put@DV?$ostreambuf_iterator@DU?$char_traits@D@std@@@std@@@0@ABVlocale@0@@Z 10035000 f i Pipi_edit.obj
 0001:00034120       ??$_Traits_compare@U?$char_traits@D@std@@@std@@YAHQBDI0I@Z 10035120 f i Pipi_edit.obj
 0001:00034180       ??$_Float_put_desired_precision@O@std@@YAH_JH@Z 10035180 f i Pipi_edit.obj
 0001:00034180       ??$_Float_put_desired_precision@N@std@@YAH_JH@Z 10035180 f i Pipi_edit.obj
 0001:00034210       ??$use_facet@V?$numpunct@D@std@@@std@@YAABV?$numpunct@D@0@ABVlocale@0@@Z 10035210 f i Pipi_edit.obj
 0001:00034330       ??$setfill@D@std@@YA?AU?$_Fillobj@D@0@D@Z 10035330 f i Pipi_edit.obj
 0001:00034350       ??$?6DU?$char_traits@D@std@@D@std@@YAAAV?$basic_ostream@DU?$char_traits@D@std@@@0@AAV10@ABU?$_Fillobj@D@0@@Z 10035350 f i Pipi_edit.obj
 0001:00034370       ??$?6DU?$char_traits@D@std@@_J@std@@YAAAV?$basic_ostream@DU?$char_traits@D@std@@@0@AAV10@ABU?$_Smanip@_J@0@@Z 10035370 f i Pipi_edit.obj
 0001:000343a0       ??$destroy@V?$map@V?$basic_string@DU?$char_traits@D@std@@V?$allocator@D@2@@std@@V?$basic_config@Ujson_args@configor@@@configor@@U?$less@V?$basic_string@DU?$char_traits@D@std@@V?$allocator@D@2@@std@@@2@V?$allocator@U?$pair@$$CBV?$basic_string@DU?$char_traits@D@std@@V?$allocator@D@2@@std@@V?$basic_config@Ujson_args@configor@@@configor@@@std@@@2@@std@@@?$config_value@V?$basic_config@Ujson_args@configor@@@configor@@@detail@configor@@QAEXPAV?$map@V?$basic_string@DU?$char_traits@D@std@@V?$allocator@D@2@@std@@V?$basic_config@Ujson_args@configor@@@configor@@U?$less@V?$basic_string@DU?$char_traits@D@std@@V?$allocator@D@2@@std@@@2@V?$allocator@U?$pair@$$CBV?$basic_string@DU?$char_traits@D@std@@V?$allocator@D@2@@std@@V?$basic_config@Ujson_args@configor@@@configor@@@std@@@2@@std@@@Z 100353a0 f i Pipi_edit.obj
 0001:000343f0       ??$destroy@V?$vector@V?$basic_config@Ujson_args@configor@@@configor@@V?$allocator@V?$basic_config@Ujson_args@configor@@@configor@@@std@@@std@@@?$config_value@V?$basic_config@Ujson_args@configor@@@configor@@@detail@configor@@QAEXPAV?$vector@V?$basic_config@Ujson_args@configor@@@configor@@V?$allocator@V?$basic_config@Ujson_args@configor@@@configor@@@std@@@std@@@Z 100353f0 f i Pipi_edit.obj
 0001:00034440       ??$destroy@V?$basic_string@DU?$char_traits@D@std@@V?$allocator@D@2@@std@@@?$config_value@V?$basic_config@Ujson_args@configor@@@configor@@@detail@configor@@QAEXPAV?$basic_string@DU?$char_traits@D@std@@V?$allocator@D@2@@std@@@Z 10035440 f i Pipi_edit.obj
 0001:00034490       ??$create@V?$map@V?$basic_string@DU?$char_traits@D@std@@V?$allocator@D@2@@std@@V?$basic_config@Ujson_args@configor@@@configor@@U?$less@V?$basic_string@DU?$char_traits@D@std@@V?$allocator@D@2@@std@@@2@V?$allocator@U?$pair@$$CBV?$basic_string@DU?$char_traits@D@std@@V?$allocator@D@2@@std@@V?$basic_config@Ujson_args@configor@@@configor@@@std@@@2@@std@@AAV12@@?$config_value@V?$basic_config@Ujson_args@configor@@@configor@@@detail@configor@@QAEPAV?$map@V?$basic_string@DU?$char_traits@D@std@@V?$allocator@D@2@@std@@V?$basic_config@Ujson_args@configor@@@configor@@U?$less@V?$basic_string@DU?$char_traits@D@std@@V?$allocator@D@2@@std@@@2@V?$allocator@U?$pair@$$CBV?$basic_string@DU?$char_traits@D@std@@V?$allocator@D@2@@std@@V?$basic_config@Ujson_args@configor@@@configor@@@std@@@2@@std@@AAV34@@Z 10035490 f i Pipi_edit.obj
 0001:000344f0       ??$create@V?$vector@V?$basic_config@Ujson_args@configor@@@configor@@V?$allocator@V?$basic_config@Ujson_args@configor@@@configor@@@std@@@std@@AAV12@@?$config_value@V?$basic_config@Ujson_args@configor@@@configor@@@detail@configor@@QAEPAV?$vector@V?$basic_config@Ujson_args@configor@@@configor@@V?$allocator@V?$basic_config@Ujson_args@configor@@@configor@@@std@@@std@@AAV34@@Z 100354f0 f i Pipi_edit.obj
 0001:00034550       ??$create@V?$basic_string@DU?$char_traits@D@std@@V?$allocator@D@2@@std@@AAV12@@?$config_value@V?$basic_config@Ujson_args@configor@@@configor@@@detail@configor@@QAEPAV?$basic_string@DU?$char_traits@D@std@@V?$allocator@D@2@@std@@AAV34@@Z 10035550 f i Pipi_edit.obj
 0001:00034550       ??$create@V?$basic_string@DU?$char_traits@D@std@@V?$allocator@D@2@@std@@ABV12@@?$config_value@V?$basic_config@Ujson_args@configor@@@configor@@@detail@configor@@QAEPAV?$basic_string@DU?$char_traits@D@std@@V?$allocator@D@2@@std@@ABV34@@Z 10035550 f i Pipi_edit.obj
 0001:000345b0       ??$create@V?$map@V?$basic_string@DU?$char_traits@D@std@@V?$allocator@D@2@@std@@V?$basic_config@Ujson_args@configor@@@configor@@U?$less@V?$basic_string@DU?$char_traits@D@std@@V?$allocator@D@2@@std@@@2@V?$allocator@U?$pair@$$CBV?$basic_string@DU?$char_traits@D@std@@V?$allocator@D@2@@std@@V?$basic_config@Ujson_args@configor@@@configor@@@std@@@2@@std@@$$V@?$config_value@V?$basic_config@Ujson_args@configor@@@configor@@@detail@configor@@QAEPAV?$map@V?$basic_string@DU?$char_traits@D@std@@V?$allocator@D@2@@std@@V?$basic_config@Ujson_args@configor@@@configor@@U?$less@V?$basic_string@DU?$char_traits@D@std@@V?$allocator@D@2@@std@@@2@V?$allocator@U?$pair@$$CBV?$basic_string@DU?$char_traits@D@std@@V?$allocator@D@2@@std@@V?$basic_config@Ujson_args@configor@@@configor@@@std@@@2@@std@@XZ 100355b0 f i Pipi_edit.obj
 0001:00034600       ??$create@V?$vector@V?$basic_config@Ujson_args@configor@@@configor@@V?$allocator@V?$basic_config@Ujson_args@configor@@@configor@@@std@@@std@@$$V@?$config_value@V?$basic_config@Ujson_args@configor@@@configor@@@detail@configor@@QAEPAV?$vector@V?$basic_config@Ujson_args@configor@@@configor@@V?$allocator@V?$basic_config@Ujson_args@configor@@@configor@@@std@@@std@@XZ 10035600 f i Pipi_edit.obj
 0001:00034650       ??$create@V?$basic_string@DU?$char_traits@D@std@@V?$allocator@D@2@@std@@$$V@?$config_value@V?$basic_config@Ujson_args@configor@@@configor@@@detail@configor@@QAEPAV?$basic_string@DU?$char_traits@D@std@@V?$allocator@D@2@@std@@XZ 10035650 f i Pipi_edit.obj
 0001:000346a0       ??$_Reallocate_for@V<lambda_c6753c90be971fc9cc00b4f35f237a75>@@D@?$basic_string@DU?$char_traits@D@std@@V?$allocator@D@2@@std@@AAEAAV01@IV<lambda_c6753c90be971fc9cc00b4f35f237a75>@@D@Z 100356a0 f i Pipi_edit.obj
 0001:00034790       ??$_Get_size_of_n@$0BA@@std@@YAII@Z 10035790 f i Pipi_edit.obj
 0001:000347c0       ??$_Reallocate_grow_by@V<lambda_6607a66f2a10a1261ff9db96cba1015b>@@IID@?$basic_string@DU?$char_traits@D@std@@V?$allocator@D@2@@std@@AAEAAV01@IV<lambda_6607a66f2a10a1261ff9db96cba1015b>@@IID@Z 100357c0 f i Pipi_edit.obj
 0001:00034900       ??$_Reallocate_grow_by@V<lambda_c1b8c41cb4019640539cfd828748c4d4>@@ID@?$basic_string@DU?$char_traits@D@std@@V?$allocator@D@2@@std@@AAEAAV01@IV<lambda_c1b8c41cb4019640539cfd828748c4d4>@@ID@Z 10035900 f i Pipi_edit.obj
 0001:00034a40       ??$_Destroy_range@V?$allocator@V?$basic_config@Ujson_args@configor@@@configor@@@std@@@std@@YAXPAV?$basic_config@Ujson_args@configor@@@configor@@QAV12@AAV?$allocator@V?$basic_config@Ujson_args@configor@@@configor@@@0@@Z 10035a40 f i Pipi_edit.obj
 0001:00034ab0       ??$_Uninitialized_move@PAV?$basic_config@Ujson_args@configor@@@configor@@V?$allocator@V?$basic_config@Ujson_args@configor@@@configor@@@std@@@std@@YAPAV?$basic_config@Ujson_args@configor@@@configor@@QAV12@0PAV12@AAV?$allocator@V?$basic_config@Ujson_args@configor@@@configor@@@0@@Z 10035ab0 f i Pipi_edit.obj
 0001:00034b80       ??$_Pocma@V?$allocator@D@std@@@std@@YAXAAV?$allocator@D@0@0@Z 10035b80 f i Pipi_edit.obj
 0001:00034ba0       ??0args@?$json_serializer@V?$basic_config@Ujson_args@configor@@@configor@@@detail@configor@@QAE@XZ 10035ba0 f i Pipi_edit.obj
 0001:00034bd0       ??0?$_Tree_iterator@V?$_Tree_val@U?$_Tree_simple_types@U?$pair@$$CBV?$basic_string@DU?$char_traits@D@std@@V?$allocator@D@2@@std@@V?$basic_config@Ujson_args@configor@@@configor@@@std@@@std@@@std@@@std@@QAE@PAU?$_Tree_node@U?$pair@$$CBV?$basic_string@DU?$char_traits@D@std@@V?$allocator@D@2@@std@@V?$basic_config@Ujson_args@configor@@@configor@@@std@@PAX@1@PBV?$_Tree_val@U?$_Tree_simple_types@U?$pair@$$CBV?$basic_string@DU?$char_traits@D@std@@V?$allocator@D@2@@std@@V?$basic_config@Ujson_args@configor@@@configor@@@std@@@std@@@1@@Z 10035bd0 f i Pipi_edit.obj
 0001:00034bf0       ??0?$_Tree_const_iterator@V?$_Tree_val@U?$_Tree_simple_types@U?$pair@$$CBV?$basic_string@DU?$char_traits@D@std@@V?$allocator@D@2@@std@@V?$basic_config@Ujson_args@configor@@@configor@@@std@@@std@@@std@@@std@@QAE@PAU?$_Tree_node@U?$pair@$$CBV?$basic_string@DU?$char_traits@D@std@@V?$allocator@D@2@@std@@V?$basic_config@Ujson_args@configor@@@configor@@@std@@PAX@1@PBV?$_Tree_val@U?$_Tree_simple_types@U?$pair@$$CBV?$basic_string@DU?$char_traits@D@std@@V?$allocator@D@2@@std@@V?$basic_config@Ujson_args@configor@@@configor@@@std@@@std@@@1@@Z 10035bf0 f i Pipi_edit.obj
 0001:00034c10       ??1?$_Uninitialized_backout_al@V?$allocator@V?$basic_config@Ujson_args@configor@@@configor@@@std@@@std@@QAE@XZ 10035c10 f i Pipi_edit.obj
 0001:00034c40       ??0?$_Uninitialized_backout_al@V?$allocator@V?$basic_config@Ujson_args@configor@@@configor@@@std@@@std@@QAE@PAV?$basic_config@Ujson_args@configor@@@configor@@AAV?$allocator@V?$basic_config@Ujson_args@configor@@@configor@@@1@@Z 10035c40 f i Pipi_edit.obj
 0001:00034c70       ?deallocate@?$_Default_allocator_traits@V?$allocator@V?$basic_string@DU?$char_traits@D@std@@V?$allocator@D@2@@std@@@std@@@std@@SAXAAV?$allocator@V?$basic_string@DU?$char_traits@D@std@@V?$allocator@D@2@@std@@@2@QAV?$basic_string@DU?$char_traits@D@std@@V?$allocator@D@2@@2@I@Z 10035c70 f i Pipi_edit.obj
 0001:00034c90       ?allocate@?$_Default_allocator_traits@V?$allocator@V?$basic_string@DU?$char_traits@D@std@@V?$allocator@D@2@@std@@@std@@@std@@SAPAV?$basic_string@DU?$char_traits@D@std@@V?$allocator@D@2@@2@AAV?$allocator@V?$basic_string@DU?$char_traits@D@std@@V?$allocator@D@2@@std@@@2@I@Z 10035c90 f i Pipi_edit.obj
 0001:00034cb0       ?deallocate@?$_Default_allocator_traits@V?$allocator@V?$vector@V?$basic_config@Ujson_args@configor@@@configor@@V?$allocator@V?$basic_config@Ujson_args@configor@@@configor@@@std@@@std@@@std@@@std@@SAXAAV?$allocator@V?$vector@V?$basic_config@Ujson_args@configor@@@configor@@V?$allocator@V?$basic_config@Ujson_args@configor@@@configor@@@std@@@std@@@2@QAV?$vector@V?$basic_config@Ujson_args@configor@@@configor@@V?$allocator@V?$basic_config@Ujson_args@configor@@@configor@@@std@@@2@I@Z 10035cb0 f i Pipi_edit.obj
 0001:00034cd0       ?allocate@?$_Default_allocator_traits@V?$allocator@V?$vector@V?$basic_config@Ujson_args@configor@@@configor@@V?$allocator@V?$basic_config@Ujson_args@configor@@@configor@@@std@@@std@@@std@@@std@@SAPAV?$vector@V?$basic_config@Ujson_args@configor@@@configor@@V?$allocator@V?$basic_config@Ujson_args@configor@@@configor@@@std@@@2@AAV?$allocator@V?$vector@V?$basic_config@Ujson_args@configor@@@configor@@V?$allocator@V?$basic_config@Ujson_args@configor@@@configor@@@std@@@std@@@2@I@Z 10035cd0 f i Pipi_edit.obj
 0001:00034cf0       ?allocate@?$_Default_allocator_traits@V?$allocator@V?$map@V?$basic_string@DU?$char_traits@D@std@@V?$allocator@D@2@@std@@V?$basic_config@Ujson_args@configor@@@configor@@U?$less@V?$basic_string@DU?$char_traits@D@std@@V?$allocator@D@2@@std@@@2@V?$allocator@U?$pair@$$CBV?$basic_string@DU?$char_traits@D@std@@V?$allocator@D@2@@std@@V?$basic_config@Ujson_args@configor@@@configor@@@std@@@2@@std@@@std@@@std@@SAPAV?$map@V?$basic_string@DU?$char_traits@D@std@@V?$allocator@D@2@@std@@V?$basic_config@Ujson_args@configor@@@configor@@U?$less@V?$basic_string@DU?$char_traits@D@std@@V?$allocator@D@2@@std@@@2@V?$allocator@U?$pair@$$CBV?$basic_string@DU?$char_traits@D@std@@V?$allocator@D@2@@std@@V?$basic_config@Ujson_args@configor@@@configor@@@std@@@2@@2@AAV?$allocator@V?$map@V?$basic_string@DU?$char_traits@D@std@@V?$allocator@D@2@@std@@V?$basic_config@Ujson_args@configor@@@configor@@U?$less@V?$basic_string@DU?$char_traits@D@std@@V?$allocator@D@2@@std@@@2@V?$allocator@U?$pair@$$CBV?$basic_string@DU?$char_traits@D@std@@V?$allocator@D@2@@std@@V?$basic_config@Ujson_args@configor@@@configor@@@std@@@2@@std@@@2@I@Z 10035cf0 f i Pipi_edit.obj
 0001:00034d10       ??0?$_Fillobj@D@std@@QAE@D@Z 10035d10 f i Pipi_edit.obj
 0001:00034d30       ?_Getcat@?$numpunct@D@std@@SAIPAPBVfacet@locale@2@PBV42@@Z 10035d30 f i Pipi_edit.obj
 0001:00034e20       ?_Getcat@?$num_put@DV?$ostreambuf_iterator@DU?$char_traits@D@std@@@std@@@std@@SAIPAPBVfacet@locale@2@PBV42@@Z 10035e20 f i Pipi_edit.obj
 0001:00034f10       ??0?$_Tree_unchecked_const_iterator@V?$_Tree_val@U?$_Tree_simple_types@U?$pair@$$CBV?$basic_string@DU?$char_traits@D@std@@V?$allocator@D@2@@std@@V?$basic_config@Ujson_args@configor@@@configor@@@std@@@std@@@std@@U_Iterator_base0@2@@std@@QAE@PAU?$_Tree_node@U?$pair@$$CBV?$basic_string@DU?$char_traits@D@std@@V?$allocator@D@2@@std@@V?$basic_config@Ujson_args@configor@@@configor@@@std@@PAX@1@PBV?$_Tree_val@U?$_Tree_simple_types@U?$pair@$$CBV?$basic_string@DU?$char_traits@D@std@@V?$allocator@D@2@@std@@V?$basic_config@Ujson_args@configor@@@configor@@@std@@@std@@@1@@Z 10035f10 f i Pipi_edit.obj
 0001:00034f40       ?fill@?$basic_ios@DU?$char_traits@D@std@@@std@@QAEDD@Z 10035f40 f i Pipi_edit.obj
 0001:00034f70       ?insert@?$basic_string@DU?$char_traits@D@std@@V?$allocator@D@2@@std@@QAEAAV12@IQBD@Z 10035f70 f i Pipi_edit.obj
 0001:00034fb0       ??0?$basic_string@DU?$char_traits@D@std@@V?$allocator@D@2@@std@@QAE@U_String_constructor_concat_tag@1@ABV01@QBDI2I@Z 10035fb0 f i Pipi_edit.obj
 0001:00035150       ??0?$numpunct@D@std@@QAE@ABV_Locinfo@1@I_N@Z 10036150 f i Pipi_edit.obj
 0001:000351c0       ??0?$num_put@DV?$ostreambuf_iterator@DU?$char_traits@D@std@@@std@@@std@@QAE@ABV_Locinfo@1@I@Z 100361c0 f i Pipi_edit.obj
 0001:00035230       ?insert@?$basic_string@DU?$char_traits@D@std@@V?$allocator@D@2@@std@@QAEAAV12@IQBDI@Z 10036230 f i Pipi_edit.obj
 0001:00035350       ??R<lambda_4d79bb85f269e6e8002a4599002d832c>@@QBE@QADQBDII1I@Z 10036350 f i Pipi_edit.obj
 0001:000353b0       ?_Init@?$numpunct@D@std@@IAEXABV_Locinfo@2@_N@Z 100363b0 f i Pipi_edit.obj
 0001:00035520       ??1?$_Tidy_guard@V?$numpunct@D@std@@@std@@QAE@XZ 10036520 f i Pipi_edit.obj
 0001:00035540       ??$to_config@V?$basic_config@Ujson_args@configor@@@configor@@$$BY07DX@?$config_bind@$$BY07D@configor@@SAXAAV?$basic_config@Ujson_args@configor@@@1@AAY07$$CBD@Z 10036540 f i Pipi_edit.obj
 0001:00035540       ??$to_config@V?$basic_config@Ujson_args@configor@@@configor@@$$BY04DX@?$config_bind@$$BY04D@configor@@SAXAAV?$basic_config@Ujson_args@configor@@@1@AAY04$$CBD@Z 10036540 f i Pipi_edit.obj
 0001:00035560       ??$to_config@V?$basic_config@Ujson_args@configor@@@configor@@V?$basic_string@DU?$char_traits@D@std@@V?$allocator@D@2@@std@@X@?$config_bind@V?$basic_string@DU?$char_traits@D@std@@V?$allocator@D@2@@std@@@configor@@SAXAAV?$basic_config@Ujson_args@configor@@@1@ABV?$basic_string@DU?$char_traits@D@std@@V?$allocator@D@2@@std@@@Z 10036560 f i Pipi_edit.obj
 0001:00035580       ??$to_config@V?$basic_config@Ujson_args@configor@@@configor@@HX@?$config_bind@H@configor@@SAXAAV?$basic_config@Ujson_args@configor@@@1@ABH@Z 10036580 f i Pipi_edit.obj
 0001:000355a0       ??$_Insert_string@DU?$char_traits@D@std@@I@std@@YAAAV?$basic_ostream@DU?$char_traits@D@std@@@0@AAV10@QBDI@Z 100365a0 f i Pipi_edit.obj
 0001:00035870       ??$dump_config@V?$basic_config@Ujson_args@configor@@@configor@@X@configor@@YAXABV?$basic_config@Ujson_args@configor@@@0@AAV?$basic_ostream@DU?$char_traits@D@std@@@std@@ABUargs@?$json_serializer@V?$basic_config@Ujson_args@configor@@@configor@@@detail@0@PAVerror_handler@0@@Z 10036870 f i Pipi_edit.obj
 0001:00035910       ??$_Emplace@AAV?$basic_string@DU?$char_traits@D@std@@V?$allocator@D@2@@std@@AAV?$basic_config@Ujson_args@configor@@@configor@@@?$_Tree@V?$_Tmap_traits@V?$basic_string@DU?$char_traits@D@std@@V?$allocator@D@2@@std@@V?$basic_config@Ujson_args@configor@@@configor@@U?$less@V?$basic_string@DU?$char_traits@D@std@@V?$allocator@D@2@@std@@@2@V?$allocator@U?$pair@$$CBV?$basic_string@DU?$char_traits@D@std@@V?$allocator@D@2@@std@@V?$basic_config@Ujson_args@configor@@@configor@@@std@@@2@$0A@@std@@@std@@IAE?AU?$pair@PAU?$_Tree_node@U?$pair@$$CBV?$basic_string@DU?$char_traits@D@std@@V?$allocator@D@2@@std@@V?$basic_config@Ujson_args@configor@@@configor@@@std@@PAX@std@@_N@1@AAV?$basic_string@DU?$char_traits@D@std@@V?$allocator@D@2@@1@AAV?$basic_config@Ujson_args@configor@@@configor@@@Z 10036910 f i Pipi_edit.obj
 0001:00035a20       ??$?0V?$_Tree_iterator@V?$_Tree_val@U?$_Tree_simple_types@U?$pair@$$CBV?$basic_string@DU?$char_traits@D@std@@V?$allocator@D@2@@std@@V?$basic_config@Ujson_args@configor@@@configor@@@std@@@std@@@std@@@std@@AB_N$0A@@?$pair@V?$_Tree_iterator@V?$_Tree_val@U?$_Tree_simple_types@U?$pair@$$CBV?$basic_string@DU?$char_traits@D@std@@V?$allocator@D@2@@std@@V?$basic_config@Ujson_args@configor@@@configor@@@std@@@std@@@std@@@std@@_N@std@@QAE@$$QAV?$_Tree_iterator@V?$_Tree_val@U?$_Tree_simple_types@U?$pair@$$CBV?$basic_string@DU?$char_traits@D@std@@V?$allocator@D@2@@std@@V?$basic_config@Ujson_args@configor@@@configor@@@std@@@std@@@std@@@1@AB_N@Z 10036a20 f i Pipi_edit.obj
 0001:00035a60       ??$_Assign_range@PBV?$basic_config@Ujson_args@configor@@@configor@@@?$vector@V?$basic_config@Ujson_args@configor@@@configor@@V?$allocator@V?$basic_config@Ujson_args@configor@@@configor@@@std@@@std@@AAEXPBV?$basic_config@Ujson_args@configor@@@configor@@0Uforward_iterator_tag@1@@Z 10036a60 f i Pipi_edit.obj
 0001:00035b80       ??$destroy@V?$map@V?$basic_string@DU?$char_traits@D@std@@V?$allocator@D@2@@std@@V?$basic_config@Ujson_args@configor@@@configor@@U?$less@V?$basic_string@DU?$char_traits@D@std@@V?$allocator@D@2@@std@@@2@V?$allocator@U?$pair@$$CBV?$basic_string@DU?$char_traits@D@std@@V?$allocator@D@2@@std@@V?$basic_config@Ujson_args@configor@@@configor@@@std@@@2@@std@@@?$_Default_allocator_traits@V?$allocator@V?$map@V?$basic_string@DU?$char_traits@D@std@@V?$allocator@D@2@@std@@V?$basic_config@Ujson_args@configor@@@configor@@U?$less@V?$basic_string@DU?$char_traits@D@std@@V?$allocator@D@2@@std@@@2@V?$allocator@U?$pair@$$CBV?$basic_string@DU?$char_traits@D@std@@V?$allocator@D@2@@std@@V?$basic_config@Ujson_args@configor@@@configor@@@std@@@2@@std@@@std@@@std@@SAXAAV?$allocator@V?$map@V?$basic_string@DU?$char_traits@D@std@@V?$allocator@D@2@@std@@V?$basic_config@Ujson_args@configor@@@configor@@U?$less@V?$basic_string@DU?$char_traits@D@std@@V?$allocator@D@2@@std@@@2@V?$allocator@U?$pair@$$CBV?$basic_string@DU?$char_traits@D@std@@V?$allocator@D@2@@std@@V?$basic_config@Ujson_args@configor@@@configor@@@std@@@2@@std@@@1@QAV?$map@V?$basic_string@DU?$char_traits@D@std@@V?$allocator@D@2@@std@@V?$basic_config@Ujson_args@configor@@@configor@@U?$less@V?$basic_string@DU?$char_traits@D@std@@V?$allocator@D@2@@std@@@2@V?$allocator@U?$pair@$$CBV?$basic_string@DU?$char_traits@D@std@@V?$allocator@D@2@@std@@V?$basic_config@Ujson_args@configor@@@configor@@@std@@@2@@1@@Z 10036b80 f i Pipi_edit.obj
 0001:00035b90       ??$destroy@V?$vector@V?$basic_config@Ujson_args@configor@@@configor@@V?$allocator@V?$basic_config@Ujson_args@configor@@@configor@@@std@@@std@@@?$_Default_allocator_traits@V?$allocator@V?$vector@V?$basic_config@Ujson_args@configor@@@configor@@V?$allocator@V?$basic_config@Ujson_args@configor@@@configor@@@std@@@std@@@std@@@std@@SAXAAV?$allocator@V?$vector@V?$basic_config@Ujson_args@configor@@@configor@@V?$allocator@V?$basic_config@Ujson_args@configor@@@configor@@@std@@@std@@@1@QAV?$vector@V?$basic_config@Ujson_args@configor@@@configor@@V?$allocator@V?$basic_config@Ujson_args@configor@@@configor@@@std@@@1@@Z 10036b90 f i Pipi_edit.obj
 0001:00035ba0       ??$destroy@V?$basic_string@DU?$char_traits@D@std@@V?$allocator@D@2@@std@@@?$_Default_allocator_traits@V?$allocator@V?$basic_string@DU?$char_traits@D@std@@V?$allocator@D@2@@std@@@std@@@std@@SAXAAV?$allocator@V?$basic_string@DU?$char_traits@D@std@@V?$allocator@D@2@@std@@@1@QAV?$basic_string@DU?$char_traits@D@std@@V?$allocator@D@2@@1@@Z 10036ba0 f i Pipi_edit.obj
 0001:00035bb0       ??$construct@V?$map@V?$basic_string@DU?$char_traits@D@std@@V?$allocator@D@2@@std@@V?$basic_config@Ujson_args@configor@@@configor@@U?$less@V?$basic_string@DU?$char_traits@D@std@@V?$allocator@D@2@@std@@@2@V?$allocator@U?$pair@$$CBV?$basic_string@DU?$char_traits@D@std@@V?$allocator@D@2@@std@@V?$basic_config@Ujson_args@configor@@@configor@@@std@@@2@@std@@AAV12@@?$_Default_allocator_traits@V?$allocator@V?$map@V?$basic_string@DU?$char_traits@D@std@@V?$allocator@D@2@@std@@V?$basic_config@Ujson_args@configor@@@configor@@U?$less@V?$basic_string@DU?$char_traits@D@std@@V?$allocator@D@2@@std@@@2@V?$allocator@U?$pair@$$CBV?$basic_string@DU?$char_traits@D@std@@V?$allocator@D@2@@std@@V?$basic_config@Ujson_args@configor@@@configor@@@std@@@2@@std@@@std@@@std@@SAXAAV?$allocator@V?$map@V?$basic_string@DU?$char_traits@D@std@@V?$allocator@D@2@@std@@V?$basic_config@Ujson_args@configor@@@configor@@U?$less@V?$basic_string@DU?$char_traits@D@std@@V?$allocator@D@2@@std@@@2@V?$allocator@U?$pair@$$CBV?$basic_string@DU?$char_traits@D@std@@V?$allocator@D@2@@std@@V?$basic_config@Ujson_args@configor@@@configor@@@std@@@2@@std@@@1@QAV?$map@V?$basic_string@DU?$char_traits@D@std@@V?$allocator@D@2@@std@@V?$basic_config@Ujson_args@configor@@@configor@@U?$less@V?$basic_string@DU?$char_traits@D@std@@V?$allocator@D@2@@std@@@2@V?$allocator@U?$pair@$$CBV?$basic_string@DU?$char_traits@D@std@@V?$allocator@D@2@@std@@V?$basic_config@Ujson_args@configor@@@configor@@@std@@@2@@1@AAV31@@Z 10036bb0 f i Pipi_edit.obj
 0001:00035bf0       ??$construct@V?$vector@V?$basic_config@Ujson_args@configor@@@configor@@V?$allocator@V?$basic_config@Ujson_args@configor@@@configor@@@std@@@std@@AAV12@@?$_Default_allocator_traits@V?$allocator@V?$vector@V?$basic_config@Ujson_args@configor@@@configor@@V?$allocator@V?$basic_config@Ujson_args@configor@@@configor@@@std@@@std@@@std@@@std@@SAXAAV?$allocator@V?$vector@V?$basic_config@Ujson_args@configor@@@configor@@V?$allocator@V?$basic_config@Ujson_args@configor@@@configor@@@std@@@std@@@1@QAV?$vector@V?$basic_config@Ujson_args@configor@@@configor@@V?$allocator@V?$basic_config@Ujson_args@configor@@@configor@@@std@@@1@AAV31@@Z 10036bf0 f i Pipi_edit.obj
 0001:00035c30       ??$construct@V?$basic_string@DU?$char_traits@D@std@@V?$allocator@D@2@@std@@ABV12@@?$_Default_allocator_traits@V?$allocator@V?$basic_string@DU?$char_traits@D@std@@V?$allocator@D@2@@std@@@std@@@std@@SAXAAV?$allocator@V?$basic_string@DU?$char_traits@D@std@@V?$allocator@D@2@@std@@@1@QAV?$basic_string@DU?$char_traits@D@std@@V?$allocator@D@2@@1@ABV31@@Z 10036c30 f i Pipi_edit.obj
 0001:00035c30       ??$construct@V?$basic_string@DU?$char_traits@D@std@@V?$allocator@D@2@@std@@AAV12@@?$_Default_allocator_traits@V?$allocator@V?$basic_string@DU?$char_traits@D@std@@V?$allocator@D@2@@std@@@std@@@std@@SAXAAV?$allocator@V?$basic_string@DU?$char_traits@D@std@@V?$allocator@D@2@@std@@@1@QAV?$basic_string@DU?$char_traits@D@std@@V?$allocator@D@2@@1@AAV31@@Z 10036c30 f i Pipi_edit.obj
 0001:00035c70       ??$construct@V?$map@V?$basic_string@DU?$char_traits@D@std@@V?$allocator@D@2@@std@@V?$basic_config@Ujson_args@configor@@@configor@@U?$less@V?$basic_string@DU?$char_traits@D@std@@V?$allocator@D@2@@std@@@2@V?$allocator@U?$pair@$$CBV?$basic_string@DU?$char_traits@D@std@@V?$allocator@D@2@@std@@V?$basic_config@Ujson_args@configor@@@configor@@@std@@@2@@std@@$$V@?$_Default_allocator_traits@V?$allocator@V?$map@V?$basic_string@DU?$char_traits@D@std@@V?$allocator@D@2@@std@@V?$basic_config@Ujson_args@configor@@@configor@@U?$less@V?$basic_string@DU?$char_traits@D@std@@V?$allocator@D@2@@std@@@2@V?$allocator@U?$pair@$$CBV?$basic_string@DU?$char_traits@D@std@@V?$allocator@D@2@@std@@V?$basic_config@Ujson_args@configor@@@configor@@@std@@@2@@std@@@std@@@std@@SAXAAV?$allocator@V?$map@V?$basic_string@DU?$char_traits@D@std@@V?$allocator@D@2@@std@@V?$basic_config@Ujson_args@configor@@@configor@@U?$less@V?$basic_string@DU?$char_traits@D@std@@V?$allocator@D@2@@std@@@2@V?$allocator@U?$pair@$$CBV?$basic_string@DU?$char_traits@D@std@@V?$allocator@D@2@@std@@V?$basic_config@Ujson_args@configor@@@configor@@@std@@@2@@std@@@1@QAV?$map@V?$basic_string@DU?$char_traits@D@std@@V?$allocator@D@2@@std@@V?$basic_config@Ujson_args@configor@@@configor@@U?$less@V?$basic_string@DU?$char_traits@D@std@@V?$allocator@D@2@@std@@@2@V?$allocator@U?$pair@$$CBV?$basic_string@DU?$char_traits@D@std@@V?$allocator@D@2@@std@@V?$basic_config@Ujson_args@configor@@@configor@@@std@@@2@@1@@Z 10036c70 f i Pipi_edit.obj
 0001:00035ca0       ??$construct@V?$vector@V?$basic_config@Ujson_args@configor@@@configor@@V?$allocator@V?$basic_config@Ujson_args@configor@@@configor@@@std@@@std@@$$V@?$_Default_allocator_traits@V?$allocator@V?$vector@V?$basic_config@Ujson_args@configor@@@configor@@V?$allocator@V?$basic_config@Ujson_args@configor@@@configor@@@std@@@std@@@std@@@std@@SAXAAV?$allocator@V?$vector@V?$basic_config@Ujson_args@configor@@@configor@@V?$allocator@V?$basic_config@Ujson_args@configor@@@configor@@@std@@@std@@@1@QAV?$vector@V?$basic_config@Ujson_args@configor@@@configor@@V?$allocator@V?$basic_config@Ujson_args@configor@@@configor@@@std@@@1@@Z 10036ca0 f i Pipi_edit.obj
 0001:00035cd0       ??$construct@V?$basic_string@DU?$char_traits@D@std@@V?$allocator@D@2@@std@@$$V@?$_Default_allocator_traits@V?$allocator@V?$basic_string@DU?$char_traits@D@std@@V?$allocator@D@2@@std@@@std@@@std@@SAXAAV?$allocator@V?$basic_string@DU?$char_traits@D@std@@V?$allocator@D@2@@std@@@1@QAV?$basic_string@DU?$char_traits@D@std@@V?$allocator@D@2@@1@@Z 10036cd0 f i Pipi_edit.obj
 0001:00035d00       ??$destroy@V?$basic_config@Ujson_args@configor@@@configor@@@?$_Default_allocator_traits@V?$allocator@V?$basic_config@Ujson_args@configor@@@configor@@@std@@@std@@SAXAAV?$allocator@V?$basic_config@Ujson_args@configor@@@configor@@@1@QAV?$basic_config@Ujson_args@configor@@@configor@@@Z 10036d00 f i Pipi_edit.obj
 0001:00035d10       ??$_Emplace_back@V?$basic_config@Ujson_args@configor@@@configor@@@?$_Uninitialized_backout_al@V?$allocator@V?$basic_config@Ujson_args@configor@@@configor@@@std@@@std@@QAEX$$QAV?$basic_config@Ujson_args@configor@@@configor@@@Z 10036d10 f i Pipi_edit.obj
 0001:00035d60       ??$_Reallocate_grow_by@V<lambda_4d79bb85f269e6e8002a4599002d832c>@@IPBDI@?$basic_string@DU?$char_traits@D@std@@V?$allocator@D@2@@std@@AAEAAV01@IV<lambda_4d79bb85f269e6e8002a4599002d832c>@@IPBDI@Z 10036d60 f i Pipi_edit.obj
 0001:00035ea0       ??$_Maklocstr@D@std@@YAPADPBDPADABU_Cvtvec@@@Z 10036ea0 f i Pipi_edit.obj
 0001:00035f40       ??$_Maklocchr@D@std@@YADDPADABU_Cvtvec@@@Z 10036f40 f i Pipi_edit.obj
 0001:00035f50       ??$_Getvals@D@?$numpunct@D@std@@IAEXDPBUlconv@@U_Cvtvec@@@Z 10036f50 f i Pipi_edit.obj
 0001:00035fb0       ??1?$json_serializer@V?$basic_config@Ujson_args@configor@@@configor@@@detail@configor@@QAE@XZ 10036fb0 f i Pipi_edit.obj
 0001:00035fe0       ??_G?$map@V?$basic_string@DU?$char_traits@D@std@@V?$allocator@D@2@@std@@V?$basic_config@Ujson_args@configor@@@configor@@U?$less@V?$basic_string@DU?$char_traits@D@std@@V?$allocator@D@2@@std@@@2@V?$allocator@U?$pair@$$CBV?$basic_string@DU?$char_traits@D@std@@V?$allocator@D@2@@std@@V?$basic_config@Ujson_args@configor@@@configor@@@std@@@2@@std@@QAEPAXI@Z 10036fe0 f i Pipi_edit.obj
 0001:00036010       ??_G?$vector@V?$basic_config@Ujson_args@configor@@@configor@@V?$allocator@V?$basic_config@Ujson_args@configor@@@configor@@@std@@@std@@QAEPAXI@Z 10037010 f i Pipi_edit.obj
 0001:00036040       ??_G?$basic_string@DU?$char_traits@D@std@@V?$allocator@D@2@@std@@QAEPAXI@Z 10037040 f i Pipi_edit.obj
 0001:00036070       ??_G?$basic_config@Ujson_args@configor@@@configor@@QAEPAXI@Z 10037070 f i Pipi_edit.obj
 0001:000360a0       ??1?$indent@V?$basic_string@DU?$char_traits@D@std@@V?$allocator@D@2@@std@@@detail@configor@@QAE@XZ 100370a0 f i Pipi_edit.obj
 0001:000360c0       ??1?$map@V?$basic_string@DU?$char_traits@D@std@@V?$allocator@D@2@@std@@V?$basic_config@Ujson_args@configor@@@configor@@U?$less@V?$basic_string@DU?$char_traits@D@std@@V?$allocator@D@2@@std@@@2@V?$allocator@U?$pair@$$CBV?$basic_string@DU?$char_traits@D@std@@V?$allocator@D@2@@std@@V?$basic_config@Ujson_args@configor@@@configor@@@std@@@2@@std@@QAE@XZ 100370c0 f i Pipi_edit.obj
 0001:000360e0       ??1?$_Tree_temp_node@V?$allocator@U?$_Tree_node@U?$pair@$$CBV?$basic_string@DU?$char_traits@D@std@@V?$allocator@D@2@@std@@V?$basic_config@Ujson_args@configor@@@configor@@@std@@PAX@std@@@std@@@std@@QAE@XZ 100370e0 f i Pipi_edit.obj
 0001:00036180       ?_Release@?$_Alloc_construct_ptr@V?$allocator@U?$_Tree_node@U?$pair@$$CBV?$basic_string@DU?$char_traits@D@std@@V?$allocator@D@2@@std@@V?$basic_config@Ujson_args@configor@@@configor@@@std@@PAX@std@@@std@@@std@@QAEPAU?$_Tree_node@U?$pair@$$CBV?$basic_string@DU?$char_traits@D@std@@V?$allocator@D@2@@std@@V?$basic_config@Ujson_args@configor@@@configor@@@std@@PAX@2@XZ 10037180 f i Pipi_edit.obj
 0001:000361b0       ?_Clear_and_reserve_geometric@?$vector@V?$basic_config@Ujson_args@configor@@@configor@@V?$allocator@V?$basic_config@Ujson_args@configor@@@configor@@@std@@@std@@AAEXI@Z 100371b0 f i Pipi_edit.obj
 0001:00036270       ??1?$vector@V?$basic_config@Ujson_args@configor@@@configor@@V?$allocator@V?$basic_config@Ujson_args@configor@@@configor@@@std@@@std@@QAE@XZ 10037270 f i Pipi_edit.obj
 0001:00036290       ??0?$vector@V?$basic_config@Ujson_args@configor@@@configor@@V?$allocator@V?$basic_config@Ujson_args@configor@@@configor@@@std@@@std@@QAE@ABV01@@Z 10037290 f i Pipi_edit.obj
 0001:000363a0       ??0?$vector@V?$basic_config@Ujson_args@configor@@@configor@@V?$allocator@V?$basic_config@Ujson_args@configor@@@configor@@@std@@@std@@QAE@XZ 100373a0 f i Pipi_edit.obj
 0001:000363d0       ??0?$map@V?$basic_string@DU?$char_traits@D@std@@V?$allocator@D@2@@std@@V?$basic_config@Ujson_args@configor@@@configor@@U?$less@V?$basic_string@DU?$char_traits@D@std@@V?$allocator@D@2@@std@@@2@V?$allocator@U?$pair@$$CBV?$basic_string@DU?$char_traits@D@std@@V?$allocator@D@2@@std@@V?$basic_config@Ujson_args@configor@@@configor@@@std@@@2@@std@@QAE@ABV01@@Z 100373d0 f i Pipi_edit.obj
 0001:00036410       ??0?$map@V?$basic_string@DU?$char_traits@D@std@@V?$allocator@D@2@@std@@V?$basic_config@Ujson_args@configor@@@configor@@U?$less@V?$basic_string@DU?$char_traits@D@std@@V?$allocator@D@2@@std@@@2@V?$allocator@U?$pair@$$CBV?$basic_string@DU?$char_traits@D@std@@V?$allocator@D@2@@std@@V?$basic_config@Ujson_args@configor@@@configor@@@std@@@2@@std@@QAE@XZ 10037410 f i Pipi_edit.obj
 0001:00036430       ?_Insert_node@?$_Tree_val@U?$_Tree_simple_types@U?$pair@$$CBV?$basic_string@DU?$char_traits@D@std@@V?$allocator@D@2@@std@@V?$basic_config@Ujson_args@configor@@@configor@@@std@@@std@@@std@@QAEPAU?$_Tree_node@U?$pair@$$CBV?$basic_string@DU?$char_traits@D@std@@V?$allocator@D@2@@std@@V?$basic_config@Ujson_args@configor@@@configor@@@std@@PAX@2@U?$_Tree_id@PAU?$_Tree_node@U?$pair@$$CBV?$basic_string@DU?$char_traits@D@std@@V?$allocator@D@2@@std@@V?$basic_config@Ujson_args@configor@@@configor@@@std@@PAX@std@@@2@QAU32@@Z 10037430 f i Pipi_edit.obj
 0001:00036640       ?_Check_grow_by_1@?$_Tree@V?$_Tmap_traits@V?$basic_string@DU?$char_traits@D@std@@V?$allocator@D@2@@std@@V?$basic_config@Ujson_args@configor@@@configor@@U?$less@V?$basic_string@DU?$char_traits@D@std@@V?$allocator@D@2@@std@@@2@V?$allocator@U?$pair@$$CBV?$basic_string@DU?$char_traits@D@std@@V?$allocator@D@2@@std@@V?$basic_config@Ujson_args@configor@@@configor@@@std@@@2@$0A@@std@@@std@@IAEXXZ 10037640 f i Pipi_edit.obj
 0001:00036670       ??1?$_Tree@V?$_Tmap_traits@V?$basic_string@DU?$char_traits@D@std@@V?$allocator@D@2@@std@@V?$basic_config@Ujson_args@configor@@@configor@@U?$less@V?$basic_string@DU?$char_traits@D@std@@V?$allocator@D@2@@std@@@2@V?$allocator@U?$pair@$$CBV?$basic_string@DU?$char_traits@D@std@@V?$allocator@D@2@@std@@V?$basic_config@Ujson_args@configor@@@configor@@@std@@@2@$0A@@std@@@std@@QAE@XZ 10037670 f i Pipi_edit.obj
 0001:000366a0       ??0?$json_serializer@V?$basic_config@Ujson_args@configor@@@configor@@@detail@configor@@QAE@ABUargs@012@@Z 100376a0 f i Pipi_edit.obj
 0001:000367d0       ??1?$_Tree_temp_node_alloc@V?$allocator@U?$_Tree_node@U?$pair@$$CBV?$basic_string@DU?$char_traits@D@std@@V?$allocator@D@2@@std@@V?$basic_config@Ujson_args@configor@@@configor@@@std@@PAX@std@@@std@@@std@@QAE@XZ 100377d0 f i Pipi_edit.obj
 0001:000367f0       ??0?$basic_serializer@V?$basic_config@Ujson_args@configor@@@configor@@@configor@@QAE@XZ 100377f0 f i Pipi_edit.obj
 0001:00036810       ??1?$_Tidy_guard@V?$vector@V?$basic_config@Ujson_args@configor@@@configor@@V?$allocator@V?$basic_config@Ujson_args@configor@@@configor@@@std@@@std@@@std@@QAE@XZ 10037810 f i Pipi_edit.obj
 0001:00036830       ??1?$_Alloc_construct_ptr@V?$allocator@U?$_Tree_node@U?$pair@$$CBV?$basic_string@DU?$char_traits@D@std@@V?$allocator@D@2@@std@@V?$basic_config@Ujson_args@configor@@@configor@@@std@@PAX@std@@@std@@@std@@QAE@XZ 10037830 f i Pipi_edit.obj
 0001:00036890       ?_Tidy@?$vector@V?$basic_config@Ujson_args@configor@@@configor@@V?$allocator@V?$basic_config@Ujson_args@configor@@@configor@@@std@@@std@@AAEXXZ 10037890 f i Pipi_edit.obj
 0001:00036950       ?_Buy_raw@?$vector@V?$basic_config@Ujson_args@configor@@@configor@@V?$allocator@V?$basic_config@Ujson_args@configor@@@configor@@@std@@@std@@AAEXI@Z 10037950 f i Pipi_edit.obj
 0001:000369c0       ?_Calculate_growth@?$vector@V?$basic_config@Ujson_args@configor@@@configor@@V?$allocator@V?$basic_config@Ujson_args@configor@@@configor@@@std@@@std@@ABEII@Z 100379c0 f i Pipi_edit.obj
 0001:00036a20       ?_Rrotate@?$_Tree_val@U?$_Tree_simple_types@U?$pair@$$CBV?$basic_string@DU?$char_traits@D@std@@V?$allocator@D@2@@std@@V?$basic_config@Ujson_args@configor@@@configor@@@std@@@std@@@std@@QAEXPAU?$_Tree_node@U?$pair@$$CBV?$basic_string@DU?$char_traits@D@std@@V?$allocator@D@2@@std@@V?$basic_config@Ujson_args@configor@@@configor@@@std@@PAX@2@@Z 10037a20 f i Pipi_edit.obj
 0001:00036ac0       ?_Lrotate@?$_Tree_val@U?$_Tree_simple_types@U?$pair@$$CBV?$basic_string@DU?$char_traits@D@std@@V?$allocator@D@2@@std@@V?$basic_config@Ujson_args@configor@@@configor@@@std@@@std@@@std@@QAEXPAU?$_Tree_node@U?$pair@$$CBV?$basic_string@DU?$char_traits@D@std@@V?$allocator@D@2@@std@@V?$basic_config@Ujson_args@configor@@@configor@@@std@@PAX@2@@Z 10037ac0 f i Pipi_edit.obj
 0001:00036b60       ?max_size@?$_Tree@V?$_Tmap_traits@V?$basic_string@DU?$char_traits@D@std@@V?$allocator@D@2@@std@@V?$basic_config@Ujson_args@configor@@@configor@@U?$less@V?$basic_string@DU?$char_traits@D@std@@V?$allocator@D@2@@std@@@2@V?$allocator@U?$pair@$$CBV?$basic_string@DU?$char_traits@D@std@@V?$allocator@D@2@@std@@V?$basic_config@Ujson_args@configor@@@configor@@@std@@@2@$0A@@std@@@std@@QBEIXZ 10037b60 f i Pipi_edit.obj
 0001:00036ba0       ??0?$_Tree@V?$_Tmap_traits@V?$basic_string@DU?$char_traits@D@std@@V?$allocator@D@2@@std@@V?$basic_config@Ujson_args@configor@@@configor@@U?$less@V?$basic_string@DU?$char_traits@D@std@@V?$allocator@D@2@@std@@@2@V?$allocator@U?$pair@$$CBV?$basic_string@DU?$char_traits@D@std@@V?$allocator@D@2@@std@@V?$basic_config@Ujson_args@configor@@@configor@@@std@@@2@$0A@@std@@@std@@QAE@ABU?$less@V?$basic_string@DU?$char_traits@D@std@@V?$allocator@D@2@@std@@@1@@Z 10037ba0 f i Pipi_edit.obj
 0001:00036bd0       ?init@?$indent@V?$basic_string@DU?$char_traits@D@std@@V?$allocator@D@2@@std@@@detail@configor@@QAEXD@Z 10037bd0 f i Pipi_edit.obj
 0001:00036c00       ??0?$indent@V?$basic_string@DU?$char_traits@D@std@@V?$allocator@D@2@@std@@@detail@configor@@QAE@XZ 10037c00 f i Pipi_edit.obj
 0001:00036c30       ?_Alloc_sentinel_and_proxy@?$_Tree@V?$_Tmap_traits@V?$basic_string@DU?$char_traits@D@std@@V?$allocator@D@2@@std@@V?$basic_config@Ujson_args@configor@@@configor@@U?$less@V?$basic_string@DU?$char_traits@D@std@@V?$allocator@D@2@@std@@@2@V?$allocator@U?$pair@$$CBV?$basic_string@DU?$char_traits@D@std@@V?$allocator@D@2@@std@@V?$basic_config@Ujson_args@configor@@@configor@@@std@@@2@$0A@@std@@@std@@IAEXXZ 10037c30 f i Pipi_edit.obj
 0001:00036ca0       ?max_size@?$_Default_allocator_traits@V?$allocator@U?$_Tree_node@U?$pair@$$CBV?$basic_string@DU?$char_traits@D@std@@V?$allocator@D@2@@std@@V?$basic_config@Ujson_args@configor@@@configor@@@std@@PAX@std@@@std@@@std@@SAIABV?$allocator@U?$_Tree_node@U?$pair@$$CBV?$basic_string@DU?$char_traits@D@std@@V?$allocator@D@2@@std@@V?$basic_config@Ujson_args@configor@@@configor@@@std@@PAX@std@@@2@@Z 10037ca0 f i Pipi_edit.obj
 0001:00036cb0       ?deallocate@?$allocator@U?$_Tree_node@U?$pair@$$CBV?$basic_string@DU?$char_traits@D@std@@V?$allocator@D@2@@std@@V?$basic_config@Ujson_args@configor@@@configor@@@std@@PAX@std@@@std@@QAEXQAU?$_Tree_node@U?$pair@$$CBV?$basic_string@DU?$char_traits@D@std@@V?$allocator@D@2@@std@@V?$basic_config@Ujson_args@configor@@@configor@@@std@@PAX@2@I@Z 10037cb0 f i Pipi_edit.obj
 0001:00036cd0       ??$adl_to_config@V?$basic_config@Ujson_args@configor@@@configor@@$$BY07D@detail@configor@@YAXAAV?$basic_config@Ujson_args@configor@@@1@AAY07$$CBD@Z 10037cd0 f i Pipi_edit.obj
 0001:00036cd0       ??$adl_to_config@V?$basic_config@Ujson_args@configor@@@configor@@$$BY04D@detail@configor@@YAXAAV?$basic_config@Ujson_args@configor@@@1@AAY04$$CBD@Z 10037cd0 f i Pipi_edit.obj
 0001:00036d40       ??$adl_to_config@V?$basic_config@Ujson_args@configor@@@configor@@V?$basic_string@DU?$char_traits@D@std@@V?$allocator@D@2@@std@@@detail@configor@@YAXAAV?$basic_config@Ujson_args@configor@@@1@ABV?$basic_string@DU?$char_traits@D@std@@V?$allocator@D@2@@std@@@Z 10037d40 f i Pipi_edit.obj
 0001:00036d60       ??$adl_to_config@V?$basic_config@Ujson_args@configor@@@configor@@H@detail@configor@@YAXAAV?$basic_config@Ujson_args@configor@@@1@ABH@Z 10037d60 f i Pipi_edit.obj
 0001:00036d80       ??$dump_config@V?$basic_config@Ujson_args@configor@@@configor@@X@configor@@YAXABV?$basic_config@Ujson_args@configor@@@0@AAV?$basic_ostream@DU?$char_traits@D@std@@@std@@AAV?$basic_serializer@V?$basic_config@Ujson_args@configor@@@configor@@@0@PAVerror_handler@0@@Z 10037d80 f i Pipi_edit.obj
 0001:00036e40       ??$_Find_lower_bound@V?$basic_string@DU?$char_traits@D@std@@V?$allocator@D@2@@std@@@?$_Tree@V?$_Tmap_traits@V?$basic_string@DU?$char_traits@D@std@@V?$allocator@D@2@@std@@V?$basic_config@Ujson_args@configor@@@configor@@U?$less@V?$basic_string@DU?$char_traits@D@std@@V?$allocator@D@2@@std@@@2@V?$allocator@U?$pair@$$CBV?$basic_string@DU?$char_traits@D@std@@V?$allocator@D@2@@std@@V?$basic_config@Ujson_args@configor@@@configor@@@std@@@2@$0A@@std@@@std@@IBE?AU?$_Tree_find_result@PAU?$_Tree_node@U?$pair@$$CBV?$basic_string@DU?$char_traits@D@std@@V?$allocator@D@2@@std@@V?$basic_config@Ujson_args@configor@@@configor@@@std@@PAX@std@@@1@ABV?$basic_string@DU?$char_traits@D@std@@V?$allocator@D@2@@1@@Z 10037e40 f i Pipi_edit.obj
 0001:00036f10       ??$_Lower_bound_duplicate@V?$basic_string@DU?$char_traits@D@std@@V?$allocator@D@2@@std@@@?$_Tree@V?$_Tmap_traits@V?$basic_string@DU?$char_traits@D@std@@V?$allocator@D@2@@std@@V?$basic_config@Ujson_args@configor@@@configor@@U?$less@V?$basic_string@DU?$char_traits@D@std@@V?$allocator@D@2@@std@@@2@V?$allocator@U?$pair@$$CBV?$basic_string@DU?$char_traits@D@std@@V?$allocator@D@2@@std@@V?$basic_config@Ujson_args@configor@@@configor@@@std@@@2@$0A@@std@@@std@@IBE_NQAU?$_Tree_node@U?$pair@$$CBV?$basic_string@DU?$char_traits@D@std@@V?$allocator@D@2@@std@@V?$basic_config@Ujson_args@configor@@@configor@@@std@@PAX@1@ABV?$basic_string@DU?$char_traits@D@std@@V?$allocator@D@2@@1@@Z 10037f10 f i Pipi_edit.obj
 0001:00036f70       ??$?0AAPAU?$_Tree_node@U?$pair@$$CBV?$basic_string@DU?$char_traits@D@std@@V?$allocator@D@2@@std@@V?$basic_config@Ujson_args@configor@@@configor@@@std@@PAX@std@@_N$0A@@?$pair@PAU?$_Tree_node@U?$pair@$$CBV?$basic_string@DU?$char_traits@D@std@@V?$allocator@D@2@@std@@V?$basic_config@Ujson_args@configor@@@configor@@@std@@PAX@std@@_N@std@@QAE@AAPAU?$_Tree_node@U?$pair@$$CBV?$basic_string@DU?$char_traits@D@std@@V?$allocator@D@2@@std@@V?$basic_config@Ujson_args@configor@@@configor@@@std@@PAX@1@$$QA_N@Z 10037f70 f i Pipi_edit.obj
 0001:00036f70       ??$?0PAU?$_Tree_node@U?$pair@$$CBV?$basic_string@DU?$char_traits@D@std@@V?$allocator@D@2@@std@@V?$basic_config@Ujson_args@configor@@@configor@@@std@@PAX@std@@_N$0A@@?$pair@PAU?$_Tree_node@U?$pair@$$CBV?$basic_string@DU?$char_traits@D@std@@V?$allocator@D@2@@std@@V?$basic_config@Ujson_args@configor@@@configor@@@std@@PAX@std@@_N@std@@QAE@$$QAPAU?$_Tree_node@U?$pair@$$CBV?$basic_string@DU?$char_traits@D@std@@V?$allocator@D@2@@std@@V?$basic_config@Ujson_args@configor@@@configor@@@std@@PAX@1@$$QA_N@Z 10037f70 f i Pipi_edit.obj
 0001:00036fb0       ??$?0AAV?$basic_string@DU?$char_traits@D@std@@V?$allocator@D@2@@std@@AAV?$basic_config@Ujson_args@configor@@@configor@@@?$_Tree_temp_node@V?$allocator@U?$_Tree_node@U?$pair@$$CBV?$basic_string@DU?$char_traits@D@std@@V?$allocator@D@2@@std@@V?$basic_config@Ujson_args@configor@@@configor@@@std@@PAX@std@@@std@@@std@@QAE@AAV?$allocator@U?$_Tree_node@U?$pair@$$CBV?$basic_string@DU?$char_traits@D@std@@V?$allocator@D@2@@std@@V?$basic_config@Ujson_args@configor@@@configor@@@std@@PAX@std@@@1@PAU?$_Tree_node@U?$pair@$$CBV?$basic_string@DU?$char_traits@D@std@@V?$allocator@D@2@@std@@V?$basic_config@Ujson_args@configor@@@configor@@@std@@PAX@1@AAV?$basic_string@DU?$char_traits@D@std@@V?$allocator@D@2@@1@AAV?$basic_config@Ujson_args@configor@@@configor@@@Z 10037fb0 f i Pipi_edit.obj
 0001:000370a0       ??$distance@PBV?$basic_config@Ujson_args@configor@@@configor@@@std@@YAHPBV?$basic_config@Ujson_args@configor@@@configor@@0@Z 100380a0 f i Pipi_edit.obj
 0001:000370b0       ??$next@PBV?$basic_config@Ujson_args@configor@@@configor@@@std@@YAPBV?$basic_config@Ujson_args@configor@@@configor@@PBV12@H@Z 100380b0 f i Pipi_edit.obj
 0001:000370d0       ??$_Copy_unchecked@PBV?$basic_config@Ujson_args@configor@@@configor@@PAV12@@std@@YAPAV?$basic_config@Ujson_args@configor@@@configor@@PBV12@0PAV12@@Z 100380d0 f i Pipi_edit.obj
 0001:00037120       ??$_Ucopy@PBV?$basic_config@Ujson_args@configor@@@configor@@@?$vector@V?$basic_config@Ujson_args@configor@@@configor@@V?$allocator@V?$basic_config@Ujson_args@configor@@@configor@@@std@@@std@@AAEPAV?$basic_config@Ujson_args@configor@@@configor@@PBV23@0PAV23@@Z 10038120 f i Pipi_edit.obj
 0001:00037120       ??$_Ucopy@PAV?$basic_config@Ujson_args@configor@@@configor@@@?$vector@V?$basic_config@Ujson_args@configor@@@configor@@V?$allocator@V?$basic_config@Ujson_args@configor@@@configor@@@std@@@std@@AAEPAV?$basic_config@Ujson_args@configor@@@configor@@PAV23@00@Z 10038120 f i Pipi_edit.obj
 0001:00037150       ??$construct@V?$basic_config@Ujson_args@configor@@@configor@@V12@@?$_Default_allocator_traits@V?$allocator@V?$basic_config@Ujson_args@configor@@@configor@@@std@@@std@@SAXAAV?$allocator@V?$basic_config@Ujson_args@configor@@@configor@@@1@QAV?$basic_config@Ujson_args@configor@@@configor@@$$QAV34@@Z 10038150 f i Pipi_edit.obj
 0001:00037190       ??$destroy@U?$pair@$$CBV?$basic_string@DU?$char_traits@D@std@@V?$allocator@D@2@@std@@V?$basic_config@Ujson_args@configor@@@configor@@@std@@@?$_Default_allocator_traits@V?$allocator@U?$_Tree_node@U?$pair@$$CBV?$basic_string@DU?$char_traits@D@std@@V?$allocator@D@2@@std@@V?$basic_config@Ujson_args@configor@@@configor@@@std@@PAX@std@@@std@@@std@@SAXAAV?$allocator@U?$_Tree_node@U?$pair@$$CBV?$basic_string@DU?$char_traits@D@std@@V?$allocator@D@2@@std@@V?$basic_config@Ujson_args@configor@@@configor@@@std@@PAX@std@@@1@QAU?$pair@$$CBV?$basic_string@DU?$char_traits@D@std@@V?$allocator@D@2@@std@@V?$basic_config@Ujson_args@configor@@@configor@@@1@@Z 10038190 f i Pipi_edit.obj
 0001:000371a0       ??$?0V?$allocator@V?$basic_config@Ujson_args@configor@@@configor@@@std@@$$V@?$_Compressed_pair@V?$allocator@V?$basic_config@Ujson_args@configor@@@configor@@@std@@V?$_Vector_val@U?$_Simple_types@V?$basic_config@Ujson_args@configor@@@configor@@@std@@@2@$00@std@@QAE@U_One_then_variadic_args_t@1@$$QAV?$allocator@V?$basic_config@Ujson_args@configor@@@configor@@@1@@Z 100381a0 f i Pipi_edit.obj
 0001:000371d0       ??$?0$$V@?$_Compressed_pair@V?$allocator@V?$basic_config@Ujson_args@configor@@@configor@@@std@@V?$_Vector_val@U?$_Simple_types@V?$basic_config@Ujson_args@configor@@@configor@@@std@@@2@$00@std@@QAE@U_Zero_then_variadic_args_t@1@@Z 100381d0 f i Pipi_edit.obj
 0001:000371f0       ??$?0V?$allocator@U?$_Tree_node@U?$pair@$$CBV?$basic_string@DU?$char_traits@D@std@@V?$allocator@D@2@@std@@V?$basic_config@Ujson_args@configor@@@configor@@@std@@PAX@std@@@std@@@?$_Tree@V?$_Tmap_traits@V?$basic_string@DU?$char_traits@D@std@@V?$allocator@D@2@@std@@V?$basic_config@Ujson_args@configor@@@configor@@U?$less@V?$basic_string@DU?$char_traits@D@std@@V?$allocator@D@2@@std@@@2@V?$allocator@U?$pair@$$CBV?$basic_string@DU?$char_traits@D@std@@V?$allocator@D@2@@std@@V?$basic_config@Ujson_args@configor@@@configor@@@std@@@2@$0A@@std@@@std@@QAE@ABV01@$$QAV?$allocator@U?$_Tree_node@U?$pair@$$CBV?$basic_string@DU?$char_traits@D@std@@V?$allocator@D@2@@std@@V?$basic_config@Ujson_args@configor@@@configor@@@std@@PAX@std@@@1@@Z 100381f0 f i Pipi_edit.obj
 0001:000372e0       ??$_Erase_head@V?$allocator@U?$_Tree_node@U?$pair@$$CBV?$basic_string@DU?$char_traits@D@std@@V?$allocator@D@2@@std@@V?$basic_config@Ujson_args@configor@@@configor@@@std@@PAX@std@@@std@@@?$_Tree_val@U?$_Tree_simple_types@U?$pair@$$CBV?$basic_string@DU?$char_traits@D@std@@V?$allocator@D@2@@std@@V?$basic_config@Ujson_args@configor@@@configor@@@std@@@std@@@std@@QAEXAAV?$allocator@U?$_Tree_node@U?$pair@$$CBV?$basic_string@DU?$char_traits@D@std@@V?$allocator@D@2@@std@@V?$basic_config@Ujson_args@configor@@@configor@@@std@@PAX@std@@@1@@Z 100382e0 f i Pipi_edit.obj
 0001:00037320       ??$?0ABU?$less@V?$basic_string@DU?$char_traits@D@std@@V?$allocator@D@2@@std@@@std@@U_Zero_then_variadic_args_t@1@@?$_Compressed_pair@U?$less@V?$basic_string@DU?$char_traits@D@std@@V?$allocator@D@2@@std@@@std@@V?$_Compressed_pair@V?$allocator@U?$_Tree_node@U?$pair@$$CBV?$basic_string@DU?$char_traits@D@std@@V?$allocator@D@2@@std@@V?$basic_config@Ujson_args@configor@@@configor@@@std@@PAX@std@@@std@@V?$_Tree_val@U?$_Tree_simple_types@U?$pair@$$CBV?$basic_string@DU?$char_traits@D@std@@V?$allocator@D@2@@std@@V?$basic_config@Ujson_args@configor@@@configor@@@std@@@std@@@2@$00@2@$00@std@@QAE@U_One_then_variadic_args_t@1@ABU?$less@V?$basic_string@DU?$char_traits@D@std@@V?$allocator@D@2@@std@@@1@$$QAU_Zero_then_variadic_args_t@1@@Z 10038320 f i Pipi_edit.obj
 0001:00037360       ??$_Buyheadnode@V?$allocator@U?$_Tree_node@U?$pair@$$CBV?$basic_string@DU?$char_traits@D@std@@V?$allocator@D@2@@std@@V?$basic_config@Ujson_args@configor@@@configor@@@std@@PAX@std@@@std@@@?$_Tree_node@U?$pair@$$CBV?$basic_string@DU?$char_traits@D@std@@V?$allocator@D@2@@std@@V?$basic_config@Ujson_args@configor@@@configor@@@std@@PAX@std@@SAPAU01@AAV?$allocator@U?$_Tree_node@U?$pair@$$CBV?$basic_string@DU?$char_traits@D@std@@V?$allocator@D@2@@std@@V?$basic_config@Ujson_args@configor@@@configor@@@std@@PAX@std@@@1@@Z 10038360 f i Pipi_edit.obj
 0001:000373e0       ??_G?$pair@$$CBV?$basic_string@DU?$char_traits@D@std@@V?$allocator@D@2@@std@@V?$basic_config@Ujson_args@configor@@@configor@@@std@@QAEPAXI@Z 100383e0 f i Pipi_edit.obj
 0001:00037410       ??1?$pair@$$CBV?$basic_string@DU?$char_traits@D@std@@V?$allocator@D@2@@std@@V?$basic_config@Ujson_args@configor@@@configor@@@std@@QAE@XZ 10038410 f i Pipi_edit.obj
 0001:00037430       ??1?$_Tree_head_scoped_ptr@V?$allocator@U?$_Tree_node@U?$pair@$$CBV?$basic_string@DU?$char_traits@D@std@@V?$allocator@D@2@@std@@V?$basic_config@Ujson_args@configor@@@configor@@@std@@PAX@std@@@std@@V?$_Tree_val@U?$_Tree_simple_types@U?$pair@$$CBV?$basic_string@DU?$char_traits@D@std@@V?$allocator@D@2@@std@@V?$basic_config@Ujson_args@configor@@@configor@@@std@@@std@@@2@@std@@QAE@XZ 10038430 f i Pipi_edit.obj
 0001:00037460       ?_Release@?$_Tree_head_scoped_ptr@V?$allocator@U?$_Tree_node@U?$pair@$$CBV?$basic_string@DU?$char_traits@D@std@@V?$allocator@D@2@@std@@V?$basic_config@Ujson_args@configor@@@configor@@@std@@PAX@std@@@std@@V?$_Tree_val@U?$_Tree_simple_types@U?$pair@$$CBV?$basic_string@DU?$char_traits@D@std@@V?$allocator@D@2@@std@@V?$basic_config@Ujson_args@configor@@@configor@@@std@@@std@@@2@@std@@QAEXXZ 10038460 f i Pipi_edit.obj
 0001:00037460       ?Set32BitAddress@CDetourDis@@IAEXXZ 10038460 f i detours:disasm.obj
 0001:00037480       ??0?$_Tree_head_scoped_ptr@V?$allocator@U?$_Tree_node@U?$pair@$$CBV?$basic_string@DU?$char_traits@D@std@@V?$allocator@D@2@@std@@V?$basic_config@Ujson_args@configor@@@configor@@@std@@PAX@std@@@std@@V?$_Tree_val@U?$_Tree_simple_types@U?$pair@$$CBV?$basic_string@DU?$char_traits@D@std@@V?$allocator@D@2@@std@@V?$basic_config@Ujson_args@configor@@@configor@@@std@@@std@@@2@@std@@QAE@AAV?$allocator@U?$_Tree_node@U?$pair@$$CBV?$basic_string@DU?$char_traits@D@std@@V?$allocator@D@2@@std@@V?$basic_config@Ujson_args@configor@@@configor@@@std@@PAX@std@@@1@AAV?$_Tree_val@U?$_Tree_simple_types@U?$pair@$$CBV?$basic_string@DU?$char_traits@D@std@@V?$allocator@D@2@@std@@V?$basic_config@Ujson_args@configor@@@configor@@@std@@@std@@@1@@Z 10038480 f i Pipi_edit.obj
 0001:000374c0       ??0?$_Tree_temp_node_alloc@V?$allocator@U?$_Tree_node@U?$pair@$$CBV?$basic_string@DU?$char_traits@D@std@@V?$allocator@D@2@@std@@V?$basic_config@Ujson_args@configor@@@configor@@@std@@PAX@std@@@std@@@std@@QAE@AAV?$allocator@U?$_Tree_node@U?$pair@$$CBV?$basic_string@DU?$char_traits@D@std@@V?$allocator@D@2@@std@@V?$basic_config@Ujson_args@configor@@@configor@@@std@@PAX@std@@@1@@Z 100384c0 f i Pipi_edit.obj
 0001:00037520       ??0?$_Vector_val@U?$_Simple_types@V?$basic_config@Ujson_args@configor@@@configor@@@std@@@std@@QAE@XZ 10038520 f i Pipi_edit.obj
 0001:00037550       ??R?$less@V?$basic_string@DU?$char_traits@D@std@@V?$allocator@D@2@@std@@@std@@QBE_NABV?$basic_string@DU?$char_traits@D@std@@V?$allocator@D@2@@1@0@Z 10038550 f i Pipi_edit.obj
 0001:00037570       ?allocate@?$allocator@U?$_Tree_node@U?$pair@$$CBV?$basic_string@DU?$char_traits@D@std@@V?$allocator@D@2@@std@@V?$basic_config@Ujson_args@configor@@@configor@@@std@@PAX@std@@@std@@QAEPAU?$_Tree_node@U?$pair@$$CBV?$basic_string@DU?$char_traits@D@std@@V?$allocator@D@2@@std@@V?$basic_config@Ujson_args@configor@@@configor@@@std@@PAX@2@I@Z 10038570 f i Pipi_edit.obj
 0001:000375a0       ?to_config@configor@@YAXAAV?$basic_config@Ujson_args@configor@@@1@ABV?$basic_string@DU?$char_traits@D@std@@V?$allocator@D@2@@std@@@Z 100385a0 f i Pipi_edit.obj
 0001:000375c0       ??4?$basic_config@Ujson_args@configor@@@configor@@QAEAAV01@V01@@Z 100385c0 f i Pipi_edit.obj
 0001:00037630       ??0?$basic_config@Ujson_args@configor@@@configor@@QAE@$$QAV01@@Z 10038630 f i Pipi_edit.obj
 0001:000376a0       ?_Allocate@?$_Alloc_construct_ptr@V?$allocator@U?$_Tree_node@U?$pair@$$CBV?$basic_string@DU?$char_traits@D@std@@V?$allocator@D@2@@std@@V?$basic_config@Ujson_args@configor@@@configor@@@std@@PAX@std@@@std@@@std@@QAEXXZ 100386a0 f i Pipi_edit.obj
 0001:000376d0       ??0?$config_value@V?$basic_config@Ujson_args@configor@@@configor@@@detail@configor@@QAE@$$QAU012@@Z 100386d0 f i Pipi_edit.obj
 0001:00037710       ?swap@?$basic_config@Ujson_args@configor@@@configor@@QAEXAAV12@@Z 10038710 f i Pipi_edit.obj
 0001:00037730       ?swap@?$config_value@V?$basic_config@Ujson_args@configor@@@configor@@@detail@configor@@QAEXAAU123@@Z 10038730 f i Pipi_edit.obj
 0001:00037770       ??$to_config@H$0A@@configor@@YAXAAV?$basic_config@Ujson_args@configor@@@0@H@Z 10038770 f i Pipi_edit.obj
 0001:00037790       ??$?0$$V@?$_Compressed_pair@V?$allocator@U?$_Tree_node@U?$pair@$$CBV?$basic_string@DU?$char_traits@D@std@@V?$allocator@D@2@@std@@V?$basic_config@Ujson_args@configor@@@configor@@@std@@PAX@std@@@std@@V?$_Tree_val@U?$_Tree_simple_types@U?$pair@$$CBV?$basic_string@DU?$char_traits@D@std@@V?$allocator@D@2@@std@@V?$basic_config@Ujson_args@configor@@@configor@@@std@@@std@@@2@$00@std@@QAE@U_Zero_then_variadic_args_t@1@@Z 10038790 f i Pipi_edit.obj
 0001:000377b0       ??$do_dump_config@V?$basic_config@Ujson_args@configor@@@configor@@@detail@configor@@YAXABV?$basic_config@Ujson_args@configor@@@1@AAV?$basic_serializer@V?$basic_config@Ujson_args@configor@@@configor@@@1@@Z 100387b0 f i Pipi_edit.obj
 0001:00037a90       ??$construct@U?$pair@$$CBV?$basic_string@DU?$char_traits@D@std@@V?$allocator@D@2@@std@@V?$basic_config@Ujson_args@configor@@@configor@@@std@@AAV?$basic_string@DU?$char_traits@D@std@@V?$allocator@D@2@@2@AAV?$basic_config@Ujson_args@configor@@@configor@@@?$_Default_allocator_traits@V?$allocator@U?$_Tree_node@U?$pair@$$CBV?$basic_string@DU?$char_traits@D@std@@V?$allocator@D@2@@std@@V?$basic_config@Ujson_args@configor@@@configor@@@std@@PAX@std@@@std@@@std@@SAXAAV?$allocator@U?$_Tree_node@U?$pair@$$CBV?$basic_string@DU?$char_traits@D@std@@V?$allocator@D@2@@std@@V?$basic_config@Ujson_args@configor@@@configor@@@std@@PAX@std@@@1@QAU?$pair@$$CBV?$basic_string@DU?$char_traits@D@std@@V?$allocator@D@2@@std@@V?$basic_config@Ujson_args@configor@@@configor@@@1@AAV?$basic_string@DU?$char_traits@D@std@@V?$allocator@D@2@@1@AAV?$basic_config@Ujson_args@configor@@@configor@@@Z 10038a90 f i Pipi_edit.obj
 0001:00037ae0       ??$advance@PBV?$basic_config@Ujson_args@configor@@@configor@@H@std@@YAXAAPBV?$basic_config@Ujson_args@configor@@@configor@@H@Z 10038ae0 f i Pipi_edit.obj
 0001:00037b00       ??$_Uninitialized_copy@PBV?$basic_config@Ujson_args@configor@@@configor@@V?$allocator@V?$basic_config@Ujson_args@configor@@@configor@@@std@@@std@@YAPAV?$basic_config@Ujson_args@configor@@@configor@@QBV12@0PAV12@AAV?$allocator@V?$basic_config@Ujson_args@configor@@@configor@@@0@@Z 10038b00 f i Pipi_edit.obj
 0001:00037b00       ??$_Uninitialized_copy@PAV?$basic_config@Ujson_args@configor@@@configor@@V?$allocator@V?$basic_config@Ujson_args@configor@@@configor@@@std@@@std@@YAPAV?$basic_config@Ujson_args@configor@@@configor@@QAV12@0PAV12@AAV?$allocator@V?$basic_config@Ujson_args@configor@@@configor@@@0@@Z 10038b00 f i Pipi_edit.obj
 0001:00037bc0       ??$?0U?$less@V?$basic_string@DU?$char_traits@D@std@@V?$allocator@D@2@@std@@@std@@U_One_then_variadic_args_t@1@V?$allocator@U?$_Tree_node@U?$pair@$$CBV?$basic_string@DU?$char_traits@D@std@@V?$allocator@D@2@@std@@V?$basic_config@Ujson_args@configor@@@configor@@@std@@PAX@std@@@1@@?$_Compressed_pair@U?$less@V?$basic_string@DU?$char_traits@D@std@@V?$allocator@D@2@@std@@@std@@V?$_Compressed_pair@V?$allocator@U?$_Tree_node@U?$pair@$$CBV?$basic_string@DU?$char_traits@D@std@@V?$allocator@D@2@@std@@V?$basic_config@Ujson_args@configor@@@configor@@@std@@PAX@std@@@std@@V?$_Tree_val@U?$_Tree_simple_types@U?$pair@$$CBV?$basic_string@DU?$char_traits@D@std@@V?$allocator@D@2@@std@@V?$basic_config@Ujson_args@configor@@@configor@@@std@@@std@@@2@$00@2@$00@std@@QAE@U_One_then_variadic_args_t@1@$$QAU?$less@V?$basic_string@DU?$char_traits@D@std@@V?$allocator@D@2@@std@@@1@$$QAU21@$$QAV?$allocator@U?$_Tree_node@U?$pair@$$CBV?$basic_string@DU?$char_traits@D@std@@V?$allocator@D@2@@std@@V?$basic_config@Ujson_args@configor@@@configor@@@std@@PAX@std@@@1@@Z 10038bc0 f i Pipi_edit.obj
 0001:00037c10       ??$_Copy@U_Copy_tag@?$_Tree@V?$_Tmap_traits@V?$basic_string@DU?$char_traits@D@std@@V?$allocator@D@2@@std@@V?$basic_config@Ujson_args@configor@@@configor@@U?$less@V?$basic_string@DU?$char_traits@D@std@@V?$allocator@D@2@@std@@@2@V?$allocator@U?$pair@$$CBV?$basic_string@DU?$char_traits@D@std@@V?$allocator@D@2@@std@@V?$basic_config@Ujson_args@configor@@@configor@@@std@@@2@$0A@@std@@@std@@@?$_Tree@V?$_Tmap_traits@V?$basic_string@DU?$char_traits@D@std@@V?$allocator@D@2@@std@@V?$basic_config@Ujson_args@configor@@@configor@@U?$less@V?$basic_string@DU?$char_traits@D@std@@V?$allocator@D@2@@std@@@2@V?$allocator@U?$pair@$$CBV?$basic_string@DU?$char_traits@D@std@@V?$allocator@D@2@@std@@V?$basic_config@Ujson_args@configor@@@configor@@@std@@@2@$0A@@std@@@std@@IAEXABV01@U_Copy_tag@01@@Z 10038c10 f i Pipi_edit.obj
 0001:00037cd0       ??$_Erase_tree@V?$allocator@U?$_Tree_node@U?$pair@$$CBV?$basic_string@DU?$char_traits@D@std@@V?$allocator@D@2@@std@@V?$basic_config@Ujson_args@configor@@@configor@@@std@@PAX@std@@@std@@@?$_Tree_val@U?$_Tree_simple_types@U?$pair@$$CBV?$basic_string@DU?$char_traits@D@std@@V?$allocator@D@2@@std@@V?$basic_config@Ujson_args@configor@@@configor@@@std@@@std@@@std@@QAEXAAV?$allocator@U?$_Tree_node@U?$pair@$$CBV?$basic_string@DU?$char_traits@D@std@@V?$allocator@D@2@@std@@V?$basic_config@Ujson_args@configor@@@configor@@@std@@PAX@std@@@1@PAU?$_Tree_node@U?$pair@$$CBV?$basic_string@DU?$char_traits@D@std@@V?$allocator@D@2@@std@@V?$basic_config@Ujson_args@configor@@@configor@@@std@@PAX@1@@Z 10038cd0 f i Pipi_edit.obj
 0001:00037d20       ??$_Freenode0@V?$allocator@U?$_Tree_node@U?$pair@$$CBV?$basic_string@DU?$char_traits@D@std@@V?$allocator@D@2@@std@@V?$basic_config@Ujson_args@configor@@@configor@@@std@@PAX@std@@@std@@@?$_Tree_node@U?$pair@$$CBV?$basic_string@DU?$char_traits@D@std@@V?$allocator@D@2@@std@@V?$basic_config@Ujson_args@configor@@@configor@@@std@@PAX@std@@SAXAAV?$allocator@U?$_Tree_node@U?$pair@$$CBV?$basic_string@DU?$char_traits@D@std@@V?$allocator@D@2@@std@@V?$basic_config@Ujson_args@configor@@@configor@@@std@@PAX@std@@@1@PAU01@@Z 10038d20 f i Pipi_edit.obj
 0001:00037da0       ??$?MDU?$char_traits@D@std@@V?$allocator@D@1@@std@@YA_NABV?$basic_string@DU?$char_traits@D@std@@V?$allocator@D@2@@0@0@Z 10038da0 f i Pipi_edit.obj
 0001:00037dd0       ??$_Get_size_of_n@$0DI@@std@@YAII@Z 10038dd0 f i Pipi_edit.obj
 0001:00037e00       ??$swap@T<unnamed-type-data>@?$config_value@V?$basic_config@Ujson_args@configor@@@configor@@@detail@configor@@$0A@@std@@YAXAAT<unnamed-type-data>@?$config_value@V?$basic_config@Ujson_args@configor@@@configor@@@detail@configor@@0@Z 10038e00 f i Pipi_edit.obj
 0001:00037e70       ??E?$_Tree_const_iterator@V?$_Tree_val@U?$_Tree_simple_types@U?$pair@$$CBV?$basic_string@DU?$char_traits@D@std@@V?$allocator@D@2@@std@@V?$basic_config@Ujson_args@configor@@@configor@@@std@@@std@@@std@@@std@@QAEAAV01@XZ 10038e70 f i Pipi_edit.obj
 0001:00037e90       ??C?$_Tree_const_iterator@V?$_Tree_val@U?$_Tree_simple_types@U?$pair@$$CBV?$basic_string@DU?$char_traits@D@std@@V?$allocator@D@2@@std@@V?$basic_config@Ujson_args@configor@@@configor@@@std@@@std@@@std@@@std@@QBEPBU?$pair@$$CBV?$basic_string@DU?$char_traits@D@std@@V?$allocator@D@2@@std@@V?$basic_config@Ujson_args@configor@@@configor@@@1@XZ 10038e90 f i Pipi_edit.obj
 0001:00037eb0       ?at@?$vector@V?$basic_config@Ujson_args@configor@@@configor@@V?$allocator@V?$basic_config@Ujson_args@configor@@@configor@@@std@@@std@@QAEAAV?$basic_config@Ujson_args@configor@@@configor@@I@Z 10038eb0 f i Pipi_edit.obj
 0001:00037ef0       ?empty@?$vector@V?$basic_config@Ujson_args@configor@@@configor@@V?$allocator@V?$basic_config@Ujson_args@configor@@@configor@@@std@@@std@@QBE_NXZ 10038ef0 f i Pipi_edit.obj
 0001:00037f30       ?_Min@?$_Tree_val@U?$_Tree_simple_types@U?$pair@$$CBV?$basic_string@DU?$char_traits@D@std@@V?$allocator@D@2@@std@@V?$basic_config@Ujson_args@configor@@@configor@@@std@@@std@@@std@@SAPAU?$_Tree_node@U?$pair@$$CBV?$basic_string@DU?$char_traits@D@std@@V?$allocator@D@2@@std@@V?$basic_config@Ujson_args@configor@@@configor@@@std@@PAX@2@PAU32@@Z 10038f30 f i Pipi_edit.obj
 0001:00037f50       ?_Max@?$_Tree_val@U?$_Tree_simple_types@U?$pair@$$CBV?$basic_string@DU?$char_traits@D@std@@V?$allocator@D@2@@std@@V?$basic_config@Ujson_args@configor@@@configor@@@std@@@std@@@std@@SAPAU?$_Tree_node@U?$pair@$$CBV?$basic_string@DU?$char_traits@D@std@@V?$allocator@D@2@@std@@V?$basic_config@Ujson_args@configor@@@configor@@@std@@PAX@2@PAU32@@Z 10038f50 f i Pipi_edit.obj
 0001:00037f80       ??0?$_Tree_val@U?$_Tree_simple_types@U?$pair@$$CBV?$basic_string@DU?$char_traits@D@std@@V?$allocator@D@2@@std@@V?$basic_config@Ujson_args@configor@@@configor@@@std@@@std@@@std@@QAE@XZ 10038f80 f i Pipi_edit.obj
 0001:00037fb0       ?empty@?$_Tree@V?$_Tmap_traits@V?$basic_string@DU?$char_traits@D@std@@V?$allocator@D@2@@std@@V?$basic_config@Ujson_args@configor@@@configor@@U?$less@V?$basic_string@DU?$char_traits@D@std@@V?$allocator@D@2@@std@@@2@V?$allocator@U?$pair@$$CBV?$basic_string@DU?$char_traits@D@std@@V?$allocator@D@2@@std@@V?$basic_config@Ujson_args@configor@@@configor@@@std@@@2@$0A@@std@@@std@@QBE_NXZ 10038fb0 f i Pipi_edit.obj
 0001:00037fe0       ?cbegin@?$_Tree@V?$_Tmap_traits@V?$basic_string@DU?$char_traits@D@std@@V?$allocator@D@2@@std@@V?$basic_config@Ujson_args@configor@@@configor@@U?$less@V?$basic_string@DU?$char_traits@D@std@@V?$allocator@D@2@@std@@@2@V?$allocator@U?$pair@$$CBV?$basic_string@DU?$char_traits@D@std@@V?$allocator@D@2@@std@@V?$basic_config@Ujson_args@configor@@@configor@@@std@@@2@$0A@@std@@@std@@QBE?AV?$_Tree_const_iterator@V?$_Tree_val@U?$_Tree_simple_types@U?$pair@$$CBV?$basic_string@DU?$char_traits@D@std@@V?$allocator@D@2@@std@@V?$basic_config@Ujson_args@configor@@@configor@@@std@@@std@@@std@@@2@XZ 10038fe0 f i Pipi_edit.obj
 0001:00038000       ?deallocate@?$_Default_allocator_traits@V?$allocator@U?$_Tree_node@U?$pair@$$CBV?$basic_string@DU?$char_traits@D@std@@V?$allocator@D@2@@std@@V?$basic_config@Ujson_args@configor@@@configor@@@std@@PAX@std@@@std@@@std@@SAXAAV?$allocator@U?$_Tree_node@U?$pair@$$CBV?$basic_string@DU?$char_traits@D@std@@V?$allocator@D@2@@std@@V?$basic_config@Ujson_args@configor@@@configor@@@std@@PAX@std@@@2@QAU?$_Tree_node@U?$pair@$$CBV?$basic_string@DU?$char_traits@D@std@@V?$allocator@D@2@@std@@V?$basic_config@Ujson_args@configor@@@configor@@@std@@PAX@2@I@Z 10039000 f i Pipi_edit.obj
 0001:00038020       ?pointer_to@?$pointer_traits@PBU?$pair@$$CBV?$basic_string@DU?$char_traits@D@std@@V?$allocator@D@2@@std@@V?$basic_config@Ujson_args@configor@@@configor@@@std@@@std@@SAPBU?$pair@$$CBV?$basic_string@DU?$char_traits@D@std@@V?$allocator@D@2@@std@@V?$basic_config@Ujson_args@configor@@@configor@@@2@ABU32@@Z 10039020 f i Pipi_edit.obj
 0001:00038040       ??D?$_Tree_const_iterator@V?$_Tree_val@U?$_Tree_simple_types@U?$pair@$$CBV?$basic_string@DU?$char_traits@D@std@@V?$allocator@D@2@@std@@V?$basic_config@Ujson_args@configor@@@configor@@@std@@@std@@@std@@@std@@QBEABU?$pair@$$CBV?$basic_string@DU?$char_traits@D@std@@V?$allocator@D@2@@std@@V?$basic_config@Ujson_args@configor@@@configor@@@1@XZ 10039040 f i Pipi_edit.obj
 0001:00038060       ??E?$_Tree_unchecked_const_iterator@V?$_Tree_val@U?$_Tree_simple_types@U?$pair@$$CBV?$basic_string@DU?$char_traits@D@std@@V?$allocator@D@2@@std@@V?$basic_config@Ujson_args@configor@@@configor@@@std@@@std@@@std@@U_Iterator_base0@2@@std@@QAEAAV01@XZ 10039060 f i Pipi_edit.obj
 0001:000380d0       ?_Xrange@?$vector@V?$basic_config@Ujson_args@configor@@@configor@@V?$allocator@V?$basic_config@Ujson_args@configor@@@configor@@@std@@@std@@CAXXZ 100390d0 f i Pipi_edit.obj
 0001:000380e0       ?begin@?$_Tree@V?$_Tmap_traits@V?$basic_string@DU?$char_traits@D@std@@V?$allocator@D@2@@std@@V?$basic_config@Ujson_args@configor@@@configor@@U?$less@V?$basic_string@DU?$char_traits@D@std@@V?$allocator@D@2@@std@@@2@V?$allocator@U?$pair@$$CBV?$basic_string@DU?$char_traits@D@std@@V?$allocator@D@2@@std@@V?$basic_config@Ujson_args@configor@@@configor@@@std@@@2@$0A@@std@@@std@@QBE?AV?$_Tree_const_iterator@V?$_Tree_val@U?$_Tree_simple_types@U?$pair@$$CBV?$basic_string@DU?$char_traits@D@std@@V?$allocator@D@2@@std@@V?$basic_config@Ujson_args@configor@@@configor@@@std@@@std@@@std@@@2@XZ 100390e0 f i Pipi_edit.obj
 0001:00038120       ??$?0V?$allocator@U?$_Tree_node@U?$pair@$$CBV?$basic_string@DU?$char_traits@D@std@@V?$allocator@D@2@@std@@V?$basic_config@Ujson_args@configor@@@configor@@@std@@PAX@std@@@std@@$$V@?$_Compressed_pair@V?$allocator@U?$_Tree_node@U?$pair@$$CBV?$basic_string@DU?$char_traits@D@std@@V?$allocator@D@2@@std@@V?$basic_config@Ujson_args@configor@@@configor@@@std@@PAX@std@@@std@@V?$_Tree_val@U?$_Tree_simple_types@U?$pair@$$CBV?$basic_string@DU?$char_traits@D@std@@V?$allocator@D@2@@std@@V?$basic_config@Ujson_args@configor@@@configor@@@std@@@std@@@2@$00@std@@QAE@U_One_then_variadic_args_t@1@$$QAV?$allocator@U?$_Tree_node@U?$pair@$$CBV?$basic_string@DU?$char_traits@D@std@@V?$allocator@D@2@@std@@V?$basic_config@Ujson_args@configor@@@configor@@@std@@PAX@std@@@1@@Z 10039120 f i Pipi_edit.obj
 0001:00038150       ??$?0AAV?$basic_string@DU?$char_traits@D@std@@V?$allocator@D@2@@std@@AAV?$basic_config@Ujson_args@configor@@@configor@@$0A@@?$pair@$$CBV?$basic_string@DU?$char_traits@D@std@@V?$allocator@D@2@@std@@V?$basic_config@Ujson_args@configor@@@configor@@@std@@QAE@AAV?$basic_string@DU?$char_traits@D@std@@V?$allocator@D@2@@1@AAV?$basic_config@Ujson_args@configor@@@configor@@@Z 10039150 f i Pipi_edit.obj
 0001:000381d0       ??$_Emplace_back@AAV?$basic_config@Ujson_args@configor@@@configor@@@?$_Uninitialized_backout_al@V?$allocator@V?$basic_config@Ujson_args@configor@@@configor@@@std@@@std@@QAEXAAV?$basic_config@Ujson_args@configor@@@configor@@@Z 100391d0 f i Pipi_edit.obj
 0001:000381d0       ??$_Emplace_back@ABV?$basic_config@Ujson_args@configor@@@configor@@@?$_Uninitialized_backout_al@V?$allocator@V?$basic_config@Ujson_args@configor@@@configor@@@std@@@std@@QAEXABV?$basic_config@Ujson_args@configor@@@configor@@@Z 100391d0 f i Pipi_edit.obj
 0001:00038220       ??$_Copy_nodes@U_Copy_tag@?$_Tree@V?$_Tmap_traits@V?$basic_string@DU?$char_traits@D@std@@V?$allocator@D@2@@std@@V?$basic_config@Ujson_args@configor@@@configor@@U?$less@V?$basic_string@DU?$char_traits@D@std@@V?$allocator@D@2@@std@@@2@V?$allocator@U?$pair@$$CBV?$basic_string@DU?$char_traits@D@std@@V?$allocator@D@2@@std@@V?$basic_config@Ujson_args@configor@@@configor@@@std@@@2@$0A@@std@@@std@@@?$_Tree@V?$_Tmap_traits@V?$basic_string@DU?$char_traits@D@std@@V?$allocator@D@2@@std@@V?$basic_config@Ujson_args@configor@@@configor@@U?$less@V?$basic_string@DU?$char_traits@D@std@@V?$allocator@D@2@@std@@@2@V?$allocator@U?$pair@$$CBV?$basic_string@DU?$char_traits@D@std@@V?$allocator@D@2@@std@@V?$basic_config@Ujson_args@configor@@@configor@@@std@@@2@$0A@@std@@@std@@IAEPAU?$_Tree_node@U?$pair@$$CBV?$basic_string@DU?$char_traits@D@std@@V?$allocator@D@2@@std@@V?$basic_config@Ujson_args@configor@@@configor@@@std@@PAX@1@PAU21@0U_Copy_tag@01@@Z 10039220 f i Pipi_edit.obj
 0001:00038360       ??$_Freenode@V?$allocator@U?$_Tree_node@U?$pair@$$CBV?$basic_string@DU?$char_traits@D@std@@V?$allocator@D@2@@std@@V?$basic_config@Ujson_args@configor@@@configor@@@std@@PAX@std@@@std@@@?$_Tree_node@U?$pair@$$CBV?$basic_string@DU?$char_traits@D@std@@V?$allocator@D@2@@std@@V?$basic_config@Ujson_args@configor@@@configor@@@std@@PAX@std@@SAXAAV?$allocator@U?$_Tree_node@U?$pair@$$CBV?$basic_string@DU?$char_traits@D@std@@V?$allocator@D@2@@std@@V?$basic_config@Ujson_args@configor@@@configor@@@std@@PAX@std@@@1@PAU01@@Z 10039360 f i Pipi_edit.obj
 0001:000383d0       ??$construct@V?$basic_config@Ujson_args@configor@@@configor@@AAV12@@?$_Default_allocator_traits@V?$allocator@V?$basic_config@Ujson_args@configor@@@configor@@@std@@@std@@SAXAAV?$allocator@V?$basic_config@Ujson_args@configor@@@configor@@@1@QAV?$basic_config@Ujson_args@configor@@@configor@@AAV34@@Z 100393d0 f i Pipi_edit.obj
 0001:000383d0       ??$construct@V?$basic_config@Ujson_args@configor@@@configor@@ABV12@@?$_Default_allocator_traits@V?$allocator@V?$basic_config@Ujson_args@configor@@@configor@@@std@@@std@@SAXAAV?$allocator@V?$basic_config@Ujson_args@configor@@@configor@@@1@QAV?$basic_config@Ujson_args@configor@@@configor@@ABV34@@Z 100393d0 f i Pipi_edit.obj
 0001:00038410       ??$_Copy_or_move@U?$pair@$$CBV?$basic_string@DU?$char_traits@D@std@@V?$allocator@D@2@@std@@V?$basic_config@Ujson_args@configor@@@configor@@@std@@U?$integral_constant@_N$0A@@2@@?$_Tree@V?$_Tmap_traits@V?$basic_string@DU?$char_traits@D@std@@V?$allocator@D@2@@std@@V?$basic_config@Ujson_args@configor@@@configor@@U?$less@V?$basic_string@DU?$char_traits@D@std@@V?$allocator@D@2@@std@@@2@V?$allocator@U?$pair@$$CBV?$basic_string@DU?$char_traits@D@std@@V?$allocator@D@2@@std@@V?$basic_config@Ujson_args@configor@@@configor@@@std@@@2@$0A@@std@@@std@@IAEPAU?$_Tree_node@U?$pair@$$CBV?$basic_string@DU?$char_traits@D@std@@V?$allocator@D@2@@std@@V?$basic_config@Ujson_args@configor@@@configor@@@std@@PAX@1@AAU?$pair@$$CBV?$basic_string@DU?$char_traits@D@std@@V?$allocator@D@2@@std@@V?$basic_config@Ujson_args@configor@@@configor@@@1@U_Copy_tag@01@U?$integral_constant@_N$0A@@1@@Z 10039410 f i Pipi_edit.obj
 0001:00038430       ??$_Erase_tree_and_orphan@V?$allocator@U?$_Tree_node@U?$pair@$$CBV?$basic_string@DU?$char_traits@D@std@@V?$allocator@D@2@@std@@V?$basic_config@Ujson_args@configor@@@configor@@@std@@PAX@std@@@std@@@?$_Tree_val@U?$_Tree_simple_types@U?$pair@$$CBV?$basic_string@DU?$char_traits@D@std@@V?$allocator@D@2@@std@@V?$basic_config@Ujson_args@configor@@@configor@@@std@@@std@@@std@@QAEXAAV?$allocator@U?$_Tree_node@U?$pair@$$CBV?$basic_string@DU?$char_traits@D@std@@V?$allocator@D@2@@std@@V?$basic_config@Ujson_args@configor@@@configor@@@std@@PAX@std@@@1@PAU?$_Tree_node@U?$pair@$$CBV?$basic_string@DU?$char_traits@D@std@@V?$allocator@D@2@@std@@V?$basic_config@Ujson_args@configor@@@configor@@@std@@PAX@1@@Z 10039430 f i Pipi_edit.obj
 0001:00038490       ??$_Buynode@AAU?$pair@$$CBV?$basic_string@DU?$char_traits@D@std@@V?$allocator@D@2@@std@@V?$basic_config@Ujson_args@configor@@@configor@@@std@@@?$_Tree@V?$_Tmap_traits@V?$basic_string@DU?$char_traits@D@std@@V?$allocator@D@2@@std@@V?$basic_config@Ujson_args@configor@@@configor@@U?$less@V?$basic_string@DU?$char_traits@D@std@@V?$allocator@D@2@@std@@@2@V?$allocator@U?$pair@$$CBV?$basic_string@DU?$char_traits@D@std@@V?$allocator@D@2@@std@@V?$basic_config@Ujson_args@configor@@@configor@@@std@@@2@$0A@@std@@@std@@IAEPAU?$_Tree_node@U?$pair@$$CBV?$basic_string@DU?$char_traits@D@std@@V?$allocator@D@2@@std@@V?$basic_config@Ujson_args@configor@@@configor@@@std@@PAX@1@AAU?$pair@$$CBV?$basic_string@DU?$char_traits@D@std@@V?$allocator@D@2@@std@@V?$basic_config@Ujson_args@configor@@@configor@@@1@@Z 10039490 f i Pipi_edit.obj
 0001:000384d0       ??$_Buynode@V?$allocator@U?$_Tree_node@U?$pair@$$CBV?$basic_string@DU?$char_traits@D@std@@V?$allocator@D@2@@std@@V?$basic_config@Ujson_args@configor@@@configor@@@std@@PAX@std@@@std@@AAU?$pair@$$CBV?$basic_string@DU?$char_traits@D@std@@V?$allocator@D@2@@std@@V?$basic_config@Ujson_args@configor@@@configor@@@2@@?$_Tree_node@U?$pair@$$CBV?$basic_string@DU?$char_traits@D@std@@V?$allocator@D@2@@std@@V?$basic_config@Ujson_args@configor@@@configor@@@std@@PAX@std@@SAPAU01@AAV?$allocator@U?$_Tree_node@U?$pair@$$CBV?$basic_string@DU?$char_traits@D@std@@V?$allocator@D@2@@std@@V?$basic_config@Ujson_args@configor@@@configor@@@std@@PAX@std@@@1@PAU01@AAU?$pair@$$CBV?$basic_string@DU?$char_traits@D@std@@V?$allocator@D@2@@std@@V?$basic_config@Ujson_args@configor@@@configor@@@1@@Z 100394d0 f i Pipi_edit.obj
 0001:000385c0       ??$construct@U?$pair@$$CBV?$basic_string@DU?$char_traits@D@std@@V?$allocator@D@2@@std@@V?$basic_config@Ujson_args@configor@@@configor@@@std@@AAU12@@?$_Default_allocator_traits@V?$allocator@U?$_Tree_node@U?$pair@$$CBV?$basic_string@DU?$char_traits@D@std@@V?$allocator@D@2@@std@@V?$basic_config@Ujson_args@configor@@@configor@@@std@@PAX@std@@@std@@@std@@SAXAAV?$allocator@U?$_Tree_node@U?$pair@$$CBV?$basic_string@DU?$char_traits@D@std@@V?$allocator@D@2@@std@@V?$basic_config@Ujson_args@configor@@@configor@@@std@@PAX@std@@@1@QAU?$pair@$$CBV?$basic_string@DU?$char_traits@D@std@@V?$allocator@D@2@@std@@V?$basic_config@Ujson_args@configor@@@configor@@@1@AAU31@@Z 100395c0 f i Pipi_edit.obj
 0001:00038600       ??0?$pair@$$CBV?$basic_string@DU?$char_traits@D@std@@V?$allocator@D@2@@std@@V?$basic_config@Ujson_args@configor@@@configor@@@std@@QAE@ABU01@@Z 10039600 f i Pipi_edit.obj
 0001:00038666       ??_E?$basic_ostream@DU?$char_traits@D@std@@@std@@$4PPPPPPPM@A@AEPAXI@Z 10039666 f i Pipi_edit.obj
 0001:0003866e       ??_E?$basic_ofstream@DU?$char_traits@D@std@@@std@@$4PPPPPPPM@A@AEPAXI@Z 1003966e f i Pipi_edit.obj
 0001:00038676       ??_E?$fast_basic_ostringstream@D@detail@configor@@$4PPPPPPPM@A@AEPAXI@Z 10039676 f i Pipi_edit.obj
 0001:00038680       ?AngleVectors@QAngle@@QAEXPAVVector@@00@Z 10039680 f   QAngle.obj
 0001:000388b0       ?AngleVectorsTranspose@QAngle@@QAEXPAVVector@@00@Z 100398b0 f   QAngle.obj
 0001:00038ab0       _ror                       10039ab0 f i ReflectiveLoader.obj
 0001:00038ac0       _hash                      10039ac0 f i ReflectiveLoader.obj
 0001:00038b00       _caller                    10039b00 f   ReflectiveLoader.obj
 0001:00038b10       _ReflectiveLoader@4        10039b10 f   ReflectiveLoader.obj
 0001:00039240       ?StudioRenderModel@@YAXXZ  1003a240 f   StudioModelRenderer.obj
 0001:000396f0       ?oStudioRenderModel@@YAXXZ 1003a6f0 f   StudioModelRenderer.obj
 0001:00039700       ?StudioRenderModel_Gate@@YAXXZ 1003a700 f   StudioModelRenderer.obj
 0001:00039710       ?oStudioRenderFinal@@YAXXZ 1003a710 f   StudioModelRenderer.obj
 0001:00039720       ?ScoreAttrib@@YAHPBDHPAX@Z 1003a720 f   Usermsg.obj
 0001:00039790       ?TeamInfo@@YAHPBDHPAX@Z    1003a790 f   Usermsg.obj
 0001:000398a0       ?SetFOV@@YAHPBDHPAX@Z      1003a8a0 f   Usermsg.obj
 0001:000399b0       ?BombDrop@@YAHPBDHPAX@Z    1003a9b0 f   Usermsg.obj
 0001:00039a40       ?ResetHUD@@YAHPBDHPAX@Z    1003aa40 f   Usermsg.obj
 0001:00039ac0       ?Battery@@YAHPBDHPAX@Z     1003aac0 f   Usermsg.obj
 0001:00039b00       ?Health@@YAHPBDHPAX@Z      1003ab00 f   Usermsg.obj
 0001:00039b40       ?DeathMsg@@YAHPBDHPAX@Z    1003ab40 f   Usermsg.obj
 0001:00039c00       ?CaptureFactory@@YAP6APAVIBaseInterface@@PBDPAH@ZPAD@Z 1003ac00 f   interface.obj
 0001:00039c50       ?CaptureInterface@@YAPAXP6APAVIBaseInterface@@PBDPAH@ZPAD@Z 1003ac50 f   interface.obj
 0001:00039c90       ?BEGIN_READ@@YAXPAXH@Z     1003ac90 f   parsemsg.obj
 0001:00039cc0       ?READ_CHAR@@YAHXZ          1003acc0 f   parsemsg.obj
 0001:00039d10       ?READ_BYTE@@YAHXZ          1003ad10 f   parsemsg.obj
 0001:00039d60       ?READ_SHORT@@YAHXZ         1003ad60 f   parsemsg.obj
 0001:00039dc0       ?READ_STRING@@YAPADXZ      1003adc0 f   parsemsg.obj
 0001:00039e70       ?READ_COORD@@YAMXZ         1003ae70 f   parsemsg.obj
 0001:00039ea0       ?CrossProduct@Vector@@QAEAAV1@ABV1@0@Z 1003aea0 f i Vector.obj
 0001:00039f30       ?AngleMatrix@Vector@@QAEXAAVQAngle@@PAY02M@Z 1003af30 f   Vector.obj
 0001:0003a1e0       ?VectorRotate@Vector@@QAEXAAV1@AAVQAngle@@@Z 1003b1e0 f   Vector.obj
 0001:0003a2f0       ?ToEulerAngles@Vector@@QAE?AVQAngle@@XZ 1003b2f0 f   Vector.obj
 0001:0003a4b0       ?ToEulerAngles@Vector@@QAE?AVQAngle@@PAV1@@Z 1003b4b0 f   Vector.obj
 0001:0003a91b       ??0bad_alloc@std@@QAE@XZ   1003b91b f i libcpmt:xthrow.obj
 0001:0003a933       ??0length_error@std@@QAE@ABV01@@Z 1003b933 f i libcpmt:xthrow.obj
 0001:0003a94e       ??0length_error@std@@QAE@PBD@Z 1003b94e f i libcpmt:xthrow.obj
 0001:0003a96d       ??0runtime_error@std@@QAE@PBD@Z 1003b96d f i libcpmt:xthrow.obj
 0001:0003a98c       ??1length_error@std@@UAE@XZ 1003b98c f i libcpmt:xthrow.obj
 0001:0003a99d       ??_Elength_error@std@@UAEPAXI@Z 1003b99d f i libcpmt:xthrow.obj
 0001:0003a99d       ??_Glength_error@std@@UAEPAXI@Z 1003b99d f i libcpmt:xthrow.obj
 0001:0003a9ca       ?__scrt_throw_std_bad_alloc@@YAXXZ 1003b9ca f   LIBCMT:throw_bad_alloc.obj
 0001:0003a9ca       ?_Xbad_alloc@std@@YAXXZ    1003b9ca f   libcpmt:xthrow.obj
 0001:0003a9e7       ?_Xlength_error@std@@YAXPBD@Z 1003b9e7 f   libcpmt:xthrow.obj
 0001:0003aa07       ?_Xout_of_range@std@@YAXPBD@Z 1003ba07 f   libcpmt:xthrow.obj
 0001:0003aa27       ?_Xruntime_error@std@@YAXPBD@Z 1003ba27 f   libcpmt:xthrow.obj
 0001:0003aa47       ?_Syserror_map@std@@YAPBDH@Z 1003ba47 f   libcpmt:syserror.obj
 0001:0003aa6c       ??0_Init_locks@std@@QAE@XZ 1003ba6c f   libcpmt:xlock.obj
 0001:0003aa99       ??0_Lockit@std@@QAE@H@Z    1003ba99 f   libcpmt:xlock.obj
 0001:0003aaca       ??1_Init_locks@std@@QAE@XZ 1003baca f   libcpmt:xlock.obj
 0001:0003aaf1       ??1_Lockit@std@@QAE@XZ     1003baf1 f   libcpmt:xlock.obj
 0001:0003ab10       ??0_Locimp@locale@std@@AAE@_N@Z 1003bb10 f i libcpmt:locale0.obj
 0001:0003ab51       ??1_Fac_node@std@@QAE@XZ   1003bb51 f i libcpmt:locale0.obj
 0001:0003ab82       ??1_Fac_tidy_reg_t@std@@QAE@XZ 1003bb82 f i libcpmt:locale0.obj
 0001:0003aba9       ??1_Locimp@locale@std@@MAE@XZ 1003bba9 f i libcpmt:locale0.obj
 0001:0003abd4       ??4?$_Yarn@D@std@@QAEAAV01@PBD@Z 1003bbd4 f i libcpmt:locale0.obj
 0001:0003ac28       ??_G_Locimp@locale@std@@MAEPAXI@Z 1003bc28 f i libcpmt:locale0.obj
 0001:0003ac28       ??_E_Locimp@locale@std@@MAEPAXI@Z 1003bc28 f i libcpmt:locale0.obj
 0001:0003ac4a       ?_Facet_Register@std@@YAXPAV_Facet_base@1@@Z 1003bc4a f   libcpmt:locale0.obj
 0001:0003ac76       ?_Getgloballocale@locale@std@@CAPAV_Locimp@12@XZ 1003bc76 f   libcpmt:locale0.obj
 0001:0003ac7c       ?_Init@locale@std@@CAPAV_Locimp@12@_N@Z 1003bc7c f   libcpmt:locale0.obj
 0001:0003ad0c       ?_Locimp_dtor@_Locimp@locale@std@@CAXPAV123@@Z 1003bd0c f   libcpmt:locale0.obj
 0001:0003ad7c       ?_Locinfo_ctor@_Locinfo@std@@SAXPAV12@PBD@Z 1003bd7c f   libcpmt:locale0.obj
 0001:0003adc7       ?_Locinfo_dtor@_Locinfo@std@@SAXPAV12@@Z 1003bdc7 f   libcpmt:locale0.obj
 0001:0003ade1       ?_New_Locimp@_Locimp@locale@std@@CAPAV123@_N@Z 1003bde1 f   libcpmt:locale0.obj
 0001:0003ae04       ?_Setgloballocale@locale@std@@CAXPAX@Z 1003be04 f   libcpmt:locale0.obj
 0001:0003ae2c       __Deletegloballocale       1003be2c f   libcpmt:locale0.obj
 0001:0003ae91       ?_Addstd@ios_base@std@@SAXPAV12@@Z 1003be91 f   libcpmt:ios.obj
 0001:0003aee3       ?_Callfns@ios_base@std@@AAEXW4event@12@@Z 1003bee3 f i libcpmt:ios.obj
 0001:0003af16       ?_Ios_base_dtor@ios_base@std@@CAXPAV12@@Z 1003bf16 f   libcpmt:ios.obj
 0001:0003af56       ?_Tidy@ios_base@std@@AAEXXZ 1003bf56 f i libcpmt:ios.obj
 0001:0003afd1       ??$_Xfiopen@D@std@@YAPAU_iobuf@@PBDHH@Z 1003bfd1 f i libcpmt:fiopen.obj
 0001:0003b077       ?_Fiopen@std@@YAPAU_iobuf@@PBDHH@Z 1003c077 f   libcpmt:fiopen.obj
 0001:0003b080       ?_Xfsopen@std@@YAPAU_iobuf@@PBDHH@Z 1003c080 f   libcpmt:fiopen.obj
 0001:0003b09d       __Getctype                 1003c09d f   libcpmt:_tolower.obj
 0001:0003b108       __Tolower                  1003c108 f   libcpmt:_tolower.obj
 0001:0003b206       __Toupper                  1003c206 f   libcpmt:_toupper.obj
 0001:0003b304       ??$_Copy_construct_from@$$CBU_EXCEPTION_RECORD@@@?$_Ptr_base@$$CBU_EXCEPTION_RECORD@@@std@@IAEXABV?$shared_ptr@$$CBU_EXCEPTION_RECORD@@@1@@Z 1003c304 f i libcpmt:excptptr.obj
 0001:0003b38f       ??0bad_exception@std@@QAE@ABV01@@Z 1003c38f f i libcpmt:excptptr.obj
 0001:0003b3e0       ??0bad_exception@std@@QAE@XZ 1003c3e0 f i libcpmt:excptptr.obj
 0001:0003b4b2       ??1?$shared_ptr@$$CBU_EXCEPTION_RECORD@@@std@@QAE@XZ 1003c4b2 f i libcpmt:excptptr.obj
 0001:0003b4be       ??1bad_exception@std@@UAE@XZ 1003c4be f i libcpmt:excptptr.obj
 0001:0003b505       ??4?$shared_ptr@$$CBU_EXCEPTION_RECORD@@@std@@QAEAAV01@$$QAV01@@Z 1003c505 f i libcpmt:excptptr.obj
 0001:0003b629       ??_G?$shared_ptr@$$CBU_EXCEPTION_RECORD@@@std@@QAEPAXI@Z 1003c629 f i libcpmt:excptptr.obj
 0001:0003b66f       ??_Ebad_exception@std@@UAEPAXI@Z 1003c66f f i libcpmt:excptptr.obj
 0001:0003b66f       ??_Gbad_exception@std@@UAEPAXI@Z 1003c66f f i libcpmt:excptptr.obj
 0001:0003b8ed       ?_CallMemberFunction0@@YGXQAX0@Z 1003c8ed f i libcpmt:excptptr.obj
 0001:0003b8fa       ?_CallMemberFunction1@@YGXQAX00@Z 1003c8fa f i libcpmt:excptptr.obj
 0001:0003b90a       ?_CallMemberFunction2@@YGXQAX00H@Z 1003c90a f i libcpmt:excptptr.obj
 0001:0003b98f       ?_Decref@_Ref_count_base@std@@QAEXXZ 1003c98f f i libcpmt:excptptr.obj
 0001:0003b9b8       ?_Decwref@_Ref_count_base@std@@QAEXXZ 1003c9b8 f i libcpmt:excptptr.obj
 0001:0003b9da       @_guard_check_icall_nop@4  1003c9da f   LIBCMT:guard_support.obj
 0001:0003bb7e       ?_Get_deleter@_Ref_count_base@std@@UBEPAXABVtype_info@@@Z 1003cb7e f i libcpmt:excptptr.obj
 0001:0003bbdb       ?__ExceptionPtrCopy@@YAXPAXPBX@Z 1003cbdb f   libcpmt:excptptr.obj
 0001:0003bbf2       ?__ExceptionPtrCreate@@YAXPAX@Z 1003cbf2 f   libcpmt:excptptr.obj
 0001:0003bc01       ?__ExceptionPtrCurrentException@@YAXPAX@Z 1003cc01 f   libcpmt:excptptr.obj
 0001:0003bcdd       ?__ExceptionPtrDestroy@@YAXPAX@Z 1003ccdd f   libcpmt:excptptr.obj
 0001:0003bcec       ?uncaught_exception@std@@YA_NXZ 1003ccec f   libcpmt:uncaught_exception.obj
 0001:0003bcf1       ?setprecision@std@@YA?AU?$_Smanip@_J@1@_J@Z 1003ccf1 f   libcpmt:iomanip.obj
 0001:0003bd0b       ?setw@std@@YA?AU?$_Smanip@_J@1@_J@Z 1003cd0b f   libcpmt:iomanip.obj
 0001:0003bd4d       __Getcvt                   1003cd4d f   libcpmt:xwctomb.obj
 0001:0003bdc0       __Mtxdst                   1003cdc0 f   libcpmt:xmtx.obj
 0001:0003bdce       __Mtxinit                  1003cdce f   libcpmt:xmtx.obj
 0001:0003bde3       __Mtxlock                  1003cde3 f   libcpmt:xmtx.obj
 0001:0003bdf1       __Mtxunlock                1003cdf1 f   libcpmt:xmtx.obj
 0001:0003bdff       ??1_Init_atexit@@QAE@XZ    1003cdff f i libcpmt:iosptrs.obj
 0001:0003be67       ?_Atexit@@YAXP6AXXZ@Z      1003ce67 f   libcpmt:iosptrs.obj
 0001:0003be96       ??1?$__crt_scoped_stack_ptr@_W@@QAE@XZ 1003ce96 f i libcpmt:StlLCMapStringA.obj
 0001:0003beaf       ___crtLCMapStringA         1003ceaf f   libcpmt:StlLCMapStringA.obj
 0001:0003c07b       __freea_crt                1003d07b f i libcpmt:StlLCMapStringA.obj
 0001:0003c099       @__security_check_cookie@4 1003d099 f   LIBCMT:secchk.obj
 0001:0003c0a7       ??_V@YAXPAX@Z              1003d0a7 f   LIBCMT:delete_array.obj
 0001:0003c171       __Init_thread_footer       1003d171 f   LIBCMT:thread_safe_statics.obj
 0001:0003c1bb       __Init_thread_header       1003d1bb f   LIBCMT:thread_safe_statics.obj
 0001:0003c20d       __Init_thread_notify       1003d20d f   LIBCMT:thread_safe_statics.obj
 0001:0003c243       __Init_thread_wait         1003d243 f   LIBCMT:thread_safe_statics.obj
 0001:0003c291       ??_U@YAPAXI@Z              1003d291 f   LIBCMT:new_array.obj
 0001:0003c29a       ??2@YAPAXI@Z               1003d29a f   LIBCMT:new_scalar.obj
 0001:0003c2ca       ??3@YAXPAXI@Z              1003d2ca f   LIBCMT:delete_scalar_size.obj
 0001:0003c2d8       ??_Etype_info@@UAEPAXI@Z   1003d2d8 f i LIBCMT:std_type_info_static.obj
 0001:0003c2d8       ??_Gtype_info@@UAEPAXI@Z   1003d2d8 f i LIBCMT:std_type_info_static.obj
 0001:0003c33f       ___scrt_acquire_startup_lock 1003d33f f   LIBCMT:utility.obj
 0001:0003c371       ___scrt_dllmain_after_initialize_c 1003d371 f   LIBCMT:utility.obj
 0001:0003c39c       ___scrt_dllmain_before_initialize_c 1003d39c f   LIBCMT:utility.obj
 0001:0003c3aa       ___scrt_dllmain_crt_thread_attach 1003d3aa f   LIBCMT:utility.obj
 0001:0003c3c9       ___scrt_dllmain_crt_thread_detach 1003d3c9 f   LIBCMT:utility.obj
 0001:0003c3d6       ___scrt_dllmain_exception_filter 1003d3d6 f   LIBCMT:utility.obj
 0001:0003c40a       ___scrt_dllmain_uninitialize_c 1003d40a f   LIBCMT:utility.obj
 0001:0003c42d       ___scrt_dllmain_uninitialize_critical 1003d42d f   LIBCMT:utility.obj
 0001:0003c43a       ___scrt_initialize_crt     1003d43a f   LIBCMT:utility.obj
 0001:0003c473       ___scrt_initialize_onexit_tables 1003d473 f   LIBCMT:utility.obj
 0001:0003c4fa       ___scrt_is_nonwritable_in_current_image 1003d4fa f   LIBCMT:utility.obj
 0001:0003c58e       ___scrt_release_startup_lock 1003d58e f   LIBCMT:utility.obj
 0001:0003c5ab       ___scrt_uninitialize_crt   1003d5ab f   LIBCMT:utility.obj
 0001:0003c5d3       __onexit                   1003d5d3 f   LIBCMT:utility.obj
 0001:0003c600       _atexit                    1003d600 f   LIBCMT:utility.obj
 0001:0003c615       ??_M@YGXPAXIIP6EX0@Z@Z     1003d615 f   LIBCMT:ehvecdtr.obj
 0001:0003c69a       ?__ArrayUnwind@@YGXPAXIIP6EX0@Z@Z 1003d69a f   LIBCMT:ehvecdtr.obj
 0001:0003c72a       ??_L@YGXPAXIIP6EX0@Z1@Z    1003d72a f   LIBCMT:ehvecctr.obj
 0001:0003c79e       ___raise_securityfailure   1003d79e f   LIBCMT:gs_report.obj
 0001:0003c7c6       ___report_gsfailure        1003d7c6 f   LIBCMT:gs_report.obj
 0001:0003c8c0       ___report_rangecheckfailure 1003d8c0 f   LIBCMT:gs_report.obj
 0001:0003c8cc       ___report_securityfailure  1003d8cc f   LIBCMT:gs_report.obj
 0001:0003ccdb       __DllMainCRTStartup@12     1003dcdb f   LIBCMT:dll_dllmain.obj
 0001:0003ccfe       ??3@YAXPAX@Z               1003dcfe f   LIBCMT:delete_scalar.obj
 0001:0003cd03       __EH_epilog3               1003dd03 f   LIBCMT:ehprolg3.obj
 0001:0003cd17       __EH_prolog3               1003dd17 f   LIBCMT:ehprolg3.obj
 0001:0003cd4a       __EH_prolog3_catch         1003dd4a f   LIBCMT:ehprolg3.obj
 0001:0003cd80       __alloca_probe_16          1003dd80 f   LIBCMT:alloca16.obj
 0001:0003cd96       __alloca_probe_8           1003dd96     LIBCMT:alloca16.obj
 0001:0003cdb0       __allmul                   1003ddb0 f   LIBCMT:llmul.obj
 0001:0003cdf0       ___scrt_fastfail           1003ddf0 f   LIBCMT:utility_desktop.obj
 0001:0003cf0b       __crt_debugger_hook        1003df0b f   LIBCMT:utility_desktop.obj
 0001:0003cf13       ?__scrt_throw_std_bad_array_new_length@@YAXXZ 1003df13 f   LIBCMT:throw_bad_alloc.obj
 0001:0003cf30       ___isa_available_init      1003df30 f   LIBCMT:cpu_disp.obj
 0001:0003d101       __get_startup_argv_mode    1003e101 f   LIBCMT:argv_mode.obj
 0001:0003d105       ___scrt_is_ucrt_dll_in_use 1003e105 f   LIBCMT:ucrt_detection.obj
 0001:0003d120       __SEH_prolog4              1003e120 f   LIBCMT:sehprolg4.obj
 0001:0003d1b2       ___security_init_cookie    1003e1b2 f   LIBCMT:gs_support.obj
 0001:0003d1fd       ?__scrt_initialize_type_info@@YAXXZ 1003e1fd f   LIBCMT:tncleanup.obj
 0001:0003d209       ?__scrt_uninitialize_type_info@@YAXXZ 1003e209 f   LIBCMT:tncleanup.obj
 0001:0003d215       ___local_stdio_scanf_options 1003e215 f i LIBCMT:default_local_stdio_options.obj
 0001:0003d21b       ___scrt_initialize_default_local_stdio_options 1003e21b f   LIBCMT:default_local_stdio_options.obj
 0001:0003d238       ___scrt_get_dyn_tls_init_callback 1003e238 f   LIBCMT:dyn_tls_init.obj
 0001:0003d23e       __RTC_Initialize           1003e23e f   LIBCMT:initsect.obj
 0001:0003d26a       __RTC_Terminate            1003e26a f   LIBCMT:initsect.obj
 0001:0003d2a0       __chkstk                   1003e2a0 f   LIBCMT:chkstk.obj
 0001:0003d2a0       __alloca_probe             1003e2a0 f   LIBCMT:chkstk.obj
 0001:0003d2cb       ?GetRangeOfTrysToCheck@__FrameHandler3@@SA?AU?$pair@Viterator@TryBlockMap@__FrameHandler3@@V123@@std@@AAVTryBlockMap@1@HPAXPBU_s_FuncInfo@@H@Z 1003e2cb f   libvcruntime:trnsctrl.obj
 0001:0003d33b       ?_CallCatchBlock2@@YAPAXPAUEHRegistrationNode@@PBU_s_FuncInfo@@PAXHK@Z 1003e33b f   libvcruntime:trnsctrl.obj
 0001:0003d398       ?_CallSETranslator@@YAHPAUEHExceptionRecord@@PAUEHRegistrationNode@@PAX2PBU_s_FuncInfo@@H1@Z 1003e398 f   libvcruntime:trnsctrl.obj
 0001:0003d48e       ?_JumpToContinuation@@YGXPAXPAUEHRegistrationNode@@@Z 1003e48e f   libvcruntime:trnsctrl.obj
 0001:0003d4be       ?_UnwindNestedFrames@@YGXPAUEHRegistrationNode@@PAUEHExceptionRecord@@@Z 1003e4be f   libvcruntime:trnsctrl.obj
 0001:0003d511       __CatchGuardHandler        1003e511 f   libvcruntime:trnsctrl.obj
 0001:0003d542       __CreateFrameInfo          1003e542 f   libvcruntime:trnsctrl.obj
 0001:0003d566       __FindAndUnlinkFrame       1003e566 f   libvcruntime:trnsctrl.obj
 0001:0003d5ae       __TranslatorGuardHandler   1003e5ae f   libvcruntime:trnsctrl.obj
 0001:0003d64b       ___CxxFrameHandler3        1003e64b f   libvcruntime:trnsctrl.obj
 0001:0003d681       ___DestructExceptionObject 1003e681 f   libvcruntime:ehhelpers.obj
 0001:0003d77a       __IsExceptionObjectToBeDestroyed 1003e77a f   libvcruntime:ehhelpers.obj
 0001:0003d7a0       ___AdjustPointer           1003e7a0 f   libvcruntime:ehhelpers.obj
 0001:0003d7c5       ___FrameUnwindFilter       1003e7c5 f   libvcruntime:ehhelpers.obj
 0001:0003d81b       ___current_exception       1003e81b f   libvcruntime:ehhelpers.obj
 0001:0003d824       ___current_exception_context 1003e824 f   libvcruntime:ehhelpers.obj
 0001:0003d82d       ___std_terminate           1003e82d f   libvcruntime:ehhelpers.obj
 0001:0003d840       _strstr                    1003e840 f   libvcruntime:strstr.obj
 0001:0003daab       ___std_exception_copy      1003eaab f   libvcruntime:std_exception.obj
 0001:0003db0e       ___std_exception_destroy   1003eb0e f   libvcruntime:std_exception.obj
 0001:0003db2d       __get_purecall_handler     1003eb2d f   libvcruntime:purevirt.obj
 0001:0003db33       __purecall                 1003eb33 f   libvcruntime:purevirt.obj
 0001:0003db50       _memset                    1003eb50 f   libvcruntime:memset.obj
 0001:0003dcb0       __NLG_Notify1              1003ecb0 f   libvcruntime:exsup.obj
 0001:0003dcc0       __NLG_Notify               1003ecc0 f   libvcruntime:exsup.obj
 0001:0003dcd7       __NLG_Dispatch             1003ecd7     libvcruntime:exsup.obj
 0001:0003dcd7       __NLG_Dispatch2            1003ecd7     libvcruntime:exsup.obj
 0001:0003dce0       __NLG_Call                 1003ece0 f   libvcruntime:exsup.obj
 0001:0003dce2       __NLG_Return2              1003ece2     libvcruntime:exsup.obj
 0001:0003dcf8       _memcmp                    1003ecf8 f   libvcruntime:memcmp.obj
 0001:0003ec10       _memmove                   1003fc10 f   libvcruntime:memmove.obj
 0001:0003ec10       _memcpy                    1003fc10 f   libvcruntime:memcpy.obj
 0001:0003f184       __CxxThrowException@8      10040184 f   libvcruntime:throw.obj
 0001:0003f1f0       ___uncaught_exception      100401f0 f   libvcruntime:uncaught_exception.obj
 0001:0003f210       _memchr                    10040210 f   libvcruntime:memchr.obj
 0001:0003f2c0       ___vcrt_initialize         100402c0 f   libvcruntime:initialization.obj
 0001:0003f2df       ___vcrt_thread_attach      100402df f   libvcruntime:initialization.obj
 0001:0003f2ea       ___vcrt_thread_detach      100402ea f   libvcruntime:initialization.obj
 0001:0003f2f5       ___vcrt_uninitialize       100402f5 f   libvcruntime:initialization.obj
 0001:0003f30c       ___vcrt_uninitialize_critical 1004030c f   libvcruntime:initialization.obj
 0001:0003f360       __except_handler4          10040360 f   libvcruntime:chandler4.obj
 0001:0003f4be       ___std_type_info_compare   100404be f   libvcruntime:std_type_info.obj
 0001:0003f4fa       ___std_type_info_destroy_list 100404fa f   libvcruntime:std_type_info.obj
 0001:0003f51d       ___vcrt_freefls@4          1004051d f   libvcruntime:per_thread_data.obj
 0001:0003f539       ___vcrt_freeptd            10040539 f   libvcruntime:per_thread_data.obj
 0001:0003f56f       ___vcrt_getptd             1004056f f   libvcruntime:per_thread_data.obj
 0001:0003f57d       ___vcrt_getptd_noexit      1004057d f   libvcruntime:per_thread_data.obj
 0001:0003f60f       ___vcrt_getptd_noinit      1004060f f   libvcruntime:per_thread_data.obj
 0001:0003f646       ___vcrt_initialize_ptd     10040646 f   libvcruntime:per_thread_data.obj
 0001:0003f679       ___vcrt_uninitialize_ptd   10040679 f   libvcruntime:per_thread_data.obj
 0001:0003fdcb       ??$TypeMatchHelper@V__FrameHandler3@@@@YAHPBU_s_HandlerType@@PBU_s_CatchableType@@PBU_s_ThrowInfo@@@Z 10040dcb f i libvcruntime:frame.obj
 0001:0003fe59       ??$__InternalCxxFrameHandler@V__FrameHandler3@@@@YA?AW4_EXCEPTION_DISPOSITION@@PAUEHExceptionRecord@@PAUEHRegistrationNode@@PAU_CONTEXT@@PAXPBU_s_FuncInfo@@H1E@Z 10040e59 f i libvcruntime:frame.obj
 0001:0003ff5b       ??8type_info@@QBE_NABV0@@Z 10040f5b f i libvcruntime:frame.obj
 0001:000401c7       ?FrameUnwindToEmptyState@__FrameHandler3@@SAXPAUEHRegistrationNode@@PAXPBU_s_FuncInfo@@@Z 100411c7 f   libvcruntime:frame.obj
 0001:000401df       ?FrameUnwindToState@__FrameHandler3@@SAXPAUEHRegistrationNode@@PAXPBU_s_FuncInfo@@H@Z 100411df f   libvcruntime:frame.obj
 0001:00040361       ?getESTypes@__FrameHandler3@@SAPBU_s_ESTypeList@@PBU_s_FuncInfo@@@Z 10041361 f i libvcruntime:frame.obj
 0001:00040370       __CallSettingFrame@12      10041370 f   libvcruntime:lowhelpr.obj
 0001:00040397       __NLG_Return               10041397     libvcruntime:lowhelpr.obj
 0001:000403bc       ___except_validate_context_record 100413bc f   libvcruntime:jbcxrval.obj
 0001:000403f0       _strchr                    100413f0 f   libvcruntime:strchr.obj
 0001:0004045e       ___from_strstr_to_strchr   1004145e     libvcruntime:strchr.obj
 0001:0004051b       ___vcrt_initialize_locks   1004151b f   libvcruntime:locks.obj
 0001:00040557       ___vcrt_uninitialize_locks 10041557 f   libvcruntime:locks.obj
 0001:00040590       __local_unwind4            10041590 f   libvcruntime:exsup4.obj
 0001:00040680       @_EH4_CallFilterFunc@8     10041680 f   libvcruntime:exsup4.obj
 0001:000406a0       @_EH4_TransferToHandler@8  100416a0 f   libvcruntime:exsup4.obj
 0001:000406c0       @_EH4_GlobalUnwind2@8      100416c0 f   libvcruntime:exsup4.obj
 0001:000406e0       @_EH4_LocalUnwind@16       100416e0 f   libvcruntime:exsup4.obj
 0001:000407da       ___vcrt_FlsAlloc           100417da f   libvcruntime:winapi_downlevel.obj
 0001:00040815       ___vcrt_FlsFree            10041815 f   libvcruntime:winapi_downlevel.obj
 0001:00040850       ___vcrt_FlsGetValue        10041850 f   libvcruntime:winapi_downlevel.obj
 0001:0004088b       ___vcrt_FlsSetValue        1004188b f   libvcruntime:winapi_downlevel.obj
 0001:000408c9       ___vcrt_InitializeCriticalSectionEx 100418c9 f   libvcruntime:winapi_downlevel.obj
 0001:00040910       _unexpected                10041910 f   libvcruntime:unexpected.obj
 0001:0004092d       ?GetCurrentState@__FrameHandler3@@SAHPAUEHRegistrationNode@@PAXPBU_s_FuncInfo@@@Z 1004192d f   libvcruntime:ehstate.obj
 0001:0004094a       ?SetState@__FrameHandler3@@SAXPAUEHRegistrationNode@@PBU_s_FuncInfo@@H@Z 1004194a f   libvcruntime:ehstate.obj
 0001:00040c3f       ___acrt_initialize_thread_local_exit_callback 10041c3f f   libucrt:exit.obj
 0001:00040c4e       __cexit                    10041c4e f   libucrt:exit.obj
 0001:00040c5d       __exit                     10041c5d f   libucrt:exit.obj
 0001:00040c73       __is_c_termination_complete 10041c73 f   libucrt:exit.obj
 0001:00040c7a       ??0__crt_cached_ptd_host@@QAE@QAU__crt_locale_pointers@@@Z 10041c7a f i libucrt:invalid_parameter.obj
 0001:00040cc2       ??1__crt_cached_ptd_host@@QAE@XZ 10041cc2 f i libucrt:invalid_parameter.obj
 0001:00040cfe       ?check_synchronize_global_state_index@__crt_cached_ptd_host@@AAEIXZ 10041cfe f i libucrt:invalid_parameter.obj
 0001:00040d27       ?force_synchronize_per_thread_data@__crt_cached_ptd_host@@AAEPAU__acrt_ptd@@XZ 10041d27 f i libucrt:invalid_parameter.obj
 0001:00040d6d       ?get_raw_ptd@__crt_cached_ptd_host@@QAEPAU__acrt_ptd@@XZ 10041d6d f i libucrt:invalid_parameter.obj
 0001:00040d8a       ___acrt_call_reportfault   10041d8a f   libucrt:invalid_parameter.obj
 0001:00040ec3       ___acrt_initialize_invalid_parameter_handler 10041ec3 f   libucrt:invalid_parameter.obj
 0001:00040ed2       __invalid_parameter        10041ed2 f   libucrt:invalid_parameter.obj
 0001:00040f09       __invalid_parameter_internal 10041f09 f   libucrt:invalid_parameter.obj
 0001:00040f86       __invalid_parameter_noinfo 10041f86 f   libucrt:invalid_parameter.obj
 0001:00040f96       __invalid_parameter_noinfo_noreturn 10041f96 f   libucrt:invalid_parameter.obj
 0001:00040fb3       __invoke_watson            10041fb3 f   libucrt:invalid_parameter.obj
 0001:00040fe7       ??$is_overflow_condition@K@__crt_strtox@@YA_NIK@Z 10041fe7 f i libucrt:atox.obj
 0001:00041018       ??$parse_integer@KV?$c_string_character_source@D@__crt_strtox@@$00@__crt_strtox@@YAKAAV__crt_cached_ptd_host@@V?$c_string_character_source@D@0@H_N@Z 10042018 f i libucrt:atox.obj
 0001:0004125f       ??$parse_integer@KV?$c_string_character_source@_W@__crt_strtox@@$00@__crt_strtox@@YAKAAV__crt_cached_ptd_host@@V?$c_string_character_source@_W@0@H_N@Z 1004225f f i libucrt:atox.obj
 0001:00041869       ?unget@?$c_string_character_source@D@__crt_strtox@@QAEXD@Z 10042869 f i libucrt:atox.obj
 0001:00041892       ?unget@?$c_string_character_source@_W@__crt_strtox@@QAEX_W@Z 10042892 f i libucrt:atox.obj
 0001:000418c0       ?update_locale_slow@__crt_cached_ptd_host@@AAEXXZ 100428c0 f i libucrt:atox.obj
 0001:0004191b       ?validate@?$c_string_character_source@_W@__crt_strtox@@QBE_NXZ 1004291b f i libucrt:atox.obj
 0001:0004191b       ?validate@?$c_string_character_source@D@__crt_strtox@@QBE_NXZ 1004291b f i libucrt:atox.obj
 0001:00041936       ___acrt_locale_get_ctype_array_value 10042936 f i libucrt:atox.obj
 0001:00041958       __ischartype_l             10042958 f i libucrt:atox.obj
 0001:000419af       __wtol                     100429af f   libucrt:atox.obj
 0001:000419ee       _atoi                      100429ee f   libucrt:atox.obj
 0001:00041a2d       ??$assemble_floating_point_snan@N@__crt_strtox@@YAX_NAAN@Z 10042a2d f i libucrt:atof.obj
 0001:00041a4e       ??$assemble_floating_point_value_t@M@__crt_strtox@@YA?AW4SLD_STATUS@@_NH_KAAM@Z 10042a4e f i libucrt:atof.obj
 0001:00041a7e       ??$assemble_floating_point_value_t@N@__crt_strtox@@YA?AW4SLD_STATUS@@_NH_KAAN@Z 10042a7e f i libucrt:atof.obj
 0001:00041b24       ??$convert_decimal_string_to_floating_type@N@__crt_strtox@@YA?AW4SLD_STATUS@@ABUfloating_point_string@0@AAN@Z 10042b24 f i libucrt:atof.obj
 0001:00041b45       ??$convert_hexadecimal_string_to_floating_type@N@__crt_strtox@@YA?AW4SLD_STATUS@@ABUfloating_point_string@0@AAN@Z 10042b45 f i libucrt:atof.obj
 0001:00041b66       ??$parse_floating_point@V?$c_string_character_source@D@__crt_strtox@@N@__crt_strtox@@YA?AW4SLD_STATUS@@QAU__crt_locale_pointers@@V?$c_string_character_source@D@0@QAN@Z 10042b66 f i libucrt:atof.obj
 0001:00041be6       ??$parse_floating_point_from_source@V?$c_string_character_source@D@__crt_strtox@@@__crt_strtox@@YA?AW4floating_point_parse_result@0@QAU__crt_locale_pointers@@AAV?$c_string_character_source@D@0@AAUfloating_point_string@0@@Z 10042be6 f i libucrt:atof.obj
 0001:00041fde       ??$parse_floating_point_possible_infinity@DV?$c_string_character_source@D@__crt_strtox@@PBD@__crt_strtox@@YA?AW4floating_point_parse_result@0@AADAAV?$c_string_character_source@D@0@PBD@Z 10042fde f i libucrt:atof.obj
 0001:00042091       ??$parse_floating_point_possible_nan@DV?$c_string_character_source@D@__crt_strtox@@PBD@__crt_strtox@@YA?AW4floating_point_parse_result@0@AADAAV?$c_string_character_source@D@0@PBD@Z 10043091 f i libucrt:atof.obj
 0001:00042195       ??$parse_floating_point_possible_nan_is_ind@DV?$c_string_character_source@D@__crt_strtox@@@__crt_strtox@@YA_NAADAAV?$c_string_character_source@D@0@@Z 10043195 f i libucrt:atof.obj
 0001:000421d1       ??$parse_floating_point_possible_nan_is_snan@DV?$c_string_character_source@D@__crt_strtox@@@__crt_strtox@@YA_NAADAAV?$c_string_character_source@D@0@@Z 100431d1 f i libucrt:atof.obj
 0001:0004220d       ??$parse_floating_point_write_result@N@__crt_strtox@@YA?AW4SLD_STATUS@@W4floating_point_parse_result@0@ABUfloating_point_string@0@QAN@Z 1004320d f i libucrt:atof.obj
 0001:00042331       ??0_LocaleUpdate@@QAE@QAU__crt_locale_pointers@@@Z 10043331 f i libucrt:atof.obj
 0001:000423b4       ??R<lambda_e51f7abad2595a5950d3223319845217>@@QBE_NXZ 100433b4 f i libucrt:atof.obj
 0001:000423b4       ??R<lambda_32aa245da1b5b882fa96db788295c8b2>@@QBE_NXZ 100433b4 f i libucrt:atof.obj
 0001:000423b4       ??R<lambda_690cf26ff5d754c94c32cf642e9f01bc>@@QBE_NXZ 100433b4 f i libucrt:atof.obj
 0001:000423da       ?as_double@floating_point_value@__crt_strtox@@QBEAANXZ 100433da f i libucrt:atof.obj
 0001:000423ff       ?as_float@floating_point_value@__crt_strtox@@QBEAAMXZ 100433ff f i libucrt:atof.obj
 0001:00042424       ?assemble_floating_point_infinity@__crt_strtox@@YAX_NABVfloating_point_value@1@@Z 10043424 f i libucrt:atof.obj
 0001:00042464       ?assemble_floating_point_value@__crt_strtox@@YA?AW4SLD_STATUS@@_KH_N1ABVfloating_point_value@1@@Z 10043464 f i libucrt:atof.obj
 0001:000427b7       ?assemble_floating_point_value_from_big_integer@__crt_strtox@@YA?AW4SLD_STATUS@@ABUbig_integer@1@I_N1ABVfloating_point_value@1@@Z 100437b7 f i libucrt:atof.obj
 0001:00042949       ?assemble_floating_point_zero@__crt_strtox@@YAX_NABVfloating_point_value@1@@Z 10043949 f i libucrt:atof.obj
 0001:0004297e       ?convert_decimal_string_to_floating_type_common@__crt_strtox@@YA?AW4SLD_STATUS@@ABUfloating_point_string@1@ABVfloating_point_value@1@@Z 1004397e f i libucrt:atof.obj
 0001:0004469d       ?convert_hexadecimal_string_to_floating_type_common@__crt_strtox@@YA?AW4SLD_STATUS@@ABUfloating_point_string@1@ABVfloating_point_value@1@@Z 1004569d f i libucrt:atof.obj
 0001:00044743       ?denormal_mantissa_mask@floating_point_value@__crt_strtox@@QBE_KXZ 10045743 f i libucrt:atof.obj
 0001:00044760       ?divide@__crt_strtox@@YA_KAAUbig_integer@1@ABU21@@Z 10045760 f i libucrt:atof.obj
 0001:00044be8       ?normal_mantissa_mask@floating_point_value@__crt_strtox@@QBE_KXZ 10045be8 f i libucrt:atof.obj
 0001:00044bff       _atof                      10045bff f   libucrt:atof.obj
 0001:00045075       ??$count@D@formatting_buffer@__crt_stdio_output@@QBEIXZ 10046075 f i libucrt:output.obj
 0001:0004508d       ??$ensure_buffer_is_big_enough@D@formatting_buffer@__crt_stdio_output@@QAE_NIAAV__crt_cached_ptd_host@@@Z 1004608d f i libucrt:output.obj
 0001:0004510e       ??$is_wide_character_specifier@D@__crt_stdio_output@@YA_N_KDW4length_modifier@0@@Z 1004610e f i libucrt:output.obj
 0001:0004513f       ??$make_c_string_character_source@_WPAPA_W@__crt_strtox@@YA?AV?$c_string_character_source@_W@0@QB_WQAPA_W@Z 1004613f f i libucrt:output.obj
 0001:0004515a       ??$parse_integer@KV?$c_string_character_source@D@__crt_strtox@@$0A@@__crt_strtox@@YAKAAV__crt_cached_ptd_host@@V?$c_string_character_source@D@0@H_N@Z 1004615a f i libucrt:output.obj
 0001:00045369       ??$scratch_data@D@formatting_buffer@__crt_stdio_output@@QAEPADXZ 10046369 f i libucrt:output.obj
 0001:00045387       ??$type_case_integer@$07@?$output_processor@DV?$string_output_adapter@D@__crt_stdio_output@@V?$standard_base@DV?$string_output_adapter@D@__crt_stdio_output@@@2@@__crt_stdio_output@@AAE_N_N@Z 10046387 f i libucrt:output.obj
 0001:00045387       ??$type_case_integer@$07@?$output_processor@DV?$stream_output_adapter@D@__crt_stdio_output@@V?$standard_base@DV?$stream_output_adapter@D@__crt_stdio_output@@@2@@__crt_stdio_output@@AAE_N_N@Z 10046387 f i libucrt:output.obj
 0001:00045387       ??$type_case_integer@$07@?$output_processor@DV?$string_output_adapter@D@__crt_stdio_output@@V?$format_validation_base@DV?$string_output_adapter@D@__crt_stdio_output@@@2@@__crt_stdio_output@@AAE_N_N@Z 10046387 f i libucrt:output.obj
 0001:00045504       ??$type_case_integer@$09@?$output_processor@DV?$string_output_adapter@D@__crt_stdio_output@@V?$format_validation_base@DV?$string_output_adapter@D@__crt_stdio_output@@@2@@__crt_stdio_output@@AAE_N_N@Z 10046504 f i libucrt:output.obj
 0001:00045504       ??$type_case_integer@$09@?$output_processor@DV?$string_output_adapter@D@__crt_stdio_output@@V?$standard_base@DV?$string_output_adapter@D@__crt_stdio_output@@@2@@__crt_stdio_output@@AAE_N_N@Z 10046504 f i libucrt:output.obj
 0001:00045504       ??$type_case_integer@$09@?$output_processor@DV?$stream_output_adapter@D@__crt_stdio_output@@V?$standard_base@DV?$stream_output_adapter@D@__crt_stdio_output@@@2@@__crt_stdio_output@@AAE_N_N@Z 10046504 f i libucrt:output.obj
 0001:00045681       ??$type_case_integer@$0BA@@?$output_processor@DV?$string_output_adapter@D@__crt_stdio_output@@V?$format_validation_base@DV?$string_output_adapter@D@__crt_stdio_output@@@2@@__crt_stdio_output@@AAE_N_N@Z 10046681 f i libucrt:output.obj
 0001:00045681       ??$type_case_integer@$0BA@@?$output_processor@DV?$string_output_adapter@D@__crt_stdio_output@@V?$standard_base@DV?$string_output_adapter@D@__crt_stdio_output@@@2@@__crt_stdio_output@@AAE_N_N@Z 10046681 f i libucrt:output.obj
 0001:00045681       ??$type_case_integer@$0BA@@?$output_processor@DV?$stream_output_adapter@D@__crt_stdio_output@@V?$standard_base@DV?$stream_output_adapter@D@__crt_stdio_output@@@2@@__crt_stdio_output@@AAE_N_N@Z 10046681 f i libucrt:output.obj
 0001:000457fe       ??$type_case_integer_parse_into_buffer@I$07@?$output_processor@DV?$string_output_adapter@D@__crt_stdio_output@@V?$format_validation_base@DV?$string_output_adapter@D@__crt_stdio_output@@@2@@__crt_stdio_output@@AAEXI_N@Z 100467fe f i libucrt:output.obj
 0001:000457fe       ??$type_case_integer_parse_into_buffer@I$07@?$output_processor@DV?$stream_output_adapter@D@__crt_stdio_output@@V?$standard_base@DV?$stream_output_adapter@D@__crt_stdio_output@@@2@@__crt_stdio_output@@AAEXI_N@Z 100467fe f i libucrt:output.obj
 0001:000457fe       ??$type_case_integer_parse_into_buffer@I$07@?$output_processor@DV?$string_output_adapter@D@__crt_stdio_output@@V?$standard_base@DV?$string_output_adapter@D@__crt_stdio_output@@@2@@__crt_stdio_output@@AAEXI_N@Z 100467fe f i libucrt:output.obj
 0001:00045868       ??$type_case_integer_parse_into_buffer@I$09@?$output_processor@DV?$string_output_adapter@D@__crt_stdio_output@@V?$format_validation_base@DV?$string_output_adapter@D@__crt_stdio_output@@@2@@__crt_stdio_output@@AAEXI_N@Z 10046868 f i libucrt:output.obj
 0001:00045868       ??$type_case_integer_parse_into_buffer@I$09@?$output_processor@DV?$string_output_adapter@D@__crt_stdio_output@@V?$standard_base@DV?$string_output_adapter@D@__crt_stdio_output@@@2@@__crt_stdio_output@@AAEXI_N@Z 10046868 f i libucrt:output.obj
 0001:00045868       ??$type_case_integer_parse_into_buffer@I$09@?$output_processor@DV?$stream_output_adapter@D@__crt_stdio_output@@V?$standard_base@DV?$stream_output_adapter@D@__crt_stdio_output@@@2@@__crt_stdio_output@@AAEXI_N@Z 10046868 f i libucrt:output.obj
 0001:000458e2       ??$type_case_integer_parse_into_buffer@I$0BA@@?$output_processor@DV?$string_output_adapter@D@__crt_stdio_output@@V?$standard_base@DV?$string_output_adapter@D@__crt_stdio_output@@@2@@__crt_stdio_output@@AAEXI_N@Z 100468e2 f i libucrt:output.obj
 0001:000458e2       ??$type_case_integer_parse_into_buffer@I$0BA@@?$output_processor@DV?$string_output_adapter@D@__crt_stdio_output@@V?$format_validation_base@DV?$string_output_adapter@D@__crt_stdio_output@@@2@@__crt_stdio_output@@AAEXI_N@Z 100468e2 f i libucrt:output.obj
 0001:000458e2       ??$type_case_integer_parse_into_buffer@I$0BA@@?$output_processor@DV?$stream_output_adapter@D@__crt_stdio_output@@V?$standard_base@DV?$stream_output_adapter@D@__crt_stdio_output@@@2@@__crt_stdio_output@@AAEXI_N@Z 100468e2 f i libucrt:output.obj
 0001:0004596a       ??$type_case_integer_parse_into_buffer@_K$07@?$output_processor@DV?$stream_output_adapter@D@__crt_stdio_output@@V?$standard_base@DV?$stream_output_adapter@D@__crt_stdio_output@@@2@@__crt_stdio_output@@AAEX_K_N@Z 1004696a f i libucrt:output.obj
 0001:0004596a       ??$type_case_integer_parse_into_buffer@_K$07@?$output_processor@DV?$string_output_adapter@D@__crt_stdio_output@@V?$format_validation_base@DV?$string_output_adapter@D@__crt_stdio_output@@@2@@__crt_stdio_output@@AAEX_K_N@Z 1004696a f i libucrt:output.obj
 0001:0004596a       ??$type_case_integer_parse_into_buffer@_K$07@?$output_processor@DV?$string_output_adapter@D@__crt_stdio_output@@V?$standard_base@DV?$string_output_adapter@D@__crt_stdio_output@@@2@@__crt_stdio_output@@AAEX_K_N@Z 1004696a f i libucrt:output.obj
 0001:000459e2       ??$type_case_integer_parse_into_buffer@_K$09@?$output_processor@DV?$stream_output_adapter@D@__crt_stdio_output@@V?$standard_base@DV?$stream_output_adapter@D@__crt_stdio_output@@@2@@__crt_stdio_output@@AAEX_K_N@Z 100469e2 f i libucrt:output.obj
 0001:000459e2       ??$type_case_integer_parse_into_buffer@_K$09@?$output_processor@DV?$string_output_adapter@D@__crt_stdio_output@@V?$format_validation_base@DV?$string_output_adapter@D@__crt_stdio_output@@@2@@__crt_stdio_output@@AAEX_K_N@Z 100469e2 f i libucrt:output.obj
 0001:000459e2       ??$type_case_integer_parse_into_buffer@_K$09@?$output_processor@DV?$string_output_adapter@D@__crt_stdio_output@@V?$standard_base@DV?$string_output_adapter@D@__crt_stdio_output@@@2@@__crt_stdio_output@@AAEX_K_N@Z 100469e2 f i libucrt:output.obj
 0001:00045a7e       ??$type_case_integer_parse_into_buffer@_K$0BA@@?$output_processor@DV?$string_output_adapter@D@__crt_stdio_output@@V?$standard_base@DV?$string_output_adapter@D@__crt_stdio_output@@@2@@__crt_stdio_output@@AAEX_K_N@Z 10046a7e f i libucrt:output.obj
 0001:00045a7e       ??$type_case_integer_parse_into_buffer@_K$0BA@@?$output_processor@DV?$stream_output_adapter@D@__crt_stdio_output@@V?$standard_base@DV?$stream_output_adapter@D@__crt_stdio_output@@@2@@__crt_stdio_output@@AAEX_K_N@Z 10046a7e f i libucrt:output.obj
 0001:00045a7e       ??$type_case_integer_parse_into_buffer@_K$0BA@@?$output_processor@DV?$string_output_adapter@D@__crt_stdio_output@@V?$format_validation_base@DV?$string_output_adapter@D@__crt_stdio_output@@@2@@__crt_stdio_output@@AAEX_K_N@Z 10046a7e f i libucrt:output.obj
 0001:00045b10       ??0?$output_adapter_data@DV?$string_output_adapter@D@__crt_stdio_output@@@__crt_stdio_output@@IAE@ABV?$string_output_adapter@D@1@_KQBDAAV__crt_cached_ptd_host@@QAD@Z 10046b10 f i libucrt:output.obj
 0001:00045b10       ??0?$output_adapter_data@DV?$stream_output_adapter@D@__crt_stdio_output@@@__crt_stdio_output@@IAE@ABV?$stream_output_adapter@D@1@_KQBDAAV__crt_cached_ptd_host@@QAD@Z 10046b10 f i libucrt:output.obj
 0001:00045b75       ??1formatting_buffer@__crt_stdio_output@@QAE@XZ 10046b75 f i libucrt:output.obj
 0001:00045b8f       ??4?$__crt_unique_heap_ptr@DU__crt_internal_free_policy@@@@QAEAAV0@$$QAV0@@Z 10046b8f f i libucrt:output.obj
 0001:00045c4f       ?crop_zeroes@__crt_stdio_output@@YAXPADQAU__crt_locale_pointers@@@Z 10046c4f f i libucrt:output.obj
 0001:00045caf       ?find_next_state@?$output_processor@DV?$string_output_adapter@D@__crt_stdio_output@@V?$standard_base@DV?$string_output_adapter@D@__crt_stdio_output@@@2@@__crt_stdio_output@@ABE?AW4state@2@DW432@@Z 10046caf f i libucrt:output.obj
 0001:00045caf       ?find_next_state@?$output_processor@DV?$stream_output_adapter@D@__crt_stdio_output@@V?$standard_base@DV?$stream_output_adapter@D@__crt_stdio_output@@@2@@__crt_stdio_output@@ABE?AW4state@2@DW432@@Z 10046caf f i libucrt:output.obj
 0001:00045cea       ?find_next_state@?$output_processor@DV?$string_output_adapter@D@__crt_stdio_output@@V?$format_validation_base@DV?$string_output_adapter@D@__crt_stdio_output@@@2@@__crt_stdio_output@@ABE?AW4state@2@DW432@@Z 10046cea f i libucrt:output.obj
 0001:00045d27       ?force_decimal_point@__crt_stdio_output@@YAXPADQAU__crt_locale_pointers@@@Z 10046d27 f i libucrt:output.obj
 0001:00045d83       ?parse_int_from_format_string@?$output_processor@DV?$string_output_adapter@D@__crt_stdio_output@@V?$standard_base@DV?$string_output_adapter@D@__crt_stdio_output@@@2@@__crt_stdio_output@@AAE_NQAH@Z 10046d83 f i libucrt:output.obj
 0001:00045d83       ?parse_int_from_format_string@?$output_processor@DV?$string_output_adapter@D@__crt_stdio_output@@V?$format_validation_base@DV?$string_output_adapter@D@__crt_stdio_output@@@2@@__crt_stdio_output@@AAE_NQAH@Z 10046d83 f i libucrt:output.obj
 0001:00045d83       ?parse_int_from_format_string@?$output_processor@DV?$stream_output_adapter@D@__crt_stdio_output@@V?$standard_base@DV?$stream_output_adapter@D@__crt_stdio_output@@@2@@__crt_stdio_output@@AAE_NQAH@Z 10046d83 f i libucrt:output.obj
 0001:00045dfb       ?process@?$output_processor@DV?$stream_output_adapter@D@__crt_stdio_output@@V?$standard_base@DV?$stream_output_adapter@D@__crt_stdio_output@@@2@@__crt_stdio_output@@QAEHXZ 10046dfb f i libucrt:output.obj
 0001:000460a7       ?process@?$output_processor@DV?$string_output_adapter@D@__crt_stdio_output@@V?$format_validation_base@DV?$string_output_adapter@D@__crt_stdio_output@@@2@@__crt_stdio_output@@QAEHXZ 100470a7 f i libucrt:output.obj
 0001:00046387       ?process@?$output_processor@DV?$string_output_adapter@D@__crt_stdio_output@@V?$standard_base@DV?$string_output_adapter@D@__crt_stdio_output@@@2@@__crt_stdio_output@@QAEHXZ 10047387 f i libucrt:output.obj
 0001:0004665b       ?state_case_size@?$output_processor@DV?$stream_output_adapter@D@__crt_stdio_output@@V?$standard_base@DV?$stream_output_adapter@D@__crt_stdio_output@@@2@@__crt_stdio_output@@AAE_NXZ 1004765b f i libucrt:output.obj
 0001:000467b9       ?state_case_size@?$output_processor@DV?$string_output_adapter@D@__crt_stdio_output@@V?$standard_base@DV?$string_output_adapter@D@__crt_stdio_output@@@2@@__crt_stdio_output@@AAE_NXZ 100477b9 f i libucrt:output.obj
 0001:000467b9       ?state_case_size@?$output_processor@DV?$string_output_adapter@D@__crt_stdio_output@@V?$format_validation_base@DV?$string_output_adapter@D@__crt_stdio_output@@@2@@__crt_stdio_output@@AAE_NXZ 100477b9 f i libucrt:output.obj
 0001:00046917       ?state_case_type@?$output_processor@DV?$stream_output_adapter@D@__crt_stdio_output@@V?$standard_base@DV?$stream_output_adapter@D@__crt_stdio_output@@@2@@__crt_stdio_output@@AAE_NXZ 10047917 f i libucrt:output.obj
 0001:00046c5f       ?state_case_type@?$output_processor@DV?$string_output_adapter@D@__crt_stdio_output@@V?$standard_base@DV?$string_output_adapter@D@__crt_stdio_output@@@2@@__crt_stdio_output@@AAE_NXZ 10047c5f f i libucrt:output.obj
 0001:00046c5f       ?state_case_type@?$output_processor@DV?$string_output_adapter@D@__crt_stdio_output@@V?$format_validation_base@DV?$string_output_adapter@D@__crt_stdio_output@@@2@@__crt_stdio_output@@AAE_NXZ 10047c5f f i libucrt:output.obj
 0001:00046ff0       ?to_integer_size@__crt_stdio_output@@YAIW4length_modifier@1@@Z 10047ff0 f i libucrt:output.obj
 0001:00047044       ?type_case_Z@?$output_processor@DV?$string_output_adapter@D@__crt_stdio_output@@V?$standard_base@DV?$string_output_adapter@D@__crt_stdio_output@@@2@@__crt_stdio_output@@AAE_NXZ 10048044 f i libucrt:output.obj
 0001:00047044       ?type_case_Z@?$output_processor@DV?$stream_output_adapter@D@__crt_stdio_output@@V?$standard_base@DV?$stream_output_adapter@D@__crt_stdio_output@@@2@@__crt_stdio_output@@AAE_NXZ 10048044 f i libucrt:output.obj
 0001:00047044       ?type_case_Z@?$output_processor@DV?$string_output_adapter@D@__crt_stdio_output@@V?$format_validation_base@DV?$string_output_adapter@D@__crt_stdio_output@@@2@@__crt_stdio_output@@AAE_NXZ 10048044 f i libucrt:output.obj
 0001:0004709e       ?type_case_a@?$output_processor@DV?$stream_output_adapter@D@__crt_stdio_output@@V?$standard_base@DV?$stream_output_adapter@D@__crt_stdio_output@@@2@@__crt_stdio_output@@AAE_NXZ 1004809e f i libucrt:output.obj
 0001:0004709e       ?type_case_a@?$output_processor@DV?$string_output_adapter@D@__crt_stdio_output@@V?$standard_base@DV?$string_output_adapter@D@__crt_stdio_output@@@2@@__crt_stdio_output@@AAE_NXZ 1004809e f i libucrt:output.obj
 0001:0004709e       ?type_case_a@?$output_processor@DV?$string_output_adapter@D@__crt_stdio_output@@V?$format_validation_base@DV?$string_output_adapter@D@__crt_stdio_output@@@2@@__crt_stdio_output@@AAE_NXZ 1004809e f i libucrt:output.obj
 0001:00047228       ?type_case_c_tchar@?$output_processor@DV?$string_output_adapter@D@__crt_stdio_output@@V?$format_validation_base@DV?$string_output_adapter@D@__crt_stdio_output@@@2@@__crt_stdio_output@@AAE_ND@Z 10048228 f i libucrt:output.obj
 0001:00047228       ?type_case_c_tchar@?$output_processor@DV?$string_output_adapter@D@__crt_stdio_output@@V?$standard_base@DV?$string_output_adapter@D@__crt_stdio_output@@@2@@__crt_stdio_output@@AAE_ND@Z 10048228 f i libucrt:output.obj
 0001:00047228       ?type_case_c_tchar@?$output_processor@DV?$stream_output_adapter@D@__crt_stdio_output@@V?$standard_base@DV?$stream_output_adapter@D@__crt_stdio_output@@@2@@__crt_stdio_output@@AAE_ND@Z 10048228 f i libucrt:output.obj
 0001:000472bd       ?type_case_n@?$output_processor@DV?$string_output_adapter@D@__crt_stdio_output@@V?$format_validation_base@DV?$string_output_adapter@D@__crt_stdio_output@@@2@@__crt_stdio_output@@AAE_NXZ 100482bd f i libucrt:output.obj
 0001:000472bd       ?type_case_n@?$output_processor@DV?$stream_output_adapter@D@__crt_stdio_output@@V?$standard_base@DV?$stream_output_adapter@D@__crt_stdio_output@@@2@@__crt_stdio_output@@AAE_NXZ 100482bd f i libucrt:output.obj
 0001:000472bd       ?type_case_n@?$output_processor@DV?$string_output_adapter@D@__crt_stdio_output@@V?$standard_base@DV?$string_output_adapter@D@__crt_stdio_output@@@2@@__crt_stdio_output@@AAE_NXZ 100482bd f i libucrt:output.obj
 0001:00047341       ?type_case_o@?$output_processor@DV?$string_output_adapter@D@__crt_stdio_output@@V?$standard_base@DV?$string_output_adapter@D@__crt_stdio_output@@@2@@__crt_stdio_output@@AAE_NXZ 10048341 f i libucrt:output.obj
 0001:00047341       ?type_case_o@?$output_processor@DV?$stream_output_adapter@D@__crt_stdio_output@@V?$standard_base@DV?$stream_output_adapter@D@__crt_stdio_output@@@2@@__crt_stdio_output@@AAE_NXZ 10048341 f i libucrt:output.obj
 0001:00047341       ?type_case_o@?$output_processor@DV?$string_output_adapter@D@__crt_stdio_output@@V?$format_validation_base@DV?$string_output_adapter@D@__crt_stdio_output@@@2@@__crt_stdio_output@@AAE_NXZ 10048341 f i libucrt:output.obj
 0001:0004735e       ?type_case_p@?$output_processor@DV?$stream_output_adapter@D@__crt_stdio_output@@V?$standard_base@DV?$stream_output_adapter@D@__crt_stdio_output@@@2@@__crt_stdio_output@@AAE_NXZ 1004835e f i libucrt:output.obj
 0001:0004735e       ?type_case_p@?$output_processor@DV?$string_output_adapter@D@__crt_stdio_output@@V?$standard_base@DV?$string_output_adapter@D@__crt_stdio_output@@@2@@__crt_stdio_output@@AAE_NXZ 1004835e f i libucrt:output.obj
 0001:0004735e       ?type_case_p@?$output_processor@DV?$string_output_adapter@D@__crt_stdio_output@@V?$format_validation_base@DV?$string_output_adapter@D@__crt_stdio_output@@@2@@__crt_stdio_output@@AAE_NXZ 1004835e f i libucrt:output.obj
 0001:00047374       ?type_case_s@?$output_processor@DV?$stream_output_adapter@D@__crt_stdio_output@@V?$standard_base@DV?$stream_output_adapter@D@__crt_stdio_output@@@2@@__crt_stdio_output@@AAE_NXZ 10048374 f i libucrt:output.obj
 0001:00047374       ?type_case_s@?$output_processor@DV?$string_output_adapter@D@__crt_stdio_output@@V?$standard_base@DV?$string_output_adapter@D@__crt_stdio_output@@@2@@__crt_stdio_output@@AAE_NXZ 10048374 f i libucrt:output.obj
 0001:00047374       ?type_case_s@?$output_processor@DV?$string_output_adapter@D@__crt_stdio_output@@V?$format_validation_base@DV?$string_output_adapter@D@__crt_stdio_output@@@2@@__crt_stdio_output@@AAE_NXZ 10048374 f i libucrt:output.obj
 0001:000473e5       ?validate@?$stream_output_adapter@D@__crt_stdio_output@@QBE_NAAV__crt_cached_ptd_host@@@Z 100483e5 f i libucrt:output.obj
 0001:0004741d       ?validate@?$string_output_adapter@D@__crt_stdio_output@@QBE_NAAV__crt_cached_ptd_host@@@Z 1004841d f i libucrt:output.obj
 0001:0004744e       ?validate_stream_is_ansi_if_required@?$__acrt_stdio_char_traits@D@@SA_NQAU_iobuf@@@Z 1004844e f i libucrt:output.obj
 0001:000474d5       ?write_character@?$output_adapter_common@DV?$stream_output_adapter@D@__crt_stdio_output@@@__crt_stdio_output@@QBEXDQAHAAV__crt_cached_ptd_host@@@Z 100484d5 f i libucrt:output.obj
 0001:000474f7       ?write_character_without_count_update@?$stream_output_adapter@D@__crt_stdio_output@@QBE_NDAAV__crt_cached_ptd_host@@@Z 100484f7 f i libucrt:output.obj
 0001:00047531       ?write_string@?$stream_output_adapter@D@__crt_stdio_output@@QBEXQBDHQAHAAV__crt_cached_ptd_host@@@Z 10048531 f i libucrt:output.obj
 0001:0004755d       ?write_string@?$string_output_adapter@D@__crt_stdio_output@@QBEXQBDHQAHAAV__crt_cached_ptd_host@@@Z 1004855d f i libucrt:output.obj
 0001:000475c4       ?write_string_impl@?$output_adapter_common@DV?$stream_output_adapter@D@__crt_stdio_output@@@__crt_stdio_output@@IBEXQBDHQAHAAV__crt_cached_ptd_host@@@Z 100485c4 f i libucrt:output.obj
 0001:00047643       ___stdio_common_vfprintf   10048643 f   libucrt:output.obj
 0001:000476e7       ___stdio_common_vsprintf   100486e7 f   libucrt:output.obj
 0001:00047728       ___stdio_common_vsprintf_s 10048728 f   libucrt:output.obj
 0001:00047769       _rand                      10048769 f   libucrt:rand.obj
 0001:0004778a       _strcpy_s                  1004878a f   libucrt:strcpy_s.obj
 0001:000477e4       _strcat_s                  100487e4 f   libucrt:strcat_s.obj
 0001:0004784f       ??$__acrt_convert_wcs_mbs_cp@D_WV<lambda_62f6974d9771e494a5ea317cc32e971c>@@U__crt_win32_buffer_internal_dynamic_resizing@@@@YAHQBDAAV?$__crt_win32_buffer@_WU__crt_win32_buffer_internal_dynamic_resizing@@@@ABV<lambda_62f6974d9771e494a5ea317cc32e971c>@@I@Z 1004884f f i libucrt:access.obj
 0001:00047901       ??$__acrt_mbs_to_wcs_cp@U__crt_win32_buffer_internal_dynamic_resizing@@@@YAHQBDAAV?$__crt_win32_buffer@_WU__crt_win32_buffer_internal_dynamic_resizing@@@@I@Z 10048901 f i libucrt:access.obj
 0001:0004791e       ?__acrt_get_utf8_acp_compatibility_codepage@@YAIXZ 1004891e f i libucrt:access.obj
 0001:0004795d       ?_deallocate@?$__crt_win32_buffer@_WU__crt_win32_buffer_internal_dynamic_resizing@@@@AAEXXZ 1004895d f i libucrt:access.obj
 0001:0004795d       ?_deallocate@?$__crt_win32_buffer@DU__crt_win32_buffer_internal_dynamic_resizing@@@@AAEXXZ 1004895d f i libucrt:argv_wildcards.obj
 0001:00047977       ?allocate@?$__crt_win32_buffer@_WU__crt_win32_buffer_internal_dynamic_resizing@@@@QAEHI@Z 10048977 f i libucrt:access.obj
 0001:000479b6       ?allocate@__crt_win32_buffer_internal_dynamic_resizing@@SAHQAPAXIABV__crt_win32_buffer_empty_debug_info@@@Z 100489b6 f i libucrt:access.obj
 0001:000479d5       __access                   100489d5 f   libucrt:access.obj
 0001:000479ed       __access_s                 100489ed f   libucrt:access.obj
 0001:00047a5f       ___acrt_initialize_stdio   10048a5f f   libucrt:_file.obj
 0001:00047b27       ___acrt_iob_func           10048b27 f   libucrt:_file.obj
 0001:00047b37       ___acrt_uninitialize_stdio 10048b37 f   libucrt:_file.obj
 0001:00047b83       __get_stream_buffer_pointers 10048b83 f   libucrt:_file.obj
 0001:00047bc9       __lock_file                10048bc9 f   libucrt:_file.obj
 0001:00047bdd       __unlock_file              10048bdd f   libucrt:_file.obj
 0001:00047bf1       __toupper_l                10048bf1 f   libucrt:tolower_toupper.obj
 0001:00047cef       _toupper                   10048cef f   libucrt:tolower_toupper.obj
 0001:00047d20       _isalpha                   10048d20 f   libucrt:_ctype.obj
 0001:00047db0       _islower                   10048db0 f   libucrt:_ctype.obj
 0001:00047e40       _isspace                   10048e40 f   libucrt:_ctype.obj
 0001:00047ed0       _isupper                   10048ed0 f   libucrt:_ctype.obj
 0001:00047f54       __strnicmp                 10048f54 f   libucrt:strnicmp.obj
 0001:00047fc1       __strnicmp_l               10048fc1 f   libucrt:strnicmp.obj
 0001:0004808c       ___ascii_stricmp           1004908c f   libucrt:stricmp.obj
 0001:000480c5       __stricmp                  100490c5 f   libucrt:stricmp.obj
 0001:0004810e       __stricmp_l                1004910e f   libucrt:stricmp.obj
 0001:000482cb       __fputc_nolock_internal    100492cb f   libucrt:fputc.obj
 0001:000482f8       _fputc                     100492f8 f   libucrt:fputc.obj
 0001:00048569       ___acrt_stdio_flush_nolock 10049569 f   libucrt:fflush.obj
 0001:000485d2       __fflush_nolock            100495d2 f   libucrt:fflush.obj
 0001:00048637       __flushall                 10049637 f   libucrt:fflush.obj
 0001:00048640       _fflush                    10049640 f   libucrt:fflush.obj
 0001:000487ba       __fclose_nolock            100497ba f   libucrt:fclose.obj
 0001:000487ea       _fclose                    100497ea f   libucrt:fclose.obj
 0001:0004881a       __fgetc_nolock             1004981a f   libucrt:fgetc.obj
 0001:00048856       _fgetc                     10049856 f   libucrt:fgetc.obj
 0001:00048a09       __fwrite_internal          10049a09 f   libucrt:fwrite.obj
 0001:00048a80       __fwrite_nolock_internal   10049a80 f   libucrt:fwrite.obj
 0001:00048c2a       _fwrite                    10049c2a f   libucrt:fwrite.obj
 0001:00048c64       _fgetpos                   10049c64 f   libucrt:fgetpos.obj
 0001:00048e83       _setvbuf                   10049e83 f   libucrt:setvbuf.obj
 0001:00048ebd       _free                      10049ebd f   libucrt:free.obj
 0001:00048ed8       __ungetc_nolock            10049ed8 f   libucrt:ungetc.obj
 0001:00048fd1       _ungetc                    10049fd1 f   libucrt:ungetc.obj
 0001:00049044       _fsetpos                   1004a044 f   libucrt:fsetpos.obj
 0001:0004907f       __fread_nolock_s           1004a07f f   libucrt:fread.obj
 0001:00049265       _fread                     1004a265 f   libucrt:fread.obj
 0001:00049282       _fread_s                   1004a282 f   libucrt:fread.obj
 0001:0004931f       ?LongLongSub@@YAJ_J0PA_J@Z 1004a31f f i libucrt:fseek.obj
 0001:000495fa       __fseeki64                 1004a5fa f   libucrt:fseek.obj
 0001:00049634       _fseek                     1004a634 f   libucrt:fseek.obj
 0001:00049776       _freopen                   1004a776 f   libucrt:freopen.obj
 0001:0004979c       _calloc                    1004a79c f   libucrt:calloc.obj
 0001:000497a7       ??$__crt_time_elapsed_leap_years@_J@@YA_J_J@Z 1004a7a7 f i libucrt:mktime.obj
 0001:0004980b       ??$__crt_time_is_leap_year@_J@@YA_N_J@Z 1004a80b f i libucrt:mktime.obj
 0001:00049c20       __mktime64                 1004ac20 f   libucrt:mktime.obj
 0001:00049c40       _strcspn                   1004ac40 f   libucrt:strcspn.obj
 0001:00049c90       _strncpy                   1004ac90 f   libucrt:strncpy.obj
 0001:00049db4       _localeconv                1004adb4 f   libucrt:localeconv.obj
 0001:00049ddc       _frexp                     1004addc f   libucrt:frexp.obj
 0001:00049ee0       _strncat                   1004aee0 f   libucrt:strncat.obj
 0001:0004a020       _strcpy                    1004b020 f   libucrt:strcat.obj
 0001:0004a030       _strcat                    1004b030 f   libucrt:strcat.obj
 0001:0004a120       _strcmp                    1004b120 f   libucrt:strcmp.obj
 0001:0004a1ac       ___acrt_initialize_locks   1004b1ac f   libucrt:locks.obj
 0001:0004a1ed       ___acrt_lock               1004b1ed f   libucrt:locks.obj
 0001:0004a204       ___acrt_uninitialize_locks 1004b204 f   libucrt:locks.obj
 0001:0004a235       ___acrt_unlock             1004b235 f   libucrt:locks.obj
 0001:0004a24c       __lock_locales             1004b24c f   libucrt:locks.obj
 0001:0004a25a       __unlock_locales           1004b25a f   libucrt:locks.obj
 0001:0004a263       _malloc                    1004b263 f   libucrt:malloc.obj
 0001:0004a4c3       _setlocale                 1004b4c3 f   libucrt:setlocale.obj
 0001:0004a5b2       __fsopen                   1004b5b2 f   libucrt:fopen.obj
 0001:0004a5bd       ___pctype_func             1004b5bd f   libucrt:ctype.obj
 0001:0004a5e1       ____lc_codepage_func       1004b5e1 f   libucrt:initctype.obj
 0001:0004a606       ____lc_locale_name_func    1004b606 f   libucrt:initctype.obj
 0001:0004a62d       ____mb_cur_max_func        1004b62d f   libucrt:initctype.obj
 0001:0004a652       ___acrt_locale_initialize_ctype 1004b652 f   libucrt:initctype.obj
 0001:0004aaaf       __wcsdup                   1004baaf f   libucrt:wcsdup.obj
 0001:0004ab0e       _abort                     1004bb0e f   libucrt:abort.obj
 0001:0004ab52       ___acrt_errno_from_os_error 1004bb52 f   libucrt:errno.obj
 0001:0004ab95       ___acrt_errno_map_os_error 1004bb95 f   libucrt:errno.obj
 0001:0004abb8       ___acrt_errno_map_os_error_ptd 1004bbb8 f   libucrt:errno.obj
 0001:0004abdc       ___doserrno                1004bbdc f   libucrt:errno.obj
 0001:0004abef       __errno                    1004bbef f   libucrt:errno.obj
 0001:0004ac10       __CIpow                    1004bc10 f   libucrt:pow_impl.obj
 0001:0004ac4b       __CIpow_default            1004bc4b f   libucrt:pow_impl.obj
 0001:0004ac64       __pow_default              1004bc64     libucrt:pow_impl.obj
 0001:0004ae59       ___strncnt                 1004be59 f   libucrt:strncnt.obj
 0001:0004ae75       ??$__acrt_convert_wcs_mbs_cp@_WDV<lambda_0fec1a7b3f42a53036604e18c2d5e07e>@@U__crt_win32_buffer_no_resizing@@@@YAHQB_WAAV?$__crt_win32_buffer@DU__crt_win32_buffer_no_resizing@@@@ABV<lambda_0fec1a7b3f42a53036604e18c2d5e07e>@@I@Z 1004be75 f i libucrt:strftime.obj
 0001:0004af37       ??R<lambda_28bda7af82a03b66c1cb3803a755f95d>@@QBEHIQB_WQADI@Z 1004bf37 f i libucrt:argv_wildcards.obj
 0001:0004af37       ??R<lambda_0fec1a7b3f42a53036604e18c2d5e07e>@@QBEHIQB_WQADI@Z 1004bf37 f i libucrt:strftime.obj
 0001:0004af5b       ?allocate@?$__crt_win32_buffer@DU__crt_win32_buffer_no_resizing@@@@QAEHI@Z 1004bf5b f i libucrt:strftime.obj
 0001:0004af82       ?set_to_nullptr@?$__crt_win32_buffer@DU__crt_win32_buffer_no_resizing@@@@QAEXXZ 1004bf82 f i libucrt:strftime.obj
 0001:0004af96       ??$__crt_time_is_leap_year@H@@YA_NH@Z 1004bf96 f i libucrt:wcsftime.obj
 0001:0004afd8       _strnlen                   1004bfd8 f   libucrt:strnlen.obj
 0001:0004b0fa       _wcsnlen                   1004c0fa f   libucrt:strnlen.obj
 0001:0004b2aa       ___acrt_initialize_new_handler 1004c2aa f   libucrt:new_handler.obj
 0001:0004b2b9       __callnewh                 1004c2b9 f   libucrt:new_handler.obj
 0001:0004b2e6       __query_new_handler        1004c2e6 f   libucrt:new_handler.obj
 0001:0004b342       __seh_filter_dll           1004c342 f   libucrt:exception_filter.obj
 0001:0004b362       __seh_filter_exe           1004c362 f   libucrt:exception_filter.obj
 0001:0004b759       ___acrt_allocate_buffer_for_argv 1004c759 f   libucrt:argv_parsing.obj
 0001:0004b7a8       __configure_narrow_argv    1004c7a8 f   libucrt:argv_parsing.obj
 0001:0004bb74       ___dcrt_get_or_create_wide_environment_nolock 1004cb74 f   libucrt:environment_initialization.obj
 0001:0004bb79       ___dcrt_uninitialize_environments_nolock 1004cb79 f   libucrt:environment_initialization.obj
 0001:0004bbca       __initialize_narrow_environment 1004cbca f   libucrt:environment_initialization.obj
 0001:0004bc85       ??$__crt_fast_encode_pointer@P6AHXZ@@YAP6AHXZQ6AHXZ@Z 1004cc85 f i libucrt:onexit.obj
 0001:0004bc85       ??$__crt_fast_encode_pointer@PAP6AXXZ@@YAPAP6AXXZQAP6AXXZ@Z 1004cc85 f i libucrt:onexit.obj
 0001:0004bc85       ??$__crt_fast_encode_pointer@P6GHPA_WKJ@Z@@YAP6GHPA_WKJ@ZQ6GH0KJ@Z@Z 1004cc85 f i libucrt:winapi_thunks.obj
 0001:0004bc85       ??$__crt_fast_encode_pointer@PAX@@YAPAXQAX@Z 1004cc85 f i libucrt:initialization.obj
 0001:0004be80       __crt_atexit               1004ce80 f   libucrt:onexit.obj
 0001:0004be96       __execute_onexit_table     1004ce96 f   libucrt:onexit.obj
 0001:0004bed4       __initialize_onexit_table  1004ced4 f   libucrt:onexit.obj
 0001:0004befd       __register_onexit_function 1004cefd f   libucrt:onexit.obj
 0001:0004bf57       ___acrt_uninitialize_command_line 1004cf57 f   libucrt:argv_data.obj
 0001:0004c02e       ___acrt_initialize         1004d02e f   libucrt:initialization.obj
 0001:0004c040       ___acrt_thread_attach      1004d040 f   libucrt:initialization.obj
 0001:0004c04b       ___acrt_thread_detach      1004d04b f   libucrt:initialization.obj
 0001:0004c053       ___acrt_uninitialize       1004d053 f   libucrt:initialization.obj
 0001:0004c083       ___acrt_uninitialize_critical 1004d083 f   libucrt:initialization.obj
 0001:0004c095       _terminate                 1004d095 f   libucrt:terminate.obj
 0001:0004c0d1       __initterm                 1004d0d1 f   libucrt:initterm.obj
 0001:0004c0fc       __initterm_e               1004d0fc f   libucrt:initterm.obj
 0001:0004c130       _strncmp                   1004d130 f   libucrt:strncmp.obj
 0001:0004c1a8       _wcsncmp                   1004d1a8 f   libucrt:wcsncmp.obj
 0001:0004c1e2       ___acrt_get_process_end_policy 1004d1e2 f   libucrt:win_policies.obj
 0001:0004c551       ___acrt_freeptd            1004d551 f   libucrt:per_thread_data.obj
 0001:0004c57d       ___acrt_getptd             1004d57d f   libucrt:per_thread_data.obj
 0001:0004c638       ___acrt_getptd_head        1004d638 f   libucrt:per_thread_data.obj
 0001:0004c6ce       ___acrt_getptd_noexit      1004d6ce f   libucrt:per_thread_data.obj
 0001:0004c77f       ___acrt_getptd_noexit_explicit 1004d77f f   libucrt:per_thread_data.obj
 0001:0004c822       ___acrt_initialize_ptd     1004d822 f   libucrt:per_thread_data.obj
 0001:0004c84e       ___acrt_uninitialize_ptd   1004d84e f   libucrt:per_thread_data.obj
 0001:0004c96b       ??0_expandlocale_locale_name_cache@@QAE@QA_WIQAU__crt_qualified_locale_data@@@Z 1004d96b f i libucrt:wsetlocale.obj
 0001:0004c9b5       ??1_expandlocale_locale_name_cache@@QAE@XZ 1004d9b5 f i libucrt:wsetlocale.obj
 0001:0004cb4d       ?commit_locale_name@_expandlocale_locale_name_cache@@QAEXQB_WI@Z 1004db4d f i libucrt:wsetlocale.obj
 0001:0004cb91       ?commit_locale_name_cache_already_updated@_expandlocale_locale_name_cache@@QAEXQB_WI@Z 1004db91 f i libucrt:wsetlocale.obj
 0001:0004cbc6       ___acrt_copy_locale_name   1004dbc6 f   libucrt:wsetlocale.obj
 0001:0004cc26       ___acrt_set_locale_changed 1004dc26 f   libucrt:wsetlocale.obj
 0001:0004cc31       ___acrt_uninitialize_locale 1004dc31 f   libucrt:wsetlocale.obj
 0001:0004cc58       ___lc_lctowcs              1004dc58 f   libucrt:wsetlocale.obj
 0001:0004ccc8       ___lc_wcstolc              1004dcc8 f   libucrt:wsetlocale.obj
 0001:0004d20d       __wcscats                  1004e20d f   libucrt:wsetlocale.obj
 0001:0004d24e       __wsetlocale               1004e24e f   libucrt:wsetlocale.obj
 0001:0004df29       _iswctype                  1004ef29 f   libucrt:iswctype.obj
 0001:0004df92       __isctype_l                1004ef92 f   libucrt:isctype.obj
 0001:0004e05d       ___acrt_update_locale_info 1004f05d f   libucrt:locale_update.obj
 0001:0004e08a       ___acrt_update_locale_info_explicit 1004f08a f   libucrt:locale_update.obj
 0001:0004e0bb       ___acrt_update_multibyte_info 1004f0bb f   libucrt:locale_update.obj
 0001:0004e0e8       ___acrt_update_multibyte_info_explicit 1004f0e8 f   libucrt:locale_update.obj
 0001:0004e119       _fegetround                1004f119 f   libucrt:fegetround.obj
 0001:0004e126       __free_base                1004f126 f   libucrt:free_base.obj
 0001:0004e160       __malloc_base              1004f160 f   libucrt:malloc_base.obj
 0001:0004e1ae       ?__acrt_fp_classify@@YA?AW4__acrt_fp_class@@ABN@Z 1004f1ae f i libucrt:cvt.obj
 0001:0004eb77       ___acrt_fp_format          1004fb77 f   libucrt:cvt.obj
 0001:0004ecf8       __wctomb_internal          1004fcf8 f   libucrt:wctomb.obj
 0001:0004ee62       __mbtowc_internal          1004fe62 f   libucrt:mbtowc.obj
 0001:0004ef95       __fileno                   1004ff95 f   libucrt:fileno.obj
 0001:0004efbc       __get_printf_count_output  1004ffbc f   libucrt:printf_count_output.obj
 0001:0004efd1       ___acrt_should_use_temporary_buffer 1004ffd1 f   libucrt:_sftbuf.obj
 0001:0004f00c       ___acrt_stdio_begin_temporary_buffering_nolock 1005000c f   libucrt:_sftbuf.obj
 0001:0004f0b8       ___acrt_stdio_end_temporary_buffering_nolock 100500b8 f   libucrt:_sftbuf.obj
 0001:0004f25c       ___acrt_initialize_lowio   1005025c f   libucrt:ioinit.obj
 0001:0004f2bc       ___acrt_uninitialize_lowio 100502bc f   libucrt:ioinit.obj
 0001:0004f2e8       ___acrt_MultiByteToWideChar 100502e8 f   libucrt:multibytetowidechar.obj
 0001:0004f688       ___acrt_AppPolicyGetProcessTerminationMethodInternal@4 10050688 f   libucrt:winapi_thunks.obj
 0001:0004f6c8       ___acrt_AreFileApisANSI@0  100506c8 f   libucrt:winapi_thunks.obj
 0001:0004f6e7       ___acrt_CompareStringEx@36 100506e7 f   libucrt:winapi_thunks.obj
 0001:0004f744       ___acrt_EnumSystemLocalesEx@16 10050744 f   libucrt:winapi_thunks.obj
 0001:0004f798       ___acrt_FlsAlloc@4         10050798 f   libucrt:winapi_thunks.obj
 0001:0004f7d7       ___acrt_FlsFree@4          100507d7 f   libucrt:winapi_thunks.obj
 0001:0004f816       ___acrt_FlsGetValue@4      10050816 f   libucrt:winapi_thunks.obj
 0001:0004f855       ___acrt_FlsSetValue@8      10050855 f   libucrt:winapi_thunks.obj
 0001:0004f897       ___acrt_GetLocaleInfoEx@16 10050897 f   libucrt:winapi_thunks.obj
 0001:0004f8d6       ___acrt_GetUserDefaultLocaleName@8 100508d6 f   libucrt:winapi_thunks.obj
 0001:0004f912       ___acrt_InitializeCriticalSectionEx@12 10050912 f   libucrt:winapi_thunks.obj
 0001:0004f95d       ___acrt_IsValidLocaleName@4 1005095d f   libucrt:winapi_thunks.obj
 0001:0004f995       ___acrt_LCIDToLocaleName@16 10050995 f   libucrt:winapi_thunks.obj
 0001:0004f9d4       ___acrt_LCMapStringEx@36   100509d4 f   libucrt:winapi_thunks.obj
 0001:0004fa31       ___acrt_LocaleNameToLCID@8 10050a31 f   libucrt:winapi_thunks.obj
 0001:0004fa62       ___acrt_can_use_vista_locale_apis 10050a62 f   libucrt:winapi_thunks.obj
 0001:0004fa6d       ___acrt_eagerly_load_locale_apis 10050a6d f   libucrt:winapi_thunks.obj
 0001:0004faa4       ___acrt_initialize_winapi_thunks 10050aa4 f   libucrt:winapi_thunks.obj
 0001:0004fab8       ___acrt_uninitialize_winapi_thunks 10050ab8 f   libucrt:winapi_thunks.obj
 0001:0004faee       __waccess_s                10050aee f   libucrt:waccess.obj
 0001:0004fbac       __calloc_base              10050bac f   libucrt:calloc_base.obj
 0001:0004fc09       __fcloseall                10050c09 f   libucrt:closeall.obj
 0001:0004fcb4       ___acrt_stdio_free_buffer_nolock 10050cb4 f   libucrt:_freebuf.obj
 0001:0004fee2       ___acrt_LCMapStringA       10050ee2 f   libucrt:lcmapstringa.obj
 0001:0004ff30       ___ascii_strnicmp          10050f30 f   libucrt:_strnicm.obj
 0001:000501de       ___acrt_stdio_flush_and_write_narrow_nolock 100511de f   libucrt:_flsbuf.obj
 0001:0005028b       __commit                   1005128b f   libucrt:commit.obj
 0001:00050ab6       __write                    10051ab6 f   libucrt:write.obj
 0001:00050aed       __write_internal           10051aed f   libucrt:write.obj
 0001:00050bf5       __write_nolock             10051bf5 f   libucrt:write.obj
 0001:00050e86       __close_internal           10051e86 f   libucrt:close.obj
 0001:00050f29       __close_nolock             10051f29 f   libucrt:close.obj
 0001:00050f59       __close_nolock_internal    10051f59 f   libucrt:close.obj
 0001:00050ff9       ?__acrt_stdio_allocate_stream@@YA?AV__crt_stdio_stream@@XZ 10051ff9 f   libucrt:stream.obj
 0001:00051062       ?__acrt_stdio_free_stream@@YAXV__crt_stdio_stream@@@Z 10052062 f   libucrt:stream.obj
 0001:000512ee       ___acrt_stdio_refill_and_read_narrow_nolock 100522ee f   libucrt:_filbuf.obj
 0001:000518e4       __ftelli64                 100528e4 f   libucrt:ftell.obj
 0001:0005191a       __ftelli64_nolock_internal 1005291a f   libucrt:ftell.obj
 0001:00051925       ___acrt_stdio_allocate_buffer_nolock 10052925 f   libucrt:_getbuf.obj
 0001:00051e2d       __read                     10052e2d f   libucrt:read.obj
 0001:00051f41       __read_nolock              10052f41 f   libucrt:read.obj
 0001:00052489       __lseeki64                 10053489 f   libucrt:lseek.obj
 0001:000524c9       __lseeki64_internal        100534c9 f   libucrt:lseek.obj
 0001:000524e7       __lseeki64_nolock          100534e7 f   libucrt:lseek.obj
 0001:00052527       __lseeki64_nolock_internal 10053527 f   libucrt:lseek.obj
 0001:00052545       ??$__acrt_stdio_parse_mode@D@@YA?AU__acrt_stdio_stream_mode@@QBD@Z 10053545 f i libucrt:openfile.obj
 0001:000527f2       ?__acrt_stdio_parse_mode_D@@YA_NAAU__acrt_stdio_stream_mode@@@Z 100537f2 f i libucrt:openfile.obj
 0001:0005280d       ?__acrt_stdio_parse_mode_T@@YA_NAAU__acrt_stdio_stream_mode@@@Z 1005380d f i libucrt:openfile.obj
 0001:0005282c       ?__acrt_stdio_parse_mode_b@@YA_NAAU__acrt_stdio_stream_mode@@@Z 1005382c f i libucrt:openfile.obj
 0001:0005284c       ?__acrt_stdio_parse_mode_c@@YA_NAAU__acrt_stdio_stream_mode@@AA_N@Z 1005384c f i libucrt:openfile.obj
 0001:0005286e       ?__acrt_stdio_parse_mode_n@@YA_NAAU__acrt_stdio_stream_mode@@AA_N@Z 1005386e f i libucrt:openfile.obj
 0001:00052890       ?__acrt_stdio_parse_mode_plus@@YA_NAAU__acrt_stdio_stream_mode@@AA_N@Z 10053890 f i libucrt:openfile.obj
 0001:000528c6       ?__acrt_stdio_parse_mode_t@@YA_NAAU__acrt_stdio_stream_mode@@@Z 100538c6 f i libucrt:openfile.obj
 0001:000528e6       ?__acrt_stdio_parse_mode_x@@YA_NAAU__acrt_stdio_stream_mode@@@Z 100538e6 f i libucrt:openfile.obj
 0001:00052906       __openfile                 10053906 f   libucrt:openfile.obj
 0001:00052911       ___acrt_initialize_timeset 10053911 f   libucrt:timeset.obj
 0001:00052946       ___daylight                10053946 f   libucrt:timeset.obj
 0001:0005294c       ___dstbias                 1005394c f   libucrt:timeset.obj
 0001:00052952       ___timezone                10053952 f   libucrt:timeset.obj
 0001:00052958       ___tzname                  10053958 f   libucrt:timeset.obj
 0001:0005295e       ___wide_tzname             1005395e f   libucrt:timeset.obj
 0001:00052964       __get_daylight             10053964 f   libucrt:timeset.obj
 0001:00052990       __get_dstbias              10053990 f   libucrt:timeset.obj
 0001:000529bc       __get_timezone             100539bc f   libucrt:timeset.obj
 0001:000529e8       ??$__crt_time_elapsed_leap_years@H@@YAHH@Z 100539e8 f i libucrt:gmtime.obj
 0001:00052c25       __gmtime64_s               10053c25 f   libucrt:gmtime.obj
 0001:00052ebf       __localtime64_s            10053ebf f   libucrt:localtime.obj
 0001:00053786       ___tzset                   10054786 f   libucrt:tzset.obj
 0001:000537e3       __isindst                  100547e3 f   libucrt:tzset.obj
 0001:00053837       __dclass                   10054837 f   libucrt:nan.obj
 0001:00053848       __dsign                    10054848 f   libucrt:nan.obj
 0001:00053858       __errcode                  10054858 f   libucrt:fpexcept.obj
 0001:0005388c       __except1                  1005488c f   libucrt:fpexcept.obj
 0001:0005395a       __handle_exc               1005495a f   libucrt:fpexcept.obj
 0001:00053bd3       __raise_exc                10054bd3 f   libucrt:fpexcept.obj
 0001:00053bf6       __raise_exc_ex             10054bf6 f   libucrt:fpexcept.obj
 0001:00053eec       __set_errno_from_matherr   10054eec f   libucrt:fpexcept.obj
 0001:00053f1b       __umatherr                 10054f1b f   libucrt:fpexcept.obj
 0001:00053fbb       __decomp                   10054fbb f   libucrt:util.obj
 0001:0005408d       __set_exp                  1005508d f   libucrt:util.obj
 0001:000540ba       __sptype                   100550ba f   libucrt:util.obj
 0001:00054118       ___set_fpsr_sse2           10055118 f   libucrt:fpctrl.obj
 0001:00054198       __clrfp                    10055198 f   libucrt:fpctrl.obj
 0001:000541a9       __ctrlfp                   100551a9 f   libucrt:fpctrl.obj
 0001:000541d3       __set_statfp               100551d3 f   libucrt:fpctrl.obj
 0001:0005422c       __statfp                   1005522c f   libucrt:fpctrl.obj
 0001:000544e7       _mbstowcs_s                100554e7 f   libucrt:mbstowcs.obj
 0001:000548a9       __wcstombs_s_l             100558a9 f   libucrt:wcstombs.obj
 0001:000549ce       ___acrt_GetLocaleInfoA     100559ce f   libucrt:getlocaleinfoa.obj
 0001:00054b7e       ___acrt_GetStringTypeA     10055b7e f   libucrt:getstringtypea.obj
 0001:00054c87       _wcscpy_s                  10055c87 f   libucrt:wcscpy_s.obj
 0001:00054db9       ___acrt_get_sigabrt_handler 10055db9 f   libucrt:signal.obj
 0001:00054de0       ___acrt_initialize_signal_handlers 10055de0 f   libucrt:signal.obj
 0001:00054dfe       _raise                     10055dfe f   libucrt:signal.obj
 0001:00054ff1       __fpclass                  10055ff1 f   libucrt:ieeemisc.obj
 0001:00055095       __realloc_base             10056095 f   libucrt:realloc_base.obj
 0001:000550fe       ___acrt_initialize_sse2    100560fe f   libucrt:mathfcns.obj
 0001:00055110       __CIpow_pentium4           10056110 f   libucrt:pow_pentium4.obj
 0001:00055129       __pow_pentium4             10056129     libucrt:pow_pentium4.obj
 0001:00055c50       __fFEXP                    10056c50 f   libucrt:87tran.obj
 0001:00055ca7       __rtinfpopse               10056ca7     libucrt:87tran.obj
 0001:00055ca9       __rtinfnpopse              10056ca9     libucrt:87tran.obj
 0001:00055cb9       __fFLN                     10056cb9     libucrt:87tran.obj
 0001:00055d6e       __rtinfpop                 10056d6e     libucrt:87tran.obj
 0001:00055d70       __rtinfnpop                10056d70     libucrt:87tran.obj
 0001:00055d80       __rtforexpinf              10056d80 f   libucrt:87tran.obj
 0001:00055d8d       __ffexpm1                  10056d8d     libucrt:87tran.obj
 0001:00055e40       __trandisp1                10056e40 f   libucrt:87disp.obj
 0001:00055eb5       __trandisp2                10056eb5 f   libucrt:87disp.obj
 0001:00055f4f       __rttospopde               10056f4f     libucrt:87disp.obj
 0001:00055f54       __rttospop                 10056f54     libucrt:87disp.obj
 0001:00055f60       __rtnospop                 10056f60 f   libucrt:87disp.obj
 0001:00055f70       __rttosnpop                10056f70 f   libucrt:87disp.obj
 0001:00055f71       __rtnospopde               10056f71     libucrt:87disp.obj
 0001:00055f78       __rtzeropop                10056f78     libucrt:87disp.obj
 0001:00055f7a       __rtzeronpop               10056f7a     libucrt:87disp.obj
 0001:00055f80       __rtzerospop               10056f80 f   libucrt:87disp.obj
 0001:00055f8d       __rtonepop                 10056f8d     libucrt:87disp.obj
 0001:00055f90       __rtonenpop                10056f90 f   libucrt:87disp.obj
 0001:00055fa0       __tosnan1                  10056fa0 f   libucrt:87disp.obj
 0001:00055fd0       __nosnan2                  10056fd0 f   libucrt:87disp.obj
 0001:00055fe0       __tosnan2                  10056fe0 f   libucrt:87disp.obj
 0001:00056010       __nan2                     10057010 f   libucrt:87disp.obj
 0001:00056050       __rtindfpop                10057050 f   libucrt:87disp.obj
 0001:00056052       __rtindfnpop               10057052     libucrt:87disp.obj
 0001:00056063       __rttosnpopde              10057063     libucrt:87disp.obj
 0001:00056070       __rtatan2inf               10057070 f   libucrt:87disp.obj
 0001:0005608d       __rtchsifneg               1005708d     libucrt:87disp.obj
 0001:000560a0       __startTwoArgErrorHandling 100570a0 f   libucrt:genexcep.obj
 0001:000560b7       __startOneArgErrorHandling 100570b7 f   libucrt:genexcep.obj
 0001:00056100       __twoToTOS                 10057100 f   libucrt:common.obj
 0001:00056115       __load_CW                  10057115 f   libucrt:common.obj
 0001:0005612c       __convertTOStoQNaN         1005712c f   libucrt:common.obj
 0001:00056145       __fload_withFB             10057145 f   libucrt:common.obj
 0001:00056188       __checkTOS_withFB          10057188 f   libucrt:common.obj
 0001:0005619e       __fast_exit                1005719e f   libucrt:common.obj
 0001:000561ab       __math_exit                100571ab f   libucrt:common.obj
 0001:000561d5       __check_overflow_exit      100571d5 f   libucrt:common.obj
 0001:000561e9       __check_range_exit         100571e9 f   libucrt:common.obj
 0001:0005628c       __d_inttype                1005728c f   libucrt:powhlp.obj
 0001:000562f4       __powhlp                   100572f4 f   libucrt:powhlp.obj
 0001:0005641f       ___acrt_WideCharToMultiByte 1005741f f   libucrt:widechartomultibyte.obj
 0001:000564d6       ___ascii_wcsicmp           100574d6 f   libucrt:wcsicmp.obj
 0001:00056513       __towlower_internal        10057513 f i libucrt:wcsicmp.obj
 0001:00056552       __wcsicmp                  10057552 f   libucrt:wcsicmp.obj
 0001:0005659b       __wcsicmp_l                1005759b f   libucrt:wcsicmp.obj
 0001:0005666b       ??$__acrt_convert_wcs_mbs_cp@_WDV<lambda_28bda7af82a03b66c1cb3803a755f95d>@@U__crt_win32_buffer_internal_dynamic_resizing@@@@YAHQB_WAAV?$__crt_win32_buffer@DU__crt_win32_buffer_internal_dynamic_resizing@@@@ABV<lambda_28bda7af82a03b66c1cb3803a755f95d>@@I@Z 1005766b f i libucrt:argv_wildcards.obj
 0001:00056c0d       ?allocate@?$__crt_win32_buffer@DU__crt_win32_buffer_internal_dynamic_resizing@@@@QAEHI@Z 10057c0d f i libucrt:argv_wildcards.obj
 0001:00056cd0       ___acrt_expand_narrow_argv_wildcards 10057cd0 f   libucrt:argv_wildcards.obj
 0001:00056cdb       ___acrt_GetModuleFileNameA 10057cdb f   libucrt:getmodulefilenamea.obj
 0001:000572ff       ___acrt_initialize_multibyte 100582ff f   libucrt:mbctype.obj
 0001:00057347       ___acrt_update_thread_multibyte_data 10058347 f   libucrt:mbctype.obj
 0001:0005735a       __setmbcp_nolock           1005835a f   libucrt:mbctype.obj
 0001:000575b2       __ismbblead                100585b2 f   libucrt:ismbbyte.obj
 0001:000575ca       ___acrt_initialize_command_line 100585ca f   libucrt:argv_data.obj
 0001:0005761a       ___dcrt_get_narrow_environment_from_os 1005861a f   libucrt:get_environment_from_os.obj
 0001:000576ba       ___dcrt_get_wide_environment_from_os 100586ba f   libucrt:get_environment_from_os.obj
 0001:00057ab7       ___dcrt_set_variable_in_wide_environment_nolock 10058ab7 f   libucrt:setenv.obj
 0001:00057ac2       __recalloc_base            10058ac2 f   libucrt:recalloc.obj
 0001:00057b2f       ___acrt_initialize_heap    10058b2f f   libucrt:heap_handle.obj
 0001:00057b40       ___acrt_uninitialize_heap  10058b40 f   libucrt:heap_handle.obj
 0001:00057b4a       ___acrt_execute_initializers 10058b4a f   libucrt:shared_initialization.obj
 0001:00057bb2       ___acrt_execute_uninitializers 10058bb2 f   libucrt:shared_initialization.obj
 0001:00057be3       ___acrt_has_user_matherr   10058be3 f   libucrt:matherr.obj
 0001:00057bfb       ___acrt_initialize_user_matherr 10058bfb f   libucrt:matherr.obj
 0001:00057c0a       ___acrt_invoke_user_matherr 10058c0a f   libucrt:matherr.obj
 0001:00057c3c       ___acrt_add_locale_ref     10058c3c f   libucrt:locale_refcounting.obj
 0001:00057cb9       ___acrt_free_locale        10058cb9 f   libucrt:locale_refcounting.obj
 0001:00057e01       ___acrt_locale_add_lc_time_reference 10058e01 f   libucrt:locale_refcounting.obj
 0001:00057e2a       ___acrt_locale_free_lc_time_if_unreferenced 10058e2a f   libucrt:locale_refcounting.obj
 0001:00057e5b       ___acrt_locale_release_lc_time_reference 10058e5b f   libucrt:locale_refcounting.obj
 0001:00057e84       ___acrt_release_locale_ref 10058e84 f   libucrt:locale_refcounting.obj
 0001:00057f05       ___acrt_update_thread_locale_data 10058f05 f   libucrt:locale_refcounting.obj
 0001:00057f86       __updatetlocinfoEx_nolock  10058f86 f   libucrt:locale_refcounting.obj
 0001:00057fd8       ___acrt_locale_free_monetary 10058fd8 f   libucrt:initmon.obj
 0001:000580d6       ___acrt_locale_initialize_monetary 100590d6 f   libucrt:initmon.obj
 0001:0005848c       ___acrt_locale_free_numeric 1005948c f   libucrt:initnum.obj
 0001:000584f5       ___acrt_locale_initialize_numeric 100594f5 f   libucrt:initnum.obj
 0001:000589a7       ___acrt_locale_free_time   100599a7 f   libucrt:inittime.obj
 0001:00058a8b       ___acrt_locale_initialize_time 10059a8b f   libucrt:inittime.obj
 0001:00058b7e       _wcscat_s                  10059b7e f   libucrt:wcscat_s.obj
 0001:00058c76       _wcsncat_s                 10059c76 f   libucrt:wcsncat_s.obj
 0001:00058d4f       _wcsncpy_s                 10059d4f f   libucrt:wcsncpy_s.obj
 0001:00058d5a       _wcscspn                   10059d5a f   libucrt:wcscspn.obj
 0001:00058db3       _wcspbrk                   10059db3 f   libucrt:wcspbrk.obj
 0001:000594fd       ___acrt_get_qualified_locale 1005a4fd f   libucrt:get_qualified_locale.obj
 0001:00059e61       ___acrt_get_qualified_locale_downlevel 1005ae61 f   libucrt:getqloc_downlevel.obj
 0001:0005a056       ___acrt_GetStringTypeW     1005b056 f   libucrt:getstringtypew.obj
 0001:0005a338       ___acrt_fenv_get_common_round_control 1005b338 f   libucrt:_fenvutils.obj
 0001:0005a35a       ___acrt_fenv_get_control   1005b35a f   libucrt:_fenvutils.obj
 0001:0005a3da       ___acrt_fenv_get_status    1005b3da f   libucrt:_fenvutils.obj
 0001:0005a484       ___acrt_fenv_set_control   1005b484 f   libucrt:_fenvutils.obj
 0001:0005a4ff       ___acrt_fenv_set_status    1005b4ff f   libucrt:_fenvutils.obj
 0001:0005a5f9       __query_new_mode           1005b5f9 f   libucrt:new_mode.obj
 0001:0005a67e       ___acrt_fp_strflt_to_string 1005b67e f   libucrt:_fptostr.obj
 0001:0005a778       ___acrt_fltout             1005b778 f   libucrt:cfout.obj
 0001:0005bcb1       ?__c32rtomb_utf8@__crt_mbstring@@YAIPAD_UPAU_Mbstatet@@AAV__crt_cached_ptd_host@@@Z 1005ccb1 f   libucrt:c32rtomb.obj
 0001:0005bd8d       ?__mbrtowc_utf8@__crt_mbstring@@YAIPA_WPBDIPAU_Mbstatet@@AAV__crt_cached_ptd_host@@@Z 1005cd8d f   libucrt:mbrtowc.obj
 0001:0005bdd0       ?__mbsrtowcs_utf8@__crt_mbstring@@YAIPA_WPAPBDIPAU_Mbstatet@@AAV__crt_cached_ptd_host@@@Z 1005cdd0 f   libucrt:mbrtowc.obj
 0001:0005bed8       __isatty                   1005ced8 f   libucrt:isatty.obj
 0001:0005bf2e       ___acrt_lowio_create_handle_array 1005cf2e f   libucrt:osfinfo.obj
 0001:0005bfa9       ___acrt_lowio_destroy_handle_array 1005cfa9 f   libucrt:osfinfo.obj
 0001:0005bfde       ___acrt_lowio_ensure_fh_exists 1005cfde f   libucrt:osfinfo.obj
 0001:0005c07c       ___acrt_lowio_lock_fh      1005d07c f   libucrt:osfinfo.obj
 0001:0005c09f       ___acrt_lowio_set_os_handle 1005d09f f   libucrt:osfinfo.obj
 0001:0005c131       ___acrt_lowio_unlock_fh    1005d131 f   libucrt:osfinfo.obj
 0001:0005c154       __alloc_osfhnd             1005d154 f   libucrt:osfinfo.obj
 0001:0005c267       __free_osfhnd              1005d267 f   libucrt:osfinfo.obj
 0001:0005c2f8       __get_osfhandle            1005d2f8 f   libucrt:osfinfo.obj
 0001:0005c3b2       ___acrt_DownlevelLCIDToLocaleName 1005d3b2 f   libucrt:lcidtoname_downlevel.obj
 0001:0005c455       ___acrt_DownlevelLocaleNameToLCID 1005d455 f   libucrt:lcidtoname_downlevel.obj
 0001:0005c481       __putwch_nolock            1005d481 f   libucrt:putwch.obj
 0001:0005c4b3       ___ascii_wcsnicmp          1005d4b3 f   libucrt:wcsnicmp.obj
 0001:0005c502       __wcsnicmp                 1005d502 f   libucrt:wcsnicmp.obj
 0001:0005c54e       __wcsnicmp_l               1005d54e f   libucrt:wcsnicmp.obj
 0001:0005cbe9       __sopen_nolock             1005dbe9 f   libucrt:open.obj
 0001:0005cc57       __sopen_s                  1005dc57 f   libucrt:open.obj
 0001:0005cc77       __wsopen_nolock            1005dc77 f   libucrt:open.obj
 0001:0005cfa1       _wcstol                    1005dfa1 f   libucrt:strtox.obj
 0001:0005d183       __wgetenv_s                1005e183 f   libucrt:getenv.obj
 0001:0005d18e       __dtest                    1005e18e f   libucrt:_test.obj
 0001:0005d1f2       __fd_int                   1005e1f2 f   libucrt:_test.obj
 0001:0005d2bf       __fdtest                   1005e2bf f   libucrt:_test.obj
 0001:0005d30d       ?__wcsrtombs_utf8@__crt_mbstring@@YAIPADPAPB_WIPAU_Mbstatet@@AAV__crt_cached_ptd_host@@@Z 1005e30d f   libucrt:wcrtomb.obj
 0001:0005d4d0       _strncpy_s                 1005e4d0 f   libucrt:strncpy_s.obj
 0001:0005d4db       ___libm_error_support      1005e4db f   libucrt:libm_error.obj
 0001:0005d6cf       __87except                 1005e6cf f   libucrt:87except.obj
 0001:0005d7d9       __frnd                     1005e7d9 f   libucrt:frnd.obj
 0001:0005d7ed       __towlower_l               1005e7ed f   libucrt:towlower.obj
 0001:0005d8d0       _qsort                     1005e8d0 f   libucrt:qsort.obj
 0001:0005ddc0       _strpbrk                   1005edc0 f   libucrt:strpbrk.obj
 0001:0005de00       __mbsdec                   1005ee00 f   libucrt:mbsdec.obj
 0001:0005de17       __mbsdec_l                 1005ee17 f   libucrt:mbsdec.obj
 0001:0005deb3       __wcsnicoll                1005eeb3 f   libucrt:wcsnicol.obj
 0001:0005df20       __wcsnicoll_l              1005ef20 f   libucrt:wcsnicol.obj
 0001:0005dfe0       __msize_base               1005efe0 f   libucrt:msize.obj
 0001:0005e138       __itow_s                   1005f138 f   libucrt:xtoa.obj
 0001:0005e16b       __controlfp_s              1005f16b f   libucrt:contrlfp.obj
 0001:0005e1ca       _fegetenv                  1005f1ca f   libucrt:fegetenv.obj
 0001:0005e1e7       _fesetenv                  1005f1e7 f   libucrt:fesetenv.obj
 0001:0005e232       _feholdexcept              1005f232 f   libucrt:feholdexcept.obj
 0001:0005e280       __CIlog10                  1005f280 f   libucrt:log10_impl.obj
 0001:0005e2bb       __CIlog10_default          1005f2bb f   libucrt:log10_impl.obj
 0001:0005e2cf       __log10_default            1005f2cf     libucrt:log10_impl.obj
 0001:0005e390       _ceil                      1005f390 f   libucrt:ceil_pentium4.obj
 0001:0005e3d0       __ceil_pentium4            1005f3d0 f   libucrt:ceil_pentium4.obj
 0001:0005e4ad       ?reset_and_return@__crt_mbstring@@YAIIPAU_Mbstatet@@@Z 1005f4ad f   libucrt:common_utf8.obj
 0001:0005e4c1       ?return_illegal_sequence@__crt_mbstring@@YAIPAU_Mbstatet@@AAV__crt_cached_ptd_host@@@Z 1005f4c1 f   libucrt:common_utf8.obj
 0001:0005e4e3       ?__mbrtoc32_utf8@__crt_mbstring@@YAIPA_UPBDIPAU_Mbstatet@@AAV__crt_cached_ptd_host@@@Z 1005f4e3 f   libucrt:mbrtoc32.obj
 0001:0005e6a1       __query_app_type           1005f6a1 f   libucrt:report_runtime_error.obj
 0001:0005e6c6       ___dcrt_lowio_ensure_console_output_initialized 1005f6c6 f   libucrt:initcon.obj
 0001:0005e6e5       ___dcrt_terminate_console_output 1005f6e5 f   libucrt:initcon.obj
 0001:0005e6fc       ___dcrt_write_console      1005f6fc f   libucrt:initcon.obj
 0001:0005e751       __get_fmode                1005f751 f   libucrt:setmode.obj
 0001:0005e77e       __setmode_nolock           1005f77e f   libucrt:setmode.obj
 0001:0005e84d       ??0__crt_seek_guard@@QAE@H_J@Z 1005f84d f i libucrt:chsize.obj
 0001:0005e89a       __chsize_nolock            1005f89a f   libucrt:chsize.obj
 0001:0005e8d1       __chsize_nolock_internal   1005f8d1 f   libucrt:chsize.obj
 0001:0005ea74       ?__c16rtomb_utf8@__crt_mbstring@@YAIPAD_SPAU_Mbstatet@@AAV__crt_cached_ptd_host@@@Z 1005fa74 f   libucrt:c16rtomb.obj
 0001:0005eb1d       ___acrt_LCMapStringW       1005fb1d f   libucrt:lcmapstringw.obj
 0001:0005eb5b       ___acrt_CompareStringW     1005fb5b f   libucrt:comparestringw.obj
 0001:0005ec67       __clearfp                  1005fc67 f   libucrt:ieee87.obj
 0001:0005ed45       __control87                1005fd45 f   libucrt:ieee87.obj
 0001:0005f0f0       __CIlog10_pentium4         100600f0 f   libucrt:log10_pentium4.obj
 0001:0005f108       __log10_pentium4           10060108     libucrt:log10_pentium4.obj
 0001:0005f380       __ceil_default             10060380 f   libucrt:ceil.obj
 0001:0005f435       ___acrt_initialize_fmode   10060435 f   libucrt:txtmode.obj
 0001:0005f450       __FindPESection            10060450 f   LIBCMT:pesect.obj
 0001:0005f4a0       __IsNonwritableInCurrentImage 100604a0 f   LIBCMT:pesect.obj
 0001:0005f560       __ValidateImageBase        10060560 f   LIBCMT:pesect.obj
 0001:0005f5a0       __aulldvrm                 100605a0 f   LIBCMT:ulldvrm.obj
 0001:0005f640       __allshl                   10060640 f   LIBCMT:llshl.obj
 0001:0005f660       __aullshr                  10060660 f   LIBCMT:ullshr.obj
 0001:0005f680       __alldiv                   10060680 f   LIBCMT:lldiv.obj
 0001:0005f730       __allrem                   10060730 f   LIBCMT:llrem.obj
 0001:0005f7f0       __alldvrm                  100607f0 f   LIBCMT:lldvrm.obj
 0001:0005f8d0       __ftol2_sse                100608d0 f   LIBCMT:ftol2.obj
 0001:0005f8e0       __ftoi2                    100608e0 f   LIBCMT:ftol2.obj
 0001:0005f960       _strrchr                   10060960 f   libvcruntime:strrchr.obj
 0001:0005fa97       _wcschr                    10060a97 f   libvcruntime:wcschr.obj
 0001:0005fb5e       __filter_x86_sse2_floating_point_exception 10060b5e f   LIBCMT:x86_exception_filter.obj
 0001:0005fb5e       __filter_x86_sse2_floating_point_exception_default 10060b5e f   LIBCMT:x86_exception_filter.obj
 0001:0005fbe0       __ftoui3                   10060be0 f   LIBCMT:ftol3.obj
 0001:0005fc30       __dtol3                    10060c30 f   LIBCMT:ftol3.obj
 0001:0005fce0       __CIatan2                  10060ce0 f   libucrt:87ctriga.obj
 0001:0005fcf0       __CIfmod                   10060cf0 f   libucrt:87fmod_impl.obj
 0001:0005fd00       __fFMOD                    10060d00 f   libucrt:87fmod_impl.obj
 0001:0005fd0e       __fdclass                  10060d0e f   libucrt:nanf.obj
 0001:0005fd20       __libm_sse2_acos_precise   10060d20 f   libucrt:acos_sse2_precise.obj
 0001:00060240       __libm_sse2_cos_precise    10061240 f   libucrt:cos_sse2_precise.obj
 0001:00060400       __libm_sse2_log10_precise  10061400 f   libucrt:log10_sse2_precise.obj
 0001:000606b0       __libm_sse2_pow_precise    100616b0 f   libucrt:pow_sse2_precise.obj
 0001:00061200       __libm_sse2_sin_precise    10062200 f   libucrt:sin_sse2_precise.obj
 0001:000613d0       __libm_sse2_sqrt_precise   100623d0 f   libucrt:sqrt_sse2_precise.obj
 0001:000614d0       __libm_sse2_tan_precise    100624d0 f   libucrt:tan_sse2_precise.obj
 0001:00061740       _floor                     10062740 f   libucrt:floor_pentium4.obj
 0001:00061780       __floor_pentium4           10062780 f   libucrt:floor_pentium4.obj
 0001:0006183d       _roundf                    1006283d f   libucrt:roundf.obj
 0001:000618b0       __fFATN2                   100628b0 f   libucrt:87triga.obj
 0001:00061900       __rtpiby2                  10062900     libucrt:87triga.obj
 0001:00061910       __rtforatn20               10062910 f   libucrt:87triga.obj
 0001:00061940       __rtforatnby0              10062940 f   libucrt:87triga.obj
 0001:00061950       __cintrindisp2             10062950 f   libucrt:87cdisp.obj
 0001:000619a0       __cintrindisp1             100629a0 f   libucrt:87cdisp.obj
 0001:000619e9       __ctrandisp2               100629e9 f   libucrt:87cdisp.obj
 0001:00061b78       __ctrandisp1               10062b78 f   libucrt:87cdisp.obj
 0001:00061bab       __fload                    10062bab f   libucrt:87cdisp.obj
 0001:00061bf0       __CIacos                   10062bf0 f   libucrt:acos_impl.obj
 0001:00061c2b       __CIacos_default           10062c2b f   libucrt:acos_impl.obj
 0001:00061c3f       __acos_default             10062c3f     libucrt:acos_impl.obj
 0001:00061d00       __CIcos                    10062d00 f   libucrt:cos_impl.obj
 0001:00061d3b       __CIcos_default            10062d3b f   libucrt:cos_impl.obj
 0001:00061d4f       __cos_default              10062d4f     libucrt:cos_impl.obj
 0001:00061df0       __CIsin                    10062df0 f   libucrt:sin_impl.obj
 0001:00061e2b       __CIsin_default            10062e2b f   libucrt:sin_impl.obj
 0001:00061e3f       __sin_default              10062e3f     libucrt:sin_impl.obj
 0001:00061ee0       _sqrt                      10062ee0 f   libucrt:sqrt.obj
 0001:00061ef0       __CItan                    10062ef0 f   libucrt:tan_impl.obj
 0001:00061f2b       __CItan_default            10062f2b f   libucrt:tan_impl.obj
 0001:00061f3f       __tan_default              10062f3f     libucrt:tan_impl.obj
 0001:00061fd6       __floor_default            10062fd6 f   libucrt:floor.obj
 0001:00062090       __CIacos_pentium4          10063090 f   libucrt:acos_pentium4.obj
 0001:000620a8       __acos_pentium4            100630a8     libucrt:acos_pentium4.obj
 0001:000625f0       __CIcos_pentium4           100635f0 f   libucrt:cos_pentium4.obj
 0001:00062608       __cos_pentium4             10063608     libucrt:cos_pentium4.obj
 0001:000627a0       __CIsin_pentium4           100637a0 f   libucrt:sin_pentium4.obj
 0001:000627b8       __sin_pentium4             100637b8     libucrt:sin_pentium4.obj
 0001:00062970       __CIsqrt                   10063970 f   libucrt:sqrt_impl.obj
 0001:00062984       __sqrt_common              10063984     libucrt:sqrt_impl.obj
 0001:00062a30       __CItan_pentium4           10063a30 f   libucrt:tan_pentium4.obj
 0001:00062a48       __tan_pentium4             10063a48     libucrt:tan_pentium4.obj
 0002:00000000       __imp__CreateCompatibleBitmap@12 10067000     gdi32:GDI32.dll
 0002:00000004       __imp__SelectObject@8      10067004     gdi32:GDI32.dll
 0002:00000008       __imp__CreateCompatibleDC@4 10067008     gdi32:GDI32.dll
 0002:0000000c       __imp__GetDeviceCaps@8     1006700c     gdi32:GDI32.dll
 0002:00000010       __imp__DeleteDC@4          10067010     gdi32:GDI32.dll
 0002:00000014       __imp__BitBlt@36           10067014     gdi32:GDI32.dll
 0002:00000018       \177GDI32_NULL_THUNK_DATA  10067018     gdi32:GDI32.dll
 0002:0000001c       __imp__GetPrivateProfileStringA@24 1006701c     kernel32:KERNEL32.dll
 0002:00000020       __imp__GetLastError@0      10067020     kernel32:KERNEL32.dll
 0002:00000024       __imp__CloseHandle@4       10067024     kernel32:KERNEL32.dll
 0002:00000028       __imp__CreateThread@24     10067028     kernel32:KERNEL32.dll
 0002:0000002c       __imp__IsBadCodePtr@4      1006702c     kernel32:KERNEL32.dll
 0002:00000030       __imp__HeapAlloc@12        10067030     kernel32:KERNEL32.dll
 0002:00000034       __imp__GetProcessHeap@0    10067034     kernel32:KERNEL32.dll
 0002:00000038       __imp__GetModuleFileNameA@12 10067038     kernel32:KERNEL32.dll
 0002:0000003c       __imp__SetConsoleTextAttribute@8 1006703c     kernel32:KERNEL32.dll
 0002:00000040       __imp__SetConsoleTitleA@4  10067040     kernel32:KERNEL32.dll
 0002:00000044       __imp__GetStdHandle@4      10067044     kernel32:KERNEL32.dll
 0002:00000048       __imp__DisableThreadLibraryCalls@4 10067048     kernel32:KERNEL32.dll
 0002:0000004c       __imp__lstrcpyA@8          1006704c     kernel32:KERNEL32.dll
 0002:00000050       __imp__IsBadReadPtr@8      10067050     kernel32:KERNEL32.dll
 0002:00000054       __imp__AllocConsole@0      10067054     kernel32:KERNEL32.dll
 0002:00000058       __imp__GetCurrentProcess@0 10067058     kernel32:KERNEL32.dll
 0002:0000005c       __imp__TerminateProcess@8  1006705c     kernel32:KERNEL32.dll
 0002:00000060       __imp__GetModuleHandleA@4  10067060     kernel32:KERNEL32.dll
 0002:00000064       __imp__FlushInstructionCache@12 10067064     kernel32:KERNEL32.dll
 0002:00000068       __imp__WriteFile@20        10067068     kernel32:KERNEL32.dll
 0002:0000006c       __imp__CreateFileA@28      1006706c     kernel32:KERNEL32.dll
 0002:00000070       __imp__GetLocalTime@4      10067070     kernel32:KERNEL32.dll
 0002:00000074       __imp__GlobalLock@4        10067074     kernel32:KERNEL32.dll
 0002:00000078       __imp__GlobalUnlock@4      10067078     kernel32:KERNEL32.dll
 0002:0000007c       __imp__SetEndOfFile@4      1006707c     kernel32:KERNEL32.dll
 0002:00000080       __imp__WriteConsoleW@20    10067080     kernel32:KERNEL32.dll
 0002:00000084       __imp__HeapSize@12         10067084     kernel32:KERNEL32.dll
 0002:00000088       __imp__CreateFileW@28      10067088     kernel32:KERNEL32.dll
 0002:0000008c       __imp__SetStdHandle@8      1006708c     kernel32:KERNEL32.dll
 0002:00000090       __imp__SetEnvironmentVariableW@8 10067090     kernel32:KERNEL32.dll
 0002:00000094       __imp__FreeEnvironmentStringsW@4 10067094     kernel32:KERNEL32.dll
 0002:00000098       __imp__GetEnvironmentStringsW@0 10067098     kernel32:KERNEL32.dll
 0002:0000009c       __imp__GetCommandLineW@0   1006709c     kernel32:KERNEL32.dll
 0002:000000a0       __imp__GetCommandLineA@0   100670a0     kernel32:KERNEL32.dll
 0002:000000a4       __imp__GetOEMCP@0          100670a4     kernel32:KERNEL32.dll
 0002:000000a8       __imp__GetACP@0            100670a8     kernel32:KERNEL32.dll
 0002:000000ac       __imp__IsValidCodePage@4   100670ac     kernel32:KERNEL32.dll
 0002:000000b0       __imp__FindNextFileW@8     100670b0     kernel32:KERNEL32.dll
 0002:000000b4       __imp__FindFirstFileExW@24 100670b4     kernel32:KERNEL32.dll
 0002:000000b8       __imp__VirtualProtect@16   100670b8     kernel32:KERNEL32.dll
 0002:000000bc       __imp__Sleep@4             100670bc     kernel32:KERNEL32.dll
 0002:000000c0       __imp__MultiByteToWideChar@24 100670c0     kernel32:KERNEL32.dll
 0002:000000c4       __imp__GetTickCount@0      100670c4     kernel32:KERNEL32.dll
 0002:000000c8       __imp__GetProcAddress@8    100670c8     kernel32:KERNEL32.dll
 0002:000000cc       __imp__lstrcmpA@8          100670cc     kernel32:KERNEL32.dll
 0002:000000d0       __imp__FindClose@4         100670d0     kernel32:KERNEL32.dll
 0002:000000d4       __imp__HeapReAlloc@16      100670d4     kernel32:KERNEL32.dll
 0002:000000d8       __imp__GetTimeZoneInformation@4 100670d8     kernel32:KERNEL32.dll
 0002:000000dc       __imp__ReadConsoleW@20     100670dc     kernel32:KERNEL32.dll
 0002:000000e0       __imp__ReadFile@20         100670e0     kernel32:KERNEL32.dll
 0002:000000e4       __imp__GetConsoleMode@8    100670e4     kernel32:KERNEL32.dll
 0002:000000e8       __imp__GetConsoleOutputCP@0 100670e8     kernel32:KERNEL32.dll
 0002:000000ec       __imp__FlushFileBuffers@4  100670ec     kernel32:KERNEL32.dll
 0002:000000f0       __imp__SetFilePointerEx@20 100670f0     kernel32:KERNEL32.dll
 0002:000000f4       __imp__GetFileSizeEx@8     100670f4     kernel32:KERNEL32.dll
 0002:000000f8       __imp__GetFileAttributesExW@12 100670f8     kernel32:KERNEL32.dll
 0002:000000fc       __imp__EnumSystemLocalesW@8 100670fc     kernel32:KERNEL32.dll
 0002:00000100       __imp__GetUserDefaultLCID@0 10067100     kernel32:KERNEL32.dll
 0002:00000104       __imp__IsValidLocale@8     10067104     kernel32:KERNEL32.dll
 0002:00000108       __imp__GetLocaleInfoW@16   10067108     kernel32:KERNEL32.dll
 0002:0000010c       __imp__LCMapStringW@24     1006710c     kernel32:KERNEL32.dll
 0002:00000110       __imp__CompareStringW@24   10067110     kernel32:KERNEL32.dll
 0002:00000114       __imp__GetFileType@4       10067114     kernel32:KERNEL32.dll
 0002:00000118       __imp__HeapFree@12         10067118     kernel32:KERNEL32.dll
 0002:0000011c       __imp__GetModuleFileNameW@12 1006711c     kernel32:KERNEL32.dll
 0002:00000120       __imp__SetLastError@4      10067120     kernel32:KERNEL32.dll
 0002:00000124       __imp__FreeLibrary@4       10067124     kernel32:KERNEL32.dll
 0002:00000128       __imp__RaiseException@16   10067128     kernel32:KERNEL32.dll
 0002:0000012c       __imp__WideCharToMultiByte@32 1006712c     kernel32:KERNEL32.dll
 0002:00000130       __imp__EnterCriticalSection@4 10067130     kernel32:KERNEL32.dll
 0002:00000134       __imp__LeaveCriticalSection@4 10067134     kernel32:KERNEL32.dll
 0002:00000138       __imp__InitializeCriticalSectionEx@12 10067138     kernel32:KERNEL32.dll
 0002:0000013c       __imp__DeleteCriticalSection@4 1006713c     kernel32:KERNEL32.dll
 0002:00000140       __imp__EncodePointer@4     10067140     kernel32:KERNEL32.dll
 0002:00000144       __imp__DecodePointer@4     10067144     kernel32:KERNEL32.dll
 0002:00000148       __imp__LCMapStringEx@36    10067148     kernel32:KERNEL32.dll
 0002:0000014c       __imp__GetStringTypeW@16   1006714c     kernel32:KERNEL32.dll
 0002:00000150       __imp__GetCPInfo@8         10067150     kernel32:KERNEL32.dll
 0002:00000154       __imp__InitializeCriticalSectionAndSpinCount@8 10067154     kernel32:KERNEL32.dll
 0002:00000158       __imp__SetEvent@4          10067158     kernel32:KERNEL32.dll
 0002:0000015c       __imp__ResetEvent@4        1006715c     kernel32:KERNEL32.dll
 0002:00000160       __imp__WaitForSingleObjectEx@12 10067160     kernel32:KERNEL32.dll
 0002:00000164       __imp__CreateEventW@16     10067164     kernel32:KERNEL32.dll
 0002:00000168       __imp__GetModuleHandleW@4  10067168     kernel32:KERNEL32.dll
 0002:0000016c       __imp__UnhandledExceptionFilter@4 1006716c     kernel32:KERNEL32.dll
 0002:00000170       __imp__SetUnhandledExceptionFilter@4 10067170     kernel32:KERNEL32.dll
 0002:00000174       __imp__IsProcessorFeaturePresent@4 10067174     kernel32:KERNEL32.dll
 0002:00000178       __imp__IsDebuggerPresent@0 10067178     kernel32:KERNEL32.dll
 0002:0000017c       __imp__GetStartupInfoW@4   1006717c     kernel32:KERNEL32.dll
 0002:00000180       __imp__QueryPerformanceCounter@4 10067180     kernel32:KERNEL32.dll
 0002:00000184       __imp__GetCurrentProcessId@0 10067184     kernel32:KERNEL32.dll
 0002:00000188       __imp__GetCurrentThreadId@0 10067188     kernel32:KERNEL32.dll
 0002:0000018c       __imp__GetSystemTimeAsFileTime@4 1006718c     kernel32:KERNEL32.dll
 0002:00000190       __imp__InitializeSListHead@4 10067190     kernel32:KERNEL32.dll
 0002:00000194       __imp__RtlUnwind@16        10067194     kernel32:KERNEL32.dll
 0002:00000198       __imp__InterlockedFlushSList@4 10067198     kernel32:KERNEL32.dll
 0002:0000019c       __imp__TlsAlloc@0          1006719c     kernel32:KERNEL32.dll
 0002:000001a0       __imp__TlsGetValue@4       100671a0     kernel32:KERNEL32.dll
 0002:000001a4       __imp__TlsSetValue@8       100671a4     kernel32:KERNEL32.dll
 0002:000001a8       __imp__TlsFree@4           100671a8     kernel32:KERNEL32.dll
 0002:000001ac       __imp__LoadLibraryExW@12   100671ac     kernel32:KERNEL32.dll
 0002:000001b0       __imp__ExitProcess@4       100671b0     kernel32:KERNEL32.dll
 0002:000001b4       __imp__GetModuleHandleExW@12 100671b4     kernel32:KERNEL32.dll
 0002:000001b8       \177KERNEL32_NULL_THUNK_DATA 100671b8     kernel32:KERNEL32.dll
 0002:000001bc       __imp__OleCreatePictureIndirect@16 100671bc     oleaut32:OLEAUT32.dll
 0002:000001c0       \177OLEAUT32_NULL_THUNK_DATA 100671c0     oleaut32:OLEAUT32.dll
 0002:000001c4       __imp__glGetFloatv@8       100671c4     OpenGL32:OPENGL32.dll
 0002:000001c8       __imp__glClearColor@16     100671c8     OpenGL32:OPENGL32.dll
 0002:000001cc       __imp__glMatrixMode@4      100671cc     OpenGL32:OPENGL32.dll
 0002:000001d0       __imp__glPushMatrix@0      100671d0     OpenGL32:OPENGL32.dll
 0002:000001d4       __imp__glDisable@4         100671d4     OpenGL32:OPENGL32.dll
 0002:000001d8       __imp__glColor4ub@16       100671d8     OpenGL32:OPENGL32.dll
 0002:000001dc       __imp__glOrtho@48          100671dc     OpenGL32:OPENGL32.dll
 0002:000001e0       __imp__glBegin@4           100671e0     OpenGL32:OPENGL32.dll
 0002:000001e4       __imp__glLoadIdentity@0    100671e4     OpenGL32:OPENGL32.dll
 0002:000001e8       __imp__glBlendFunc@8       100671e8     OpenGL32:OPENGL32.dll
 0002:000001ec       __imp__glEnd@0             100671ec     OpenGL32:OPENGL32.dll
 0002:000001f0       __imp__glEnable@4          100671f0     OpenGL32:OPENGL32.dll
 0002:000001f4       __imp__glPopMatrix@0       100671f4     OpenGL32:OPENGL32.dll
 0002:000001f8       __imp__glDepthFunc@4       100671f8     OpenGL32:OPENGL32.dll
 0002:000001fc       __imp__glBindTexture@8     100671fc     OpenGL32:OPENGL32.dll
 0002:00000200       __imp__glVertex2i@8        10067200     OpenGL32:OPENGL32.dll
 0002:00000204       \177OPENGL32_NULL_THUNK_DATA 10067204     OpenGL32:OPENGL32.dll
 0002:00000208       __imp__SHGetFolderPathA@20 10067208     shell32:SHELL32.dll
 0002:0000020c       \177SHELL32_NULL_THUNK_DATA 1006720c     shell32:SHELL32.dll
 0002:00000210       __imp__SetWindowLongA@12   10067210     user32:USER32.dll
 0002:00000214       __imp__mouse_event@20      10067214     user32:USER32.dll
 0002:00000218       __imp__GetWindowRect@8     10067218     user32:USER32.dll
 0002:0000021c       __imp__GetDC@4             1006721c     user32:USER32.dll
 0002:00000220       __imp__MessageBoxA@16      10067220     user32:USER32.dll
 0002:00000224       __imp__GetSystemMenu@8     10067224     user32:USER32.dll
 0002:00000228       __imp__DeleteMenu@12       10067228     user32:USER32.dll
 0002:0000022c       __imp__GetAsyncKeyState@4  1006722c     user32:USER32.dll
 0002:00000230       __imp__CallWindowProcA@20  10067230     user32:USER32.dll
 0002:00000234       __imp__FindWindowA@8       10067234     user32:USER32.dll
 0002:00000238       __imp__SendInput@12        10067238     user32:USER32.dll
 0002:0000023c       \177USER32_NULL_THUNK_DATA 1006723c     user32:USER32.dll
 0002:00000240       __imp__GetHGlobalFromStream@8 10067240     ole32:ole32.dll
 0002:00000244       __imp__CreateStreamOnHGlobal@12 10067244     ole32:ole32.dll
 0002:00000248       \177ole32_NULL_THUNK_DATA  10067248     ole32:ole32.dll
 0002:0000024c       ___guard_check_icall_fptr  1006724c     LIBCMT:guard_support.obj
 0002:00000250       ___xc_a                    10067250     LIBCMT:initializers.obj
 0002:000002ac       ___xc_z                    100672ac     LIBCMT:initializers.obj
 0002:000002b0       ___xi_a                    100672b0     LIBCMT:initializers.obj
 0002:000002b8       ___acrt_stdio_initializer  100672b8     libucrt:stdio_initializer.obj
 0002:000002bc       ___acrt_timeset_initializer 100672bc     libucrt:timeset_initializer.obj
 0002:000002c0       ___acrt_tran_sse2_initializer 100672c0     libucrt:sse2_initializer.obj
 0002:000002c4       ___acrt_multibyte_initializer 100672c4     libucrt:multibyte_initializer.obj
 0002:000002c8       ___acrt_fmode_initializer  100672c8     libucrt:fmode_initializer.obj
 0002:000002cc       ___xi_z                    100672cc     LIBCMT:initializers.obj
 0002:000002d0       ___xl_a                    100672d0     LIBCMT:tlssup.obj
 0002:000002d4       ___xl_z                    100672d4     LIBCMT:tlssup.obj
 0002:000002d8       ___xp_a                    100672d8     LIBCMT:initializers.obj
 0002:000002dc       ___acrt_locale_terminator  100672dc     libucrt:locale_initializer.obj
 0002:000002e0       ___dcrt_console_output_terminator 100672e0     libucrt:console_output_initializer.obj
 0002:000002e4       ___acrt_stdio_terminator   100672e4     libucrt:stdio_initializer.obj
 0002:000002e8       ___xp_z                    100672e8     LIBCMT:initializers.obj
 0002:000002ec       ___xt_a                    100672ec     LIBCMT:initializers.obj
 0002:000002f0       ___xt_z                    100672f0     LIBCMT:initializers.obj
 0002:00000300       _IID_IPicture              10067300     uuid:ocidl_i.obj
 0002:00000310       ?s_rbModRm@CDetourDis@@1QBEB 10067310     detours:disasm.obj
 0002:00000410       ?s_rceCopyTable@CDetourDis@@1QBUCOPYENTRY@1@B 10067410     detours:disasm.obj
 0002:00000c18       ?s_rceCopyTable0F@CDetourDis@@1QBUCOPYENTRY@1@B 10067c18     detours:disasm.obj
 0002:00001424       ??_7exception@std@@6B@     10068424     libcpmt:xthrow.obj
 0002:00001430       ??_7bad_alloc@std@@6B@     10068430     libcpmt:xthrow.obj
 0002:00001438       ??_C@_0P@GHFPNOJB@bad?5allocation@ 10068438     libcpmt:xthrow.obj
 0002:0000144c       ??_7logic_error@std@@6B@   1006844c     libcpmt:xthrow.obj
 0002:00001458       ??_7length_error@std@@6B@  10068458     libcpmt:xthrow.obj
 0002:00001464       ??_7out_of_range@std@@6B@  10068464     libcpmt:xthrow.obj
 0002:00001470       ??_7runtime_error@std@@6B@ 10068470     libcpmt:xthrow.obj
 0002:00001a60       ??_C@_0BN@LKKBCCDB@address?5family?5not?5supported@ 10068a60     libcpmt:syserror.obj
 0002:00001a80       ??_C@_0P@LDMLAFHI@address?5in?5use@ 10068a80     libcpmt:syserror.obj
 0002:00001a90       ??_C@_0BG@DHPCNBJB@address?5not?5available@ 10068a90     libcpmt:syserror.obj
 0002:00001aa8       ??_C@_0BC@DFIBIBIL@already?5connected@ 10068aa8     libcpmt:syserror.obj
 0002:00001abc       ??_C@_0BH@CAKOHOMI@argument?5list?5too?5long@ 10068abc     libcpmt:syserror.obj
 0002:00001ad4       ??_C@_0BH@CGIMPKIM@argument?5out?5of?5domain@ 10068ad4     libcpmt:syserror.obj
 0002:00001aec       ??_C@_0M@KGHGGJGL@bad?5address@ 10068aec     libcpmt:syserror.obj
 0002:00001af8       ??_C@_0BE@MPJPGCEO@bad?5file?5descriptor@ 10068af8     libcpmt:syserror.obj
 0002:00001b0c       ??_C@_0M@PMMIEFCP@bad?5message@ 10068b0c     libcpmt:syserror.obj
 0002:00001b18       ??_C@_0M@KPHOFDBE@broken?5pipe@ 10068b18     libcpmt:syserror.obj
 0002:00001b24       ??_C@_0BD@MGNDDEGM@connection?5aborted@ 10068b24     libcpmt:syserror.obj
 0002:00001b38       ??_C@_0BP@KAIHPOGN@connection?5already?5in?5progress@ 10068b38     libcpmt:syserror.obj
 0002:00001b58       ??_C@_0BD@PJLIIJEL@connection?5refused@ 10068b58     libcpmt:syserror.obj
 0002:00001b6c       ??_C@_0BB@IECNJNOI@connection?5reset@ 10068b6c     libcpmt:syserror.obj
 0002:00001b80       ??_C@_0BC@PPHBOELF@cross?5device?5link@ 10068b80     libcpmt:syserror.obj
 0002:00001b94       ??_C@_0BN@KDMIFEIP@destination?5address?5required@ 10068b94     libcpmt:syserror.obj
 0002:00001bb4       ??_C@_0BI@NGCEHDD@device?5or?5resource?5busy@ 10068bb4     libcpmt:syserror.obj
 0002:00001bcc       ??_C@_0BE@JIDOCPHM@directory?5not?5empty@ 10068bcc     libcpmt:syserror.obj
 0002:00001be0       ??_C@_0BI@BNCLIGPB@executable?5format?5error@ 10068be0     libcpmt:syserror.obj
 0002:00001bf8       ??_C@_0M@MIDIAGJP@file?5exists@ 10068bf8     libcpmt:syserror.obj
 0002:00001c04       ??_C@_0P@DNAJLBJK@file?5too?5large@ 10068c04     libcpmt:syserror.obj
 0002:00001c14       ??_C@_0BC@EJHOMAAK@filename?5too?5long@ 10068c14     libcpmt:syserror.obj
 0002:00001c28       ??_C@_0BH@KEFGLDAF@function?5not?5supported@ 10068c28     libcpmt:syserror.obj
 0002:00001c40       ??_C@_0BB@DHFDFGDM@host?5unreachable@ 10068c40     libcpmt:syserror.obj
 0002:00001c54       ??_C@_0BD@JPHBMONG@identifier?5removed@ 10068c54     libcpmt:syserror.obj
 0002:00001c68       ??_C@_0BG@CDNPAGJK@illegal?5byte?5sequence@ 10068c68     libcpmt:syserror.obj
 0002:00001c80       ??_C@_0CD@BNPLBMNA@inappropriate?5io?5control?5operat@ 10068c80     libcpmt:syserror.obj
 0002:00001ca4       ??_C@_0M@EGEKIIMP@interrupted@ 10068ca4     libcpmt:syserror.obj
 0002:00001cb0       ??_C@_0BB@FCMFBGOM@invalid?5argument@ 10068cb0     libcpmt:syserror.obj
 0002:00001cc4       ??_C@_0N@OHAFKDEK@invalid?5seek@ 10068cc4     libcpmt:syserror.obj
 0002:00001cd4       ??_C@_08GLNPIFBN@io?5error@ 10068cd4     libcpmt:syserror.obj
 0002:00001ce0       ??_C@_0P@FLLDBIDK@is?5a?5directory@ 10068ce0     libcpmt:syserror.obj
 0002:00001cf0       ??_C@_0N@IFLPBIOP@message?5size@ 10068cf0     libcpmt:syserror.obj
 0002:00001d00       ??_C@_0N@KIIEAAIO@network?5down@ 10068d00     libcpmt:syserror.obj
 0002:00001d10       ??_C@_0O@FNPDBHEE@network?5reset@ 10068d10     libcpmt:syserror.obj
 0002:00001d20       ??_C@_0BE@IFNCKGE@network?5unreachable@ 10068d20     libcpmt:syserror.obj
 0002:00001d34       ??_C@_0BA@PFFCAOFK@no?5buffer?5space@ 10068d34     libcpmt:syserror.obj
 0002:00001d44       ??_C@_0BB@IEPBLJHK@no?5child?5process@ 10068d44     libcpmt:syserror.obj
 0002:00001d58       ??_C@_07PLECNNKG@no?5link@ 10068d58     libcpmt:syserror.obj
 0002:00001d60       ??_C@_0BC@NJECKMKE@no?5lock?5available@ 10068d60     libcpmt:syserror.obj
 0002:00001d74       ??_C@_0BF@PBGGPKKE@no?5message?5available@ 10068d74     libcpmt:syserror.obj
 0002:00001d8c       ??_C@_0L@EDOLMPAK@no?5message@ 10068d8c     libcpmt:syserror.obj
 0002:00001d98       ??_C@_0BD@EAMBFIDF@no?5protocol?5option@ 10068d98     libcpmt:syserror.obj
 0002:00001dac       ??_C@_0BD@IJDJKDEA@no?5space?5on?5device@ 10068dac     libcpmt:syserror.obj
 0002:00001dc0       ??_C@_0BE@MKFDAFMP@no?5stream?5resources@ 10068dc0     libcpmt:syserror.obj
 0002:00001dd4       ??_C@_0BK@IMCPHCBI@no?5such?5device?5or?5address@ 10068dd4     libcpmt:syserror.obj
 0002:00001df0       ??_C@_0P@FDINDDOK@no?5such?5device@ 10068df0     libcpmt:syserror.obj
 0002:00001e00       ??_C@_0BK@NDOCBPGE@no?5such?5file?5or?5directory@ 10068e00     libcpmt:syserror.obj
 0002:00001e1c       ??_C@_0BA@ENLPPKBN@no?5such?5process@ 10068e1c     libcpmt:syserror.obj
 0002:00001e2c       ??_C@_0BA@DOCPFFJG@not?5a?5directory@ 10068e2c     libcpmt:syserror.obj
 0002:00001e3c       ??_C@_0N@POEIPGGF@not?5a?5socket@ 10068e3c     libcpmt:syserror.obj
 0002:00001e4c       ??_C@_0N@LGAPMMPI@not?5a?5stream@ 10068e4c     libcpmt:syserror.obj
 0002:00001e5c       ??_C@_0O@GLMIBBEG@not?5connected@ 10068e5c     libcpmt:syserror.obj
 0002:00001e6c       ??_C@_0BC@ENOOLCNF@not?5enough?5memory@ 10068e6c     libcpmt:syserror.obj
 0002:00001e80       ??_C@_0O@NHEDABJP@not?5supported@ 10068e80     libcpmt:syserror.obj
 0002:00001e90       ??_C@_0BD@MOLBPMEA@operation?5canceled@ 10068e90     libcpmt:syserror.obj
 0002:00001ea4       ??_C@_0BG@KDKHOPCO@operation?5in?5progress@ 10068ea4     libcpmt:syserror.obj
 0002:00001ebc       ??_C@_0BI@OHIEJAAB@operation?5not?5permitted@ 10068ebc     libcpmt:syserror.obj
 0002:00001ed4       ??_C@_0BI@LNEGIFLN@operation?5not?5supported@ 10068ed4     libcpmt:syserror.obj
 0002:00001eec       ??_C@_0BG@OEMDKMEE@operation?5would?5block@ 10068eec     libcpmt:syserror.obj
 0002:00001f04       ??_C@_0L@BLPOFLNJ@owner?5dead@ 10068f04     libcpmt:syserror.obj
 0002:00001f10       ??_C@_0BC@CIJDGCDI@permission?5denied@ 10068f10     libcpmt:syserror.obj
 0002:00001f24       ??_C@_0P@FNPOCJBE@protocol?5error@ 10068f24     libcpmt:syserror.obj
 0002:00001f34       ??_C@_0BH@JPPPLHJB@protocol?5not?5supported@ 10068f34     libcpmt:syserror.obj
 0002:00001f4c       ??_C@_0BG@EICBIHDP@read?5only?5file?5system@ 10068f4c     libcpmt:syserror.obj
 0002:00001f64       ??_C@_0BO@BJBOMOEJ@resource?5deadlock?5would?5occur@ 10068f64     libcpmt:syserror.obj
 0002:00001f84       ??_C@_0BP@LKNGHENJ@resource?5unavailable?5try?5again@ 10068f84     libcpmt:syserror.obj
 0002:00001fa4       ??_C@_0BE@GOIPJJHG@result?5out?5of?5range@ 10068fa4     libcpmt:syserror.obj
 0002:00001fb8       ??_C@_0BG@MPLKFPAE@state?5not?5recoverable@ 10068fb8     libcpmt:syserror.obj
 0002:00001fd0       ??_C@_0P@DIIFGFCG@stream?5timeout@ 10068fd0     libcpmt:syserror.obj
 0002:00001fe0       ??_C@_0P@IPFDMIFL@text?5file?5busy@ 10068fe0     libcpmt:syserror.obj
 0002:00001ff0       ??_C@_09KJPPMAOI@timed?5out@ 10068ff0     libcpmt:syserror.obj
 0002:00001ffc       ??_C@_0BO@HACHBEKI@too?5many?5files?5open?5in?5system@ 10068ffc     libcpmt:syserror.obj
 0002:0000201c       ??_C@_0BE@GHAFMPAH@too?5many?5files?5open@ 1006901c     libcpmt:syserror.obj
 0002:00002030       ??_C@_0P@HCOMKFCC@too?5many?5links@ 10069030     libcpmt:syserror.obj
 0002:00002040       ??_C@_0BO@EFGOJEF@too?5many?5symbolic?5link?5levels@ 10069040     libcpmt:syserror.obj
 0002:00002060       ??_C@_0BA@KGKGOOJA@value?5too?5large@ 10069060     libcpmt:syserror.obj
 0002:00002070       ??_C@_0BE@MIEJDDNH@wrong?5protocol?5type@ 10069070     libcpmt:syserror.obj
 0002:00002084       ??_C@_0O@BFJCFAAK@unknown?5error@ 10069084     libcpmt:syserror.obj
 0002:00002098       ??_7_Facet_base@std@@6B@   10069098     libcpmt:locale0.obj
 0002:000020a8       ??_7facet@locale@std@@6B@  100690a8     libcpmt:locale0.obj
 0002:000020b8       ??_7_Locimp@locale@std@@6B@ 100690b8     libcpmt:locale0.obj
 0002:000020c4       ??_C@_01NBENCBCI@?$CK@     100690c4     libcpmt:locale0.obj
 0002:000020c8       ??_C@_01GFHCPBMG@C@        100690c8     libcpmt:locale0.obj
 0002:000020d0       ?_BADOFF@std@@3_JB         100690d0     libcpmt:ios.obj
 0002:00002114       ??_C@_01KDCPPGHE@r@        10069114     libcpmt:fiopen.obj
 0002:00002118       ??_C@_01NOFIACDB@w@        10069118     libcpmt:fiopen.obj
 0002:0000211c       ??_C@_01MCMALHOG@a@        1006911c     libcpmt:fiopen.obj
 0002:00002120       ??_C@_02JDPG@rb@           10069120     libcpmt:fiopen.obj
 0002:00002124       ??_C@_02GMLFBBN@wb@        10069124     libcpmt:fiopen.obj
 0002:00002128       ??_C@_02BOGAIONP@ab@       10069128     libcpmt:fiopen.obj
 0002:0000212c       ??_C@_02CBLLGHLK@r?$CL@    1006912c     libcpmt:fiopen.obj
 0002:00002130       ??_C@_02CHHAKFFB@w?$CL@    10069130     libcpmt:fiopen.obj
 0002:00002134       ??_C@_02DPNLHKJD@a?$CL@    10069134     libcpmt:fiopen.obj
 0002:00002138       ??_C@_03HMFOOINA@r?$CLb@   10069138     libcpmt:fiopen.obj
 0002:0000213c       ??_C@_03ELIABIOC@w?$CLb@   1006913c     libcpmt:fiopen.obj
 0002:00002140       ??_C@_03DOPCBAKB@a?$CLb@   10069140     libcpmt:fiopen.obj
 0002:00002148       ??_7bad_exception@std@@6B@ 10069148     libcpmt:excptptr.obj
 0002:00002150       ??_C@_0O@DPKOEFFH@bad?5exception@ 10069150     libcpmt:excptptr.obj
 0002:000021a0       ??_7bad_array_new_length@std@@6B@ 100691a0     libcpmt:locale.obj
 0002:000021ac       ??_7bad_cast@std@@6B@      100691ac     libcpmt:locale.obj
 0002:000021b8       ??_7codecvt_base@std@@6B@  100691b8     libcpmt:locale.obj
 0002:000021d4       ??_7ctype_base@std@@6B@    100691d4     libcpmt:locale.obj
 0002:000021e4       ??_7?$ctype@D@std@@6B@     100691e4     libcpmt:locale.obj
 0002:00002214       ??_7?$num_put@DV?$ostreambuf_iterator@DU?$char_traits@D@std@@@std@@@std@@6B@ 10069214     libcpmt:locale.obj
 0002:00002244       ??_7?$numpunct@D@std@@6B@  10069244     libcpmt:locale.obj
 0002:00002268       ??_7?$codecvt@DDU_Mbstatet@@@std@@6B@ 10069268     libcpmt:locale.obj
 0002:00002290       ??_C@_11LOCGONAA@@         10069290     libcpmt:wlocale.obj
 0002:00002294       ??_C@_13IMODFHAA@?$AA?9@   10069294     libcpmt:wlocale.obj
 0002:00002298       ??_C@_01JOAMLHOP@?9@       10069298     libcpmt:wlocale.obj
 0002:00002340       ??_C@_1EC@JIJBPKFM@?$AAa?$AAp?$AAi?$AA?9?$AAm?$AAs?$AA?9?$AAw?$AAi?$AAn?$AA?9?$AAc?$AAo?$AAr?$AAe@ 10069340     LIBCMT:thread_safe_statics.obj
 0002:00002384       ??_C@_1BK@MGMFAEKH@?$AAk?$AAe?$AAr?$AAn?$AAe?$AAl?$AA3?$AA2?$AA?4?$AAd?$AAl?$AAl@ 10069384     LIBCMT:thread_safe_statics.obj
 0002:000023a0       ??_C@_0BJ@JEBJOJFJ@SleepConditionVariableCS@ 100693a0     LIBCMT:thread_safe_statics.obj
 0002:000023bc       ??_C@_0BJ@PGPPEPCC@WakeAllConditionVariable@ 100693bc     LIBCMT:thread_safe_statics.obj
 0002:000023dc       ??_7type_info@@6B@         100693dc     LIBCMT:std_type_info_static.obj
 0002:000023e8       __pDefaultRawDllMain       100693e8     LIBCMT:dll_dllmain.obj
 0002:000023e8       __pRawDllMain              100693e8     LIBCMT:dll_dllmain.obj
 0002:000023ec       __pDestructExceptionObject 100693ec     libvcruntime:ehhelpers.obj
 0002:00002770       ??_C@_08EHJDFFNH@__based?$CI@ 10069770     libvcruntime:undname.obj
 0002:0000277c       ??_C@_07KOLFKCDI@__cdecl@  1006977c     libvcruntime:undname.obj
 0002:00002784       ??_C@_08GHMPAG@__pascal@   10069784     libvcruntime:undname.obj
 0002:00002790       ??_C@_09IFJBGAPI@__stdcall@ 10069790     libvcruntime:undname.obj
 0002:0000279c       ??_C@_0L@NPHFGOKO@__thiscall@ 1006979c     libvcruntime:undname.obj
 0002:000027a8       ??_C@_0L@JMKHOMEK@__fastcall@ 100697a8     libvcruntime:undname.obj
 0002:000027b4       ??_C@_0N@BCKKPABJ@__vectorcall@ 100697b4     libvcruntime:undname.obj
 0002:000027c4       ??_C@_09HIJEGCPM@__clrcall@ 100697c4     libvcruntime:undname.obj
 0002:000027d0       ??_C@_06GHPCKEAG@__eabi@   100697d0     libvcruntime:undname.obj
 0002:000027d8       ??_C@_09IOPIDJLG@__swift_1@ 100697d8     libvcruntime:undname.obj
 0002:000027e4       ??_C@_09KFNFGKHF@__swift_2@ 100697e4     libvcruntime:undname.obj
 0002:000027f0       ??_C@_07JOMMBBKO@__ptr64@  100697f0     libvcruntime:undname.obj
 0002:000027f8       ??_C@_0L@PILCLIHE@__restrict@ 100697f8     libvcruntime:undname.obj
 0002:00002804       ??_C@_0M@GFIIJFMG@__unaligned@ 10069804     libvcruntime:undname.obj
 0002:00002810       ??_C@_09DHDLOLLB@restrict?$CI@ 10069810     libvcruntime:undname.obj
 0002:0000281c       ??_C@_04NIHEBCM@?5new@     1006981c     libvcruntime:undname.obj
 0002:00002824       ??_C@_07FPCDHGMM@?5delete@ 10069824     libvcruntime:undname.obj
 0002:0000282c       ??_C@_01NEMOKFLO@?$DN@     1006982c     libvcruntime:undname.obj
 0002:00002830       ??_C@_02GPIOPFAK@?$DO?$DO@ 10069830     libvcruntime:undname.obj
 0002:00002834       ??_C@_02FODMEDOG@?$DM?$DM@ 10069834     libvcruntime:undname.obj
 0002:00002838       ??_C@_01DCLJPIOD@?$CB@     10069838     libvcruntime:undname.obj
 0002:0000283c       ??_C@_02EGOFBIJA@?$DN?$DN@ 1006983c     libvcruntime:undname.obj
 0002:00002840       ??_C@_02FDNJECIE@?$CB?$DN@ 10069840     libvcruntime:undname.obj
 0002:00002844       ??_C@_02GPECMEKF@?$FL?$FN@ 10069844     libvcruntime:undname.obj
 0002:00002848       ??_C@_08LHJFAFGD@operator@ 10069848     libvcruntime:undname.obj
 0002:00002854       ??_C@_02HBOOOICD@?9?$DO@   10069854     libvcruntime:undname.obj
 0002:00002858       ??_C@_02ECNGHCIF@?$CL?$CL@ 10069858     libvcruntime:undname.obj
 0002:0000285c       ??_C@_02BAABKJLB@?9?9@     1006985c     libvcruntime:undname.obj
 0002:00002860       ??_C@_01MIFGBAGJ@?$CL@     10069860     libvcruntime:undname.obj
 0002:00002864       ??_C@_01HNPIGOCE@?$CG@     10069864     libvcruntime:undname.obj
 0002:00002868       ??_C@_03MNHNFDLC@?9?$DO?$CK@ 10069868     libvcruntime:undname.obj
 0002:0000286c       ??_C@_01KMDKNFGN@?1@       1006986c     libvcruntime:undname.obj
 0002:00002870       ??_C@_01FGNFDNOH@?$CF@     10069870     libvcruntime:undname.obj
 0002:00002874       ??_C@_01MNNFJEPP@?$DM@     10069874     libvcruntime:undname.obj
 0002:00002878       ??_C@_02EHCHHCKH@?$DM?$DN@ 10069878     libvcruntime:undname.obj
 0002:0000287c       ??_C@_01PPODPGHN@?$DO@     1006987c     libvcruntime:undname.obj
 0002:00002880       ??_C@_02EEKDKGMJ@?$DO?$DN@ 10069880     libvcruntime:undname.obj
 0002:00002884       ??_C@_01IHBHIGKO@?0@       10069884     libvcruntime:undname.obj
 0002:00002888       ??_C@_02HCKGKOFO@?$CI?$CJ@ 10069888     libvcruntime:undname.obj
 0002:0000288c       ??_C@_01PJKLJHI@?$HO@      1006988c     libvcruntime:undname.obj
 0002:00002890       ??_C@_01JKBOJNNK@?$FO@     10069890     libvcruntime:undname.obj
 0002:00002894       ??_C@_01DNKMNLPK@?$HM@     10069894     libvcruntime:undname.obj
 0002:00002898       ??_C@_02PPKAJPJL@?$CG?$CG@ 10069898     libvcruntime:undname.obj
 0002:0000289c       ??_C@_02NONPIBCD@?$HM?$HM@ 1006989c     libvcruntime:undname.obj
 0002:000028a0       ??_C@_02FPIMKNGF@?$CK?$DN@ 100698a0     libvcruntime:undname.obj
 0002:000028a4       ??_C@_02FOEOMHFC@?$CL?$DN@ 100698a4     libvcruntime:undname.obj
 0002:000028a8       ??_C@_02FKMDLLOA@?9?$DN@   100698a8     libvcruntime:undname.obj
 0002:000028ac       ??_C@_02FJEHGPIO@?1?$DN@   100698ac     libvcruntime:undname.obj
 0002:000028b0       ??_C@_02FENAOKFI@?$CF?$DN@ 100698b0     libvcruntime:undname.obj
 0002:000028b4       ??_C@_03IKFCCPFF@?$DO?$DO?$DN@ 100698b4     libvcruntime:undname.obj
 0002:000028b8       ??_C@_03CDNPDDLA@?$DM?$DM?$DN@ 100698b8     libvcruntime:undname.obj
 0002:000028bc       ??_C@_02FGJGFEAB@?$CG?$DN@ 100698bc     libvcruntime:undname.obj
 0002:000028c0       ??_C@_02DHLNPPGH@?$HM?$DN@ 100698c0     libvcruntime:undname.obj
 0002:000028c4       ??_C@_02MHEGNOJ@?$FO?$DN@  100698c4     libvcruntime:undname.obj
 0002:000028c8       ??_C@_09IFPLHPGF@?$GAvftable?8@ 100698c8     libvcruntime:undname.obj
 0002:000028d4       ??_C@_09BLBHBJP@?$GAvbtable?8@ 100698d4     libvcruntime:undname.obj
 0002:000028e0       ??_C@_07FEEIOKP@?$GAvcall?8@ 100698e0     libvcruntime:undname.obj
 0002:000028e8       ??_C@_08LLFFHHDJ@?$GAtypeof?8@ 100698e8     libvcruntime:undname.obj
 0002:000028f4       ??_C@_0BF@KDPPACIK@?$GAlocal?5static?5guard?8@ 100698f4     libvcruntime:undname.obj
 0002:0000290c       ??_C@_08OBABFOLI@?$GAstring?8@ 1006990c     libvcruntime:undname.obj
 0002:00002918       ??_C@_0BD@JDLKDPAB@?$GAvbase?5destructor?8@ 10069918     libvcruntime:undname.obj
 0002:0000292c       ??_C@_0BN@DEGPLNFK@?$GAvector?5deleting?5destructor?8@ 1006992c     libvcruntime:undname.obj
 0002:0000294c       ??_C@_0BO@OBMKPJIG@?$GAdefault?5constructor?5closure?8@ 1006994c     libvcruntime:undname.obj
 0002:0000296c       ??_C@_0BN@IMDCHIKM@?$GAscalar?5deleting?5destructor?8@ 1006996c     libvcruntime:undname.obj
 0002:0000298c       ??_C@_0BO@PFGOCPJJ@?$GAvector?5constructor?5iterator?8@ 1006998c     libvcruntime:undname.obj
 0002:000029ac       ??_C@_0BN@LFPFMEDL@?$GAvector?5destructor?5iterator?8@ 100699ac     libvcruntime:undname.obj
 0002:000029cc       ??_C@_0CE@IKBNEHA@?$GAvector?5vbase?5constructor?5itera@ 100699cc     libvcruntime:undname.obj
 0002:000029f0       ??_C@_0BL@NILFHHPC@?$GAvirtual?5displacement?5map?8@ 100699f0     libvcruntime:undname.obj
 0002:00002a0c       ??_C@_0CB@JONCMFFK@?$GAeh?5vector?5constructor?5iterator@ 10069a0c     libvcruntime:undname.obj
 0002:00002a30       ??_C@_0CA@GCEOPDGL@?$GAeh?5vector?5destructor?5iterator?8@ 10069a30     libvcruntime:undname.obj
 0002:00002a50       ??_C@_0CH@OOJPLCPH@?$GAeh?5vector?5vbase?5constructor?5it@ 10069a50     libvcruntime:undname.obj
 0002:00002a78       ??_C@_0BL@LLKPOHJI@?$GAcopy?5constructor?5closure?8@ 10069a78     libvcruntime:undname.obj
 0002:00002a94       ??_C@_0BA@KBCDOMBN@?$GAudt?5returning?8@ 10069a94     libvcruntime:undname.obj
 0002:00002aa4       ??_C@_03KLGMFNMG@?$GAEH@   10069aa4     libvcruntime:undname.obj
 0002:00002aa8       ??_C@_05KHLCHHI@?$GARTTI@  10069aa8     libvcruntime:undname.obj
 0002:00002ab0       ??_C@_0BA@KKLDJDLB@?$GAlocal?5vftable?8@ 10069ab0     libvcruntime:undname.obj
 0002:00002ac0       ??_C@_0CE@IIHCMGGL@?$GAlocal?5vftable?5constructor?5clos@ 10069ac0     libvcruntime:undname.obj
 0002:00002ae4       ??_C@_06FHBGPFGH@?5new?$FL?$FN@ 10069ae4     libvcruntime:undname.obj
 0002:00002aec       ??_C@_09LBNFPBCA@?5delete?$FL?$FN@ 10069aec     libvcruntime:undname.obj
 0002:00002af8       ??_C@_0P@HJKNJFNN@?$GAomni?5callsig?8@ 10069af8     libvcruntime:undname.obj
 0002:00002b08       ??_C@_0BL@CNOONJFP@?$GAplacement?5delete?5closure?8@ 10069b08     libvcruntime:undname.obj
 0002:00002b24       ??_C@_0BN@CKNJLHMB@?$GAplacement?5delete?$FL?$FN?5closure?8@ 10069b24     libvcruntime:undname.obj
 0002:00002b44       ??_C@_0CG@CFDHKGGD@?$GAmanaged?5vector?5constructor?5ite@ 10069b44     libvcruntime:undname.obj
 0002:00002b6c       ??_C@_0CF@IMGKMJNO@?$GAmanaged?5vector?5destructor?5iter@ 10069b6c     libvcruntime:undname.obj
 0002:00002b94       ??_C@_0CG@HLDDJMAG@?$GAeh?5vector?5copy?5constructor?5ite@ 10069b94     libvcruntime:undname.obj
 0002:00002bbc       ??_C@_0CM@FCBBDIGB@?$GAeh?5vector?5vbase?5copy?5construct@ 10069bbc     libvcruntime:undname.obj
 0002:00002be8       ??_C@_0BL@CLIPGLGB@?$GAdynamic?5initializer?5for?5?8@ 10069be8     libvcruntime:undname.obj
 0002:00002c04       ??_C@_0CB@PDBIFEP@?$GAdynamic?5atexit?5destructor?5for?5@ 10069c04     libvcruntime:undname.obj
 0002:00002c28       ??_C@_0CD@CGAJBKEJ@?$GAvector?5copy?5constructor?5iterat@ 10069c28     libvcruntime:undname.obj
 0002:00002c4c       ??_C@_0CJ@GJELGAMM@?$GAvector?5vbase?5copy?5constructor?5@ 10069c4c     libvcruntime:undname.obj
 0002:00002c78       ??_C@_0CL@FGIJHLCE@?$GAmanaged?5vector?5copy?5constructo@ 10069c78     libvcruntime:undname.obj
 0002:00002ca4       ??_C@_0BM@PMGGMLDN@?$GAlocal?5static?5thread?5guard?8@ 10069ca4     libvcruntime:undname.obj
 0002:00002cc0       ??_C@_0N@BDNMDMOL@operator?5?$CC?$CC?5@ 10069cc0     libvcruntime:undname.obj
 0002:00002cd0       ??_C@_0BC@GGEBGALA@operator?5co_await@ 10069cd0     libvcruntime:undname.obj
 0002:00002ce4       ??_C@_0M@GAAIMMOH@operator?$DM?$DN?$DO@ 10069ce4     libvcruntime:undname.obj
 0002:00002cf0       ??_C@_0BC@DAFEJGAK@?5Type?5Descriptor?8@ 10069cf0     libvcruntime:undname.obj
 0002:00002d04       ??_C@_0BM@LDKODKLH@?5Base?5Class?5Descriptor?5at?5?$CI@ 10069d04     libvcruntime:undname.obj
 0002:00002d20       ??_C@_0BD@LGICGFMM@?5Base?5Class?5Array?8@ 10069d20     libvcruntime:undname.obj
 0002:00002d34       ??_C@_0BN@MECKDCOJ@?5Class?5Hierarchy?5Descriptor?8@ 10069d34     libvcruntime:undname.obj
 0002:00002d54       ??_C@_0BK@CFCOFLF@?5Complete?5Object?5Locator?8@ 10069d54     libvcruntime:undname.obj
 0002:00002d70       ??_C@_0BG@JNJLAMPM@?$GAanonymous?5namespace?8@ 10069d70     libvcruntime:undname.obj
 0002:00002d94       ??_C@_1DM@KHCHBNEB@?$AAa?$AAp?$AAi?$AA?9?$AAm?$AAs?$AA?9?$AAw?$AAi?$AAn?$AA?9?$AAc?$AAo?$AAr?$AAe@ 10069d94     libvcruntime:winapi_downlevel.obj
 0002:00002dd0       ??_C@_1DK@LPPGFMPP@?$AAa?$AAp?$AAi?$AA?9?$AAm?$AAs?$AA?9?$AAw?$AAi?$AAn?$AA?9?$AAc?$AAo?$AAr?$AAe@ 10069dd0     libvcruntime:winapi_downlevel.obj
 0002:00002e0c       ??_C@_1BC@GDMECMAK@?$AAk?$AAe?$AAr?$AAn?$AAe?$AAl?$AA3?$AA2@ 10069e0c     libvcruntime:winapi_downlevel.obj
 0002:00002e20       ??_C@_1BA@PFFKHIOG@?$AAa?$AAp?$AAi?$AA?9?$AAm?$AAs?$AA?9@ 10069e20     libvcruntime:winapi_downlevel.obj
 0002:00002e38       ??_C@_08KNHFBNJ@FlsAlloc@  10069e38     libvcruntime:winapi_downlevel.obj
 0002:00002e4c       ??_C@_07PEJMOBNF@FlsFree@  10069e4c     libvcruntime:winapi_downlevel.obj
 0002:00002e5c       ??_C@_0M@GDNOONDI@FlsGetValue@ 10069e5c     libvcruntime:winapi_downlevel.obj
 0002:00002e70       ??_C@_0M@JCPCPOEF@FlsSetValue@ 10069e70     libvcruntime:winapi_downlevel.obj
 0002:00002e84       ??_C@_0BM@HCFOFFN@InitializeCriticalSectionEx@ 10069e84     libvcruntime:winapi_downlevel.obj
 0002:00002ea0       ??_C@_1BI@BGOHAHKC@?$AAm?$AAs?$AAc?$AAo?$AAr?$AAe?$AAe?$AA?4?$AAd?$AAl?$AAl@ 10069ea0     libucrt:exit.obj
 0002:00002eb8       ??_C@_0P@MIGLKIOC@CorExitProcess@ 10069eb8     libucrt:exit.obj
 0002:00002ec8       ?large_power_data@?1??multiply_by_power_of_ten@__crt_strtox@@YA_NAAUbig_integer@2@I@Z@4QBIB 10069ec8     libucrt:atof.obj
 0002:000037d0       ?large_power_indices@?1??multiply_by_power_of_ten@__crt_strtox@@YA_NAAUbig_integer@2@I@Z@4QBUunpack_index@?1??12@YA_N0I@Z@B 1006a7d0     libucrt:atof.obj
 0002:00003868       ?small_powers_of_ten@?1??multiply_by_power_of_ten@__crt_strtox@@YA_NAAUbig_integer@2@I@Z@4QBIB 1006a868     libucrt:atof.obj
 0002:00003890       ??_C@_1GE@DPGDJKLM@?$AAm?$AAi?$AAn?$AAk?$AAe?$AAr?$AAn?$AAe?$AAl?$AA?2?$AAc?$AAr?$AAt?$AAs?$AA?2@ 1006a890     libucrt:atof.obj
 0002:000038f8       ??_C@_1FM@FELNCOBF@?$AA_?$AA_?$AAc?$AAr?$AAt?$AA_?$AAs?$AAt?$AAr?$AAt?$AAo?$AAx?$AA?3?$AA?3?$AAf@ 1006a8f8     libucrt:atof.obj
 0002:00003954       ??_C@_1BG@GEMHBGAF@?$AA_?$AAi?$AAs?$AA_?$AAd?$AAo?$AAu?$AAb?$AAl?$AAe@ 1006a954     libucrt:atof.obj
 0002:00003970       ??_C@_1FK@JOJELFFO@?$AA_?$AA_?$AAc?$AAr?$AAt?$AA_?$AAs?$AAt?$AAr?$AAt?$AAo?$AAx?$AA?3?$AA?3?$AAf@ 1006a970     libucrt:atof.obj
 0002:000039cc       ??_C@_1BI@BANMPGJI@?$AA?$CB?$AA_?$AAi?$AAs?$AA_?$AAd?$AAo?$AAu?$AAb?$AAl?$AAe@ 1006a9cc     libucrt:atof.obj
 0002:000039e4       ?inf_uppercase@?1???$parse_floating_point_possible_infinity@DV?$c_string_character_source@D@__crt_strtox@@PBD@__crt_strtox@@YA?AW4floating_point_parse_result@1@AADAAV?$c_string_character_source@D@1@PBD@Z@4QBDB 1006a9e4     libucrt:atof.obj
 0002:000039e8       ?inf_lowercase@?1???$parse_floating_point_possible_infinity@DV?$c_string_character_source@D@__crt_strtox@@PBD@__crt_strtox@@YA?AW4floating_point_parse_result@1@AADAAV?$c_string_character_source@D@1@PBD@Z@4QBDB 1006a9e8     libucrt:atof.obj
 0002:000039ec       ?inity_uppercase@?1???$parse_floating_point_possible_infinity@DV?$c_string_character_source@D@__crt_strtox@@PBD@__crt_strtox@@YA?AW4floating_point_parse_result@1@AADAAV?$c_string_character_source@D@1@PBD@Z@4QBDB 1006a9ec     libucrt:atof.obj
 0002:000039f4       ?inity_lowercase@?1???$parse_floating_point_possible_infinity@DV?$c_string_character_source@D@__crt_strtox@@PBD@__crt_strtox@@YA?AW4floating_point_parse_result@1@AADAAV?$c_string_character_source@D@1@PBD@Z@4QBDB 1006a9f4     libucrt:atof.obj
 0002:000039fc       ?uppercase@?1???$parse_floating_point_possible_nan@DV?$c_string_character_source@D@__crt_strtox@@PBD@__crt_strtox@@YA?AW4floating_point_parse_result@1@AADAAV?$c_string_character_source@D@1@PBD@Z@4QBDB 1006a9fc     libucrt:atof.obj
 0002:00003a00       ?lowercase@?1???$parse_floating_point_possible_nan@DV?$c_string_character_source@D@__crt_strtox@@PBD@__crt_strtox@@YA?AW4floating_point_parse_result@1@AADAAV?$c_string_character_source@D@1@PBD@Z@4QBDB 1006aa00     libucrt:atof.obj
 0002:00003a04       ?uppercase@?1???$parse_floating_point_possible_nan_is_snan@DV?$c_string_character_source@D@__crt_strtox@@@__crt_strtox@@YA_NAADAAV?$c_string_character_source@D@1@@Z@4QBDB 1006aa04     libucrt:atof.obj
 0002:00003a0c       ?lowercase@?1???$parse_floating_point_possible_nan_is_snan@DV?$c_string_character_source@D@__crt_strtox@@@__crt_strtox@@YA_NAADAAV?$c_string_character_source@D@1@@Z@4QBDB 1006aa0c     libucrt:atof.obj
 0002:00003a14       ?uppercase@?1???$parse_floating_point_possible_nan_is_ind@DV?$c_string_character_source@D@__crt_strtox@@@__crt_strtox@@YA_NAADAAV?$c_string_character_source@D@1@@Z@4QBDB 1006aa14     libucrt:atof.obj
 0002:00003a18       ?lowercase@?1???$parse_floating_point_possible_nan_is_ind@DV?$c_string_character_source@D@__crt_strtox@@@__crt_strtox@@YA_NAADAAV?$c_string_character_source@D@1@@Z@4QBDB 1006aa18     libucrt:atof.obj
 0002:00003a20       ?standard_lookup_table_spectre@__crt_stdio_output@@3V?$spectre_mitigated_lookup_table@Ustate_transition_pair@__crt_stdio_output@@$0IA@@1@B 1006aa20     libucrt:output.obj
 0002:00003b20       ?format_validation_lookup_table_spectre@__crt_stdio_output@@3V?$spectre_mitigated_lookup_table@Ustate_transition_pair@__crt_stdio_output@@$0IA@@1@B 1006ab20     libucrt:output.obj
 0002:00003c20       ??_C@_1O@CEDCILHN@?$AA?$CI?$AAn?$AAu?$AAl?$AAl?$AA?$CJ@ 1006ac20     libucrt:output.obj
 0002:00003c30       ??_C@_06OJHGLDPL@?$CInull?$CJ@ 1006ac30     libucrt:output.obj
 0002:00003c38       __real@8000000000000000    1006ac38     libucrt:frexp.obj
 0002:00003c40       ___newctype                1006ac40     libucrt:ctype.obj
 0002:00003f40       ___newclmap                1006af40     libucrt:ctype.obj
 0002:000040c0       ___newcumap                1006b0c0     libucrt:ctype.obj
 0002:00004240       __wctype                   1006b240     libucrt:ctype.obj
 0002:000045b4       __half                     1006b5b4     libucrt:pow_impl.obj
 0002:000045c0       ___acrt_exception_action_table 1006b5c0     libucrt:exception_filter.obj
 0002:00004650       ___acrt_signal_action_table_count 1006b650     libucrt:exception_filter.obj
 0002:00004654       ___acrt_signal_action_first_fpe_index 1006b654     libucrt:exception_filter.obj
 0002:00004658       ___acrt_signal_action_fpe_count 1006b658     libucrt:exception_filter.obj
 0002:00004760       ___lc_category             1006b760     libucrt:wsetlocale.obj
 0002:000047a8       ??_C@_1O@GIFLHMA@?$AAL?$AAC?$AA_?$AAA?$AAL?$AAL@ 1006b7a8     libucrt:wsetlocale.obj
 0002:000047b8       ??_C@_1BG@PPOMIBNJ@?$AAL?$AAC?$AA_?$AAC?$AAO?$AAL?$AAL?$AAA?$AAT?$AAE@ 1006b7b8     libucrt:wsetlocale.obj
 0002:000047d0       ??_C@_1BC@FFJGAPJM@?$AAL?$AAC?$AA_?$AAC?$AAT?$AAY?$AAP?$AAE@ 1006b7d0     libucrt:wsetlocale.obj
 0002:000047e4       ??_C@_1BI@PCKFNJFB@?$AAL?$AAC?$AA_?$AAM?$AAO?$AAN?$AAE?$AAT?$AAA?$AAR?$AAY@ 1006b7e4     libucrt:wsetlocale.obj
 0002:000047fc       ??_C@_1BG@ENIEDKID@?$AAL?$AAC?$AA_?$AAN?$AAU?$AAM?$AAE?$AAR?$AAI?$AAC@ 1006b7fc     libucrt:wsetlocale.obj
 0002:00004814       ??_C@_1BA@HAAOMIIG@?$AAL?$AAC?$AA_?$AAT?$AAI?$AAM?$AAE@ 1006b814     libucrt:wsetlocale.obj
 0002:00004824       ??_C@_15NBPDDFIP@?$AA?$DN?$AA?$DL@ 1006b824     libucrt:wsetlocale.obj
 0002:0000482c       ??_C@_13PJJBFPED@?$AA?$DL@ 1006b82c     libucrt:wsetlocale.obj
 0002:00004830       ??_C@_13NMPKAAJP@?$AA?$DN@ 1006b830     libucrt:wsetlocale.obj
 0002:00004834       ??_C@_17EFJLDFDO@?$AA?9?$AA_?$AA?4@ 1006b834     libucrt:wsetlocale.obj
 0002:0000483c       ??_C@_13FHBKNHDA@?$AAC@    1006b83c     libucrt:wsetlocale.obj
 0002:00004840       ??_C@_17MBJJLFDM@?$AA_?$AA?4?$AA?0@ 1006b840     libucrt:wsetlocale.obj
 0002:00004848       ??_C@_13ENNFDPBH@?$AA_@    1006b848     libucrt:wsetlocale.obj
 0002:0000484c       ??_C@_13JOFGPIOO@?$AA?4@   1006b84c     libucrt:wsetlocale.obj
 0002:00004850       ___lc_time_c               1006b850     libucrt:nlsdata.obj
 0002:000049b4       ??_C@_03KOEHGMDN@Sun@      1006b9b4     libucrt:nlsdata.obj
 0002:000049b8       ??_C@_03PDAGKDH@Mon@       1006b9b8     libucrt:nlsdata.obj
 0002:000049bc       ??_C@_03NAGEINEP@Tue@      1006b9bc     libucrt:nlsdata.obj
 0002:000049c0       ??_C@_03MHOMLAJA@Wed@      1006b9c0     libucrt:nlsdata.obj
 0002:000049c4       ??_C@_03IOFIKPDN@Thu@      1006b9c4     libucrt:nlsdata.obj
 0002:000049c8       ??_C@_03IDIOELNC@Fri@      1006b9c8     libucrt:nlsdata.obj
 0002:000049cc       ??_C@_03FEFJNEK@Sat@       1006b9cc     libucrt:nlsdata.obj
 0002:000049d0       ??_C@_06OOPIFAJ@Sunday@    1006b9d0     libucrt:nlsdata.obj
 0002:000049d8       ??_C@_06JLEDEDGH@Monday@   1006b9d8     libucrt:nlsdata.obj
 0002:000049e0       ??_C@_07BAAGCFCM@Tuesday@  1006b9e0     libucrt:nlsdata.obj
 0002:000049e8       ??_C@_09DLIGFAKA@Wednesday@ 1006b9e8     libucrt:nlsdata.obj
 0002:000049f4       ??_C@_08HACCIKIA@Thursday@ 1006b9f4     libucrt:nlsdata.obj
 0002:00004a00       ??_C@_06JECMNKMI@Friday@   1006ba00     libucrt:nlsdata.obj
 0002:00004a08       ??_C@_08INBOOONO@Saturday@ 1006ba08     libucrt:nlsdata.obj
 0002:00004a14       ??_C@_03JIHJHPIE@Jan@      1006ba14     libucrt:nlsdata.obj
 0002:00004a18       ??_C@_03HJBDCHOM@Feb@      1006ba18     libucrt:nlsdata.obj
 0002:00004a1c       ??_C@_03ODNJBKGA@Mar@      1006ba1c     libucrt:nlsdata.obj
 0002:00004a20       ??_C@_03LEOLGMJP@Apr@      1006ba20     libucrt:nlsdata.obj
 0002:00004a24       ??_C@_03CNMDKL@May@        1006ba24     libucrt:nlsdata.obj
 0002:00004a28       ??_C@_03IDFGHECI@Jun@      1006ba28     libucrt:nlsdata.obj
 0002:00004a2c       ??_C@_03LBGABGKK@Jul@      1006ba2c     libucrt:nlsdata.obj
 0002:00004a30       ??_C@_03IFJFEIGA@Aug@      1006ba30     libucrt:nlsdata.obj
 0002:00004a34       ??_C@_03GGCAPAJC@Sep@      1006ba34     libucrt:nlsdata.obj
 0002:00004a38       ??_C@_03BMAOKBAD@Oct@      1006ba38     libucrt:nlsdata.obj
 0002:00004a3c       ??_C@_03JPJOFNIA@Nov@      1006ba3c     libucrt:nlsdata.obj
 0002:00004a40       ??_C@_03MKABNOCG@Dec@      1006ba40     libucrt:nlsdata.obj
 0002:00004a44       ??_C@_07CGJPFGJA@January@  1006ba44     libucrt:nlsdata.obj
 0002:00004a4c       ??_C@_08GNJGEPFN@February@ 1006ba4c     libucrt:nlsdata.obj
 0002:00004a58       ??_C@_05HPCKOFNC@March@    1006ba58     libucrt:nlsdata.obj
 0002:00004a60       ??_C@_05DMJDNLEJ@April@    1006ba60     libucrt:nlsdata.obj
 0002:00004a68       ??_C@_04CNLMGBGM@June@     1006ba68     libucrt:nlsdata.obj
 0002:00004a70       ??_C@_04MIEPOIFP@July@     1006ba70     libucrt:nlsdata.obj
 0002:00004a78       ??_C@_06LBBHFDDG@August@   1006ba78     libucrt:nlsdata.obj
 0002:00004a80       ??_C@_09BHHEALKD@September@ 1006ba80     libucrt:nlsdata.obj
 0002:00004a8c       ??_C@_07JJNFCEND@October@  1006ba8c     libucrt:nlsdata.obj
 0002:00004a94       ??_C@_08HCHEGEOA@November@ 1006ba94     libucrt:nlsdata.obj
 0002:00004aa0       ??_C@_08EDHMEBNP@December@ 1006baa0     libucrt:nlsdata.obj
 0002:00004aac       ??_C@_02DEDBPAFC@AM@       1006baac     libucrt:nlsdata.obj
 0002:00004ab0       ??_C@_02CJNFDJBF@PM@       1006bab0     libucrt:nlsdata.obj
 0002:00004ab4       ??_C@_08BPBNCDIB@MM?1dd?1yy@ 1006bab4     libucrt:nlsdata.obj
 0002:00004ac0       ??_C@_0BE@CKGJFCPC@dddd?0?5MMMM?5dd?0?5yyyy@ 1006bac0     libucrt:nlsdata.obj
 0002:00004ad4       ??_C@_08JCCMCCIL@HH?3mm?3ss@ 1006bad4     libucrt:nlsdata.obj
 0002:00004ae0       ??_C@_17MBGCMIPB@?$AAS?$AAu?$AAn@ 1006bae0     libucrt:nlsdata.obj
 0002:00004ae8       ??_C@_17KBOMKBF@?$AAM?$AAo?$AAn@ 1006bae8     libucrt:nlsdata.obj
 0002:00004af0       ??_C@_17BMKGEGOJ@?$AAT?$AAu?$AAe@ 1006baf0     libucrt:nlsdata.obj
 0002:00004af8       ??_C@_17CJEDCEPE@?$AAW?$AAe?$AAd@ 1006baf8     libucrt:nlsdata.obj
 0002:00004b00       ??_C@_17PDPHAADD@?$AAT?$AAh?$AAu@ 1006bb00     libucrt:nlsdata.obj
 0002:00004b08       ??_C@_17HFOLPPLP@?$AAF?$AAr?$AAi@ 1006bb08     libucrt:nlsdata.obj
 0002:00004b10       ??_C@_17GGIBDPIH@?$AAS?$AAa?$AAt@ 1006bb10     libucrt:nlsdata.obj
 0002:00004b18       ??_C@_1O@IHNHDHPB@?$AAS?$AAu?$AAn?$AAd?$AAa?$AAy@ 1006bb18     libucrt:nlsdata.obj
 0002:00004b28       ??_C@_1O@MMNBFLIA@?$AAM?$AAo?$AAn?$AAd?$AAa?$AAy@ 1006bb28     libucrt:nlsdata.obj
 0002:00004b38       ??_C@_1BA@ENFBFFEK@?$AAT?$AAu?$AAe?$AAs?$AAd?$AAa?$AAy@ 1006bb38     libucrt:nlsdata.obj
 0002:00004b48       ??_C@_1BE@EBOGMDOH@?$AAW?$AAe?$AAd?$AAn?$AAe?$AAs?$AAd?$AAa?$AAy@ 1006bb48     libucrt:nlsdata.obj
 0002:00004b5c       ??_C@_1BC@HHMNLIHE@?$AAT?$AAh?$AAu?$AAr?$AAs?$AAd?$AAa?$AAy@ 1006bb5c     libucrt:nlsdata.obj
 0002:00004b70       ??_C@_1O@PDICJHAG@?$AAF?$AAr?$AAi?$AAd?$AAa?$AAy@ 1006bb70     libucrt:nlsdata.obj
 0002:00004b80       ??_C@_1BC@ENMNNPAJ@?$AAS?$AAa?$AAt?$AAu?$AAr?$AAd?$AAa?$AAy@ 1006bb80     libucrt:nlsdata.obj
 0002:00004b94       ??_C@_17DKNBKCHM@?$AAJ?$AAa?$AAn@ 1006bb94     libucrt:nlsdata.obj
 0002:00004b9c       ??_C@_17LMDJEKJN@?$AAF?$AAe?$AAb@ 1006bb9c     libucrt:nlsdata.obj
 0002:00004ba4       ??_C@_17CKNLEDEC@?$AAM?$AAa?$AAr@ 1006bba4     libucrt:nlsdata.obj
 0002:00004bac       ??_C@_17LFPOIHDD@?$AAA?$AAp?$AAr@ 1006bbac     libucrt:nlsdata.obj
 0002:00004bb4       ??_C@_17PNNKMEED@?$AAM?$AAa?$AAy@ 1006bbb4     libucrt:nlsdata.obj
 0002:00004bbc       ??_C@_17KCJGOCPB@?$AAJ?$AAu?$AAn@ 1006bbbc     libucrt:nlsdata.obj
 0002:00004bc4       ??_C@_17IJPCKHK@?$AAJ?$AAu?$AAl@ 1006bbc4     libucrt:nlsdata.obj
 0002:00004bcc       ??_C@_17ICPELBCN@?$AAA?$AAu?$AAg@ 1006bbcc     libucrt:nlsdata.obj
 0002:00004bd4       ??_C@_17HCHCOKMG@?$AAS?$AAe?$AAp@ 1006bbd4     libucrt:nlsdata.obj
 0002:00004bdc       ??_C@_17FNLKOI@?$AAO?$AAc?$AAt@ 1006bbdc     libucrt:nlsdata.obj
 0002:00004be4       ??_C@_17BBDMLCIG@?$AAN?$AAo?$AAv@ 1006bbe4     libucrt:nlsdata.obj
 0002:00004bec       ??_C@_17EGKACKIF@?$AAD?$AAe?$AAc@ 1006bbec     libucrt:nlsdata.obj
 0002:00004bf4       ??_C@_1BA@EFMEIEBA@?$AAJ?$AAa?$AAn?$AAu?$AAa?$AAr?$AAy@ 1006bbf4     libucrt:nlsdata.obj
 0002:00004c04       ??_C@_1BC@JGDDFFAM@?$AAF?$AAe?$AAb?$AAr?$AAu?$AAa?$AAr?$AAy@ 1006bc04     libucrt:nlsdata.obj
 0002:00004c18       ??_C@_1M@IKEENEDF@?$AAM?$AAa?$AAr?$AAc?$AAh@ 1006bc18     libucrt:nlsdata.obj
 0002:00004c24       ??_C@_1M@GJNLMHFD@?$AAA?$AAp?$AAr?$AAi?$AAl@ 1006bc24     libucrt:nlsdata.obj
 0002:00004c30       ??_C@_19EPFLPGAP@?$AAJ?$AAu?$AAn?$AAe@ 1006bc30     libucrt:nlsdata.obj
 0002:00004c3c       ??_C@_19BIFMLPCD@?$AAJ?$AAu?$AAl?$AAy@ 1006bc3c     libucrt:nlsdata.obj
 0002:00004c48       ??_C@_1O@PAHLKOAC@?$AAA?$AAu?$AAg?$AAu?$AAs?$AAt@ 1006bc48     libucrt:nlsdata.obj
 0002:00004c58       ??_C@_1BE@DKAAMBJL@?$AAS?$AAe?$AAp?$AAt?$AAe?$AAm?$AAb?$AAe?$AAr@ 1006bc58     libucrt:nlsdata.obj
 0002:00004c6c       ??_C@_1BA@EPANDLNG@?$AAO?$AAc?$AAt?$AAo?$AAb?$AAe?$AAr@ 1006bc6c     libucrt:nlsdata.obj
 0002:00004c7c       ??_C@_1BC@BGLIFPF@?$AAN?$AAo?$AAv?$AAe?$AAm?$AAb?$AAe?$AAr@ 1006bc7c     libucrt:nlsdata.obj
 0002:00004c90       ??_C@_1BC@FEMKIFH@?$AAD?$AAe?$AAc?$AAe?$AAm?$AAb?$AAe?$AAr@ 1006bc90     libucrt:nlsdata.obj
 0002:00004ca4       ??_C@_15ODEHAHHF@?$AAA?$AAM@ 1006bca4     libucrt:nlsdata.obj
 0002:00004cac       ??_C@_15CLMNNGEL@?$AAP?$AAM@ 1006bcac     libucrt:nlsdata.obj
 0002:00004cb4       ??_C@_1BC@IEBCMHCM@?$AAM?$AAM?$AA?1?$AAd?$AAd?$AA?1?$AAy?$AAy@ 1006bcb4     libucrt:nlsdata.obj
 0002:00004cc8       ??_C@_1CI@KNAKOEBC@?$AAd?$AAd?$AAd?$AAd?$AA?0?$AA?5?$AAM?$AAM?$AAM?$AAM?$AA?5?$AAd?$AAd?$AA?0?$AA?5@ 1006bcc8     libucrt:nlsdata.obj
 0002:00004cf0       ??_C@_1BC@GDGBMEMK@?$AAH?$AAH?$AA?3?$AAm?$AAm?$AA?3?$AAs?$AAs@ 1006bcf0     libucrt:nlsdata.obj
 0002:00004d04       ??_C@_1M@BMHNFIME@?$AAe?$AAn?$AA?9?$AAU?$AAS@ 1006bd04     libucrt:nlsdata.obj
 0002:00004d50       ??_C@_03OEIAHPBN@INF@      1006bd50     libucrt:cvt.obj
 0002:00004d54       ??_C@_03OJHLLCGB@inf@      1006bd54     libucrt:cvt.obj
 0002:00004d58       ??_C@_03LKNCIKJB@NAN@      1006bd58     libucrt:cvt.obj
 0002:00004d5c       ??_C@_03LHCJEHON@nan@      1006bd5c     libucrt:cvt.obj
 0002:00004d60       ??_C@_09OFJJIMPC@NAN?$CISNAN?$CJ@ 1006bd60     libucrt:cvt.obj
 0002:00004d6c       ??_C@_09IPFBKMDL@nan?$CIsnan?$CJ@ 1006bd6c     libucrt:cvt.obj
 0002:00004d78       ??_C@_08IKHNHAJ@NAN?$CIIND?$CJ@ 1006bd78     libucrt:cvt.obj
 0002:00004d84       ??_C@_08OFCDMILK@nan?$CIind?$CJ@ 1006bd84     libucrt:cvt.obj
 0002:00004d90       ??_C@_05KLBDPFGC@e?$CL000@ 1006bd90     libucrt:cvt.obj
 0002:00004de8       ??_C@_1EA@JGEFHKEI@?$AAa?$AAp?$AAi?$AA?9?$AAm?$AAs?$AA?9?$AAw?$AAi?$AAn?$AA?9?$AAc?$AAo?$AAr?$AAe@ 1006bde8     libucrt:winapi_thunks.obj
 0002:00004e28       ??_C@_1DI@IJCEHOCB@?$AAa?$AAp?$AAi?$AA?9?$AAm?$AAs?$AA?9?$AAw?$AAi?$AAn?$AA?9?$AAc?$AAo?$AAr?$AAe@ 1006be28     libucrt:winapi_thunks.obj
 0002:00004e60       ??_C@_1EI@MPIAOHOC@?$AAa?$AAp?$AAi?$AA?9?$AAm?$AAs?$AA?9?$AAw?$AAi?$AAn?$AA?9?$AAc?$AAo?$AAr?$AAe@ 1006be60     libucrt:winapi_thunks.obj
 0002:00004ea8       ??_C@_1FK@FPHCKFIE@?$AAa?$AAp?$AAi?$AA?9?$AAm?$AAs?$AA?9?$AAw?$AAi?$AAn?$AA?9?$AAc?$AAo?$AAr?$AAe@ 1006bea8     libucrt:winapi_thunks.obj
 0002:00004f08       ??_C@_1EM@DILCGIIO@?$AAa?$AAp?$AAi?$AA?9?$AAm?$AAs?$AA?9?$AAw?$AAi?$AAn?$AA?9?$AAc?$AAo?$AAr?$AAe@ 1006bf08     libucrt:winapi_thunks.obj
 0002:00004f54       ??_C@_1DM@LNCGDDPN@?$AAa?$AAp?$AAi?$AA?9?$AAm?$AAs?$AA?9?$AAw?$AAi?$AAn?$AA?9?$AAc?$AAo?$AAr?$AAe@ 1006bf54     libucrt:winapi_thunks.obj
 0002:00004f90       ??_C@_1DO@FPAPJEMD@?$AAa?$AAp?$AAi?$AA?9?$AAm?$AAs?$AA?9?$AAw?$AAi?$AAn?$AA?9?$AAc?$AAo?$AAr?$AAe@ 1006bf90     libucrt:winapi_thunks.obj
 0002:00004fd0       ??_C@_1DK@NDHNAHIO@?$AAa?$AAp?$AAi?$AA?9?$AAm?$AAs?$AA?9?$AAw?$AAi?$AAn?$AA?9?$AAc?$AAo?$AAr?$AAe@ 1006bfd0     libucrt:winapi_thunks.obj
 0002:0000500c       ??_C@_1DM@KGHDGBCM@?$AAa?$AAp?$AAi?$AA?9?$AAm?$AAs?$AA?9?$AAw?$AAi?$AAn?$AA?9?$AAc?$AAo?$AAr?$AAe@ 1006c00c     libucrt:winapi_thunks.obj
 0002:00005048       ??_C@_1EO@IJIOEFOH@?$AAa?$AAp?$AAi?$AA?9?$AAm?$AAs?$AA?9?$AAw?$AAi?$AAn?$AA?9?$AAr?$AAt?$AAc?$AAo@ 1006c048     libucrt:winapi_thunks.obj
 0002:00005098       ??_C@_1FG@HHGEKANL@?$AAa?$AAp?$AAi?$AA?9?$AAm?$AAs?$AA?9?$AAw?$AAi?$AAn?$AA?9?$AAs?$AAe?$AAc?$AAu@ 1006c098     libucrt:winapi_thunks.obj
 0002:000050f0       ??_C@_1EG@DBIOJECG@?$AAe?$AAx?$AAt?$AA?9?$AAm?$AAs?$AA?9?$AAw?$AAi?$AAn?$AA?9?$AAn?$AAt?$AAu?$AAs@ 1006c0f0     libucrt:winapi_thunks.obj
 0002:00005138       ??_C@_1EO@FIHMJCLF@?$AAe?$AAx?$AAt?$AA?9?$AAm?$AAs?$AA?9?$AAw?$AAi?$AAn?$AA?9?$AAn?$AAt?$AAu?$AAs@ 1006c138     libucrt:winapi_thunks.obj
 0002:00005188       ??_C@_1BC@DNHGCMLG@?$AAa?$AAd?$AAv?$AAa?$AAp?$AAi?$AA3?$AA2@ 1006c188     libucrt:winapi_thunks.obj
 0002:0000519c       ??_C@_1M@OAIMIKLP@?$AAn?$AAt?$AAd?$AAl?$AAl@ 1006c19c     libucrt:winapi_thunks.obj
 0002:000051a8       ??_C@_1EG@DPGNFKGC@?$AAa?$AAp?$AAi?$AA?9?$AAm?$AAs?$AA?9?$AAw?$AAi?$AAn?$AA?9?$AAa?$AAp?$AAp?$AAm@ 1006c1a8     libucrt:winapi_thunks.obj
 0002:000051f0       ??_C@_1O@BCCLBEOE@?$AAu?$AAs?$AAe?$AAr?$AA3?$AA2@ 1006c1f0     libucrt:winapi_thunks.obj
 0002:00005200       ??_C@_1DM@BPJLHKCE@?$AAa?$AAp?$AAi?$AA?9?$AAm?$AAs?$AA?9?$AAw?$AAi?$AAn?$AA?9?$AAc?$AAo?$AAr?$AAe@ 1006c200     libucrt:winapi_thunks.obj
 0002:0000523c       ??_C@_1BA@IAIFMGEF@?$AAe?$AAx?$AAt?$AA?9?$AAm?$AAs?$AA?9@ 1006c23c     libucrt:winapi_thunks.obj
 0002:00005250       ??_C@_0BA@FHFNEAED@AreFileApisANSI@ 1006c250     libucrt:winapi_thunks.obj
 0002:00005268       ??_C@_0BA@IHGNDAEB@CompareStringEx@ 1006c268     libucrt:winapi_thunks.obj
 0002:00005280       ??_C@_0BE@LJANKFHF@EnumSystemLocalesEx@ 1006c280     libucrt:winapi_thunks.obj
 0002:0000529c       ??_C@_0BA@EPCJIIPD@GetDateFormatEx@ 1006c29c     libucrt:winapi_thunks.obj
 0002:000052b4       ??_C@_0BA@ONOKGCMP@GetLocaleInfoEx@ 1006c2b4     libucrt:winapi_thunks.obj
 0002:000052cc       ??_C@_0BA@CIJJKCJJ@GetTimeFormatEx@ 1006c2cc     libucrt:winapi_thunks.obj
 0002:000052e4       ??_C@_0BJ@PBCCBIPI@GetUserDefaultLocaleName@ 1006c2e4     libucrt:winapi_thunks.obj
 0002:00005310       ??_C@_0BC@CELBKLLA@IsValidLocaleName@ 1006c310     libucrt:winapi_thunks.obj
 0002:0000532c       ??_C@_0O@KKBNKAPF@LCMapStringEx@ 1006c32c     libucrt:winapi_thunks.obj
 0002:00005344       ??_C@_0BB@CDHDDLLP@LCIDToLocaleName@ 1006c344     libucrt:winapi_thunks.obj
 0002:00005360       ??_C@_0BB@HBDEELFH@LocaleNameToLCID@ 1006c360     libucrt:winapi_thunks.obj
 0002:00005378       ??_C@_0CF@OJOFEIGO@AppPolicyGetProcessTerminationM@ 1006c378     libucrt:winapi_thunks.obj
 0002:000053c0       ?ccs@?1???$__acrt_stdio_parse_mode@D@@YA?AU__acrt_stdio_stream_mode@@QBD@Z@4QBDB 1006c3c0     libucrt:openfile.obj
 0002:000053c4       ?utf8_encoding@?1???$__acrt_stdio_parse_mode@D@@YA?AU__acrt_stdio_stream_mode@@QBD@Z@4QBDB 1006c3c4     libucrt:openfile.obj
 0002:000053cc       ?utf16_encoding@?1???$__acrt_stdio_parse_mode@D@@YA?AU__acrt_stdio_stream_mode@@QBD@Z@4QBDB 1006c3cc     libucrt:openfile.obj
 0002:000053d4       ?unicode_encoding@?1???$__acrt_stdio_parse_mode@D@@YA?AU__acrt_stdio_stream_mode@@QBD@Z@4QBDB 1006c3d4     libucrt:openfile.obj
 0002:000053dc       ??_C@_15HNJCPLHL@?$AAT?$AAZ@ 1006c3dc     libucrt:tzset.obj
 0002:000053e4       __days                     1006c3e4     libucrt:days.obj
 0002:00005418       __lpdays                   1006c418     libucrt:days.obj
 0002:00005538       ??_C@_03KHJOGHMM@exp@      1006c538     libucrt:fpexcept.obj
 0002:0000553c       ??_C@_03JGHBODFD@pow@      1006c53c     libucrt:fpexcept.obj
 0002:00005540       ??_C@_03MGHMBJCF@log@      1006c540     libucrt:fpexcept.obj
 0002:00005544       ??_C@_05HGHHAHAP@log10@    1006c544     libucrt:fpexcept.obj
 0002:0000554c       ??_C@_04COOMCNPB@sinh@     1006c54c     libucrt:fpexcept.obj
 0002:00005554       ??_C@_04HPJJNFIM@cosh@     1006c554     libucrt:fpexcept.obj
 0002:0000555c       ??_C@_04FJHINJAO@tanh@     1006c55c     libucrt:fpexcept.obj
 0002:00005564       ??_C@_04FIHNOPOL@asin@     1006c564     libucrt:fpexcept.obj
 0002:0000556c       ??_C@_04PDIFKINK@acos@     1006c56c     libucrt:fpexcept.obj
 0002:00005574       ??_C@_04MLLJIGOK@atan@     1006c574     libucrt:fpexcept.obj
 0002:0000557c       ??_C@_05KNGEOGJB@atan2@    1006c57c     libucrt:fpexcept.obj
 0002:00005584       ??_C@_04EIAKFFMI@sqrt@     1006c584     libucrt:fpexcept.obj
 0002:0000558c       ??_C@_03BLEJJJBH@sin@      1006c58c     libucrt:fpexcept.obj
 0002:00005590       ??_C@_03LALBNOCG@cos@      1006c590     libucrt:fpexcept.obj
 0002:00005594       ??_C@_03IIINPABG@tan@      1006c594     libucrt:fpexcept.obj
 0002:00005598       ??_C@_04GFPJNGEK@ceil@     1006c598     libucrt:fpexcept.obj
 0002:000055a0       ??_C@_05PBJFFIGL@floor@    1006c5a0     libucrt:fpexcept.obj
 0002:000055a8       ??_C@_04ODHECPBC@fabs@     1006c5a8     libucrt:fpexcept.obj
 0002:000055b0       ??_C@_04EHEDPDJG@modf@     1006c5b0     libucrt:fpexcept.obj
 0002:000055b8       ??_C@_05CEJMAHNP@ldexp@    1006c5b8     libucrt:fpexcept.obj
 0002:000055c0       ??_C@_05KBKMEMPO@_cabs@    1006c5c0     libucrt:fpexcept.obj
 0002:000055c8       ??_C@_06MEIMCGCF@_hypot@   1006c5c8     libucrt:fpexcept.obj
 0002:000055d0       ??_C@_04KEPJIHGP@fmod@     1006c5d0     libucrt:fpexcept.obj
 0002:000055d8       ??_C@_05GKKHEGJL@frexp@    1006c5d8     libucrt:fpexcept.obj
 0002:000055e0       ??_C@_03MJLDFKDL@_y0@      1006c5e0     libucrt:fpexcept.obj
 0002:000055e4       ??_C@_03NAKIGLHK@_y1@      1006c5e4     libucrt:fpexcept.obj
 0002:000055e8       ??_C@_03ONILCKOB@_yn@      1006c5e8     libucrt:fpexcept.obj
 0002:000055ec       ??_C@_05JGDBENOH@_logb@    1006c5ec     libucrt:fpexcept.obj
 0002:000055f4       ??_C@_0L@KDOEJCKC@_nextafter@ 1006c5f4     libucrt:fpexcept.obj
 0002:00005600       __d_inf                    1006c600     libucrt:util.obj
 0002:00005608       __d_max                    1006c608     libucrt:util.obj
 0002:00005610       __d_mzero                  1006c610     libucrt:util.obj
 0002:000056f0       __infinity                 1006c6f0     libucrt:87tran.obj
 0002:000056fa       __minfinity                1006c6fa     libucrt:87tran.obj
 0002:00005704       __logemax                  1006c704     libucrt:87tran.obj
 0002:0000572a       __OP_EXPjmptab             1006c72a     libucrt:87tran.obj
 0002:00005750       __indefinite               1006c750     libucrt:87disp.obj
 0002:0000575a       __piby2                    1006c75a     libucrt:87disp.obj
 0002:00005764       __piby4                    1006c764     libucrt:87disp.obj
 0002:00005798       __DEFAULT_CW_in_mem        1006c798     libucrt:common.obj
 0002:0000579a       __pi_by_2_to_61            1006c79a     libucrt:common.obj
 0002:000057e4       ??_C@_1M@HPNHIDJI@?$AAj?$AAa?$AA?9?$AAJ?$AAP@ 1006c7e4     libucrt:mbctype.obj
 0002:000057f0       ??_C@_1M@BIBDDEMK@?$AAz?$AAh?$AA?9?$AAC?$AAN@ 1006c7f0     libucrt:mbctype.obj
 0002:000057fc       ??_C@_1M@JLOOOEGK@?$AAk?$AAo?$AA?9?$AAK?$AAR@ 1006c7fc     libucrt:mbctype.obj
 0002:00005808       ??_C@_1M@CLNBBOPM@?$AAz?$AAh?$AA?9?$AAT?$AAW@ 1006c808     libucrt:mbctype.obj
 0002:00005818       ___acrt_rg_language        1006c818     libucrt:get_qualified_locale.obj
 0002:00005b24       ___acrt_rg_language_count  1006cb24     libucrt:get_qualified_locale.obj
 0002:00005b28       ___acrt_rg_country         1006cb28     libucrt:get_qualified_locale.obj
 0002:00005c3c       ___acrt_rg_country_count   1006cc3c     libucrt:get_qualified_locale.obj
 0002:00005c40       ??_C@_1BC@LLOKLNP@?$AAa?$AAm?$AAe?$AAr?$AAi?$AAc?$AAa?$AAn@ 1006cc40     libucrt:get_qualified_locale.obj
 0002:00005c54       ??_C@_1CC@HEIGCDGG@?$AAa?$AAm?$AAe?$AAr?$AAi?$AAc?$AAa?$AAn?$AA?5?$AAe?$AAn?$AAg?$AAl?$AAi?$AAs@ 1006cc54     libucrt:get_qualified_locale.obj
 0002:00005c78       ??_C@_1CC@IHCNOMIN@?$AAa?$AAm?$AAe?$AAr?$AAi?$AAc?$AAa?$AAn?$AA?9?$AAe?$AAn?$AAg?$AAl?$AAi?$AAs@ 1006cc78     libucrt:get_qualified_locale.obj
 0002:00005c9c       ??_C@_1BG@GKAGPCGG@?$AAa?$AAu?$AAs?$AAt?$AAr?$AAa?$AAl?$AAi?$AAa?$AAn@ 1006cc9c     libucrt:get_qualified_locale.obj
 0002:00005cb4       ??_C@_1BA@GMENCENF@?$AAb?$AAe?$AAl?$AAg?$AAi?$AAa?$AAn@ 1006ccb4     libucrt:get_qualified_locale.obj
 0002:00005cc4       ??_C@_1BC@PJMIIAAN@?$AAc?$AAa?$AAn?$AAa?$AAd?$AAi?$AAa?$AAn@ 1006ccc4     libucrt:get_qualified_locale.obj
 0002:00005cd8       ??_C@_17NOIMNFBF@?$AAc?$AAh?$AAh@ 1006ccd8     libucrt:get_qualified_locale.obj
 0002:00005ce0       ??_C@_17GGDALCHA@?$AAc?$AAh?$AAi@ 1006cce0     libucrt:get_qualified_locale.obj
 0002:00005ce8       ??_C@_1BA@NPNJKIBL@?$AAc?$AAh?$AAi?$AAn?$AAe?$AAs?$AAe@ 1006cce8     libucrt:get_qualified_locale.obj
 0002:00005cf8       ??_C@_1CC@DINBAMMJ@?$AAc?$AAh?$AAi?$AAn?$AAe?$AAs?$AAe?$AA?9?$AAh?$AAo?$AAn?$AAg?$AAk?$AAo?$AAn@ 1006ccf8     libucrt:get_qualified_locale.obj
 0002:00005d1c       ??_C@_1CG@IOBJPACO@?$AAc?$AAh?$AAi?$AAn?$AAe?$AAs?$AAe?$AA?9?$AAs?$AAi?$AAm?$AAp?$AAl?$AAi?$AAf@ 1006cd1c     libucrt:get_qualified_locale.obj
 0002:00005d44       ??_C@_1CE@GAJNDCKG@?$AAc?$AAh?$AAi?$AAn?$AAe?$AAs?$AAe?$AA?9?$AAs?$AAi?$AAn?$AAg?$AAa?$AAp?$AAo@ 1006cd44     libucrt:get_qualified_locale.obj
 0002:00005d68       ??_C@_1CI@PAJPIOOD@?$AAc?$AAh?$AAi?$AAn?$AAe?$AAs?$AAe?$AA?9?$AAt?$AAr?$AAa?$AAd?$AAi?$AAt?$AAi@ 1006cd68     libucrt:get_qualified_locale.obj
 0002:00005d90       ??_C@_1BM@NILJBMMD@?$AAd?$AAu?$AAt?$AAc?$AAh?$AA?9?$AAb?$AAe?$AAl?$AAg?$AAi?$AAa?$AAn@ 1006cd90     libucrt:get_qualified_locale.obj
 0002:00005dac       ??_C@_1CC@OOJPJNEJ@?$AAe?$AAn?$AAg?$AAl?$AAi?$AAs?$AAh?$AA?9?$AAa?$AAm?$AAe?$AAr?$AAi?$AAc?$AAa@ 1006cdac     libucrt:get_qualified_locale.obj
 0002:00005dd0       ??_C@_1BI@IOLFEEM@?$AAe?$AAn?$AAg?$AAl?$AAi?$AAs?$AAh?$AA?9?$AAa?$AAu?$AAs@ 1006cdd0     libucrt:get_qualified_locale.obj
 0002:00005de8       ??_C@_1BO@HFFNLENJ@?$AAe?$AAn?$AAg?$AAl?$AAi?$AAs?$AAh?$AA?9?$AAb?$AAe?$AAl?$AAi?$AAz?$AAe@ 1006cde8     libucrt:get_qualified_locale.obj
 0002:00005e08       ??_C@_1BI@HAPKJMPO@?$AAe?$AAn?$AAg?$AAl?$AAi?$AAs?$AAh?$AA?9?$AAc?$AAa?$AAn@ 1006ce08     libucrt:get_qualified_locale.obj
 0002:00005e20       ??_C@_1CE@HLNDMIOJ@?$AAe?$AAn?$AAg?$AAl?$AAi?$AAs?$AAh?$AA?9?$AAc?$AAa?$AAr?$AAi?$AAb?$AAb?$AAe@ 1006ce20     libucrt:get_qualified_locale.obj
 0002:00005e44       ??_C@_1BI@LDHJHHAC@?$AAe?$AAn?$AAg?$AAl?$AAi?$AAs?$AAh?$AA?9?$AAi?$AAr?$AAe@ 1006ce44     libucrt:get_qualified_locale.obj
 0002:00005e5c       ??_C@_1CA@NJMMCFOC@?$AAe?$AAn?$AAg?$AAl?$AAi?$AAs?$AAh?$AA?9?$AAj?$AAa?$AAm?$AAa?$AAi?$AAc?$AAa@ 1006ce5c     libucrt:get_qualified_locale.obj
 0002:00005e7c       ??_C@_1BG@BHJEBBGG@?$AAe?$AAn?$AAg?$AAl?$AAi?$AAs?$AAh?$AA?9?$AAn?$AAz@ 1006ce7c     libucrt:get_qualified_locale.obj
 0002:00005e94       ??_C@_1CK@FGOEJJCO@?$AAe?$AAn?$AAg?$AAl?$AAi?$AAs?$AAh?$AA?9?$AAs?$AAo?$AAu?$AAt?$AAh?$AA?5?$AAa@ 1006ce94     libucrt:get_qualified_locale.obj
 0002:00005ec0       ??_C@_1DE@PDBJPCJ@?$AAe?$AAn?$AAg?$AAl?$AAi?$AAs?$AAh?$AA?9?$AAt?$AAr?$AAi?$AAn?$AAi?$AAd?$AAa@ 1006cec0     libucrt:get_qualified_locale.obj
 0002:00005ef4       ??_C@_1BG@JGCANDME@?$AAe?$AAn?$AAg?$AAl?$AAi?$AAs?$AAh?$AA?9?$AAu?$AAk@ 1006cef4     libucrt:get_qualified_locale.obj
 0002:00005f0c       ??_C@_1BG@DINKMLE@?$AAe?$AAn?$AAg?$AAl?$AAi?$AAs?$AAh?$AA?9?$AAu?$AAs@ 1006cf0c     libucrt:get_qualified_locale.obj
 0002:00005f24       ??_C@_1BI@NMFDBHJE@?$AAe?$AAn?$AAg?$AAl?$AAi?$AAs?$AAh?$AA?9?$AAu?$AAs?$AAa@ 1006cf24     libucrt:get_qualified_locale.obj
 0002:00005f3c       ??_C@_1BO@OIHKJKII@?$AAf?$AAr?$AAe?$AAn?$AAc?$AAh?$AA?9?$AAb?$AAe?$AAl?$AAg?$AAi?$AAa?$AAn@ 1006cf3c     libucrt:get_qualified_locale.obj
 0002:00005f5c       ??_C@_1CA@NKAELJKI@?$AAf?$AAr?$AAe?$AAn?$AAc?$AAh?$AA?9?$AAc?$AAa?$AAn?$AAa?$AAd?$AAi?$AAa?$AAn@ 1006cf5c     libucrt:get_qualified_locale.obj
 0002:00005f7c       ??_C@_1CE@MGKCNLGN@?$AAf?$AAr?$AAe?$AAn?$AAc?$AAh?$AA?9?$AAl?$AAu?$AAx?$AAe?$AAm?$AAb?$AAo?$AAu@ 1006cf7c     libucrt:get_qualified_locale.obj
 0002:00005fa0       ??_C@_1BK@CEGEAILM@?$AAf?$AAr?$AAe?$AAn?$AAc?$AAh?$AA?9?$AAs?$AAw?$AAi?$AAs?$AAs@ 1006cfa0     libucrt:get_qualified_locale.obj
 0002:00005fbc       ??_C@_1CA@PAFKEOCC@?$AAg?$AAe?$AAr?$AAm?$AAa?$AAn?$AA?9?$AAa?$AAu?$AAs?$AAt?$AAr?$AAi?$AAa?$AAn@ 1006cfbc     libucrt:get_qualified_locale.obj
 0002:00005fdc       ??_C@_1CI@HCFHGOFD@?$AAg?$AAe?$AAr?$AAm?$AAa?$AAn?$AA?9?$AAl?$AAi?$AAc?$AAh?$AAt?$AAe?$AAn?$AAs@ 1006cfdc     libucrt:get_qualified_locale.obj
 0002:00006004       ??_C@_1CE@FEDDNPDG@?$AAg?$AAe?$AAr?$AAm?$AAa?$AAn?$AA?9?$AAl?$AAu?$AAx?$AAe?$AAm?$AAb?$AAo?$AAu@ 1006d004     libucrt:get_qualified_locale.obj
 0002:00006028       ??_C@_1BK@LIMINNMN@?$AAg?$AAe?$AAr?$AAm?$AAa?$AAn?$AA?9?$AAs?$AAw?$AAi?$AAs?$AAs@ 1006d028     libucrt:get_qualified_locale.obj
 0002:00006044       ??_C@_1BM@LGMDBEPD@?$AAi?$AAr?$AAi?$AAs?$AAh?$AA?9?$AAe?$AAn?$AAg?$AAl?$AAi?$AAs?$AAh@ 1006d044     libucrt:get_qualified_locale.obj
 0002:00006060       ??_C@_1BM@NNCFBAEE@?$AAi?$AAt?$AAa?$AAl?$AAi?$AAa?$AAn?$AA?9?$AAs?$AAw?$AAi?$AAs?$AAs@ 1006d060     libucrt:get_qualified_locale.obj
 0002:0000607c       ??_C@_1BE@FEDJNPIB@?$AAn?$AAo?$AAr?$AAw?$AAe?$AAg?$AAi?$AAa?$AAn@ 1006d07c     libucrt:get_qualified_locale.obj
 0002:00006090       ??_C@_1CC@CILKDEIE@?$AAn?$AAo?$AAr?$AAw?$AAe?$AAg?$AAi?$AAa?$AAn?$AA?9?$AAb?$AAo?$AAk?$AAm?$AAa@ 1006d090     libucrt:get_qualified_locale.obj
 0002:000060b4       ??_C@_1CE@DHMMHEPL@?$AAn?$AAo?$AAr?$AAw?$AAe?$AAg?$AAi?$AAa?$AAn?$AA?9?$AAn?$AAy?$AAn?$AAo?$AAr@ 1006d0b4     libucrt:get_qualified_locale.obj
 0002:000060d8       ??_C@_1CK@OPNMHECD@?$AAp?$AAo?$AAr?$AAt?$AAu?$AAg?$AAu?$AAe?$AAs?$AAe?$AA?9?$AAb?$AAr?$AAa?$AAz@ 1006d0d8     libucrt:get_qualified_locale.obj
 0002:00006104       ??_C@_1CE@KEEHCDB@?$AAs?$AAp?$AAa?$AAn?$AAi?$AAs?$AAh?$AA?9?$AAa?$AAr?$AAg?$AAe?$AAn?$AAt?$AAi@ 1006d104     libucrt:get_qualified_locale.obj
 0002:00006128       ??_C@_1CA@GIAOLHJD@?$AAs?$AAp?$AAa?$AAn?$AAi?$AAs?$AAh?$AA?9?$AAb?$AAo?$AAl?$AAi?$AAv?$AAi?$AAa@ 1006d128     libucrt:get_qualified_locale.obj
 0002:00006148       ??_C@_1BM@OJNDFNPD@?$AAs?$AAp?$AAa?$AAn?$AAi?$AAs?$AAh?$AA?9?$AAc?$AAh?$AAi?$AAl?$AAe@ 1006d148     libucrt:get_qualified_locale.obj
 0002:00006164       ??_C@_1CC@OCOLPALL@?$AAs?$AAp?$AAa?$AAn?$AAi?$AAs?$AAh?$AA?9?$AAc?$AAo?$AAl?$AAo?$AAm?$AAb?$AAi@ 1006d164     libucrt:get_qualified_locale.obj
 0002:00006188       ??_C@_1CG@BPOFMKBB@?$AAs?$AAp?$AAa?$AAn?$AAi?$AAs?$AAh?$AA?9?$AAc?$AAo?$AAs?$AAt?$AAa?$AA?5?$AAr@ 1006d188     libucrt:get_qualified_locale.obj
 0002:000061b0       ??_C@_1DG@IGOBAPBB@?$AAs?$AAp?$AAa?$AAn?$AAi?$AAs?$AAh?$AA?9?$AAd?$AAo?$AAm?$AAi?$AAn?$AAi?$AAc@ 1006d1b0     libucrt:get_qualified_locale.obj
 0002:000061e8       ??_C@_1CA@JHAPGEGI@?$AAs?$AAp?$AAa?$AAn?$AAi?$AAs?$AAh?$AA?9?$AAe?$AAc?$AAu?$AAa?$AAd?$AAo?$AAr@ 1006d1e8     libucrt:get_qualified_locale.obj
 0002:00006208       ??_C@_1CI@LAPALJPP@?$AAs?$AAp?$AAa?$AAn?$AAi?$AAs?$AAh?$AA?9?$AAe?$AAl?$AA?5?$AAs?$AAa?$AAl?$AAv@ 1006d208     libucrt:get_qualified_locale.obj
 0002:00006230       ??_C@_1CE@PDGBOFOM@?$AAs?$AAp?$AAa?$AAn?$AAi?$AAs?$AAh?$AA?9?$AAg?$AAu?$AAa?$AAt?$AAe?$AAm?$AAa@ 1006d230     libucrt:get_qualified_locale.obj
 0002:00006254       ??_C@_1CC@NBEBAODI@?$AAs?$AAp?$AAa?$AAn?$AAi?$AAs?$AAh?$AA?9?$AAh?$AAo?$AAn?$AAd?$AAu?$AAr?$AAa@ 1006d254     libucrt:get_qualified_locale.obj
 0002:00006278       ??_C@_1CA@LLKGHBMF@?$AAs?$AAp?$AAa?$AAn?$AAi?$AAs?$AAh?$AA?9?$AAm?$AAe?$AAx?$AAi?$AAc?$AAa?$AAn@ 1006d278     libucrt:get_qualified_locale.obj
 0002:00006298       ??_C@_1BO@LKNDOIGD@?$AAs?$AAp?$AAa?$AAn?$AAi?$AAs?$AAh?$AA?9?$AAm?$AAo?$AAd?$AAe?$AAr?$AAn@ 1006d298     libucrt:get_qualified_locale.obj
 0002:000062b8       ??_C@_1CE@NMDMOEEB@?$AAs?$AAp?$AAa?$AAn?$AAi?$AAs?$AAh?$AA?9?$AAn?$AAi?$AAc?$AAa?$AAr?$AAa?$AAg@ 1006d2b8     libucrt:get_qualified_locale.obj
 0002:000062dc       ??_C@_1BO@LLCBEJGB@?$AAs?$AAp?$AAa?$AAn?$AAi?$AAs?$AAh?$AA?9?$AAp?$AAa?$AAn?$AAa?$AAm?$AAa@ 1006d2dc     libucrt:get_qualified_locale.obj
 0002:000062fc       ??_C@_1CC@FKPGGIHO@?$AAs?$AAp?$AAa?$AAn?$AAi?$AAs?$AAh?$AA?9?$AAp?$AAa?$AAr?$AAa?$AAg?$AAu?$AAa@ 1006d2fc     libucrt:get_qualified_locale.obj
 0002:00006320       ??_C@_1BK@CDEIHOOP@?$AAs?$AAp?$AAa?$AAn?$AAi?$AAs?$AAh?$AA?9?$AAp?$AAe?$AAr?$AAu@ 1006d320     libucrt:get_qualified_locale.obj
 0002:0000633c       ??_C@_1CI@GAHAKKGP@?$AAs?$AAp?$AAa?$AAn?$AAi?$AAs?$AAh?$AA?9?$AAp?$AAu?$AAe?$AAr?$AAt?$AAo?$AA?5@ 1006d33c     libucrt:get_qualified_locale.obj
 0002:00006364       ??_C@_1CA@NKJBCAGP@?$AAs?$AAp?$AAa?$AAn?$AAi?$AAs?$AAh?$AA?9?$AAu?$AAr?$AAu?$AAg?$AAu?$AAa?$AAy@ 1006d364     libucrt:get_qualified_locale.obj
 0002:00006384       ??_C@_1CE@ODILCONM@?$AAs?$AAp?$AAa?$AAn?$AAi?$AAs?$AAh?$AA?9?$AAv?$AAe?$AAn?$AAe?$AAz?$AAu?$AAe@ 1006d384     libucrt:get_qualified_locale.obj
 0002:000063a8       ??_C@_1CA@OBNMCGFO@?$AAs?$AAw?$AAe?$AAd?$AAi?$AAs?$AAh?$AA?9?$AAf?$AAi?$AAn?$AAl?$AAa?$AAn?$AAd@ 1006d3a8     libucrt:get_qualified_locale.obj
 0002:000063c8       ??_C@_1M@PIPDDPPI@?$AAs?$AAw?$AAi?$AAs?$AAs@ 1006d3c8     libucrt:get_qualified_locale.obj
 0002:000063d4       ??_C@_15PJPFLCCM@?$AAu?$AAk@ 1006d3d4     libucrt:get_qualified_locale.obj
 0002:000063dc       ??_C@_15GMFIMNFM@?$AAu?$AAs@ 1006d3dc     libucrt:get_qualified_locale.obj
 0002:000063e4       ??_C@_17HAEBFAGL@?$AAu?$AAs?$AAa@ 1006d3e4     libucrt:get_qualified_locale.obj
 0002:000063ec       ??_C@_1BA@DPFJEPHB@?$AAa?$AAm?$AAe?$AAr?$AAi?$AAc?$AAa@ 1006d3ec     libucrt:get_qualified_locale.obj
 0002:000063fc       ??_C@_1BA@ELOGGFK@?$AAb?$AAr?$AAi?$AAt?$AAa?$AAi?$AAn@ 1006d3fc     libucrt:get_qualified_locale.obj
 0002:0000640c       ??_C@_1M@GHBGIGDA@?$AAc?$AAh?$AAi?$AAn?$AAa@ 1006d40c     libucrt:get_qualified_locale.obj
 0002:00006418       ??_C@_1M@NCHEJOPO@?$AAc?$AAz?$AAe?$AAc?$AAh@ 1006d418     libucrt:get_qualified_locale.obj
 0002:00006424       ??_C@_1BA@BKPAPBLA@?$AAe?$AAn?$AAg?$AAl?$AAa?$AAn?$AAd@ 1006d424     libucrt:get_qualified_locale.obj
 0002:00006434       ??_C@_1BM@HKBCKIPC@?$AAg?$AAr?$AAe?$AAa?$AAt?$AA?5?$AAb?$AAr?$AAi?$AAt?$AAa?$AAi?$AAn@ 1006d434     libucrt:get_qualified_locale.obj
 0002:00006450       ??_C@_1BA@PPCHPGJB@?$AAh?$AAo?$AAl?$AAl?$AAa?$AAn?$AAd@ 1006d450     libucrt:get_qualified_locale.obj
 0002:00006460       ??_C@_1BE@JBMPEGDG@?$AAh?$AAo?$AAn?$AAg?$AA?9?$AAk?$AAo?$AAn?$AAg@ 1006d460     libucrt:get_qualified_locale.obj
 0002:00006474       ??_C@_1BI@KOELBBPJ@?$AAn?$AAe?$AAw?$AA?9?$AAz?$AAe?$AAa?$AAl?$AAa?$AAn?$AAd@ 1006d474     libucrt:get_qualified_locale.obj
 0002:0000648c       ??_C@_15HIEBHAIO@?$AAn?$AAz@ 1006d48c     libucrt:get_qualified_locale.obj
 0002:00006494       ??_C@_1BC@CHBCPFPI@?$AAp?$AAr?$AA?5?$AAc?$AAh?$AAi?$AAn?$AAa@ 1006d494     libucrt:get_qualified_locale.obj
 0002:000064a8       ??_C@_1BC@JAOIIFKD@?$AAp?$AAr?$AA?9?$AAc?$AAh?$AAi?$AAn?$AAa@ 1006d4a8     libucrt:get_qualified_locale.obj
 0002:000064bc       ??_C@_1BI@BEHPPHKC@?$AAp?$AAu?$AAe?$AAr?$AAt?$AAo?$AA?9?$AAr?$AAi?$AAc?$AAo@ 1006d4bc     libucrt:get_qualified_locale.obj
 0002:000064d4       ??_C@_1O@PAEOFKDI@?$AAs?$AAl?$AAo?$AAv?$AAa?$AAk@ 1006d4d4     libucrt:get_qualified_locale.obj
 0002:000064e4       ??_C@_1BK@FIHMCKAM@?$AAs?$AAo?$AAu?$AAt?$AAh?$AA?5?$AAa?$AAf?$AAr?$AAi?$AAc?$AAa@ 1006d4e4     libucrt:get_qualified_locale.obj
 0002:00006500       ??_C@_1BI@NAEOODKB@?$AAs?$AAo?$AAu?$AAt?$AAh?$AA?5?$AAk?$AAo?$AAr?$AAe?$AAa@ 1006d500     libucrt:get_qualified_locale.obj
 0002:00006518       ??_C@_1BK@FBDGGIFF@?$AAs?$AAo?$AAu?$AAt?$AAh?$AA?9?$AAa?$AAf?$AAr?$AAi?$AAc?$AAa@ 1006d518     libucrt:get_qualified_locale.obj
 0002:00006534       ??_C@_1BI@GHLEJDPK@?$AAs?$AAo?$AAu?$AAt?$AAh?$AA?9?$AAk?$AAo?$AAr?$AAe?$AAa@ 1006d534     libucrt:get_qualified_locale.obj
 0002:0000654c       ??_C@_1CE@PLHLOMJF@?$AAt?$AAr?$AAi?$AAn?$AAi?$AAd?$AAa?$AAd?$AA?5?$AA?$CG?$AA?5?$AAt?$AAo?$AAb?$AAa@ 1006d54c     libucrt:get_qualified_locale.obj
 0002:00006570       ??_C@_1BO@MODIMHHI@?$AAu?$AAn?$AAi?$AAt?$AAe?$AAd?$AA?9?$AAk?$AAi?$AAn?$AAg?$AAd?$AAo?$AAm@ 1006d570     libucrt:get_qualified_locale.obj
 0002:00006590       ??_C@_1BM@FFHJONBJ@?$AAu?$AAn?$AAi?$AAt?$AAe?$AAd?$AA?9?$AAs?$AAt?$AAa?$AAt?$AAe?$AAs@ 1006d590     libucrt:get_qualified_locale.obj
 0002:000065ac       ??_C@_19MPDNHKDG@?$AAu?$AAt?$AAf?$AA8@ 1006d5ac     libucrt:get_qualified_locale.obj
 0002:000065b8       ??_C@_17DNCLJFIF@?$AAA?$AAC?$AAP@ 1006d5b8     libucrt:get_qualified_locale.obj
 0002:000065c0       ??_C@_1M@FPEIIFAM@?$AAu?$AAt?$AAf?$AA?9?$AA8@ 1006d5c0     libucrt:get_qualified_locale.obj
 0002:000065cc       ??_C@_17CIKBIHLH@?$AAO?$AAC?$AAP@ 1006d5cc     libucrt:get_qualified_locale.obj
 0002:000065d4       ___rglangidNotDefault      1006d5d4     libucrt:getqloc_downlevel.obj
 0002:000065e8       ??_C@_01GBGANLPD@0@        1006d5e8     libucrt:cfout.obj
 0002:000065ec       ??_C@_05DNEBIAHO@1?$CDINF@ 1006d5ec     libucrt:cfout.obj
 0002:000065f4       ??_C@_06IMKFLFPG@1?$CDQNAN@ 1006d5f4     libucrt:cfout.obj
 0002:000065fc       ??_C@_06PGGFOGJG@1?$CDSNAN@ 1006d5fc     libucrt:cfout.obj
 0002:00006604       ??_C@_05PHHOCPM@1?$CDIND@  1006d604     libucrt:cfout.obj
 0002:00006d30       ??_C@_15EMKDOKLE@?$AAa?$AAr@ 1006dd30     libucrt:lcidtoname_downlevel.obj
 0002:00006d38       ??_C@_15KNPADPLH@?$AAb?$AAg@ 1006dd38     libucrt:lcidtoname_downlevel.obj
 0002:00006d40       ??_C@_15EDMHLDMO@?$AAc?$AAa@ 1006dd40     libucrt:lcidtoname_downlevel.obj
 0002:00006d48       ??_C@_1O@BPEAJADD@?$AAz?$AAh?$AA?9?$AAC?$AAH?$AAS@ 1006dd48     libucrt:lcidtoname_downlevel.obj
 0002:00006d58       ??_C@_15LJNHCMNK@?$AAc?$AAs@ 1006dd58     libucrt:lcidtoname_downlevel.obj
 0002:00006d60       ??_C@_15FOMCIDHG@?$AAd?$AAa@ 1006dd60     libucrt:lcidtoname_downlevel.obj
 0002:00006d68       ??_C@_15NBKABECB@?$AAd?$AAe@ 1006dd68     libucrt:lcidtoname_downlevel.obj
 0002:00006d70       ??_C@_15GHPEIIAO@?$AAe?$AAl@ 1006dd70     libucrt:lcidtoname_downlevel.obj
 0002:00006d78       ??_C@_15MNPNEAIF@?$AAe?$AAn@ 1006dd78     libucrt:lcidtoname_downlevel.obj
 0002:00006d80       ??_C@_15GPIOMPMH@?$AAe?$AAs@ 1006dd80     libucrt:lcidtoname_downlevel.obj
 0002:00006d88       ??_C@_15NGLOAKJC@?$AAf?$AAi@ 1006dd88     libucrt:lcidtoname_downlevel.obj
 0002:00006d90       ??_C@_15FBKGNKAM@?$AAf?$AAr@ 1006dd90     libucrt:lcidtoname_downlevel.obj
 0002:00006d98       ??_C@_15KGGCNEFK@?$AAh?$AAe@ 1006dd98     libucrt:lcidtoname_downlevel.obj
 0002:00006da0       ??_C@_15PGHLIDMF@?$AAh?$AAu@ 1006dda0     libucrt:lcidtoname_downlevel.obj
 0002:00006da8       ??_C@_15BIEMAPLM@?$AAi?$AAs@ 1006dda8     libucrt:lcidtoname_downlevel.obj
 0002:00006db0       ??_C@_15IFJLDHAF@?$AAi?$AAt@ 1006ddb0     libucrt:lcidtoname_downlevel.obj
 0002:00006db8       ??_C@_15GEMIOCAG@?$AAj?$AAa@ 1006ddb8     libucrt:lcidtoname_downlevel.obj
 0002:00006dc0       ??_C@_15EPELEGJA@?$AAk?$AAo@ 1006ddc0     libucrt:lcidtoname_downlevel.obj
 0002:00006dc8       ??_C@_15NDDHIMN@?$AAn?$AAl@ 1006ddc8     libucrt:lcidtoname_downlevel.obj
 0002:00006dd0       ??_C@_15BPIGNHCD@?$AAn?$AAo@ 1006ddd0     libucrt:lcidtoname_downlevel.obj
 0002:00006dd8       ??_C@_15DEOPBLCG@?$AAp?$AAl@ 1006ddd8     libucrt:lcidtoname_downlevel.obj
 0002:00006de0       ??_C@_15KBECGEFG@?$AAp?$AAt@ 1006dde0     libucrt:lcidtoname_downlevel.obj
 0002:00006de8       ??_C@_15GLJCBFMD@?$AAr?$AAo@ 1006dde8     libucrt:lcidtoname_downlevel.obj
 0002:00006df0       ??_C@_15FEDGKCDI@?$AAr?$AAu@ 1006ddf0     libucrt:lcidtoname_downlevel.obj
 0002:00006df8       ??_C@_15GLKMLLHM@?$AAh?$AAr@ 1006ddf8     libucrt:lcidtoname_downlevel.obj
 0002:00006e00       ??_C@_15CPKMFBDB@?$AAs?$AAk@ 1006de00     libucrt:lcidtoname_downlevel.obj
 0002:00006e08       ??_C@_15BAAIOGMK@?$AAs?$AAq@ 1006de08     libucrt:lcidtoname_downlevel.obj
 0002:00006e10       ??_C@_15INNPNOHD@?$AAs?$AAv@ 1006de10     libucrt:lcidtoname_downlevel.obj
 0002:00006e18       ??_C@_15CABMMOGH@?$AAt?$AAh@ 1006de18     libucrt:lcidtoname_downlevel.obj
 0002:00006e20       ??_C@_15BPLIHJJM@?$AAt?$AAr@ 1006de20     libucrt:lcidtoname_downlevel.obj
 0002:00006e28       ??_C@_15NEOEKKDJ@?$AAu?$AAr@ 1006de28     libucrt:lcidtoname_downlevel.obj
 0002:00006e30       ??_C@_15NFICGAJK@?$AAi?$AAd@ 1006de30     libucrt:lcidtoname_downlevel.obj
 0002:00006e38       ??_C@_15HPJPHDM@?$AAb?$AAe@ 1006de38     libucrt:lcidtoname_downlevel.obj
 0002:00006e40       ??_C@_15LCHLGJII@?$AAs?$AAl@ 1006de40     libucrt:lcidtoname_downlevel.obj
 0002:00006e48       ??_C@_15PCFJPHHO@?$AAe?$AAt@ 1006de48     libucrt:lcidtoname_downlevel.obj
 0002:00006e50       ??_C@_15HPFPGODN@?$AAl?$AAv@ 1006de50     libucrt:lcidtoname_downlevel.obj
 0002:00006e58       ??_C@_15NFFGKGLG@?$AAl?$AAt@ 1006de58     libucrt:lcidtoname_downlevel.obj
 0002:00006e60       ??_C@_15BDAKCCHN@?$AAf?$AAa@ 1006de60     libucrt:lcidtoname_downlevel.obj
 0002:00006e68       ??_C@_15NFGIAIAJ@?$AAv?$AAi@ 1006de68     libucrt:lcidtoname_downlevel.obj
 0002:00006e70       ??_C@_15LMKNDMHN@?$AAh?$AAy@ 1006de70     libucrt:lcidtoname_downlevel.obj
 0002:00006e78       ??_C@_15IJBHMCFL@?$AAa?$AAz@ 1006de78     libucrt:lcidtoname_downlevel.obj
 0002:00006e80       ??_C@_15EKOFJABL@?$AAe?$AAu@ 1006de80     libucrt:lcidtoname_downlevel.obj
 0002:00006e88       ??_C@_15BGHADCNK@?$AAm?$AAk@ 1006de88     libucrt:lcidtoname_downlevel.obj
 0002:00006e90       ??_C@_15JDNICKHM@?$AAa?$AAf@ 1006de90     libucrt:lcidtoname_downlevel.obj
 0002:00006e98       ??_C@_15KPJEDBKD@?$AAk?$AAa@ 1006de98     libucrt:lcidtoname_downlevel.obj
 0002:00006ea0       ??_C@_15PDNFFFEO@?$AAf?$AAo@ 1006dea0     libucrt:lcidtoname_downlevel.obj
 0002:00006ea8       ??_C@_15OMLEGLOC@?$AAh?$AAi@ 1006dea8     libucrt:lcidtoname_downlevel.obj
 0002:00006eb0       ??_C@_15IDNNENKK@?$AAm?$AAs@ 1006deb0     libucrt:lcidtoname_downlevel.obj
 0002:00006eb8       ??_C@_15MACJNBMH@?$AAk?$AAk@ 1006deb8     libucrt:lcidtoname_downlevel.obj
 0002:00006ec0       ??_C@_15DKDJEOND@?$AAk?$AAy@ 1006dec0     libucrt:lcidtoname_downlevel.obj
 0002:00006ec8       ??_C@_15DFGDLJBG@?$AAs?$AAw@ 1006dec8     libucrt:lcidtoname_downlevel.obj
 0002:00006ed0       ??_C@_15BBFAICNG@?$AAu?$AAz@ 1006ded0     libucrt:lcidtoname_downlevel.obj
 0002:00006ed8       ??_C@_15DKNDCGEA@?$AAt?$AAt@ 1006ded8     libucrt:lcidtoname_downlevel.obj
 0002:00006ee0       ??_C@_15MGIFMDPL@?$AAp?$AAa@ 1006dee0     libucrt:lcidtoname_downlevel.obj
 0002:00006ee8       ??_C@_15HCNDBBA@?$AAg?$AAu@ 1006dee8     libucrt:lcidtoname_downlevel.obj
 0002:00006ef0       ??_C@_15FNBEIBON@?$AAt?$AAa@ 1006def0     libucrt:lcidtoname_downlevel.obj
 0002:00006ef8       ??_C@_15NCHGBGLK@?$AAt?$AAe@ 1006def8     libucrt:lcidtoname_downlevel.obj
 0002:00006f00       ??_C@_15PHPHCBPF@?$AAk?$AAn@ 1006df00     libucrt:lcidtoname_downlevel.obj
 0002:00006f08       ??_C@_15DLGBCKMP@?$AAm?$AAr@ 1006df08     libucrt:lcidtoname_downlevel.obj
 0002:00006f10       ??_C@_15EABBLBFF@?$AAs?$AAa@ 1006df10     libucrt:lcidtoname_downlevel.obj
 0002:00006f18       ??_C@_15CBKOMCOI@?$AAm?$AAn@ 1006df18     libucrt:lcidtoname_downlevel.obj
 0002:00006f20       ??_C@_15CKDMCJAF@?$AAg?$AAl@ 1006df20     libucrt:lcidtoname_downlevel.obj
 0002:00006f28       ??_C@_17CNJFBPG@?$AAk?$AAo?$AAk@ 1006df28     libucrt:lcidtoname_downlevel.obj
 0002:00006f30       ??_C@_17FFBJICPL@?$AAs?$AAy?$AAr@ 1006df30     libucrt:lcidtoname_downlevel.obj
 0002:00006f38       ??_C@_17KPNDCPAF@?$AAd?$AAi?$AAv@ 1006df38     libucrt:lcidtoname_downlevel.obj
 0002:00006f40       ??_C@_1M@OKAHONE@?$AAa?$AAr?$AA?9?$AAS?$AAA@ 1006df40     libucrt:lcidtoname_downlevel.obj
 0002:00006f4c       ??_C@_1M@FFFIGIGK@?$AAb?$AAg?$AA?9?$AAB?$AAG@ 1006df4c     libucrt:lcidtoname_downlevel.obj
 0002:00006f58       ??_C@_1M@BJNKEDC@?$AAc?$AAa?$AA?9?$AAE?$AAS@ 1006df58     libucrt:lcidtoname_downlevel.obj
 0002:00006f64       ??_C@_1M@IJJHFJHA@?$AAc?$AAs?$AA?9?$AAC?$AAZ@ 1006df64     libucrt:lcidtoname_downlevel.obj
 0002:00006f70       ??_C@_1M@CLPEOBGI@?$AAd?$AAa?$AA?9?$AAD?$AAK@ 1006df70     libucrt:lcidtoname_downlevel.obj
 0002:00006f7c       ??_C@_1M@MCMADGCB@?$AAd?$AAe?$AA?9?$AAD?$AAE@ 1006df7c     libucrt:lcidtoname_downlevel.obj
 0002:00006f88       ??_C@_1M@OOCKEMAM@?$AAe?$AAl?$AA?9?$AAG?$AAR@ 1006df88     libucrt:lcidtoname_downlevel.obj
 0002:00006f94       ??_C@_1M@DDNJFGID@?$AAf?$AAi?$AA?9?$AAF?$AAI@ 1006df94     libucrt:lcidtoname_downlevel.obj
 0002:00006fa0       ??_C@_1M@GLIPPMAC@?$AAf?$AAr?$AA?9?$AAF?$AAR@ 1006dfa0     libucrt:lcidtoname_downlevel.obj
 0002:00006fac       ??_C@_1M@GFMCHPE@?$AAh?$AAe?$AA?9?$AAI?$AAL@ 1006dfac     libucrt:lcidtoname_downlevel.obj
 0002:00006fb8       ??_C@_1M@MHLPGNKM@?$AAh?$AAu?$AA?9?$AAH?$AAU@ 1006dfb8     libucrt:lcidtoname_downlevel.obj
 0002:00006fc4       ??_C@_1M@LPDDNNPN@?$AAi?$AAs?$AA?9?$AAI?$AAS@ 1006dfc4     libucrt:lcidtoname_downlevel.obj
 0002:00006fd0       ??_C@_1M@MADIPODN@?$AAi?$AAt?$AA?9?$AAI?$AAT@ 1006dfd0     libucrt:lcidtoname_downlevel.obj
 0002:00006fdc       ??_C@_1M@IHBJJGG@?$AAn?$AAl?$AA?9?$AAN?$AAL@ 1006dfdc     libucrt:lcidtoname_downlevel.obj
 0002:00006fe8       ??_C@_1M@EANAGDL@?$AAn?$AAb?$AA?9?$AAN?$AAO@ 1006dfe8     libucrt:lcidtoname_downlevel.obj
 0002:00006ff4       ??_C@_1M@NEIEMEGP@?$AAp?$AAl?$AA?9?$AAP?$AAL@ 1006dff4     libucrt:lcidtoname_downlevel.obj
 0002:00007000       ??_C@_1M@BOCFIGEP@?$AAp?$AAt?$AA?9?$AAB?$AAR@ 1006e000     libucrt:lcidtoname_downlevel.obj
 0002:0000700c       ??_C@_1M@IMPFOPBG@?$AAr?$AAo?$AA?9?$AAR?$AAO@ 1006e00c     libucrt:lcidtoname_downlevel.obj
 0002:00007018       ??_C@_1M@IDNNEJMM@?$AAr?$AAu?$AA?9?$AAR?$AAU@ 1006e018     libucrt:lcidtoname_downlevel.obj
 0002:00007024       ??_C@_1M@LILEEOGM@?$AAh?$AAr?$AA?9?$AAH?$AAR@ 1006e024     libucrt:lcidtoname_downlevel.obj
 0002:00007030       ??_C@_1M@FKIFEHPB@?$AAs?$AAk?$AA?9?$AAS?$AAK@ 1006e030     libucrt:lcidtoname_downlevel.obj
 0002:0000703c       ??_C@_1M@LJMAMNPJ@?$AAs?$AAq?$AA?9?$AAA?$AAL@ 1006e03c     libucrt:lcidtoname_downlevel.obj
 0002:00007048       ??_C@_1M@GIAKDKJK@?$AAs?$AAv?$AA?9?$AAS?$AAE@ 1006e048     libucrt:lcidtoname_downlevel.obj
 0002:00007054       ??_C@_1M@MKJKIKCL@?$AAt?$AAh?$AA?9?$AAT?$AAH@ 1006e054     libucrt:lcidtoname_downlevel.obj
 0002:00007060       ??_C@_1M@MFLCCMPB@?$AAt?$AAr?$AA?9?$AAT?$AAR@ 1006e060     libucrt:lcidtoname_downlevel.obj
 0002:0000706c       ??_C@_1M@OIJHDKJN@?$AAu?$AAr?$AA?9?$AAP?$AAK@ 1006e06c     libucrt:lcidtoname_downlevel.obj
 0002:00007078       ??_C@_1M@LHIPCIEK@?$AAi?$AAd?$AA?9?$AAI?$AAD@ 1006e078     libucrt:lcidtoname_downlevel.obj
 0002:00007084       ??_C@_1M@MFMOBGI@?$AAu?$AAk?$AA?9?$AAU?$AAA@ 1006e084     libucrt:lcidtoname_downlevel.obj
 0002:00007090       ??_C@_1M@OBGLJIPL@?$AAb?$AAe?$AA?9?$AAB?$AAY@ 1006e090     libucrt:lcidtoname_downlevel.obj
 0002:0000709c       ??_C@_1M@BCFAJEAD@?$AAs?$AAl?$AA?9?$AAS?$AAI@ 1006e09c     libucrt:lcidtoname_downlevel.obj
 0002:000070a8       ??_C@_1M@FKFFEDDN@?$AAe?$AAt?$AA?9?$AAE?$AAE@ 1006e0a8     libucrt:lcidtoname_downlevel.obj
 0002:000070b4       ??_C@_1M@KGKKAACI@?$AAl?$AAv?$AA?9?$AAL?$AAV@ 1006e0b4     libucrt:lcidtoname_downlevel.obj
 0002:000070c0       ??_C@_1M@IFGBIJO@?$AAl?$AAt?$AA?9?$AAL?$AAT@ 1006e0c0     libucrt:lcidtoname_downlevel.obj
 0002:000070cc       ??_C@_1M@FGEAHEDM@?$AAf?$AAa?$AA?9?$AAI?$AAR@ 1006e0cc     libucrt:lcidtoname_downlevel.obj
 0002:000070d8       ??_C@_1M@KBMAIBFN@?$AAv?$AAi?$AA?9?$AAV?$AAN@ 1006e0d8     libucrt:lcidtoname_downlevel.obj
 0002:000070e4       ??_C@_1M@GPCBKDJK@?$AAh?$AAy?$AA?9?$AAA?$AAM@ 1006e0e4     libucrt:lcidtoname_downlevel.obj
 0002:000070f0       ??_C@_1BG@BECMDDJB@?$AAa?$AAz?$AA?9?$AAA?$AAZ?$AA?9?$AAL?$AAa?$AAt?$AAn@ 1006e0f0     libucrt:lcidtoname_downlevel.obj
 0002:00007108       ??_C@_1M@MAOFCAEA@?$AAe?$AAu?$AA?9?$AAE?$AAS@ 1006e108     libucrt:lcidtoname_downlevel.obj
 0002:00007114       ??_C@_1M@IGHABKPI@?$AAm?$AAk?$AA?9?$AAM?$AAK@ 1006e114     libucrt:lcidtoname_downlevel.obj
 0002:00007120       ??_C@_1M@IAIGNEJG@?$AAt?$AAn?$AA?9?$AAZ?$AAA@ 1006e120     libucrt:lcidtoname_downlevel.obj
 0002:0000712c       ??_C@_1M@IIJCOJFA@?$AAx?$AAh?$AA?9?$AAZ?$AAA@ 1006e12c     libucrt:lcidtoname_downlevel.obj
 0002:00007138       ??_C@_1M@LGPJHNJH@?$AAz?$AAu?$AA?9?$AAZ?$AAA@ 1006e138     libucrt:lcidtoname_downlevel.obj
 0002:00007144       ??_C@_1M@HOKAOIO@?$AAa?$AAf?$AA?9?$AAZ?$AAA@ 1006e144     libucrt:lcidtoname_downlevel.obj
 0002:00007150       ??_C@_1M@DPCLHLIE@?$AAk?$AAa?$AA?9?$AAG?$AAE@ 1006e150     libucrt:lcidtoname_downlevel.obj
 0002:0000715c       ??_C@_1M@BLKMHJBI@?$AAf?$AAo?$AA?9?$AAF?$AAO@ 1006e15c     libucrt:lcidtoname_downlevel.obj
 0002:00007168       ??_C@_1M@LGGJAPPB@?$AAh?$AAi?$AA?9?$AAI?$AAN@ 1006e168     libucrt:lcidtoname_downlevel.obj
 0002:00007174       ??_C@_1M@FIKPIHFE@?$AAm?$AAt?$AA?9?$AAM?$AAT@ 1006e174     libucrt:lcidtoname_downlevel.obj
 0002:00007180       ??_C@_1M@HEGGPBFA@?$AAs?$AAe?$AA?9?$AAN?$AAO@ 1006e180     libucrt:lcidtoname_downlevel.obj
 0002:0000718c       ??_C@_1M@EIBJEEPA@?$AAm?$AAs?$AA?9?$AAM?$AAY@ 1006e18c     libucrt:lcidtoname_downlevel.obj
 0002:00007198       ??_C@_1M@FHLBGMPP@?$AAk?$AAk?$AA?9?$AAK?$AAZ@ 1006e198     libucrt:lcidtoname_downlevel.obj
 0002:000071a4       ??_C@_1M@NGJJLCGI@?$AAk?$AAy?$AA?9?$AAK?$AAG@ 1006e1a4     libucrt:lcidtoname_downlevel.obj
 0002:000071b0       ??_C@_1M@GIENNBFC@?$AAs?$AAw?$AA?9?$AAK?$AAE@ 1006e1b0     libucrt:lcidtoname_downlevel.obj
 0002:000071bc       ??_C@_1BG@NDGMJIMJ@?$AAu?$AAz?$AA?9?$AAU?$AAZ?$AA?9?$AAL?$AAa?$AAt?$AAn@ 1006e1bc     libucrt:lcidtoname_downlevel.obj
 0002:000071d4       ??_C@_1M@IDCCIHBC@?$AAt?$AAt?$AA?9?$AAR?$AAU@ 1006e1d4     libucrt:lcidtoname_downlevel.obj
 0002:000071e0       ??_C@_1M@LOICPMOJ@?$AAb?$AAn?$AA?9?$AAI?$AAN@ 1006e1e0     libucrt:lcidtoname_downlevel.obj
 0002:000071ec       ??_C@_1M@KPKKNEAH@?$AAp?$AAa?$AA?9?$AAI?$AAN@ 1006e1ec     libucrt:lcidtoname_downlevel.obj
 0002:000071f8       ??_C@_1M@PJGPPBOG@?$AAg?$AAu?$AA?9?$AAI?$AAN@ 1006e1f8     libucrt:lcidtoname_downlevel.obj
 0002:00007204       ??_C@_1M@KMKMOPHI@?$AAt?$AAa?$AA?9?$AAI?$AAN@ 1006e204     libucrt:lcidtoname_downlevel.obj
 0002:00007210       ??_C@_1M@KFEHEPAC@?$AAt?$AAe?$AA?9?$AAI?$AAN@ 1006e210     libucrt:lcidtoname_downlevel.obj
 0002:0000721c       ??_C@_1M@CDCLMGHI@?$AAk?$AAn?$AA?9?$AAI?$AAN@ 1006e21c     libucrt:lcidtoname_downlevel.obj
 0002:00007228       ??_C@_1M@MIODLDKF@?$AAm?$AAl?$AA?9?$AAI?$AAN@ 1006e228     libucrt:lcidtoname_downlevel.obj
 0002:00007234       ??_C@_1M@PBIEACPO@?$AAm?$AAr?$AA?9?$AAI?$AAN@ 1006e234     libucrt:lcidtoname_downlevel.obj
 0002:00007240       ??_C@_1M@NIDEAGPH@?$AAs?$AAa?$AA?9?$AAI?$AAN@ 1006e240     libucrt:lcidtoname_downlevel.obj
 0002:0000724c       ??_C@_1M@FHIHCBIO@?$AAm?$AAn?$AA?9?$AAM?$AAN@ 1006e24c     libucrt:lcidtoname_downlevel.obj
 0002:00007258       ??_C@_1M@JAIJPENP@?$AAc?$AAy?$AA?9?$AAG?$AAB@ 1006e258     libucrt:lcidtoname_downlevel.obj
 0002:00007264       ??_C@_1M@PHGFBEPN@?$AAg?$AAl?$AA?9?$AAE?$AAS@ 1006e264     libucrt:lcidtoname_downlevel.obj
 0002:00007270       ??_C@_1O@KPIPDNCP@?$AAk?$AAo?$AAk?$AA?9?$AAI?$AAN@ 1006e270     libucrt:lcidtoname_downlevel.obj
 0002:00007280       ??_C@_1O@KNHJLDJA@?$AAs?$AAy?$AAr?$AA?9?$AAS?$AAY@ 1006e280     libucrt:lcidtoname_downlevel.obj
 0002:00007290       ??_C@_1O@MKEKBLAH@?$AAd?$AAi?$AAv?$AA?9?$AAM?$AAV@ 1006e290     libucrt:lcidtoname_downlevel.obj
 0002:000072a0       ??_C@_1O@OHDCKDDF@?$AAq?$AAu?$AAz?$AA?9?$AAB?$AAO@ 1006e2a0     libucrt:lcidtoname_downlevel.obj
 0002:000072b0       ??_C@_1M@LEPJNLFD@?$AAn?$AAs?$AA?9?$AAZ?$AAA@ 1006e2b0     libucrt:lcidtoname_downlevel.obj
 0002:000072bc       ??_C@_1M@OMLEIIJB@?$AAm?$AAi?$AA?9?$AAN?$AAZ@ 1006e2bc     libucrt:lcidtoname_downlevel.obj
 0002:000072c8       ??_C@_1M@PMPEAILG@?$AAa?$AAr?$AA?9?$AAI?$AAQ@ 1006e2c8     libucrt:lcidtoname_downlevel.obj
 0002:000072d4       ??_C@_1M@CNKPNOEE@?$AAd?$AAe?$AA?9?$AAC?$AAH@ 1006e2d4     libucrt:lcidtoname_downlevel.obj
 0002:000072e0       ??_C@_1M@LKMGMLKO@?$AAe?$AAn?$AA?9?$AAG?$AAB@ 1006e2e0     libucrt:lcidtoname_downlevel.obj
 0002:000072ec       ??_C@_1M@PGKJFFGL@?$AAe?$AAs?$AA?9?$AAM?$AAX@ 1006e2ec     libucrt:lcidtoname_downlevel.obj
 0002:000072f8       ??_C@_1M@DNNANBDC@?$AAf?$AAr?$AA?9?$AAB?$AAE@ 1006e2f8     libucrt:lcidtoname_downlevel.obj
 0002:00007304       ??_C@_1M@HLGMDFHM@?$AAi?$AAt?$AA?9?$AAC?$AAH@ 1006e304     libucrt:lcidtoname_downlevel.obj
 0002:00007310       ??_C@_1M@CLLBGJH@?$AAn?$AAl?$AA?9?$AAB?$AAE@ 1006e310     libucrt:lcidtoname_downlevel.obj
 0002:0000731c       ??_C@_1M@BODBOGLF@?$AAn?$AAn?$AA?9?$AAN?$AAO@ 1006e31c     libucrt:lcidtoname_downlevel.obj
 0002:00007328       ??_C@_1M@HFFAHKAD@?$AAp?$AAt?$AA?9?$AAP?$AAT@ 1006e328     libucrt:lcidtoname_downlevel.obj
 0002:00007334       ??_C@_1BG@LNOAKHIE@?$AAs?$AAr?$AA?9?$AAS?$AAP?$AA?9?$AAL?$AAa?$AAt?$AAn@ 1006e334     libucrt:lcidtoname_downlevel.obj
 0002:0000734c       ??_C@_1M@HBMHBGAK@?$AAs?$AAv?$AA?9?$AAF?$AAI@ 1006e34c     libucrt:lcidtoname_downlevel.obj
 0002:00007358       ??_C@_1BG@DGCJGJBE@?$AAa?$AAz?$AA?9?$AAA?$AAZ?$AA?9?$AAC?$AAy?$AAr?$AAl@ 1006e358     libucrt:lcidtoname_downlevel.obj
 0002:00007370       ??_C@_1M@KEJDAAHB@?$AAs?$AAe?$AA?9?$AAS?$AAE@ 1006e370     libucrt:lcidtoname_downlevel.obj
 0002:0000737c       ??_C@_1M@HEIBJJAD@?$AAm?$AAs?$AA?9?$AAB?$AAN@ 1006e37c     libucrt:lcidtoname_downlevel.obj
 0002:00007388       ??_C@_1BG@PBGJMCEM@?$AAu?$AAz?$AA?9?$AAU?$AAZ?$AA?9?$AAC?$AAy?$AAr?$AAl@ 1006e388     libucrt:lcidtoname_downlevel.obj
 0002:000073a0       ??_C@_1O@LAOBCMDF@?$AAq?$AAu?$AAz?$AA?9?$AAE?$AAC@ 1006e3a0     libucrt:lcidtoname_downlevel.obj
 0002:000073b0       ??_C@_1M@POEEMAIO@?$AAa?$AAr?$AA?9?$AAE?$AAG@ 1006e3b0     libucrt:lcidtoname_downlevel.obj
 0002:000073bc       ??_C@_1M@EFAKDEDL@?$AAz?$AAh?$AA?9?$AAH?$AAK@ 1006e3bc     libucrt:lcidtoname_downlevel.obj
 0002:000073c8       ??_C@_1M@HKKIJHGI@?$AAd?$AAe?$AA?9?$AAA?$AAT@ 1006e3c8     libucrt:lcidtoname_downlevel.obj
 0002:000073d4       ??_C@_1M@KBFBEHJF@?$AAe?$AAn?$AA?9?$AAA?$AAU@ 1006e3d4     libucrt:lcidtoname_downlevel.obj
 0002:000073e0       ??_C@_1M@MNPLFAAH@?$AAe?$AAs?$AA?9?$AAE?$AAS@ 1006e3e0     libucrt:lcidtoname_downlevel.obj
 0002:000073ec       ??_C@_1M@HJOOJFMA@?$AAf?$AAr?$AA?9?$AAC?$AAA@ 1006e3ec     libucrt:lcidtoname_downlevel.obj
 0002:000073f8       ??_C@_1BG@JPOFPNAB@?$AAs?$AAr?$AA?9?$AAS?$AAP?$AA?9?$AAC?$AAy?$AAr?$AAl@ 1006e3f8     libucrt:lcidtoname_downlevel.obj
 0002:00007410       ??_C@_1M@LNFOCMOB@?$AAs?$AAe?$AA?9?$AAF?$AAI@ 1006e410     libucrt:lcidtoname_downlevel.obj
 0002:0000741c       ??_C@_1O@MGJBOAMB@?$AAq?$AAu?$AAz?$AA?9?$AAP?$AAE@ 1006e41c     libucrt:lcidtoname_downlevel.obj
 0002:0000742c       ??_C@_1M@GJINLBOK@?$AAa?$AAr?$AA?9?$AAL?$AAY@ 1006e42c     libucrt:lcidtoname_downlevel.obj
 0002:00007438       ??_C@_1M@GGMNHJNL@?$AAz?$AAh?$AA?9?$AAS?$AAG@ 1006e438     libucrt:lcidtoname_downlevel.obj
 0002:00007444       ??_C@_1M@HOIKODND@?$AAd?$AAe?$AA?9?$AAL?$AAU@ 1006e444     libucrt:lcidtoname_downlevel.obj
 0002:00007450       ??_C@_1M@DDOCCGFG@?$AAe?$AAn?$AA?9?$AAC?$AAA@ 1006e450     libucrt:lcidtoname_downlevel.obj
 0002:0000745c       ??_C@_1M@BNOEMJLF@?$AAe?$AAs?$AA?9?$AAG?$AAT@ 1006e45c     libucrt:lcidtoname_downlevel.obj
 0002:00007468       ??_C@_1M@EOGNKEK@?$AAf?$AAr?$AA?9?$AAC?$AAH@ 1006e468     libucrt:lcidtoname_downlevel.obj
 0002:00007474       ??_C@_1M@FLIDJFHL@?$AAh?$AAr?$AA?9?$AAB?$AAA@ 1006e474     libucrt:lcidtoname_downlevel.obj
 0002:00007480       ??_C@_1O@FMCELNAJ@?$AAs?$AAm?$AAj?$AA?9?$AAN?$AAO@ 1006e480     libucrt:lcidtoname_downlevel.obj
 0002:00007490       ??_C@_1M@JHGLJMGJ@?$AAa?$AAr?$AA?9?$AAD?$AAZ@ 1006e490     libucrt:lcidtoname_downlevel.obj
 0002:0000749c       ??_C@_1M@JKKFDCNP@?$AAz?$AAh?$AA?9?$AAM?$AAO@ 1006e49c     libucrt:lcidtoname_downlevel.obj
 0002:000074a8       ??_C@_1M@GEEFALPE@?$AAd?$AAe?$AA?9?$AAL?$AAI@ 1006e4a8     libucrt:lcidtoname_downlevel.obj
 0002:000074b4       ??_C@_1M@IGEOFBG@?$AAe?$AAn?$AA?9?$AAN?$AAZ@ 1006e4b4     libucrt:lcidtoname_downlevel.obj
 0002:000074c0       ??_C@_1M@KDBONEHP@?$AAe?$AAs?$AA?9?$AAC?$AAR@ 1006e4c0     libucrt:lcidtoname_downlevel.obj
 0002:000074cc       ??_C@_1M@FHMDOHNN@?$AAf?$AAr?$AA?9?$AAL?$AAU@ 1006e4cc     libucrt:lcidtoname_downlevel.obj
 0002:000074d8       ??_C@_1BG@NFKKMAFG@?$AAb?$AAs?$AA?9?$AAB?$AAA?$AA?9?$AAL?$AAa?$AAt?$AAn@ 1006e4d8     libucrt:lcidtoname_downlevel.obj
 0002:000074f0       ??_C@_1O@IMNBEMCI@?$AAs?$AAm?$AAj?$AA?9?$AAS?$AAE@ 1006e4f0     libucrt:lcidtoname_downlevel.obj
 0002:00007500       ??_C@_1M@DHHMBNDP@?$AAa?$AAr?$AA?9?$AAM?$AAA@ 1006e500     libucrt:lcidtoname_downlevel.obj
 0002:0000750c       ??_C@_1M@BNBLJCGH@?$AAe?$AAn?$AA?9?$AAI?$AAE@ 1006e50c     libucrt:lcidtoname_downlevel.obj
 0002:00007518       ??_C@_1M@GEPAFMDL@?$AAe?$AAs?$AA?9?$AAP?$AAA@ 1006e518     libucrt:lcidtoname_downlevel.obj
 0002:00007524       ??_C@_1M@OJONDMDL@?$AAf?$AAr?$AA?9?$AAM?$AAC@ 1006e524     libucrt:lcidtoname_downlevel.obj
 0002:00007530       ??_C@_1BG@OBCNFJB@?$AAs?$AAr?$AA?9?$AAB?$AAA?$AA?9?$AAL?$AAa?$AAt?$AAn@ 1006e530     libucrt:lcidtoname_downlevel.obj
 0002:00007548       ??_C@_1O@KEMEEGPO@?$AAs?$AAm?$AAa?$AA?9?$AAN?$AAO@ 1006e548     libucrt:lcidtoname_downlevel.obj
 0002:00007558       ??_C@_1M@ELMGFODK@?$AAa?$AAr?$AA?9?$AAT?$AAN@ 1006e558     libucrt:lcidtoname_downlevel.obj
 0002:00007564       ??_C@_1M@BHDLHFAF@?$AAe?$AAn?$AA?9?$AAZ?$AAA@ 1006e564     libucrt:lcidtoname_downlevel.obj
 0002:00007570       ??_C@_1M@BMGIGLIF@?$AAe?$AAs?$AA?9?$AAD?$AAO@ 1006e570     libucrt:lcidtoname_downlevel.obj
 0002:0000757c       ??_C@_1BG@CMBHIPBE@?$AAs?$AAr?$AA?9?$AAB?$AAA?$AA?9?$AAC?$AAy?$AAr?$AAl@ 1006e57c     libucrt:lcidtoname_downlevel.obj
 0002:00007594       ??_C@_1O@HEDBLHNP@?$AAs?$AAm?$AAa?$AA?9?$AAS?$AAE@ 1006e594     libucrt:lcidtoname_downlevel.obj
 0002:000075a4       ??_C@_1M@DAGCADIM@?$AAa?$AAr?$AA?9?$AAO?$AAM@ 1006e5a4     libucrt:lcidtoname_downlevel.obj
 0002:000075b0       ??_C@_1M@FODLMICG@?$AAe?$AAn?$AA?9?$AAJ?$AAM@ 1006e5b0     libucrt:lcidtoname_downlevel.obj
 0002:000075bc       ??_C@_1M@DNMLCIHB@?$AAe?$AAs?$AA?9?$AAV?$AAE@ 1006e5bc     libucrt:lcidtoname_downlevel.obj
 0002:000075c8       ??_C@_1O@EOKHMKJK@?$AAs?$AAm?$AAs?$AA?9?$AAF?$AAI@ 1006e5c8     libucrt:lcidtoname_downlevel.obj
 0002:000075d8       ??_C@_1M@CAFJMKOF@?$AAa?$AAr?$AA?9?$AAY?$AAE@ 1006e5d8     libucrt:lcidtoname_downlevel.obj
 0002:000075e4       ??_C@_1M@CBFHIJLI@?$AAe?$AAn?$AA?9?$AAC?$AAB@ 1006e5e4     libucrt:lcidtoname_downlevel.obj
 0002:000075f0       ??_C@_1M@BGNFLDN@?$AAe?$AAs?$AA?9?$AAC?$AAO@ 1006e5f0     libucrt:lcidtoname_downlevel.obj
 0002:000075fc       ??_C@_1O@JMPHMAMC@?$AAs?$AAm?$AAn?$AA?9?$AAF?$AAI@ 1006e5fc     libucrt:lcidtoname_downlevel.obj
 0002:0000760c       ??_C@_1M@JLANABKE@?$AAa?$AAr?$AA?9?$AAS?$AAY@ 1006e60c     libucrt:lcidtoname_downlevel.obj
 0002:00007618       ??_C@_1M@HPKGCFGN@?$AAe?$AAn?$AA?9?$AAB?$AAZ@ 1006e618     libucrt:lcidtoname_downlevel.obj
 0002:00007624       ??_C@_1M@OLJCMLGM@?$AAe?$AAs?$AA?9?$AAP?$AAE@ 1006e624     libucrt:lcidtoname_downlevel.obj
 0002:00007630       ??_C@_1M@MKKGFKLE@?$AAa?$AAr?$AA?9?$AAJ?$AAO@ 1006e630     libucrt:lcidtoname_downlevel.obj
 0002:0000763c       ??_C@_1M@EKPGLDNI@?$AAe?$AAn?$AA?9?$AAT?$AAT@ 1006e63c     libucrt:lcidtoname_downlevel.obj
 0002:00007648       ??_C@_1M@OONGHFHE@?$AAe?$AAs?$AA?9?$AAA?$AAR@ 1006e648     libucrt:lcidtoname_downlevel.obj
 0002:00007654       ??_C@_1M@OOJFGBHE@?$AAa?$AAr?$AA?9?$AAL?$AAB@ 1006e654     libucrt:lcidtoname_downlevel.obj
 0002:00007660       ??_C@_1M@GCEJHNEG@?$AAe?$AAn?$AA?9?$AAZ?$AAW@ 1006e660     libucrt:lcidtoname_downlevel.obj
 0002:0000766c       ??_C@_1M@JNOCAHJI@?$AAe?$AAs?$AA?9?$AAE?$AAC@ 1006e66c     libucrt:lcidtoname_downlevel.obj
 0002:00007678       ??_C@_1M@JEFHPGGB@?$AAa?$AAr?$AA?9?$AAK?$AAW@ 1006e678     libucrt:lcidtoname_downlevel.obj
 0002:00007684       ??_C@_1M@MLKIBJOJ@?$AAe?$AAn?$AA?9?$AAP?$AAH@ 1006e684     libucrt:lcidtoname_downlevel.obj
 0002:00007690       ??_C@_1M@BDNIPEND@?$AAe?$AAs?$AA?9?$AAC?$AAL@ 1006e690     libucrt:lcidtoname_downlevel.obj
 0002:0000769c       ??_C@_1M@MPNMEKBD@?$AAa?$AAr?$AA?9?$AAA?$AAE@ 1006e69c     libucrt:lcidtoname_downlevel.obj
 0002:000076a8       ??_C@_1M@KBJALCPI@?$AAe?$AAs?$AA?9?$AAU?$AAY@ 1006e6a8     libucrt:lcidtoname_downlevel.obj
 0002:000076b4       ??_C@_1M@LLCCOAGA@?$AAa?$AAr?$AA?9?$AAB?$AAH@ 1006e6b4     libucrt:lcidtoname_downlevel.obj
 0002:000076c0       ??_C@_1M@PBFNCDEL@?$AAe?$AAs?$AA?9?$AAP?$AAY@ 1006e6c0     libucrt:lcidtoname_downlevel.obj
 0002:000076cc       ??_C@_1M@EDGINPNP@?$AAa?$AAr?$AA?9?$AAQ?$AAA@ 1006e6cc     libucrt:lcidtoname_downlevel.obj
 0002:000076d8       ??_C@_1M@MKDBIIJI@?$AAe?$AAs?$AA?9?$AAB?$AAO@ 1006e6d8     libucrt:lcidtoname_downlevel.obj
 0002:000076e4       ??_C@_1M@CPKKEBLD@?$AAe?$AAs?$AA?9?$AAS?$AAV@ 1006e6e4     libucrt:lcidtoname_downlevel.obj
 0002:000076f0       ??_C@_1M@NDBGMMJL@?$AAe?$AAs?$AA?9?$AAH?$AAN@ 1006e6f0     libucrt:lcidtoname_downlevel.obj
 0002:000076fc       ??_C@_1M@JIJIBHDP@?$AAe?$AAs?$AA?9?$AAN?$AAI@ 1006e6fc     libucrt:lcidtoname_downlevel.obj
 0002:00007708       ??_C@_1M@CGFMKEEK@?$AAe?$AAs?$AA?9?$AAP?$AAR@ 1006e708     libucrt:lcidtoname_downlevel.obj
 0002:00007714       ??_C@_1O@ICJHKIIK@?$AAz?$AAh?$AA?9?$AAC?$AAH?$AAT@ 1006e714     libucrt:lcidtoname_downlevel.obj
 0002:00007724       ??_C@_15CLNEJCE@?$AAs?$AAr@ 1006e724     libucrt:lcidtoname_downlevel.obj
 0002:00007e50       ??_C@_1M@KAHEKEIG@?$AAa?$AAf?$AA?9?$AAz?$AAa@ 1006ee50     libucrt:lcidtoname_downlevel.obj
 0002:00007e5c       ??_C@_1M@GIECOABL@?$AAa?$AAr?$AA?9?$AAa?$AAe@ 1006ee5c     libucrt:lcidtoname_downlevel.obj
 0002:00007e68       ??_C@_1M@BMLMEKGI@?$AAa?$AAr?$AA?9?$AAb?$AAh@ 1006ee68     libucrt:lcidtoname_downlevel.obj
 0002:00007e74       ??_C@_1M@DAPFDGGB@?$AAa?$AAr?$AA?9?$AAd?$AAz@ 1006ee74     libucrt:lcidtoname_downlevel.obj
 0002:00007e80       ??_C@_1M@FJNKGKIG@?$AAa?$AAr?$AA?9?$AAe?$AAg@ 1006ee80     libucrt:lcidtoname_downlevel.obj
 0002:00007e8c       ??_C@_1M@FLGKKCLO@?$AAa?$AAr?$AA?9?$AAi?$AAq@ 1006ee8c     libucrt:lcidtoname_downlevel.obj
 0002:00007e98       ??_C@_1M@GNDIPALM@?$AAa?$AAr?$AA?9?$AAj?$AAo@ 1006ee98     libucrt:lcidtoname_downlevel.obj
 0002:00007ea4       ??_C@_1M@DDMJFMGJ@?$AAa?$AAr?$AA?9?$AAk?$AAw@ 1006eea4     libucrt:lcidtoname_downlevel.obj
 0002:00007eb0       ??_C@_1M@EJALMLHM@?$AAa?$AAr?$AA?9?$AAl?$AAb@ 1006eeb0     libucrt:lcidtoname_downlevel.obj
 0002:00007ebc       ??_C@_1M@MOBDBLOC@?$AAa?$AAr?$AA?9?$AAl?$AAy@ 1006eebc     libucrt:lcidtoname_downlevel.obj
 0002:00007ec8       ??_C@_1M@JAOCLHDH@?$AAa?$AAr?$AA?9?$AAm?$AAa@ 1006eec8     libucrt:lcidtoname_downlevel.obj
 0002:00007ed4       ??_C@_1M@JHPMKJIE@?$AAa?$AAr?$AA?9?$AAo?$AAm@ 1006eed4     libucrt:lcidtoname_downlevel.obj
 0002:00007ee0       ??_C@_1M@OEPGHFNH@?$AAa?$AAr?$AA?9?$AAq?$AAa@ 1006eee0     libucrt:lcidtoname_downlevel.obj
 0002:00007eec       ??_C@_1M@KJDONENM@?$AAa?$AAr?$AA?9?$AAs?$AAa@ 1006eeec     libucrt:lcidtoname_downlevel.obj
 0002:00007ef8       ??_C@_1M@DMJDKLKM@?$AAa?$AAr?$AA?9?$AAs?$AAy@ 1006eef8     libucrt:lcidtoname_downlevel.obj
 0002:00007f04       ??_C@_1M@OMFIPEDC@?$AAa?$AAr?$AA?9?$AAt?$AAn@ 1006ef04     libucrt:lcidtoname_downlevel.obj
 0002:00007f10       ??_C@_1M@IHMHGAON@?$AAa?$AAr?$AA?9?$AAy?$AAe@ 1006ef10     libucrt:lcidtoname_downlevel.obj
 0002:00007f1c       ??_C@_1BG@KDCPGJGB@?$AAa?$AAz?$AA?9?$AAa?$AAz?$AA?9?$AAc?$AAy?$AAr?$AAl@ 1006ef1c     libucrt:lcidtoname_downlevel.obj
 0002:00007f34       ??_C@_1BG@IBCKDDOE@?$AAa?$AAz?$AA?9?$AAa?$AAz?$AA?9?$AAl?$AAa?$AAt?$AAn@ 1006ef34     libucrt:lcidtoname_downlevel.obj
 0002:00007f4c       ??_C@_1M@EGPFDCPD@?$AAb?$AAe?$AA?9?$AAb?$AAy@ 1006ef4c     libucrt:lcidtoname_downlevel.obj
 0002:00007f58       ??_C@_1M@PCMGMCGC@?$AAb?$AAg?$AA?9?$AAb?$AAg@ 1006ef58     libucrt:lcidtoname_downlevel.obj
 0002:00007f64       ??_C@_1M@BJBMFGOB@?$AAb?$AAn?$AA?9?$AAi?$AAn@ 1006ef64     libucrt:lcidtoname_downlevel.obj
 0002:00007f70       ??_C@_1BG@EAKMMACD@?$AAb?$AAs?$AA?9?$AAb?$AAa?$AA?9?$AAl?$AAa?$AAt?$AAn@ 1006ef70     libucrt:lcidtoname_downlevel.obj
 0002:00007f88       ??_C@_1M@KGADAODK@?$AAc?$AAa?$AA?9?$AAe?$AAs@ 1006ef88     libucrt:lcidtoname_downlevel.obj
 0002:00007f94       ??_C@_1M@COAJPDHI@?$AAc?$AAs?$AA?9?$AAc?$AAz@ 1006ef94     libucrt:lcidtoname_downlevel.obj
 0002:00007fa0       ??_C@_1M@DHBHFONH@?$AAc?$AAy?$AA?9?$AAg?$AAb@ 1006efa0     libucrt:lcidtoname_downlevel.obj
 0002:00007fac       ??_C@_1M@IMGKELGA@?$AAd?$AAa?$AA?9?$AAd?$AAk@ 1006efac     libucrt:lcidtoname_downlevel.obj
 0002:00007fb8       ??_C@_1M@NNDGDNGA@?$AAd?$AAe?$AA?9?$AAa?$AAt@ 1006efb8     libucrt:lcidtoname_downlevel.obj
 0002:00007fc4       ??_C@_1M@IKDBHEEM@?$AAd?$AAe?$AA?9?$AAc?$AAh@ 1006efc4     libucrt:lcidtoname_downlevel.obj
 0002:00007fd0       ??_C@_1M@GFFOJMCJ@?$AAd?$AAe?$AA?9?$AAd?$AAe@ 1006efd0     libucrt:lcidtoname_downlevel.obj
 0002:00007fdc       ??_C@_1M@MDNLKBPM@?$AAd?$AAe?$AA?9?$AAl?$AAi@ 1006efdc     libucrt:lcidtoname_downlevel.obj
 0002:00007fe8       ??_C@_1M@NJBEEJNL@?$AAd?$AAe?$AA?9?$AAl?$AAu@ 1006efe8     libucrt:lcidtoname_downlevel.obj
 0002:00007ff4       ??_C@_1O@GNNELBAP@?$AAd?$AAi?$AAv?$AA?9?$AAm?$AAv@ 1006eff4     libucrt:lcidtoname_downlevel.obj
 0002:00008004       ??_C@_1M@EJLEOGAE@?$AAe?$AAl?$AA?9?$AAg?$AAr@ 1006f004     libucrt:lcidtoname_downlevel.obj
 0002:00008010       ??_C@_1M@GMPONJN@?$AAe?$AAn?$AA?9?$AAa?$AAu@ 1006f010     libucrt:lcidtoname_downlevel.obj
 0002:0000801c       ??_C@_1M@NIDIIPGF@?$AAe?$AAn?$AA?9?$AAb?$AAz@ 1006f01c     libucrt:lcidtoname_downlevel.obj
 0002:00008028       ??_C@_1M@JEHMIMFO@?$AAe?$AAn?$AA?9?$AAc?$AAa@ 1006f028     libucrt:lcidtoname_downlevel.obj
 0002:00008034       ??_C@_1M@IGMJCDLA@?$AAe?$AAn?$AA?9?$AAc?$AAb@ 1006f034     libucrt:lcidtoname_downlevel.obj
 0002:00008040       ??_C@_1M@BNFIGBKG@?$AAe?$AAn?$AA?9?$AAg?$AAb@ 1006f040     libucrt:lcidtoname_downlevel.obj
 0002:0000804c       ??_C@_1M@LKIFDIGP@?$AAe?$AAn?$AA?9?$AAi?$AAe@ 1006f04c     libucrt:lcidtoname_downlevel.obj
 0002:00008058       ??_C@_1M@PJKFGCCO@?$AAe?$AAn?$AA?9?$AAj?$AAm@ 1006f058     libucrt:lcidtoname_downlevel.obj
 0002:00008064       ??_C@_1M@KPPKEPBO@?$AAe?$AAn?$AA?9?$AAn?$AAz@ 1006f064     libucrt:lcidtoname_downlevel.obj
 0002:00008070       ??_C@_1M@GMDGLDOB@?$AAe?$AAn?$AA?9?$AAp?$AAh@ 1006f070     libucrt:lcidtoname_downlevel.obj
 0002:0000807c       ??_C@_1M@ONGIBJNA@?$AAe?$AAn?$AA?9?$AAt?$AAt@ 1006f07c     libucrt:lcidtoname_downlevel.obj
 0002:00008088       ??_C@_1M@LLODPCMM@?$AAe?$AAn?$AA?9?$AAu?$AAs@ 1006f088     libucrt:lcidtoname_downlevel.obj
 0002:00008094       ??_C@_1M@LAKFNPAN@?$AAe?$AAn?$AA?9?$AAz?$AAa@ 1006f094     libucrt:lcidtoname_downlevel.obj
 0002:000080a0       ??_C@_1M@MFNHNHEO@?$AAe?$AAn?$AA?9?$AAz?$AAw@ 1006f0a0     libucrt:lcidtoname_downlevel.obj
 0002:000080ac       ??_C@_1M@EJEINPHM@?$AAe?$AAs?$AA?9?$AAa?$AAr@ 1006f0ac     libucrt:lcidtoname_downlevel.obj
 0002:000080b8       ??_C@_1M@GNKPCCJA@?$AAe?$AAs?$AA?9?$AAb?$AAo@ 1006f0b8     libucrt:lcidtoname_downlevel.obj
 0002:000080c4       ??_C@_1M@LEEGFONL@?$AAe?$AAs?$AA?9?$AAc?$AAl@ 1006f0c4     libucrt:lcidtoname_downlevel.obj
 0002:000080d0       ??_C@_1M@KGPDPBDF@?$AAe?$AAs?$AA?9?$AAc?$AAo@ 1006f0d0     libucrt:lcidtoname_downlevel.obj
 0002:000080dc       ??_C@_1M@EIAHOHH@?$AAe?$AAs?$AA?9?$AAc?$AAr@ 1006f0dc     libucrt:lcidtoname_downlevel.obj
 0002:000080e8       ??_C@_1M@LLPGMBIN@?$AAe?$AAs?$AA?9?$AAd?$AAo@ 1006f0e8     libucrt:lcidtoname_downlevel.obj
 0002:000080f4       ??_C@_1M@DKHMKNJA@?$AAe?$AAs?$AA?9?$AAe?$AAc@ 1006f0f4     libucrt:lcidtoname_downlevel.obj
 0002:00008100       ??_C@_1M@GKGFPKAP@?$AAe?$AAs?$AA?9?$AAe?$AAs@ 1006f100     libucrt:lcidtoname_downlevel.obj
 0002:0000810c       ??_C@_1M@LKHKGDLN@?$AAe?$AAs?$AA?9?$AAg?$AAt@ 1006f10c     libucrt:lcidtoname_downlevel.obj
 0002:00008118       ??_C@_1M@HEIIGGJD@?$AAe?$AAs?$AA?9?$AAh?$AAn@ 1006f118     libucrt:lcidtoname_downlevel.obj
 0002:00008124       ??_C@_1M@FBDHPPGD@?$AAe?$AAs?$AA?9?$AAm?$AAx@ 1006f124     libucrt:lcidtoname_downlevel.obj
 0002:00008130       ??_C@_1M@DPAGLNDH@?$AAe?$AAs?$AA?9?$AAn?$AAi@ 1006f130     libucrt:lcidtoname_downlevel.obj
 0002:0000813c       ??_C@_1M@MDGOPGDD@?$AAe?$AAs?$AA?9?$AAp?$AAa@ 1006f13c     libucrt:lcidtoname_downlevel.obj
 0002:00008148       ??_C@_1M@EMAMGBGE@?$AAe?$AAs?$AA?9?$AAp?$AAe@ 1006f148     libucrt:lcidtoname_downlevel.obj
 0002:00008154       ??_C@_1M@IBMCAOEC@?$AAe?$AAs?$AA?9?$AAp?$AAr@ 1006f154     libucrt:lcidtoname_downlevel.obj
 0002:00008160       ??_C@_1M@FGMDIJED@?$AAe?$AAs?$AA?9?$AAp?$AAy@ 1006f160     libucrt:lcidtoname_downlevel.obj
 0002:0000816c       ??_C@_1M@IIDEOLLL@?$AAe?$AAs?$AA?9?$AAs?$AAv@ 1006f16c     libucrt:lcidtoname_downlevel.obj
 0002:00008178       ??_C@_1M@GAOBIPA@?$AAe?$AAs?$AA?9?$AAu?$AAy@ 1006f178     libucrt:lcidtoname_downlevel.obj
 0002:00008184       ??_C@_1M@JKFFICHJ@?$AAe?$AAs?$AA?9?$AAv?$AAe@ 1006f184     libucrt:lcidtoname_downlevel.obj
 0002:00008190       ??_C@_1M@PNMLOJDF@?$AAe?$AAt?$AA?9?$AAe?$AAe@ 1006f190     libucrt:lcidtoname_downlevel.obj
 0002:0000819c       ??_C@_1M@GHHLIKEI@?$AAe?$AAu?$AA?9?$AAe?$AAs@ 1006f19c     libucrt:lcidtoname_downlevel.obj
 0002:000081a8       ??_C@_1M@PBNONODE@?$AAf?$AAa?$AA?9?$AAi?$AAr@ 1006f1a8     libucrt:lcidtoname_downlevel.obj
 0002:000081b4       ??_C@_1M@JEEHPMIL@?$AAf?$AAi?$AA?9?$AAf?$AAi@ 1006f1b4     libucrt:lcidtoname_downlevel.obj
 0002:000081c0       ??_C@_1M@LMDCNDBA@?$AAf?$AAo?$AA?9?$AAf?$AAo@ 1006f1c0     libucrt:lcidtoname_downlevel.obj
 0002:000081cc       ??_C@_1M@JKEOHLDK@?$AAf?$AAr?$AA?9?$AAb?$AAe@ 1006f1cc     libucrt:lcidtoname_downlevel.obj
 0002:000081d8       ??_C@_1M@NOHADPMI@?$AAf?$AAr?$AA?9?$AAc?$AAa@ 1006f1d8     libucrt:lcidtoname_downlevel.obj
 0002:000081e4       ??_C@_1M@KDHIHAEC@?$AAf?$AAr?$AA?9?$AAc?$AAh@ 1006f1e4     libucrt:lcidtoname_downlevel.obj
 0002:000081f0       ??_C@_1M@MMBBFGAK@?$AAf?$AAr?$AA?9?$AAf?$AAr@ 1006f1f0     libucrt:lcidtoname_downlevel.obj
 0002:000081fc       ??_C@_1M@PAFNENNF@?$AAf?$AAr?$AA?9?$AAl?$AAu@ 1006f1fc     libucrt:lcidtoname_downlevel.obj
 0002:00008208       ??_C@_1M@EOHDJGDD@?$AAf?$AAr?$AA?9?$AAm?$AAc@ 1006f208     libucrt:lcidtoname_downlevel.obj
 0002:00008214       ??_C@_1M@FAPLLOPF@?$AAg?$AAl?$AA?9?$AAe?$AAs@ 1006f214     libucrt:lcidtoname_downlevel.obj
 0002:00008220       ??_C@_1M@FOPBFLOO@?$AAg?$AAu?$AA?9?$AAi?$AAn@ 1006f220     libucrt:lcidtoname_downlevel.obj
 0002:0000822c       ??_C@_1M@KBMCINPM@?$AAh?$AAe?$AA?9?$AAi?$AAl@ 1006f22c     libucrt:lcidtoname_downlevel.obj
 0002:00008238       ??_C@_1M@BBPHKFPJ@?$AAh?$AAi?$AA?9?$AAi?$AAn@ 1006f238     libucrt:lcidtoname_downlevel.obj
 0002:00008244       ??_C@_1M@PMBNDPHD@?$AAh?$AAr?$AA?9?$AAb?$AAa@ 1006f244     libucrt:lcidtoname_downlevel.obj
 0002:00008250       ??_C@_1M@BPCKOEGE@?$AAh?$AAr?$AA?9?$AAh?$AAr@ 1006f250     libucrt:lcidtoname_downlevel.obj
 0002:0000825c       ??_C@_1M@GACBMHKE@?$AAh?$AAu?$AA?9?$AAh?$AAu@ 1006f25c     libucrt:lcidtoname_downlevel.obj
 0002:00008268       ??_C@_1M@MILPAJJC@?$AAh?$AAy?$AA?9?$AAa?$AAm@ 1006f268     libucrt:lcidtoname_downlevel.obj
 0002:00008274       ??_C@_1M@BABBICEC@?$AAi?$AAd?$AA?9?$AAi?$AAd@ 1006f274     libucrt:lcidtoname_downlevel.obj
 0002:00008280       ??_C@_1M@BIKNHHPF@?$AAi?$AAs?$AA?9?$AAi?$AAs@ 1006f280     libucrt:lcidtoname_downlevel.obj
 0002:0000828c       ??_C@_1M@NMPCJPHE@?$AAi?$AAt?$AA?9?$AAc?$AAh@ 1006f28c     libucrt:lcidtoname_downlevel.obj
 0002:00008298       ??_C@_1M@GHKGFEDF@?$AAi?$AAt?$AA?9?$AAi?$AAt@ 1006f298     libucrt:lcidtoname_downlevel.obj
 0002:000082a4       ??_C@_1M@NIEJCJJA@?$AAj?$AAa?$AA?9?$AAj?$AAp@ 1006f2a4     libucrt:lcidtoname_downlevel.obj
 0002:000082b0       ??_C@_1M@JILFNBIM@?$AAk?$AAa?$AA?9?$AAg?$AAe@ 1006f2b0     libucrt:lcidtoname_downlevel.obj
 0002:000082bc       ??_C@_1M@PACPMGPH@?$AAk?$AAk?$AA?9?$AAk?$AAz@ 1006f2bc     libucrt:lcidtoname_downlevel.obj
 0002:000082c8       ??_C@_1M@IELFGMHA@?$AAk?$AAn?$AA?9?$AAi?$AAn@ 1006f2c8     libucrt:lcidtoname_downlevel.obj
 0002:000082d4       ??_C@_1O@IBBJHCH@?$AAk?$AAo?$AAk?$AA?9?$AAi?$AAn@ 1006f2d4     libucrt:lcidtoname_downlevel.obj
 0002:000082e4       ??_C@_1M@DMHAEOGC@?$AAk?$AAo?$AA?9?$AAk?$AAr@ 1006f2e4     libucrt:lcidtoname_downlevel.obj
 0002:000082f0       ??_C@_1M@HBAHBIGA@?$AAk?$AAy?$AA?9?$AAk?$AAg@ 1006f2f0     libucrt:lcidtoname_downlevel.obj
 0002:000082fc       ??_C@_1M@KPMILCJG@?$AAl?$AAt?$AA?9?$AAl?$AAt@ 1006f2fc     libucrt:lcidtoname_downlevel.obj
 0002:00008308       ??_C@_1M@BDEKKCA@?$AAl?$AAv?$AA?9?$AAl?$AAv@ 1006f308     libucrt:lcidtoname_downlevel.obj
 0002:00008314       ??_C@_1M@ELCKCCJJ@?$AAm?$AAi?$AA?9?$AAn?$AAz@ 1006f314     libucrt:lcidtoname_downlevel.obj
 0002:00008320       ??_C@_1M@CBOOLAPA@?$AAm?$AAk?$AA?9?$AAm?$AAk@ 1006f320     libucrt:lcidtoname_downlevel.obj
 0002:0000832c       ??_C@_1M@GPHNBJKN@?$AAm?$AAl?$AA?9?$AAi?$AAn@ 1006f32c     libucrt:lcidtoname_downlevel.obj
 0002:00008338       ??_C@_1M@PABJILIG@?$AAm?$AAn?$AA?9?$AAm?$AAn@ 1006f338     libucrt:lcidtoname_downlevel.obj
 0002:00008344       ??_C@_1M@FGBKKIPG@?$AAm?$AAr?$AA?9?$AAi?$AAn@ 1006f344     libucrt:lcidtoname_downlevel.obj
 0002:00008350       ??_C@_1M@NDBPDDAL@?$AAm?$AAs?$AA?9?$AAb?$AAn@ 1006f350     libucrt:lcidtoname_downlevel.obj
 0002:0000835c       ??_C@_1M@OPIHOOPI@?$AAm?$AAs?$AA?9?$AAm?$AAy@ 1006f35c     libucrt:lcidtoname_downlevel.obj
 0002:00008368       ??_C@_1M@PPDBCNFM@?$AAm?$AAt?$AA?9?$AAm?$AAt@ 1006f368     libucrt:lcidtoname_downlevel.obj
 0002:00008374       ??_C@_1M@KDJDKMDD@?$AAn?$AAb?$AA?9?$AAn?$AAo@ 1006f374     libucrt:lcidtoname_downlevel.obj
 0002:00008380       ??_C@_1M@KFCFLMJP@?$AAn?$AAl?$AA?9?$AAb?$AAe@ 1006f380     libucrt:lcidtoname_downlevel.obj
 0002:0000838c       ??_C@_1M@KPOPDDGO@?$AAn?$AAl?$AA?9?$AAn?$AAl@ 1006f38c     libucrt:lcidtoname_downlevel.obj
 0002:00008398       ??_C@_1M@LJKPEMLN@?$AAn?$AAn?$AA?9?$AAn?$AAo@ 1006f398     libucrt:lcidtoname_downlevel.obj
 0002:000083a4       ??_C@_1M@BDGHHBFL@?$AAn?$AAs?$AA?9?$AAz?$AAa@ 1006f3a4     libucrt:lcidtoname_downlevel.obj
 0002:000083b0       ??_C@_1M@IDEHOAP@?$AAp?$AAa?$AA?9?$AAi?$AAn@ 1006f3b0     libucrt:lcidtoname_downlevel.obj
 0002:000083bc       ??_C@_1M@HDBKGOGH@?$AAp?$AAl?$AA?9?$AAp?$AAl@ 1006f3bc     libucrt:lcidtoname_downlevel.obj
 0002:000083c8       ??_C@_1M@LJLLCMEH@?$AAp?$AAt?$AA?9?$AAb?$AAr@ 1006f3c8     libucrt:lcidtoname_downlevel.obj
 0002:000083d4       ??_C@_1M@NCMONAAL@?$AAp?$AAt?$AA?9?$AAp?$AAt@ 1006f3d4     libucrt:lcidtoname_downlevel.obj
 0002:000083e0       ??_C@_1O@EAKMAJDN@?$AAq?$AAu?$AAz?$AA?9?$AAb?$AAo@ 1006f3e0     libucrt:lcidtoname_downlevel.obj
 0002:000083f0       ??_C@_1O@BHHPIGDN@?$AAq?$AAu?$AAz?$AA?9?$AAe?$AAc@ 1006f3f0     libucrt:lcidtoname_downlevel.obj
 0002:00008400       ??_C@_1O@GBAPEKMJ@?$AAq?$AAu?$AAz?$AA?9?$AAp?$AAe@ 1006f400     libucrt:lcidtoname_downlevel.obj
 0002:00008410       ??_C@_1M@CLGLEFBO@?$AAr?$AAo?$AA?9?$AAr?$AAo@ 1006f410     libucrt:lcidtoname_downlevel.obj
 0002:0000841c       ??_C@_1M@CEEDODME@?$AAr?$AAu?$AA?9?$AAr?$AAu@ 1006f41c     libucrt:lcidtoname_downlevel.obj
 0002:00008428       ??_C@_1M@HPKKKMPP@?$AAs?$AAa?$AA?9?$AAi?$AAn@ 1006f428     libucrt:lcidtoname_downlevel.obj
 0002:00008434       ??_C@_1M@BKMAIGOJ@?$AAs?$AAe?$AA?9?$AAf?$AAi@ 1006f434     libucrt:lcidtoname_downlevel.obj
 0002:00008440       ??_C@_1M@NDPIFLFI@?$AAs?$AAe?$AA?9?$AAn?$AAo@ 1006f440     libucrt:lcidtoname_downlevel.obj
 0002:0000844c       ??_C@_1M@DANKKHJ@?$AAs?$AAe?$AA?9?$AAs?$AAe@ 1006f44c     libucrt:lcidtoname_downlevel.obj
 0002:00008458       ??_C@_1M@PNBLONPJ@?$AAs?$AAk?$AA?9?$AAs?$AAk@ 1006f458     libucrt:lcidtoname_downlevel.obj
 0002:00008464       ??_C@_1M@LFMODOAL@?$AAs?$AAl?$AA?9?$AAs?$AAi@ 1006f464     libucrt:lcidtoname_downlevel.obj
 0002:00008470       ??_C@_1O@DFKOMPG@?$AAs?$AAm?$AAa?$AA?9?$AAn?$AAo@ 1006f470     libucrt:lcidtoname_downlevel.obj
 0002:00008480       ??_C@_1O@NDKPBNNH@?$AAs?$AAm?$AAa?$AA?9?$AAs?$AAe@ 1006f480     libucrt:lcidtoname_downlevel.obj
 0002:00008490       ??_C@_1O@PLLKBHAB@?$AAs?$AAm?$AAj?$AA?9?$AAn?$AAo@ 1006f490     libucrt:lcidtoname_downlevel.obj
 0002:000084a0       ??_C@_1O@CLEPOGCA@?$AAs?$AAm?$AAj?$AA?9?$AAs?$AAe@ 1006f4a0     libucrt:lcidtoname_downlevel.obj
 0002:000084b0       ??_C@_1O@DLGJGKMK@?$AAs?$AAm?$AAn?$AA?9?$AAf?$AAi@ 1006f4b0     libucrt:lcidtoname_downlevel.obj
 0002:000084c0       ??_C@_1O@OJDJGAJC@?$AAs?$AAm?$AAs?$AA?9?$AAf?$AAi@ 1006f4c0     libucrt:lcidtoname_downlevel.obj
 0002:000084d0       ??_C@_1M@BOFOGHPB@?$AAs?$AAq?$AA?9?$AAa?$AAl@ 1006f4d0     libucrt:lcidtoname_downlevel.obj
 0002:000084dc       ??_C@_1BG@LJBBIPGB@?$AAs?$AAr?$AA?9?$AAb?$AAa?$AA?9?$AAc?$AAy?$AAr?$AAl@ 1006f4dc     libucrt:lcidtoname_downlevel.obj
 0002:000084f4       ??_C@_1BG@JLBENFOE@?$AAs?$AAr?$AA?9?$AAb?$AAa?$AA?9?$AAl?$AAa?$AAt?$AAn@ 1006f4f4     libucrt:lcidtoname_downlevel.obj
 0002:0000850c       ??_C@_1BG@KODPNHE@?$AAs?$AAr?$AA?9?$AAs?$AAp?$AA?9?$AAc?$AAy?$AAr?$AAl@ 1006f50c     libucrt:lcidtoname_downlevel.obj
 0002:00008524       ??_C@_1BG@CIOGKHPB@?$AAs?$AAr?$AA?9?$AAs?$AAp?$AA?9?$AAl?$AAa?$AAt?$AAn@ 1006f524     libucrt:lcidtoname_downlevel.obj
 0002:0000853c       ??_C@_1M@NGFJLMAC@?$AAs?$AAv?$AA?9?$AAf?$AAi@ 1006f53c     libucrt:lcidtoname_downlevel.obj
 0002:00008548       ??_C@_1M@MPJEJAJC@?$AAs?$AAv?$AA?9?$AAs?$AAe@ 1006f548     libucrt:lcidtoname_downlevel.obj
 0002:00008554       ??_C@_1M@MPNDHLFK@?$AAs?$AAw?$AA?9?$AAk?$AAe@ 1006f554     libucrt:lcidtoname_downlevel.obj
 0002:00008560       ??_C@_1O@KOHBJJI@?$AAs?$AAy?$AAr?$AA?9?$AAs?$AAy@ 1006f560     libucrt:lcidtoname_downlevel.obj
 0002:00008570       ??_C@_1M@LDCEFHA@?$AAt?$AAa?$AA?9?$AAi?$AAn@ 1006f570     libucrt:lcidtoname_downlevel.obj
 0002:0000857c       ??_C@_1M@CNJOFAK@?$AAt?$AAe?$AA?9?$AAi?$AAn@ 1006f57c     libucrt:lcidtoname_downlevel.obj
 0002:00008588       ??_C@_1M@GNAECACD@?$AAt?$AAh?$AA?9?$AAt?$AAh@ 1006f588     libucrt:lcidtoname_downlevel.obj
 0002:00008594       ??_C@_1M@CHBIHOJO@?$AAt?$AAn?$AA?9?$AAz?$AAa@ 1006f594     libucrt:lcidtoname_downlevel.obj
 0002:000085a0       ??_C@_1M@GCCMIGPJ@?$AAt?$AAr?$AA?9?$AAt?$AAr@ 1006f5a0     libucrt:lcidtoname_downlevel.obj
 0002:000085ac       ??_C@_1M@CELMCNBK@?$AAt?$AAt?$AA?9?$AAr?$AAu@ 1006f5ac     libucrt:lcidtoname_downlevel.obj
 0002:000085b8       ??_C@_1M@KLMCELGA@?$AAu?$AAk?$AA?9?$AAu?$AAa@ 1006f5b8     libucrt:lcidtoname_downlevel.obj
 0002:000085c4       ??_C@_1M@EPAJJAJF@?$AAu?$AAr?$AA?9?$AAp?$AAk@ 1006f5c4     libucrt:lcidtoname_downlevel.obj
 0002:000085d0       ??_C@_1BG@GEGPMCDJ@?$AAu?$AAz?$AA?9?$AAu?$AAz?$AA?9?$AAc?$AAy?$AAr?$AAl@ 1006f5d0     libucrt:lcidtoname_downlevel.obj
 0002:000085e8       ??_C@_1BG@EGGKJILM@?$AAu?$AAz?$AA?9?$AAu?$AAz?$AA?9?$AAl?$AAa?$AAt?$AAn@ 1006f5e8     libucrt:lcidtoname_downlevel.obj
 0002:00008600       ??_C@_1M@GFOCLFF@?$AAv?$AAi?$AA?9?$AAv?$AAn@ 1006f600     libucrt:lcidtoname_downlevel.obj
 0002:0000860c       ??_C@_1M@CPAMEDFI@?$AAx?$AAh?$AA?9?$AAz?$AAa@ 1006f60c     libucrt:lcidtoname_downlevel.obj
 0002:00008618       ??_C@_1O@EBKIFIGN@?$AAz?$AAh?$AA?9?$AAc?$AAh?$AAs@ 1006f618     libucrt:lcidtoname_downlevel.obj
 0002:00008628       ??_C@_1O@NMHPGANE@?$AAz?$AAh?$AA?9?$AAc?$AAh?$AAt@ 1006f628     libucrt:lcidtoname_downlevel.obj
 0002:00008638       ??_C@_1M@LPINJOMC@?$AAz?$AAh?$AA?9?$AAc?$AAn@ 1006f638     libucrt:lcidtoname_downlevel.obj
 0002:00008644       ??_C@_1M@OCJEJODD@?$AAz?$AAh?$AA?9?$AAh?$AAk@ 1006f644     libucrt:lcidtoname_downlevel.obj
 0002:00008650       ??_C@_1M@DNDLJINH@?$AAz?$AAh?$AA?9?$AAm?$AAo@ 1006f650     libucrt:lcidtoname_downlevel.obj
 0002:0000865c       ??_C@_1M@MBFDNDND@?$AAz?$AAh?$AA?9?$AAs?$AAg@ 1006f65c     libucrt:lcidtoname_downlevel.obj
 0002:00008668       ??_C@_1M@IMEPLEPE@?$AAz?$AAh?$AA?9?$AAt?$AAw@ 1006f668     libucrt:lcidtoname_downlevel.obj
 0002:00008674       ??_C@_1M@BBGHNHJP@?$AAz?$AAu?$AA?9?$AAz?$AAa@ 1006f674     libucrt:lcidtoname_downlevel.obj
 0002:000086a8       ___acrt_pow_rcp_t1         1006f6a8     libucrt:pow_tables.obj
 0002:00008ac0       ___acrt_pow_log2_t1        1006fac0     libucrt:pow_tables.obj
 0002:000092d0       ___acrt_pow_rcp_t2         100702d0     libucrt:pow_tables.obj
 0002:000096e0       ___acrt_pow_log2_t2        100706e0     libucrt:pow_tables.obj
 0002:00009ef0       ___acrt_pow_rcp_t3         10070ef0     libucrt:pow_tables.obj
 0002:0000a700       ___acrt_pow_log2_t3        10071700     libucrt:pow_tables.obj
 0002:0000b710       ___acrt_pow_clv            10072710     libucrt:pow_tables.obj
 0002:0000b730       ___acrt_pow_exp2_tbl       10072730     libucrt:pow_tables.obj
 0002:0000bf88       ??_C@_1BA@BALFACEM@?$AAC?$AAO?$AAN?$AAO?$AAU?$AAT?$AA$@ 10072f88     libucrt:initcon.obj
 0002:0000c0a0       ___acrt_log10_table_t      100730a0     libucrt:log10_tables.obj
 0002:0000c4b0       ___acrt_log10_table_cb     100734b0     libucrt:log10_tables.obj
 0002:000463a8       ??_C@_0BC@EOODALEL@Unknown?5exception@ 100ad3a8     Aimbot.obj
 0002:000463bc       ??_C@_0BF@KINCDENJ@bad?5array?5new?5length@ 100ad3bc     Aimbot.obj
 0002:000463d4       ??_C@_0BC@KBDMBKEH@deque?$DMT?$DO?5too?5long@ 100ad3d4     Aimbot.obj
 0002:000463e8       ??_C@_0BA@JFNIOLAK@string?5too?5long@ 100ad3e8     Cvars.obj
 0002:000463f8       ??_C@_02LMMGGCAJ@?3?5@     100ad3f8     Menu.obj
 0002:00046400       ??_7_System_error@std@@6B@ 100ad400     Menu.obj
 0002:0004640c       ??_7system_error@std@@6B@  100ad40c     Menu.obj
 0002:00046414       ??_C@_00CNPNBAHC@@         100ad414     World.obj
 0002:00046418       ??_C@_08LLGCOLLL@iostream@ 100ad418     World.obj
 0002:00046424       ??_C@_08EPJLHIJG@bad?5cast@ 100ad424     World.obj
 0002:00046430       ??_C@_0BA@ELKIONDK@bad?5locale?5name@ 100ad430     World.obj
 0002:00046440       ??_C@_0BF@PHHKMMFD@ios_base?3?3badbit?5set@ 100ad440     World.obj
 0002:00046458       ??_C@_0BG@FMKFHCIL@ios_base?3?3failbit?5set@ 100ad458     World.obj
 0002:00046470       ??_C@_0BF@OOHOMBOF@ios_base?3?3eofbit?5set@ 100ad470     World.obj
 0002:00046488       ??_C@_0BI@CFPLBAOH@invalid?5string?5position@ 100ad488     World.obj
 0002:000464a4       ??_7?$basic_streambuf@DU?$char_traits@D@std@@@std@@6B@ 100ad4a4     World.obj
 0002:000464e0       ?_Iostream_error@?4??message@_Iostream_error_category2@std@@UBE?AV?$basic_string@DU?$char_traits@D@std@@V?$allocator@D@2@@3@H@Z@4QBDB 100ad4e0     World.obj
 0002:000464fc       ??_7ios_base@std@@6B@      100ad4fc     World.obj
 0002:00046500       ??_8?$basic_istream@DU?$char_traits@D@std@@@std@@7B@ 100ad500     World.obj
 0002:0004650c       ??_7?$basic_filebuf@DU?$char_traits@D@std@@@std@@6B@ 100ad50c     World.obj
 0002:0004654c       ??_7?$basic_ios@DU?$char_traits@D@std@@@std@@6B@ 100ad54c     World.obj
 0002:00046554       ??_7_Iostream_error_category2@std@@6B@ 100ad554     World.obj
 0002:0004656c       ??_8?$basic_ifstream@DU?$char_traits@D@std@@@std@@7B@ 100ad56c     World.obj
 0002:00046578       ??_7?$basic_istream@DU?$char_traits@D@std@@@std@@6B@ 100ad578     World.obj
 0002:00046580       ??_7?$basic_ifstream@DU?$char_traits@D@std@@@std@@6B@ 100ad580     World.obj
 0002:00046588       ??_7failure@ios_base@std@@6B@ 100ad588     World.obj
 0002:00046594       ??_7configor_type_error@configor@@6B@ 100ad594     Pipi_edit.obj
 0002:000465a0       ??_7?$basic_serializer@V?$basic_config@Ujson_args@configor@@@configor@@@configor@@6B@ 100ad5a0     Pipi_edit.obj
 0002:000465b8       ??_7configor_serialization_error@configor@@6B@ 100ad5b8     Pipi_edit.obj
 0002:000465c4       ??_7?$fast_string_istreambuf@D@detail@configor@@6B@ 100ad5c4     Pipi_edit.obj
 0002:00046604       ??_7configor_exception@configor@@6B@ 100ad604     Pipi_edit.obj
 0002:00046610       ?utf8_extra_bytes@?1??decode@?$utf8@D@encoding@configor@@SA_NAAV?$basic_istream@DU?$char_traits@D@std@@@std@@AAI@Z@4V?$array@E$0BAA@@6@B 100ad610     Pipi_edit.obj
 0002:00046714       ??_7?$basic_ofstream@DU?$char_traits@D@std@@@std@@6B@ 100ad714     Pipi_edit.obj
 0002:00046718       ??_8?$basic_ofstream@DU?$char_traits@D@std@@@std@@7B@ 100ad718     Pipi_edit.obj
 0002:00046724       ??_7?$fast_string_ostreambuf@D@detail@configor@@6B@ 100ad724     Pipi_edit.obj
 0002:00046764       ??_7?$fast_basic_ostringstream@D@detail@configor@@6B@ 100ad764     Pipi_edit.obj
 0002:00046768       ??_8?$basic_ostream@DU?$char_traits@D@std@@@std@@7B@ 100ad768     Pipi_edit.obj
 0002:00046770       ?_BUF_SIZE@?$basic_string@DU?$char_traits@D@std@@V?$allocator@D@2@@std@@0IB 100ad770     Pipi_edit.obj
 0002:00046778       ??_7configor_invalid_key@configor@@6B@ 100ad778     Pipi_edit.obj
 0002:00046784       ??_7?$json_serializer@V?$basic_config@Ujson_args@configor@@@configor@@@detail@configor@@6B@ 100ad784     Pipi_edit.obj
 0002:0004679c       ??_7?$basic_ostream@DU?$char_traits@D@std@@@std@@6B@ 100ad79c     Pipi_edit.obj
 0002:000467a0       ?utf8_offsets@?1??decode@?$utf8@D@encoding@configor@@SA_NAAV?$basic_istream@DU?$char_traits@D@std@@@std@@AAI@Z@4V?$array@I$05@6@B 100ad7a0     Pipi_edit.obj
 0002:000467b8       ??_8?$fast_basic_ostringstream@D@detail@configor@@7B@ 100ad7b8     Pipi_edit.obj
 0002:000467c0       ??_C@_05LAPONLG@false@     100ad7c0     Pipi_edit.obj
 0002:000467c8       ??_C@_04LOAJBDKD@true@     100ad7c8     Pipi_edit.obj
 0002:000467d0       ??_C@_0BB@GCADKGJO@map?1set?5too?5long@ 100ad7d0     Pipi_edit.obj
 0002:000467e4       ??_C@_0BE@MJELODJL@config?5type?5error?3?5@ 100ad7e4     Pipi_edit.obj
 0002:000467f8       ??_C@_0BL@ELAMKLNB@invalid?5config?5key?5error?3?5@ 100ad7f8     Pipi_edit.obj
 0002:00046814       ??_C@_0BN@KKJHBKHM@config?5serialization?5error?3?5@ 100ad814     Pipi_edit.obj
 0002:00046834       ??_C@_01GEODFPGF@?8@       100ad834     Pipi_edit.obj
 0002:00046838       ??_C@_02OCDGNCGI@?5?8@     100ad838     Pipi_edit.obj
 0002:0004683c       ??_C@_0CE@FJCOPEDA@initializer_list?5is?5not?5object?5@ 100ad83c     Pipi_edit.obj
 0002:00046860       ??_C@_0BF@IPEBGEBJ@unexpected?5character@ 100ad860     Pipi_edit.obj
 0002:00046878       ??_C@_0BP@BHNJKPJG@encoding?5failed?5with?5codepoint@ 100ad878     Pipi_edit.obj
 0002:00046898       ??_C@_02BBAHNLBA@?$CFp@    100ad898     Pipi_edit.obj
 0002:0004689c       ??_C@_02CLHGNPPK@Lu@       100ad89c     Pipi_edit.obj
 0002:000468a0       ??_C@_02HIKPPMOK@Ld@       100ad8a0     Pipi_edit.obj
 0002:000468a4       ??_C@_02BDDLJJBK@lu@       100ad8a4     Pipi_edit.obj
 0002:000468a8       ??_C@_02EAOCLKAK@ld@       100ad8a8     Pipi_edit.obj
 0002:000468ac       ??_C@_02ONCLHLPE@?40@      100ad8ac     Pipi_edit.obj
 0002:000468b0       ??_C@_02MDKMJEGG@eE@       100ad8b0     Pipi_edit.obj
 0002:000468b4       ??_C@_02OOPEBDOJ@pP@       100ad8b4     Pipi_edit.obj
 0002:000468b8       ??_C@_01LFCBOECM@?4@       100ad8b8     Pipi_edit.obj
 0002:000468bc       ??_C@_0BA@FOIKENOD@vector?5too?5long@ 100ad8bc     Pipi_edit.obj
 0002:000468cc       ??_C@_0CG@BNBDPOFI@operator?$FL?$FN?5called?5on?5a?5non?9arra@ 100ad8cc     Pipi_edit.obj
 0002:000468f4       ??_C@_0BO@PIHPJJFL@operator?$FL?$FN?5index?5out?5of?5range@ 100ad8f4     Pipi_edit.obj
 0002:00046914       ??_C@_0BJ@DHFDPMIM@invalid?5vector?5subscript@ 100ad914     Pipi_edit.obj
 0002:00046930       __real@00000000            100ad930     OpenGL.obj
 0002:00046938       __real@0000000000000000    100ad938     OpenGL.obj
 0002:00046940       __real@3a83126f            100ad940     Weapons.obj
 0002:00046944       __real@3be56042            100ad944     Weapons.obj
 0002:00046948       __real@3c23d70a            100ad948     Weapons.obj
 0002:0004694c       __real@3c8efa35            100ad94c     Visuals.obj
 0002:00046950       __real@3cb851ec            100ad950     Weapons.obj
 0002:00046954       __real@3ccccccd            100ad954     Weapons.obj
 0002:00046958       __real@3d0f5c29            100ad958     Weapons.obj
 0002:0004695c       __real@3d4ccccd            100ad95c     Misc.obj
 0002:00046960       __real@3d6147ae            100ad960     Weapons.obj
 0002:00046964       __real@3d75c28f            100ad964     Visuals.obj
 0002:00046968       __real@3d99999a            100ad968     Weapons.obj
 0002:0004696c       __real@3da3d70a            100ad96c     Weapons.obj
 0002:00046970       __real@3dcccccd            100ad970     Weapons.obj
 0002:00046974       __real@3e19999a            100ad974     Weapons.obj
 0002:00046978       __real@3e45798ee2308c3a    100ad978     Utils.obj
 0002:00046980       __real@3e4ccccd            100ad980     Weapons.obj
 0002:00046984       __real@3e800000            100ad984     Weapons.obj
 0002:00046988       __real@3e8ccccd            100ad988     Weapons.obj
 0002:0004698c       __real@3e99999a            100ad98c     Weapons.obj
 0002:00046990       __real@3ea66666            100ad990     Weapons.obj
 0002:00046994       __real@3eb33333            100ad994     Weapons.obj
 0002:00046998       __real@3ecccccd            100ad998     Weapons.obj
 0002:0004699c       __real@3ee66666            100ad99c     Weapons.obj
 0002:000469a0       __real@3f000000            100ad9a0     Weapons.obj
 0002:000469a4       __real@3f0ccccd            100ad9a4     Weapons.obj
 0002:000469a8       __real@3f19999a            100ad9a8     Weapons.obj
 0002:000469ac       __real@3f266666            100ad9ac     Weapons.obj
 0002:000469b0       __real@3f39999a            100ad9b0     Weapons.obj
 0002:000469b4       __real@3f400000            100ad9b4     Weapons.obj
 0002:000469b8       __real@3f490fdb            100ad9b8     Misc.obj
 0002:000469bc       __real@3f4a3d71            100ad9bc     Weapons.obj
 0002:000469c0       __real@3f4ccccd            100ad9c0     Weapons.obj
 0002:000469c4       __real@3f4f5c29            100ad9c4     Weapons.obj
 0002:000469c8       __real@3f50624dd2f1a9fc    100ad9c8     Vector.obj
 0002:000469d0       __real@3f51eb85            100ad9d0     Weapons.obj
 0002:000469d4       __real@3f570a3d            100ad9d4     Weapons.obj
 0002:000469d8       __real@3f59999a            100ad9d8     Weapons.obj
 0002:000469dc       __real@3f6147ae            100ad9dc     Weapons.obj
 0002:000469e0       __real@3f628f5c            100ad9e0     Weapons.obj
 0002:000469e4       __real@3f666666            100ad9e4     Weapons.obj
 0002:000469e8       __real@3f6b851f            100ad9e8     Weapons.obj
 0002:000469ec       __real@3f733333            100ad9ec     Weapons.obj
 0002:000469f0       __real@3f747ae1            100ad9f0     Weapons.obj
 0002:000469f4       __real@3f75c28f            100ad9f4     Weapons.obj
 0002:000469f8       __real@3f7851ec            100ad9f8     Weapons.obj
 0002:000469fc       __real@3f7ae148            100ad9fc     Weapons.obj
 0002:00046a00       __real@3f7d70a4            100ada00     Weapons.obj
 0002:00046a04       __real@3f800000            100ada04     Visuals.obj
 0002:00046a08       __real@3f91df46a2529d39    100ada08     QAngle.obj
 0002:00046a10       __real@3f947ae147ae147b    100ada10     Weapons.obj
 0002:00046a18       __real@3f9999999999999a    100ada18     Weapons.obj
 0002:00046a20       __real@3f99999a            100ada20     Systems.obj
 0002:00046a28       __real@3f9c28f5c28f5c29    100ada28     Weapons.obj
 0002:00046a30       __real@3f9eb851eb851eb8    100ada30     Weapons.obj
 0002:00046a38       __real@3fa00000            100ada38     Weapons.obj
 0002:00046a40       __real@3fa1eb851eb851ec    100ada40     Weapons.obj
 0002:00046a48       __real@3fa3333333333333    100ada48     Weapons.obj
 0002:00046a50       __real@3fa47ae147ae147b    100ada50     Weapons.obj
 0002:00046a58       __real@3fa70a3d70a3d70a    100ada58     Weapons.obj
 0002:00046a60       __real@3fa999999999999a    100ada60     Weapons.obj
 0002:00046a68       __real@3fb1eb851eb851ec    100ada68     Weapons.obj
 0002:00046a70       __real@3fb33333            100ada70     Weapons.obj
 0002:00046a78       __real@3fb3333333333333    100ada78     Weapons.obj
 0002:00046a80       __real@3fb47ae147ae147b    100ada80     Weapons.obj
 0002:00046a88       __real@3fb851eb851eb852    100ada88     Weapons.obj
 0002:00046a90       __real@3fb999999999999a    100ada90     Weapons.obj
 0002:00046a98       __real@3fbd70a3d70a3d71    100ada98     Weapons.obj
 0002:00046aa0       __real@3fc0000000000000    100adaa0     parsemsg.obj
 0002:00046aa8       __real@3fc0a3d70a3d70a4    100adaa8     Weapons.obj
 0002:00046ab0       __real@3fc3333333333333    100adab0     Weapons.obj
 0002:00046ab8       __real@3fc51eb851eb851f    100adab8     Weapons.obj
 0002:00046ac0       __real@3fc6666666666666    100adac0     Weapons.obj
 0002:00046ac8       __real@3fc7ae147ae147ae    100adac8     Weapons.obj
 0002:00046ad0       __real@3fc999999999999a    100adad0     Weapons.obj
 0002:00046ad8       __real@3fcccccccccccccd    100adad8     Weapons.obj
 0002:00046ae0       __real@3fceb851eb851eb8    100adae0     Weapons.obj
 0002:00046ae8       __real@3fd0000000000000    100adae8     Weapons.obj
 0002:00046af0       __real@3fd051eb851eb852    100adaf0     Weapons.obj
 0002:00046af8       __real@3fd33333            100adaf8     Weapons.obj
 0002:00046b00       __real@3fd3333333333333    100adb00     Weapons.obj
 0002:00046b08       __real@3fd8000000000000    100adb08     Weapons.obj
 0002:00046b10       __real@3fd999999999999a    100adb10     Weapons.obj
 0002:00046b18       __real@3fdcccccc0000000    100adb18     Weapons.obj
 0002:00046b20       __real@3fdccccccccccccd    100adb20     Weapons.obj
 0002:00046b28       __real@3fe00000            100adb28     Visuals.obj
 0002:00046b30       __real@3fe0000000000000    100adb30     Visuals.obj
 0002:00046b38       __real@3fe4cccccccccccd    100adb38     Utils.obj
 0002:00046b40       __real@3fe6666666666666    100adb40     Systems.obj
 0002:00046b48       __real@3fe8000000000000    100adb48     Utils.obj
 0002:00046b50       __real@3fec71c71c71c71c    100adb50     Visuals.obj
 0002:00046b58       __real@3feccccccccccccd    100adb58     Visuals.obj
 0002:00046b60       __real@3ff0000000000000    100adb60     OpenGL.obj
 0002:00046b68       __real@3ff1c71c71c71c72    100adb68     Visuals.obj
 0002:00046b70       __real@3ff3333333333333    100adb70     Weapons.obj
 0002:00046b78       __real@3ff4cccccccccccd    100adb78     Weapons.obj
 0002:00046b80       __real@3ff8000000000000    100adb80     Weapons.obj
 0002:00046b88       __real@3ffb333333333333    100adb88     NoFlash.obj
 0002:00046b90       __real@40000000            100adb90     OpenGL.obj
 0002:00046b98       __real@4000000000000000    100adb98     NoSpread.obj
 0002:00046ba0       __real@400921fb54442d18    100adba0     Utils.obj
 0002:00046ba8       __real@401921fb54442d18    100adba8     Drawing.obj
 0002:00046bb0       __real@4023d70a            100adbb0     Systems.obj
 0002:00046bb8       __real@4024000000000000    100adbb8     Cvars.obj
 0002:00046bc0       __real@402c000000000000    100adbc0     World.obj
 0002:00046bc8       __real@40400000            100adbc8     Cvars.obj
 0002:00046bd0       __real@4046800000000000    100adbd0     NoSpread.obj
 0002:00046bd8       __real@4066800000000000    100adbd8     Utils.obj
 0002:00046be0       __real@406b833333333333    100adbe0     Weapons.obj
 0002:00046be8       __real@40700000            100adbe8     Visuals.obj
 0002:00046bf0       __real@4072c00000000000    100adbf0     Systems.obj
 0002:00046bf8       __real@4076800000000000    100adbf8     Systems.obj
 0002:00046c00       __real@40800000            100adc00     Misc.obj
 0002:00046c04       __real@40a00000            100adc04     Misc.obj
 0002:00046c08       __real@40c00000            100adc08     Misc.obj
 0002:00046c0c       __real@40c90fdb            100adc0c     Drawing.obj
 0002:00046c10       __real@40e00000            100adc10     Misc.obj
 0002:00046c14       __real@41000000            100adc14     Visuals.obj
 0002:00046c18       __real@41200000            100adc18     Weapons.obj
 0002:00046c1c       __real@41400000            100adc1c     Client.obj
 0002:00046c20       __real@41500000            100adc20     Visuals.obj
 0002:00046c24       __real@41600000            100adc24     Visuals.obj
 0002:00046c28       __real@41700000            100adc28     Systems.obj
 0002:00046c2c       __real@41800000            100adc2c     Client.obj
 0002:00046c30       __real@41880000            100adc30     Client.obj
 0002:00046c34       __real@41900000            100adc34     World.obj
 0002:00046c38       __real@41a00000            100adc38     World.obj
 0002:00046c3c       __real@41c80000            100adc3c     Visuals.obj
 0002:00046c40       __real@41f00000            100adc40     Visuals.obj
 0002:00046c44       __real@42000000            100adc44     Client.obj
 0002:00046c48       __real@4202a05f20000000    100adc48     Pipi_edit.obj
 0002:00046c50       __real@42080000            100adc50     Visuals.obj
 0002:00046c54       __real@42100000            100adc54     Client.obj
 0002:00046c58       __real@42280000            100adc58     Utils.obj
 0002:00046c5c       __real@42340000            100adc5c     Visuals.obj
 0002:00046c60       __real@42480000            100adc60     Systems.obj
 0002:00046c64       __real@42580000            100adc64     Visuals.obj
 0002:00046c68       __real@42652ee0            100adc68     Misc.obj
 0002:00046c6c       __real@42800000            100adc6c     World.obj
 0002:00046c70       __real@42820000            100adc70     Systems.obj
 0002:00046c74       __real@42aa0000            100adc74     Cvars.obj
 0002:00046c78       __real@42b00000            100adc78     Misc.obj
 0002:00046c7c       __real@42b20000            100adc7c     Utils.obj
 0002:00046c80       __real@42b40000            100adc80     Visuals.obj
 0002:00046c84       __real@42c80000            100adc84     Cvars.obj
 0002:00046c88       __real@42da0000            100adc88     Cvars.obj
 0002:00046c8c       __real@43000000            100adc8c     Misc.obj
 0002:00046c90       __real@430c0000            100adc90     Weapons.obj
 0002:00046c94       __real@43190000            100adc94     Cvars.obj
 0002:00046c98       __real@432a0000            100adc98     Weapons.obj
 0002:00046c9c       __real@43340000            100adc9c     Aimbot.obj
 0002:00046ca0       __real@43480000            100adca0     Cvars.obj
 0002:00046ca4       __real@437f0000            100adca4     OpenGL.obj
 0002:00046ca8       __real@43870000            100adca8     Utils.obj
 0002:00046cac       __real@43af0000            100adcac     World.obj
 0002:00046cb0       __real@43b40000            100adcb0     Aimbot.obj
 0002:00046cb4       __real@43fa0000            100adcb4     Visuals.obj
 0002:00046cb8       __real@44480000            100adcb8     Systems.obj
 0002:00046cbc       __real@447a0000            100adcbc     NoSpread.obj
 0002:00046cc0       __real@44834000            100adcc0     World.obj
 0002:00046cc4       __real@44c80000            100adcc4     Systems.obj
 0002:00046cc8       __real@44dac000            100adcc8     World.obj
 0002:00046ccc       __real@44fa0000            100adccc     Utils.obj
 0002:00046cd0       __real@45000000            100adcd0     World.obj
 0002:00046cd4       __real@453b8000            100adcd4     Weapons.obj
 0002:00046cd8       __real@453e8000            100adcd8     Weapons.obj
 0002:00046cdc       __real@457a0000            100adcdc     Utils.obj
 0002:00046ce0       __real@45800000            100adce0     Weapons.obj
 0002:00046ce4       __real@459c4000            100adce4     Utils.obj
 0002:00046ce8       __real@45fa0000            100adce8     Utils.obj
 0002:00046cec       __real@46000000            100adcec     Weapons.obj
 0002:00046cf0       __real@461c3c00            100adcf0     Systems.obj
 0002:00046cf4       __real@47800000            100adcf4     NoSpread.obj
 0002:00046cf8       __real@7f7fffff            100adcf8     Utils.obj
 0002:00046cfc       __real@bf000000            100adcfc     NoSpread.obj
 0002:00046d00       __real@bf800000            100add00     Utils.obj
 0002:00046d08       __real@bff0000000000000    100add08     NoSpread.obj
 0002:00046d10       __real@c024000000000000    100add10     Visuals.obj
 0002:00046d18       __real@c072c00000000000    100add18     Systems.obj
 0002:00046d20       __real@c1000000            100add20     Utils.obj
 0002:00046d24       __real@c1800000            100add24     Client.obj
 0002:00046d28       __real@c2100000            100add28     Client.obj
 0002:00046d2c       __real@c2b00000            100add2c     Misc.obj
 0002:00046d30       __real@c2b20000            100add30     Utils.obj
 0002:00046d34       __real@c2b40000            100add34     Utils.obj
 0002:00046d38       __real@c3340000            100add38     Aimbot.obj
 0002:00046d3c       __real@c5800000            100add3c     World.obj
 0002:00046d40       __real@ff7fffff            100add40     Utils.obj
 0002:00046d50       __xmm@41f00000000000000000000000000000 100add50     NoSpread.obj
 0002:00046d60       __xmm@7fffffffffffffff7fffffffffffffff 100add60     Pipi_edit.obj
 0002:00046d70       __xmm@80000000000000008000000000000000 100add70     Cvars.obj
 0002:00046d80       __xmm@80000000800000008000000080000000 100add80     Utils.obj
 0002:00046db0       __OP_FMODjmptab            100addb0     libucrt:87fmod_impl.obj
 0002:00047320       __OP_ATAN2jmptab           100ae320     libucrt:87triga.obj
 0002:000473b0       ___acrt_acos_asin_tbl_addr 100ae3b0     libucrt:acos_asin_tbl_addr.obj
 0002:000482b0       ___acrt_acos_asin_t_table  100af2b0     libucrt:acos_asin_t_table.obj
 0002:00048ac0       ___acrt_cos_sin_ctable     100afac0     libucrt:cos_sin_ctable.obj
 0002:000492e0       ___acrt_tan_ctable         100b02e0     libucrt:tan_tables.obj
 0002:0004ac70       __load_config_used         100b1c70     LIBCMT:loadcfg.obj
 0002:0004ad40       __tls_used                 100b1d40     LIBCMT:tlssup.obj
 0002:0004ad58       ??_R4length_error@std@@6B@ 100b1d58     libcpmt:xthrow.obj
 0002:0004ad6c       ??_R3length_error@std@@8   100b1d6c     libcpmt:xthrow.obj
 0002:0004ad7c       ??_R2length_error@std@@8   100b1d7c     libcpmt:xthrow.obj
 0002:0004ad8c       ??_R1A@?0A@EA@length_error@std@@8 100b1d8c     libcpmt:xthrow.obj
 0002:0004ada8       ??_R4_Locimp@locale@std@@6B@ 100b1da8     libcpmt:locale0.obj
 0002:0004adbc       ??_R3_Locimp@locale@std@@8 100b1dbc     libcpmt:locale0.obj
 0002:0004adcc       ??_R2_Locimp@locale@std@@8 100b1dcc     libcpmt:locale0.obj
 0002:0004ade0       ??_R1A@?0A@EA@_Locimp@locale@std@@8 100b1de0     libcpmt:locale0.obj
 0002:0004adfc       ??_R4bad_exception@std@@6B@ 100b1dfc     libcpmt:excptptr.obj
 0002:0004ae10       ??_R3bad_exception@std@@8  100b1e10     libcpmt:excptptr.obj
 0002:0004ae20       ??_R2bad_exception@std@@8  100b1e20     libcpmt:excptptr.obj
 0002:0004ae2c       ??_R1A@?0A@EA@bad_exception@std@@8 100b1e2c     libcpmt:excptptr.obj
 0002:0004ae48       ??_R3_Ref_count_base@std@@8 100b1e48     libcpmt:excptptr.obj
 0002:0004ae58       ??_R2_Ref_count_base@std@@8 100b1e58     libcpmt:excptptr.obj
 0002:0004ae60       ??_R1A@?0A@EA@_Ref_count_base@std@@8 100b1e60     libcpmt:excptptr.obj
 0002:0004af60       ??_R4type_info@@6B@        100b1f60     LIBCMT:std_type_info_static.obj
 0002:0004af74       ??_R3type_info@@8          100b1f74     LIBCMT:std_type_info_static.obj
 0002:0004af84       ??_R2type_info@@8          100b1f84     LIBCMT:std_type_info_static.obj
 0002:0004af8c       ??_R1A@?0A@EA@type_info@@8 100b1f8c     LIBCMT:std_type_info_static.obj
 0002:0004afa8       ??_R4exception@std@@6B@    100b1fa8     Aimbot.obj
 0002:0004afbc       ??_R2bad_array_new_length@std@@8 100b1fbc     Aimbot.obj
 0002:0004afcc       ??_R2bad_alloc@std@@8      100b1fcc     Aimbot.obj
 0002:0004afd8       ??_R1A@?0A@EA@exception@std@@8 100b1fd8     Aimbot.obj
 0002:0004aff4       ??_R1A@?0A@EA@bad_alloc@std@@8 100b1ff4     Aimbot.obj
 0002:0004b010       ??_R2exception@std@@8      100b2010     Aimbot.obj
 0002:0004b018       ??_R3exception@std@@8      100b2018     Aimbot.obj
 0002:0004b028       ??_R4bad_alloc@std@@6B@    100b2028     Aimbot.obj
 0002:0004b03c       ??_R3bad_array_new_length@std@@8 100b203c     Aimbot.obj
 0002:0004b04c       ??_R3bad_alloc@std@@8      100b204c     Aimbot.obj
 0002:0004b05c       ??_R4bad_array_new_length@std@@6B@ 100b205c     Aimbot.obj
 0002:0004b070       ??_R1A@?0A@EA@bad_array_new_length@std@@8 100b2070     Aimbot.obj
 0002:0004b08c       ??_R2system_error@std@@8   100b208c     Menu.obj
 0002:0004b0a0       ??_R1A@?0A@EA@system_error@std@@8 100b20a0     Menu.obj
 0002:0004b0bc       ??_R4runtime_error@std@@6B@ 100b20bc     Menu.obj
 0002:0004b0d0       ??_R4_System_error@std@@6B@ 100b20d0     Menu.obj
 0002:0004b0e4       ??_R1A@?0A@EA@runtime_error@std@@8 100b20e4     Menu.obj
 0002:0004b100       ??_R2_System_error@std@@8  100b2100     Menu.obj
 0002:0004b110       ??_R4system_error@std@@6B@ 100b2110     Menu.obj
 0002:0004b124       ??_R3_System_error@std@@8  100b2124     Menu.obj
 0002:0004b134       ??_R2error_category@std@@8 100b2134     Menu.obj
 0002:0004b13c       ??_R1A@?0A@EA@_System_error@std@@8 100b213c     Menu.obj
 0002:0004b158       ??_R3error_category@std@@8 100b2158     Menu.obj
 0002:0004b168       ??_R2runtime_error@std@@8  100b2168     Menu.obj
 0002:0004b174       ??_R3system_error@std@@8   100b2174     Menu.obj
 0002:0004b184       ??_R3runtime_error@std@@8  100b2184     Menu.obj
 0002:0004b194       ??_R1A@?0A@EA@error_category@std@@8 100b2194     Menu.obj
 0002:0004b1b0       ??_R3?$basic_istream@DU?$char_traits@D@std@@@std@@8 100b21b0     World.obj
 0002:0004b1c0       ??_R4facet@locale@std@@6B@ 100b21c0     World.obj
 0002:0004b1d4       ??_R3?$ctype@D@std@@8      100b21d4     World.obj
 0002:0004b1e4       ??_R1A@?0A@EA@?$basic_istream@DU?$char_traits@D@std@@@std@@8 100b21e4     World.obj
 0002:0004b200       ??_R3_Facet_base@std@@8    100b2200     World.obj
 0002:0004b210       ??_R1A@?0A@EA@bad_cast@std@@8 100b2210     World.obj
 0002:0004b22c       ??_R3?$basic_ifstream@DU?$char_traits@D@std@@@std@@8 100b222c     World.obj
 0002:0004b23c       ??_R3_Crt_new_delete@std@@8 100b223c     World.obj
 0002:0004b24c       ??_R2?$codecvt@DDU_Mbstatet@@@std@@8 100b224c     World.obj
 0002:0004b264       ??_R13?0A@EA@_Crt_new_delete@std@@8 100b2264     World.obj
 0002:0004b280       ??_R1A@?0A@EA@?$basic_ifstream@DU?$char_traits@D@std@@@std@@8 100b2280     World.obj
 0002:0004b29c       ??_R17A@3EA@?$_Iosb@H@std@@8 100b229c     World.obj
 0002:0004b2b8       ??_R4ios_base@std@@6B@     100b22b8     World.obj
 0002:0004b2cc       ??_R1A@?0A@EA@?$basic_streambuf@DU?$char_traits@D@std@@@std@@8 100b22cc     World.obj
 0002:0004b2e8       ??_R1A@?0A@EA@_Facet_base@std@@8 100b22e8     World.obj
 0002:0004b304       ??_R2?$basic_istream@DU?$char_traits@D@std@@@std@@8 100b2304     World.obj
 0002:0004b318       ??_R4?$basic_ios@DU?$char_traits@D@std@@@std@@6B@ 100b2318     World.obj
 0002:0004b32c       ??_R2bad_cast@std@@8       100b232c     World.obj
 0002:0004b338       ??_R4failure@ios_base@std@@6B@ 100b2338     World.obj
 0002:0004b34c       ??_R3?$basic_ios@DU?$char_traits@D@std@@@std@@8 100b234c     World.obj
 0002:0004b35c       ??_R4_Iostream_error_category2@std@@6B@ 100b235c     World.obj
 0002:0004b370       ??_R1A@?0A@EA@_Iostream_error_category2@std@@8 100b2370     World.obj
 0002:0004b38c       ??_R1A@?0A@EA@facet@locale@std@@8 100b238c     World.obj
 0002:0004b3a8       ??_R2failure@ios_base@std@@8 100b23a8     World.obj
 0002:0004b3c0       ??_R3failure@ios_base@std@@8 100b23c0     World.obj
 0002:0004b3d0       ??_R2codecvt_base@std@@8   100b23d0     World.obj
 0002:0004b3e4       ??_R2?$ctype@D@std@@8      100b23e4     World.obj
 0002:0004b3fc       ??_R1A@?0A@EA@codecvt_base@std@@8 100b23fc     World.obj
 0002:0004b418       ??_R4?$basic_ifstream@DU?$char_traits@D@std@@@std@@6B@ 100b2418     World.obj
 0002:0004b42c       ??_R1A@?0A@EA@ios_base@std@@8 100b242c     World.obj
 0002:0004b448       ??_R3codecvt_base@std@@8   100b2448     World.obj
 0002:0004b458       ??_R4?$basic_filebuf@DU?$char_traits@D@std@@@std@@6B@ 100b2458     World.obj
 0002:0004b46c       ??_R1A@?0A@EA@failure@ios_base@std@@8 100b246c     World.obj
 0002:0004b488       ??_R2?$basic_streambuf@DU?$char_traits@D@std@@@std@@8 100b2488     World.obj
 0002:0004b490       ??_R1A@?0A@EA@?$_Iosb@H@std@@8 100b2490     World.obj
 0002:0004b4ac       ??_R3facet@locale@std@@8   100b24ac     World.obj
 0002:0004b4bc       ??_R3ctype_base@std@@8     100b24bc     World.obj
 0002:0004b4cc       ??_R3bad_cast@std@@8       100b24cc     World.obj
 0002:0004b4dc       ??_R4ctype_base@std@@6B@   100b24dc     World.obj
 0002:0004b4f0       ??_R4bad_cast@std@@6B@     100b24f0     World.obj
 0002:0004b504       ??_R1A@?0A@EA@_Crt_new_delete@std@@8 100b2504     World.obj
 0002:0004b520       ??_R3?$codecvt@DDU_Mbstatet@@@std@@8 100b2520     World.obj
 0002:0004b530       ??_R4_Facet_base@std@@6B@  100b2530     World.obj
 0002:0004b544       ??_R1A@?0A@EA@?$basic_filebuf@DU?$char_traits@D@std@@@std@@8 100b2544     World.obj
 0002:0004b560       ??_R3_Iostream_error_category2@std@@8 100b2560     World.obj
 0002:0004b570       ??_R1A@A@3FA@?$basic_ios@DU?$char_traits@D@std@@@std@@8 100b2570     World.obj
 0002:0004b58c       ??_R3?$basic_filebuf@DU?$char_traits@D@std@@@std@@8 100b258c     World.obj
 0002:0004b59c       ??_R4?$basic_streambuf@DU?$char_traits@D@std@@@std@@6B@ 100b259c     World.obj
 0002:0004b5b0       ??_R2ios_base@std@@8       100b25b0     World.obj
 0002:0004b5bc       ??_R4?$codecvt@DDU_Mbstatet@@@std@@6B@ 100b25bc     World.obj
 0002:0004b5d0       ??_R1A@?0A@EA@ctype_base@std@@8 100b25d0     World.obj
 0002:0004b5ec       ??_R2_Iostream_error_category2@std@@8 100b25ec     World.obj
 0002:0004b5f8       ??_R2_Crt_new_delete@std@@8 100b25f8     World.obj
 0002:0004b600       ??_R1A@?0A@EA@?$ctype@D@std@@8 100b2600     World.obj
 0002:0004b61c       ??_R3ios_base@std@@8       100b261c     World.obj
 0002:0004b62c       ??_R2?$basic_filebuf@DU?$char_traits@D@std@@@std@@8 100b262c     World.obj
 0002:0004b638       ??_R3?$basic_streambuf@DU?$char_traits@D@std@@@std@@8 100b2638     World.obj
 0002:0004b648       ??_R2?$_Iosb@H@std@@8      100b2648     World.obj
 0002:0004b650       ??_R1A@A@3EA@ios_base@std@@8 100b2650     World.obj
 0002:0004b66c       ??_R1A@?0A@EA@?$basic_ios@DU?$char_traits@D@std@@@std@@8 100b266c     World.obj
 0002:0004b688       ??_R4codecvt_base@std@@6B@ 100b2688     World.obj
 0002:0004b69c       ??_R2?$basic_ifstream@DU?$char_traits@D@std@@@std@@8 100b269c     World.obj
 0002:0004b6b4       ??_R3?$_Iosb@H@std@@8      100b26b4     World.obj
 0002:0004b6c4       ??_R2_Facet_base@std@@8    100b26c4     World.obj
 0002:0004b6cc       ??_R2facet@locale@std@@8   100b26cc     World.obj
 0002:0004b6dc       ??_R17?0A@EA@?$_Iosb@H@std@@8 100b26dc     World.obj
 0002:0004b6f8       ??_R4?$ctype@D@std@@6B@    100b26f8     World.obj
 0002:0004b70c       ??_R4?$basic_istream@DU?$char_traits@D@std@@@std@@6B@ 100b270c     World.obj
 0002:0004b720       ??_R2?$basic_ios@DU?$char_traits@D@std@@@std@@8 100b2720     World.obj
 0002:0004b730       ??_R2ctype_base@std@@8     100b2730     World.obj
 0002:0004b744       ??_R1A@?0A@EA@?$codecvt@DDU_Mbstatet@@@std@@8 100b2744     World.obj
 0002:0004b760       ??_R1A@?0A@EA@logic_error@std@@8 100b2760     Pipi_edit.obj
 0002:0004b77c       ??_R3?$fast_basic_ostringstream@D@detail@configor@@8 100b277c     Pipi_edit.obj
 0002:0004b78c       ??_R4?$basic_ofstream@DU?$char_traits@D@std@@@std@@6B@ 100b278c     Pipi_edit.obj
 0002:0004b7a0       ??_R4?$basic_ostream@DU?$char_traits@D@std@@@std@@6B@ 100b27a0     Pipi_edit.obj
 0002:0004b7b4       ??_R2?$fast_string_istreambuf@D@detail@configor@@8 100b27b4     Pipi_edit.obj
 0002:0004b7c0       ??_R3configor_invalid_key@configor@@8 100b27c0     Pipi_edit.obj
 0002:0004b7d0       ??_R3?$basic_ofstream@DU?$char_traits@D@std@@@std@@8 100b27d0     Pipi_edit.obj
 0002:0004b7e0       ??_R1A@?0A@EA@?$fast_basic_ostringstream@D@detail@configor@@8 100b27e0     Pipi_edit.obj
 0002:0004b7fc       ??_R4?$fast_basic_ostringstream@D@detail@configor@@6B@ 100b27fc     Pipi_edit.obj
 0002:0004b810       ??_R2?$num_put@DV?$ostreambuf_iterator@DU?$char_traits@D@std@@@std@@@std@@8 100b2810     Pipi_edit.obj
 0002:0004b824       ??_R4configor_exception@configor@@6B@ 100b2824     Pipi_edit.obj
 0002:0004b838       ??_R1A@?0A@EA@configor_invalid_key@configor@@8 100b2838     Pipi_edit.obj
 0002:0004b854       ??_R3configor_exception@configor@@8 100b2854     Pipi_edit.obj
 0002:0004b864       ??_R1A@?0A@EA@?$fast_string_ostreambuf@D@detail@configor@@8 100b2864     Pipi_edit.obj
 0002:0004b880       ??_R2?$json_serializer@V?$basic_config@Ujson_args@configor@@@configor@@@detail@configor@@8 100b2880     Pipi_edit.obj
 0002:0004b88c       ??_R2?$basic_serializer@V?$basic_config@Ujson_args@configor@@@configor@@@configor@@8 100b288c     Pipi_edit.obj
 0002:0004b894       ??_R2?$basic_ofstream@DU?$char_traits@D@std@@@std@@8 100b2894     Pipi_edit.obj
 0002:0004b8ac       ??_R3configor_serialization_error@configor@@8 100b28ac     Pipi_edit.obj
 0002:0004b8bc       ??_R4?$basic_serializer@V?$basic_config@Ujson_args@configor@@@configor@@@configor@@6B@ 100b28bc     Pipi_edit.obj
 0002:0004b8d0       ??_R4?$fast_string_istreambuf@D@detail@configor@@6B@ 100b28d0     Pipi_edit.obj
 0002:0004b8e4       ??_R2configor_exception@configor@@8 100b28e4     Pipi_edit.obj
 0002:0004b8f4       ??_R1A@?0A@EA@configor_exception@configor@@8 100b28f4     Pipi_edit.obj
 0002:0004b910       ??_R2logic_error@std@@8    100b2910     Pipi_edit.obj
 0002:0004b91c       ??_R4configor_type_error@configor@@6B@ 100b291c     Pipi_edit.obj
 0002:0004b930       ??_R1A@?0A@EA@configor_type_error@configor@@8 100b2930     Pipi_edit.obj
 0002:0004b94c       ??_R3?$json_serializer@V?$basic_config@Ujson_args@configor@@@configor@@@detail@configor@@8 100b294c     Pipi_edit.obj
 0002:0004b95c       ??_R2?$fast_string_ostreambuf@D@detail@configor@@8 100b295c     Pipi_edit.obj
 0002:0004b968       ??_R4configor_serialization_error@configor@@6B@ 100b2968     Pipi_edit.obj
 0002:0004b97c       ??_R2?$basic_ostream@DU?$char_traits@D@std@@@std@@8 100b297c     Pipi_edit.obj
 0002:0004b990       ??_R1A@?0A@EA@out_of_range@std@@8 100b2990     Pipi_edit.obj
 0002:0004b9ac       ??_R2?$fast_basic_ostringstream@D@detail@configor@@8 100b29ac     Pipi_edit.obj
 0002:0004b9c4       ??_R3configor_type_error@configor@@8 100b29c4     Pipi_edit.obj
 0002:0004b9d4       ??_R4out_of_range@std@@6B@ 100b29d4     Pipi_edit.obj
 0002:0004b9e8       ??_R1A@?0A@EA@configor_serialization_error@configor@@8 100b29e8     Pipi_edit.obj
 0002:0004ba04       ??_R3logic_error@std@@8    100b2a04     Pipi_edit.obj
 0002:0004ba14       ??_R1A@?0A@EA@?$basic_ostream@DU?$char_traits@D@std@@@std@@8 100b2a14     Pipi_edit.obj
 0002:0004ba30       ??_R2configor_serialization_error@configor@@8 100b2a30     Pipi_edit.obj
 0002:0004ba44       ??_R4logic_error@std@@6B@  100b2a44     Pipi_edit.obj
 0002:0004ba58       ??_R2configor_type_error@configor@@8 100b2a58     Pipi_edit.obj
 0002:0004ba6c       ??_R2?$numpunct@D@std@@8   100b2a6c     Pipi_edit.obj
 0002:0004ba80       ??_R2out_of_range@std@@8   100b2a80     Pipi_edit.obj
 0002:0004ba90       ??_R4?$fast_string_ostreambuf@D@detail@configor@@6B@ 100b2a90     Pipi_edit.obj
 0002:0004baa4       ??_R1A@?0A@EA@?$json_serializer@V?$basic_config@Ujson_args@configor@@@configor@@@detail@configor@@8 100b2aa4     Pipi_edit.obj
 0002:0004bac0       ??_R3out_of_range@std@@8   100b2ac0     Pipi_edit.obj
 0002:0004bad0       ??_R1A@?0A@EA@?$basic_ofstream@DU?$char_traits@D@std@@@std@@8 100b2ad0     Pipi_edit.obj
 0002:0004baec       ??_R3?$numpunct@D@std@@8   100b2aec     Pipi_edit.obj
 0002:0004bafc       ??_R4?$numpunct@D@std@@6B@ 100b2afc     Pipi_edit.obj
 0002:0004bb10       ??_R1A@?0A@EA@?$num_put@DV?$ostreambuf_iterator@DU?$char_traits@D@std@@@std@@@std@@8 100b2b10     Pipi_edit.obj
 0002:0004bb2c       ??_R4configor_invalid_key@configor@@6B@ 100b2b2c     Pipi_edit.obj
 0002:0004bb40       ??_R3?$basic_serializer@V?$basic_config@Ujson_args@configor@@@configor@@@configor@@8 100b2b40     Pipi_edit.obj
 0002:0004bb50       ??_R3?$basic_ostream@DU?$char_traits@D@std@@@std@@8 100b2b50     Pipi_edit.obj
 0002:0004bb60       ??_R1A@?0A@EA@?$basic_serializer@V?$basic_config@Ujson_args@configor@@@configor@@@configor@@8 100b2b60     Pipi_edit.obj
 0002:0004bb7c       ??_R1A@?0A@EA@?$numpunct@D@std@@8 100b2b7c     Pipi_edit.obj
 0002:0004bb98       ??_R3?$fast_string_istreambuf@D@detail@configor@@8 100b2b98     Pipi_edit.obj
 0002:0004bba8       ??_R4?$json_serializer@V?$basic_config@Ujson_args@configor@@@configor@@@detail@configor@@6B@ 100b2ba8     Pipi_edit.obj
 0002:0004bbbc       ??_R2configor_invalid_key@configor@@8 100b2bbc     Pipi_edit.obj
 0002:0004bbd0       ??_R4?$num_put@DV?$ostreambuf_iterator@DU?$char_traits@D@std@@@std@@@std@@6B@ 100b2bd0     Pipi_edit.obj
 0002:0004bbe4       ??_R1A@?0A@EA@?$fast_string_istreambuf@D@detail@configor@@8 100b2be4     Pipi_edit.obj
 0002:0004bc00       ??_R3?$num_put@DV?$ostreambuf_iterator@DU?$char_traits@D@std@@@std@@@std@@8 100b2c00     Pipi_edit.obj
 0002:0004bc10       ??_R3?$fast_string_ostreambuf@D@detail@configor@@8 100b2c10     Pipi_edit.obj
 0002:0004c028       ___rtc_iaa                 100b3028     LIBCMT:initsect.obj
 0002:0004c02c       ___rtc_izz                 100b302c     LIBCMT:initsect.obj
 0002:0004c030       ___rtc_taa                 100b3030     LIBCMT:initsect.obj
 0002:0004c034       ___rtc_tzz                 100b3034     LIBCMT:initsect.obj
 0002:0004c038       __tls_start                100b3038     LIBCMT:tlssup.obj
 0002:0004c03c       __Init_thread_epoch        100b303c     LIBCMT:thread_safe_statics.obj
 0002:0004c040       __tls_end                  100b3040     LIBCMT:tlssup.obj
 0002:0004e2d4       __TI2?AVbad_alloc@std@@    100b52d4     libcpmt:xthrow.obj
 0002:0004e2e4       __CTA2?AVbad_alloc@std@@   100b52e4     libcpmt:xthrow.obj
 0002:0004e2f0       __TI3?AVlength_error@std@@ 100b52f0     libcpmt:xthrow.obj
 0002:0004e300       __CTA3?AVlength_error@std@@ 100b5300     libcpmt:xthrow.obj
 0002:0004e310       __CT??_R0?AVlength_error@std@@@8??0length_error@std@@QAE@ABV01@@Z12 100b5310     libcpmt:xthrow.obj
 0002:0004e32c       __TI2?AVruntime_error@std@@ 100b532c     libcpmt:xthrow.obj
 0002:0004e33c       __CTA2?AVruntime_error@std@@ 100b533c     libcpmt:xthrow.obj
 0002:0004e650       __TI2?AVbad_exception@std@@ 100b5650     libcpmt:excptptr.obj
 0002:0004e660       __CTA2?AVbad_exception@std@@ 100b5660     libcpmt:excptptr.obj
 0002:0004e66c       __CT??_R0?AVbad_exception@std@@@8??0bad_exception@std@@QAE@ABV01@@Z12 100b566c     libcpmt:excptptr.obj
 0002:0004ef5c       __CTA3?AVbad_array_new_length@std@@ 100b5f5c     Aimbot.obj
 0002:0004ef6c       __CT??_R0?AVbad_alloc@std@@@8??0bad_alloc@std@@QAE@ABV01@@Z12 100b5f6c     Aimbot.obj
 0002:0004ef88       __CT??_R0?AVexception@std@@@8??0exception@std@@QAE@ABV01@@Z12 100b5f88     Aimbot.obj
 0002:0004efa4       __TI3?AVbad_array_new_length@std@@ 100b5fa4     Aimbot.obj
 0002:0004efb4       __CT??_R0?AVbad_array_new_length@std@@@8??0bad_array_new_length@std@@QAE@ABV01@@Z12 100b5fb4     Aimbot.obj
 0002:0004efd0       __CT??_R0?AVsystem_error@std@@@8??0system_error@std@@QAE@ABV01@@Z20 100b5fd0     Menu.obj
 0002:0004efec       __CT??_R0?AVruntime_error@std@@@8??0runtime_error@std@@QAE@ABV01@@Z12 100b5fec     Menu.obj
 0002:0004f008       __CT??_R0?AV_System_error@std@@@8??0_System_error@std@@QAE@ABV01@@Z20 100b6008     Menu.obj
 0002:0004f024       __CTA2?AVbad_cast@std@@    100b6024     World.obj
 0002:0004f030       __CT??_R0?AVbad_cast@std@@@8??0bad_cast@std@@QAE@ABV01@@Z12 100b6030     World.obj
 0002:0004f04c       __TI2?AVbad_cast@std@@     100b604c     World.obj
 0002:0004f05c       __TI5?AVfailure@ios_base@std@@ 100b605c     World.obj
 0002:0004f06c       __CTA5?AVfailure@ios_base@std@@ 100b606c     World.obj
 0002:0004f084       __CT??_R0?AVfailure@ios_base@std@@@8??0failure@ios_base@std@@QAE@ABV012@@Z20 100b6084     World.obj
 0002:0004f0a0       __CT??_R0?AVconfigor_invalid_key@configor@@@8??0configor_invalid_key@configor@@QAE@ABV01@@Z12 100b60a0     Pipi_edit.obj
 0002:0004f0bc       __CTA4?AVconfigor_invalid_key@configor@@ 100b60bc     Pipi_edit.obj
 0002:0004f0d0       __CTA4?AVconfigor_type_error@configor@@ 100b60d0     Pipi_edit.obj
 0002:0004f0e4       __TI3?AVout_of_range@std@@ 100b60e4     Pipi_edit.obj
 0002:0004f0f4       __TI4?AVconfigor_invalid_key@configor@@ 100b60f4     Pipi_edit.obj
 0002:0004f104       __CT??_R0?AVconfigor_serialization_error@configor@@@8??0configor_serialization_error@configor@@QAE@ABV01@@Z12 100b6104     Pipi_edit.obj
 0002:0004f120       __TI4?AVconfigor_type_error@configor@@ 100b6120     Pipi_edit.obj
 0002:0004f130       __TI4?AVconfigor_serialization_error@configor@@ 100b6130     Pipi_edit.obj
 0002:0004f140       __CT??_R0?AVconfigor_type_error@configor@@@8??0configor_type_error@configor@@QAE@ABV01@@Z12 100b6140     Pipi_edit.obj
 0002:0004f15c       __CT??_R0?AVconfigor_exception@configor@@@8??0configor_exception@configor@@QAE@ABV01@@Z12 100b615c     Pipi_edit.obj
 0002:0004f178       __CT??_R0?AVout_of_range@std@@@8??0out_of_range@std@@QAE@ABV01@@Z12 100b6178     Pipi_edit.obj
 0002:0004f194       __CTA4?AVconfigor_serialization_error@configor@@ 100b6194     Pipi_edit.obj
 0002:0004f1a8       __CTA3?AVout_of_range@std@@ 100b61a8     Pipi_edit.obj
 0002:0004f1b8       __CT??_R0?AVlogic_error@std@@@8??0logic_error@std@@QAE@ABV01@@Z12 100b61b8     Pipi_edit.obj
 0002:0004f240       __IMPORT_DESCRIPTOR_KERNEL32 100b6240     kernel32:KERNEL32.dll
 0002:0004f254       __IMPORT_DESCRIPTOR_USER32 100b6254     user32:USER32.dll
 0002:0004f268       __IMPORT_DESCRIPTOR_GDI32  100b6268     gdi32:GDI32.dll
 0002:0004f27c       __IMPORT_DESCRIPTOR_SHELL32 100b627c     shell32:SHELL32.dll
 0002:0004f290       __IMPORT_DESCRIPTOR_ole32  100b6290     ole32:ole32.dll
 0002:0004f2a4       __IMPORT_DESCRIPTOR_OLEAUT32 100b62a4     oleaut32:OLEAUT32.dll
 0002:0004f2b8       __IMPORT_DESCRIPTOR_OPENGL32 100b62b8     OpenGL32:OPENGL32.dll
 0002:0004f2cc       __NULL_IMPORT_DESCRIPTOR   100b62cc     kernel32:KERNEL32.dll
 0003:000000ac       ?_Sync@ios_base@std@@0_NA  100b70ac     libcpmt:ios.obj
 0003:000000b0       ?valid@?1???$_Xfiopen@D@std@@YAPAU_iobuf@@PBDHH@Z@4QBHB 100b70b0     libcpmt:fiopen.obj
 0003:000001c4       __Init_global_epoch        100b71c4     LIBCMT:thread_safe_statics.obj
 0003:000001c8       ___scrt_native_dllmain_reason 100b71c8     LIBCMT:utility.obj
 0003:000001cc       ___security_cookie_complement 100b71cc     LIBCMT:gs_cookie.obj
 0003:000001d0       ___security_cookie         100b71d0     LIBCMT:gs_cookie.obj
 0003:000001e0       __fltused                  100b71e0     LIBCMT:fltused.obj
 0003:000001f0       ___isa_enabled             100b71f0     LIBCMT:cpu_disp.obj
 0003:00000200       __NLG_Destination          100b7200     libvcruntime:exsup.obj
 0003:00000220       __iob                      100b7220     libucrt:_file.obj
 0003:000002d0       ___acrt_lconv_c            100b72d0     libucrt:localeconv.obj
 0003:00000320       ___acrt_lconv              100b7320     libucrt:localeconv.obj
 0003:00000324       ___acrt_lconv_static_decimal 100b7324     libucrt:localeconv.obj
 0003:00000328       ___acrt_lconv_static_W_decimal 100b7328     libucrt:localeconv.obj
 0003:00000330       __pctype                   100b7330     libucrt:ctype.obj
 0003:00000334       __pwctype                  100b7334     libucrt:ctype.obj
 0003:00000338       ___abort_behavior          100b7338     libucrt:abort.obj
 0003:00000358       ___acrt_initial_locale_data 100b7358     libucrt:nlsdata.obj
 0003:00000410       ___acrt_initial_locale_pointers 100b7410     libucrt:nlsdata.obj
 0003:00000418       ___acrt_wide_c_locale_string 100b7418     libucrt:nlsdata.obj
 0003:0000041c       ___mb_cur_max              100b741c     libucrt:nlsdata.obj
 0003:00000420       ___badioinfo               100b7420     libucrt:ioinit.obj
 0003:00000460       __lookuptrailbytes         100b7460     libucrt:read.obj
 0003:0000070c       ___globallocalestatus      100b770c     libucrt:glstatus.obj
 0003:00000710       ___acrt_initial_multibyte_data 100b7710     libucrt:mbctype.obj
 0003:00000c48       ?seed_table@@3PAIA         100b7c48     NoSpread.obj
 0003:00001048       ?g_Systems@@3VCSystems@@A  100b8048     Systems.obj
 0003:000012e8       ?Cstrike_SequenceInfo@@3PAIA 100b82e8     Utils.obj
 0003:000014cc       ?_Static@?1???$_Immortalize_memcpy_image@V_Iostream_error_category2@std@@@std@@YAABV_Iostream_error_category2@1@XZ@4U?$_Constexpr_immortalize_impl@V_Iostream_error_category2@std@@@1@A 100b84cc     World.obj
 0003:000014e0       ??_R0?AVlength_error@std@@@8 100b84e0     libcpmt:xthrow.obj
 0003:00001500       ??_R0?AVbad_exception@std@@@8 100b8500     libcpmt:excptptr.obj
 0003:00001520       ??_R0?AVbad_alloc@std@@@8  100b8520     Aimbot.obj
 0003:0000153c       ??_R0?AVexception@std@@@8  100b853c     Aimbot.obj
 0003:00001558       ??_R0?AVbad_array_new_length@std@@@8 100b8558     Aimbot.obj
 0003:00001580       ??_R0?AVruntime_error@std@@@8 100b8580     Menu.obj
 0003:000015a0       ??_R0?AVsystem_error@std@@@8 100b85a0     Menu.obj
 0003:000015c0       ??_R0?AV_System_error@std@@@8 100b85c0     Menu.obj
 0003:000015e0       ??_R0?AVfailure@ios_base@std@@@8 100b85e0     World.obj
 0003:00001604       ??_R0?AVbad_cast@std@@@8   100b8604     World.obj
 0003:00001620       ??_R0?AVconfigor_serialization_error@configor@@@8 100b8620     Pipi_edit.obj
 0003:00001654       ??_R0?AVconfigor_invalid_key@configor@@@8 100b8654     Pipi_edit.obj
 0003:00001680       ??_R0?AVlogic_error@std@@@8 100b8680     Pipi_edit.obj
 0003:000016a0       ??_R0?AVconfigor_type_error@configor@@@8 100b86a0     Pipi_edit.obj
 0003:000016cc       ??_R0?AVout_of_range@std@@@8 100b86cc     Pipi_edit.obj
 0003:000016ec       ??_R0?AVconfigor_exception@configor@@@8 100b86ec     Pipi_edit.obj
 0003:00001718       ??_R0?AV_Locimp@locale@std@@@8 100b8718     libcpmt:locale0.obj
 0003:0000173c       ??_R0?AV_Ref_count_base@std@@@8 100b873c     libcpmt:excptptr.obj
 0003:00001820       ??_R0?AVtype_info@@@8      100b8820     LIBCMT:std_type_info_static.obj
 0003:00001838       ??_R0?AVerror_category@std@@@8 100b8838     Menu.obj
 0003:0000185c       ??_R0?AV?$basic_filebuf@DU?$char_traits@D@std@@@std@@@8 100b885c     World.obj
 0003:00001898       ??_R0?AV?$codecvt@DDU_Mbstatet@@@std@@@8 100b8898     World.obj
 0003:000018c4       ??_R0?AV?$basic_ifstream@DU?$char_traits@D@std@@@std@@@8 100b88c4     World.obj
 0003:00001900       ??_R0?AVios_base@std@@@8   100b8900     World.obj
 0003:0000191c       ??_R0?AV?$ctype@D@std@@@8  100b891c     World.obj
 0003:00001938       ??_R0?AVcodecvt_base@std@@@8 100b8938     World.obj
 0003:00001958       ??_R0?AV_Facet_base@std@@@8 100b8958     World.obj
 0003:00001978       ??_R0?AU_Crt_new_delete@std@@@8 100b8978     World.obj
 0003:0000199c       ??_R0?AV?$_Iosb@H@std@@@8  100b899c     World.obj
 0003:000019b8       ??_R0?AV_Iostream_error_category2@std@@@8 100b89b8     World.obj
 0003:000019e4       ??_R0?AV?$basic_streambuf@DU?$char_traits@D@std@@@std@@@8 100b89e4     World.obj
 0003:00001a20       ??_R0?AUctype_base@std@@@8 100b8a20     World.obj
 0003:00001a40       ??_R0?AV?$basic_istream@DU?$char_traits@D@std@@@std@@@8 100b8a40     World.obj
 0003:00001a7c       ??_R0?AV?$basic_ios@DU?$char_traits@D@std@@@std@@@8 100b8a7c     World.obj
 0003:00001ab4       ??_R0?AVfacet@locale@std@@@8 100b8ab4     World.obj
 0003:00001ad4       ??_R0?AV?$fast_string_istreambuf@D@detail@configor@@@8 100b8ad4     Pipi_edit.obj
 0003:00001b10       ??_R0?AV?$json_serializer@V?$basic_config@Ujson_args@configor@@@configor@@@detail@configor@@@8 100b8b10     Pipi_edit.obj
 0003:00001b74       ??_R0?AV?$fast_string_ostreambuf@D@detail@configor@@@8 100b8b74     Pipi_edit.obj
 0003:00001bb0       ??_R0?AV?$basic_ofstream@DU?$char_traits@D@std@@@std@@@8 100b8bb0     Pipi_edit.obj
 0003:00001bec       ??_R0?AV?$numpunct@D@std@@@8 100b8bec     Pipi_edit.obj
 0003:00001c10       ??_R0?AV?$basic_serializer@V?$basic_config@Ujson_args@configor@@@configor@@@configor@@@8 100b8c10     Pipi_edit.obj
 0003:00001c6c       ??_R0?AV?$fast_basic_ostringstream@D@detail@configor@@@8 100b8c6c     Pipi_edit.obj
 0003:00001ca8       ??_R0?AV?$basic_ostream@DU?$char_traits@D@std@@@std@@@8 100b8ca8     Pipi_edit.obj
 0003:00001ce8       ??_R0?AV?$num_put@DV?$ostreambuf_iterator@DU?$char_traits@D@std@@@std@@@std@@@8 100b8ce8     Pipi_edit.obj
 0003:00001e08       ?_Id_cnt@id@locale@std@@0HA 100b8e08     libcpmt:locale0.obj
 0003:00001e0c       ?_Clocptr@_Locimp@locale@std@@0PAV123@A 100b8e0c     libcpmt:locale0.obj
 0003:00001e10       ?id@?$ctype@G@std@@2V0locale@2@A 100b8e10     libcpmt:locale0.obj
 0003:00001e14       ?id@?$codecvt@_WDU_Mbstatet@@@std@@2V0locale@2@A 100b8e14     libcpmt:locale0.obj
 0003:00001e18       ?id@?$codecvt@GDU_Mbstatet@@@std@@2V0locale@2@A 100b8e18     libcpmt:locale0.obj
 0003:00001e1c       ?id@?$ctype@_W@std@@2V0locale@2@A 100b8e1c     libcpmt:locale0.obj
 0003:00001e20       ?id@?$ctype@D@std@@2V0locale@2@A 100b8e20     libcpmt:locale0.obj
 0003:00001e3c       ?_Index@ios_base@std@@0HA  100b8e3c     libcpmt:ios.obj
 0003:00001e74       ?id@?$num_get@DV?$istreambuf_iterator@DU?$char_traits@D@std@@@std@@@std@@2V0locale@2@A 100b8e74     libcpmt:locale.obj
 0003:00001e78       ?_Ptr_cin@std@@3PAV?$basic_istream@DU?$char_traits@D@std@@@1@A 100b8e78     libcpmt:iosptrs.obj
 0003:00001e7c       ?_Ptr_cout@std@@3PAV?$basic_ostream@DU?$char_traits@D@std@@@1@A 100b8e7c     libcpmt:iosptrs.obj
 0003:00001e80       ?_Ptr_cerr@std@@3PAV?$basic_ostream@DU?$char_traits@D@std@@@1@A 100b8e80     libcpmt:iosptrs.obj
 0003:00001e84       ?_Ptr_clog@std@@3PAV?$basic_ostream@DU?$char_traits@D@std@@@1@A 100b8e84     libcpmt:iosptrs.obj
 0003:00001e88       ?_Ptr_wcin@std@@3PAV?$basic_istream@_WU?$char_traits@_W@std@@@1@A 100b8e88     libcpmt:iosptrs.obj
 0003:00001e8c       ?_Ptr_wcout@std@@3PAV?$basic_ostream@_WU?$char_traits@_W@std@@@1@A 100b8e8c     libcpmt:iosptrs.obj
 0003:00001e90       ?_Ptr_wcerr@std@@3PAV?$basic_ostream@_WU?$char_traits@_W@std@@@1@A 100b8e90     libcpmt:iosptrs.obj
 0003:00001e94       ?_Ptr_wclog@std@@3PAV?$basic_ostream@_WU?$char_traits@_W@std@@@1@A 100b8e94     libcpmt:iosptrs.obj
 0003:00001ec4       ?id@?$time_put@_WV?$ostreambuf_iterator@_WU?$char_traits@_W@std@@@std@@@std@@2V0locale@2@A 100b8ec4     libcpmt:wlocale.obj
 0003:00001ec8       ?id@?$num_get@_WV?$istreambuf_iterator@_WU?$char_traits@_W@std@@@std@@@std@@2V0locale@2@A 100b8ec8     libcpmt:wlocale.obj
 0003:00001ecc       ?id@?$num_put@_WV?$ostreambuf_iterator@_WU?$char_traits@_W@std@@@std@@@std@@2V0locale@2@A 100b8ecc     libcpmt:wlocale.obj
 0003:00001ed0       ?id@?$numpunct@_W@std@@2V0locale@2@A 100b8ed0     libcpmt:wlocale.obj
 0003:00001ed4       ?id@?$collate@_W@std@@2V0locale@2@A 100b8ed4     libcpmt:wlocale.obj
 0003:00001ed8       ?id@?$messages@_W@std@@2V0locale@2@A 100b8ed8     libcpmt:wlocale.obj
 0003:00001edc       ?id@?$money_get@_WV?$istreambuf_iterator@_WU?$char_traits@_W@std@@@std@@@std@@2V0locale@2@A 100b8edc     libcpmt:wlocale.obj
 0003:00001ee0       ?id@?$money_put@_WV?$ostreambuf_iterator@_WU?$char_traits@_W@std@@@std@@@std@@2V0locale@2@A 100b8ee0     libcpmt:wlocale.obj
 0003:00001ee4       ?id@?$moneypunct@_W$0A@@std@@2V0locale@2@A 100b8ee4     libcpmt:wlocale.obj
 0003:00001ee8       ?id@?$moneypunct@_W$00@std@@2V0locale@2@A 100b8ee8     libcpmt:wlocale.obj
 0003:00001eec       ?id@?$time_get@_WV?$istreambuf_iterator@_WU?$char_traits@_W@std@@@std@@@std@@2V0locale@2@A 100b8eec     libcpmt:wlocale.obj
 0003:00001ef0       ?id@?$num_get@GV?$istreambuf_iterator@GU?$char_traits@G@std@@@std@@@std@@2V0locale@2@A 100b8ef0     libcpmt:wlocale.obj
 0003:00001ef4       ?id@?$num_put@GV?$ostreambuf_iterator@GU?$char_traits@G@std@@@std@@@std@@2V0locale@2@A 100b8ef4     libcpmt:wlocale.obj
 0003:00001ef8       ?id@?$numpunct@G@std@@2V0locale@2@A 100b8ef8     libcpmt:wlocale.obj
 0003:00001efc       ?id@?$collate@G@std@@2V0locale@2@A 100b8efc     libcpmt:wlocale.obj
 0003:00001f00       ?id@?$messages@G@std@@2V0locale@2@A 100b8f00     libcpmt:wlocale.obj
 0003:00001f04       ?id@?$money_get@GV?$istreambuf_iterator@GU?$char_traits@G@std@@@std@@@std@@2V0locale@2@A 100b8f04     libcpmt:wlocale.obj
 0003:00001f08       ?id@?$money_put@GV?$ostreambuf_iterator@GU?$char_traits@G@std@@@std@@@std@@2V0locale@2@A 100b8f08     libcpmt:wlocale.obj
 0003:00001f0c       ?id@?$moneypunct@G$0A@@std@@2V0locale@2@A 100b8f0c     libcpmt:wlocale.obj
 0003:00001f10       ?id@?$moneypunct@G$00@std@@2V0locale@2@A 100b8f10     libcpmt:wlocale.obj
 0003:00001f14       ?id@?$time_get@GV?$istreambuf_iterator@GU?$char_traits@G@std@@@std@@@std@@2V0locale@2@A 100b8f14     libcpmt:wlocale.obj
 0003:00001f18       ?id@?$time_put@GV?$ostreambuf_iterator@GU?$char_traits@G@std@@@std@@@std@@2V0locale@2@A 100b8f18     libcpmt:wlocale.obj
 0003:00001f1c       ?id@?$collate@D@std@@2V0locale@2@A 100b8f1c     libcpmt:xlocale.obj
 0003:00001f20       ?id@?$messages@D@std@@2V0locale@2@A 100b8f20     libcpmt:xlocale.obj
 0003:00001f24       ?id@?$money_get@DV?$istreambuf_iterator@DU?$char_traits@D@std@@@std@@@std@@2V0locale@2@A 100b8f24     libcpmt:xlocale.obj
 0003:00001f28       ?id@?$money_put@DV?$ostreambuf_iterator@DU?$char_traits@D@std@@@std@@@std@@2V0locale@2@A 100b8f28     libcpmt:xlocale.obj
 0003:00001f2c       ?id@?$moneypunct@D$0A@@std@@2V0locale@2@A 100b8f2c     libcpmt:xlocale.obj
 0003:00001f30       ?id@?$moneypunct@D$00@std@@2V0locale@2@A 100b8f30     libcpmt:xlocale.obj
 0003:00001f34       ?id@?$time_get@DV?$istreambuf_iterator@DU?$char_traits@D@std@@@std@@@std@@2V0locale@2@A 100b8f34     libcpmt:xlocale.obj
 0003:00001f38       ?id@?$time_put@DV?$ostreambuf_iterator@DU?$char_traits@D@std@@@std@@@std@@2V0locale@2@A 100b8f38     libcpmt:xlocale.obj
 0003:00001f64       ___scrt_current_native_startup_state 100b8f64     LIBCMT:utility.obj
 0003:00001f68       ___scrt_native_startup_lock 100b8f68     LIBCMT:utility.obj
 0003:000022a8       ___castguard_check_failure_os_handled_fptr 100b92a8     LIBCMT:guard_support.obj
 0003:000022ac       ___scrt_debugger_hook_flag 100b92ac     LIBCMT:utility_desktop.obj
 0003:000022b0       __tls_index                100b92b0     LIBCMT:tlssup.obj
 0003:000022b4       ___isa_available           100b92b4     LIBCMT:cpu_disp.obj
 0003:000022b8       ___favor                   100b92b8     LIBCMT:cpu_disp.obj
 0003:000022c0       ?__type_info_root_node@@3U__type_info_node@@A 100b92c0     LIBCMT:tncleanup.obj
 0003:000022c8       ?_OptionsStorage@?1??__local_stdio_scanf_options@@9@4_KA 100b92c8     LIBCMT:default_local_stdio_options.obj
 0003:000022d0       ?__WinRTOutOfMemoryExceptionCallback@@3P6GPAXXZA 100b92d0     libvcruntime:ehhelpers.obj
 0003:000022fc       ___pPurecall               100b92fc     libvcruntime:purevirt_data.obj
 0003:000023a4       ?pArgList@UnDecorator@@0PAVReplicator@@A 100b93a4     libvcruntime:undname.obj
 0003:000023a8       ?pZNameList@UnDecorator@@0PAVReplicator@@A 100b93a8     libvcruntime:undname.obj
 0003:000023ac       ?pTemplateArgList@UnDecorator@@0PAVReplicator@@A 100b93ac     libvcruntime:undname.obj
 0003:000023b0       ?gName@UnDecorator@@0PBDB  100b93b0     libvcruntime:undname.obj
 0003:000023b4       ?name@UnDecorator@@0PBDB   100b93b4     libvcruntime:undname.obj
 0003:000023b8       ?disableFlags@UnDecorator@@0KA 100b93b8     libvcruntime:undname.obj
 0003:000023bc       ?fExplicitTemplateParams@UnDecorator@@0_NA 100b93bc     libvcruntime:undname.obj
 0003:000023bd       ?fGetTemplateArgumentList@UnDecorator@@0_NA 100b93bd     libvcruntime:undname.obj
 0003:000023c0       ?m_pGetParameter@UnDecorator@@0P6APADJ@ZA 100b93c0     libvcruntime:undname.obj
 0003:000023c4       ?m_CHPENameOffset@UnDecorator@@0KA 100b93c4     libvcruntime:undname.obj
 0003:000023c8       ?m_recursionLevel@UnDecorator@@0KA 100b93c8     libvcruntime:undname.obj
 0003:00002408       ?c_exit_complete@?1???R<lambda_6e4b09c48022b2350581041d5f6b0c4c>@@QBE@XZ@4_NA 100b9408     libucrt:exit.obj
 0003:00002410       __nstream                  100b9410     libucrt:_file.obj
 0003:00002414       ___piob                    100b9414     libucrt:_file.obj
 0003:00002418       __cflush                   100b9418     libucrt:_file.obj
 0003:0000241c       ___acrt_lconv_static_null  100b941c     libucrt:localeconv.obj
 0003:00002420       ___acrt_lconv_static_W_null 100b9420     libucrt:localeconv.obj
 0003:00002688       __environ_table            100b9688     libucrt:environment_initialization.obj
 0003:0000268c       __wenviron_table           100b968c     libucrt:environment_initialization.obj
 0003:00002690       ___dcrt_initial_wide_environment 100b9690     libucrt:environment_initialization.obj
 0003:00002694       ___dcrt_initial_narrow_environment 100b9694     libucrt:environment_initialization.obj
 0003:00002698       ___acrt_atexit_table       100b9698     libucrt:onexit.obj
 0003:000026a4       ___acrt_at_quick_exit_table 100b96a4     libucrt:onexit.obj
 0003:000026b0       ___acrt_locale_changed_data 100b96b0     libucrt:wsetlocale.obj
 0003:000026b4       ___acrt_current_locale_data 100b96b4     libucrt:nlsdata.obj
 0003:000026c4       ___acrt_stdout_buffer      100b96c4     libucrt:_sftbuf.obj
 0003:000026c8       ___acrt_stderr_buffer      100b96c8     libucrt:_sftbuf.obj
 0003:000026d0       ___pioinfo                 100b96d0     libucrt:ioinit.obj
 0003:000028d0       __nhandle                  100b98d0     libucrt:ioinit.obj
 0003:000029b4       ?_timezone@@3V?$dual_state_global@J@__crt_state_management@@A 100b99b4     libucrt:timeset.obj
 0003:000029b8       ?_daylight@@3V?$dual_state_global@H@__crt_state_management@@A 100b99b8     libucrt:timeset.obj
 0003:000029bc       ?_dstbias@@3V?$dual_state_global@J@__crt_state_management@@A 100b99bc     libucrt:timeset.obj
 0003:00002a94       ___fastflag                100b9a94     libucrt:fp_flags.obj
 0003:00002a98       __mbctype                  100b9a98     libucrt:mbctype.obj
 0003:00002a9c       __mbcasemap                100b9a9c     libucrt:mbctype.obj
 0003:00002aa0       ___acrt_current_multibyte_data 100b9aa0     libucrt:mbctype.obj
 0003:00002aac       __pgmptr                   100b9aac     libucrt:argv_data.obj
 0003:00002ab0       ___argc                    100b9ab0     libucrt:argv_data.obj
 0003:00002ab4       ___argv                    100b9ab4     libucrt:argv_data.obj
 0003:00002ab8       ___wargv                   100b9ab8     libucrt:argv_data.obj
 0003:00002abc       __acmdln                   100b9abc     libucrt:argv_data.obj
 0003:00002ac0       __wcmdln                   100b9ac0     libucrt:argv_data.obj
 0003:00002ac4       ___acrt_heap               100b9ac4     libucrt:heap_handle.obj
 0003:00002ad0       __commode                  100b9ad0     libucrt:ncommode.obj
 0003:00002ae4       __umaskval                 100b9ae4     libucrt:umask.obj
 0003:00002af0       __fmode                    100b9af0     libucrt:txtmode.obj
 0003:00002af8       ?g_Screen@@3USCREENINFO_s@@A 100b9af8     Client.obj
 0003:00002d0c       ?g_AimBot@@3VCAimBot@@A    100b9d0c     Aimbot.obj
 0003:00002d18       ?g_pGlobals@@3VCGlobalsVars@@A 100b9d18     Client.obj
 0003:00003048       ?func@@3VCFunctions@@A     100ba048     Cvars.obj
 0003:00003049       ?g_Drawing@@3VCDrawing@@A  100ba049     Drawing.obj
 0003:0000304a       ?g_Misc@@3VCMisc@@A        100ba04a     Misc.obj
 0003:0000304b       ?g_NoRecoil@@3VCNoRecoil@@A 100ba04b     NoRecoil.obj
 0003:0000304c       ?ESP@@3KA                  100ba04c     Drawing.obj
 0003:00003050       ?MENU@@3KA                 100ba050     Drawing.obj
 0003:00003054       ?g_NoFlash@@3VCNoFlash@@A  100ba054     NoFlash.obj
 0003:00003060       ?g_NoSpread@@3VCNoSpread@@A 100ba060     NoSpread.obj
 0003:00003061       ?asdfg_scrolled@@3_NA      100ba061     Systems.obj
 0003:00003062       ?bDuckScroll@@3_NA         100ba062     Systems.obj
 0003:00003063       ?bJumpScroll@@3_NA         100ba063     Systems.obj
 0003:00003064       ?glSeed@@3IA               100ba064     NoSpread.obj
 0003:00003068       ?dwJumpPressed@@3KA        100ba068     Systems.obj
 0003:0000306c       ?goodjump_scrolled@@3HA    100ba06c     Systems.obj
 0003:00003070       ?poo@@3HA                  100ba070     Systems.obj
 0003:00003074       ?dwJumpReleased@@3KA       100ba074     Systems.obj
 0003:00003078       ?scrolling@@3_NA           100ba078     Systems.obj
 0003:00003079       ?bJumpJustPressed@@3_NA    100ba079     Systems.obj
 0003:0000307a       ?bDuckJustPressed@@3_NA    100ba07a     Systems.obj
 0003:0000307b       ?scroll_forced@@3_NA       100ba07b     Systems.obj
 0003:0000307c       ?pattern@@3HA              100ba07c     Systems.obj
 0003:00003080       ?dwDuckReleased@@3KA       100ba080     Systems.obj
 0003:00003084       ?scroll_Counter@@3PAHA     100ba084     Systems.obj
 0003:0000308c       ?frames_without_scroll@@3HA 100ba08c     Systems.obj
 0003:00003090       ?lastScroll_Time@@3PAMA    100ba090     Systems.obj
 0003:00003098       ?dwDuckPressed@@3KA        100ba098     Systems.obj
 0003:0000309c       ?prevent_next_slowdown@@3_NA 100ba09c     Systems.obj
 0003:0000309d       ?fail_bhop@@3_NA           100ba09d     Systems.obj
 0003:0000309e       ?World@@3VCWorld@@A        100ba09e     World.obj
 0003:0000309f       ?bSmoke@@3_NA              100ba09f     OpenGL.obj
 0003:000030a0       ?g_Menu@@3VCMenu@@A        100ba0a0     Menu.obj
 0003:00003244       ?pmove@@3PAUplayermove_s@@A 100ba244     Main.obj
 0003:00003248       ?g_Visuals@@3VCVisuals@@A  100ba248     Visuals.obj
 0003:000033a4       ?g_pStudio@@3PAUengine_studio_api_s@@A 100ba3a4     Main.obj
 0003:000033a8       ?g_PlayerInfoList@@3PAUhud_player_info_s@@A 100ba3a8     World.obj
 0003:0000363c       ?g_MapInfo@@3Uinfo_map_parameters@@A 100ba63c     World.obj
 0003:00003644       ?Screenshot_s@@3P6AXXZA    100ba644     Main.obj
 0003:00003648       ?g_Studio@@3Uengine_studio_api_s@@A 100ba648     Main.obj
 0003:000036f4       ?g_pConsole@@3PAVIGameConsole@@A 100ba6f4     Main.obj
 0003:000036f8       ?g_Engine@@3Ucl_enginefuncs_s@@A 100ba6f8     Main.obj
 0003:00003904       ?CL_Move_s@@3P6AXXZA       100ba904     Main.obj
 0003:00003908       ?g_pIRunGameEngine@@3PAVIRunGameEngine@@A 100ba908     Main.obj
 0003:0000390c       ?PanelHook@@3VVHookTable@@A 100ba90c     Main.obj
 0003:0000391c       ?g_pGameUI@@3PAVIGameUI@@A 100ba91c     Main.obj
 0003:00003920       ?g_pISurface@@3PAVISurface@vgui@@A 100ba920     Main.obj
 0003:00003924       ?PreS_DynamicSound_s@@3P6AXHKPADPAMMMHH@ZA 100ba924     Main.obj
 0003:00003928       ?g_pEngine@@3PAUcl_enginefuncs_s@@A 100ba928     Main.obj
 0003:0000392c       ?Snapshot_s@@3P6AXXZA      100ba92c     Main.obj
 0003:00003930       ?g_pStudioModelRenderer@@3PAUStudioModelRenderer_s@@A 100ba930     Main.obj
 0003:00003934       ?g_pClient@@3PAUcl_clientfuncs_s@@A 100ba934     Main.obj
 0003:00003938       ?g_Client@@3Ucl_clientfuncs_s@@A 100ba938     Main.obj
 0003:000039e4       ?g_pIPanel@@3PAVIPanel@vgui@@A 100ba9e4     Main.obj
 0003:000039e8       ?pUserMsgBase@@3PAU_UserMsg@@A 100ba9e8     Main.obj
 0003:000039ec       ?g_pIVGuiModuleLoader@@3PAVIVGuiModuleLoader@@A 100ba9ec     Main.obj
 0003:000039f0       ?g_StudioModelRenderer@@3UStudioModelRenderer_s@@A 100ba9f0     Main.obj
 0003:00003a54       ?hAppInstance@@3PAUHINSTANCE__@@A 100baa54     Main.obj
 0003:00003a58       ?g_pIEngineVGui@@3PAVIEngineVGui@vgui@@A 100baa58     Main.obj
 0003:00003a5c       ?pglColor4f@@3P6GXMMMM@ZA  100baa5c     OpenGL.obj
 0003:00003a60       ?g_Offsets@@3VCOffsets@@A  100baa60     Offsets.obj
 0003:00003aa4       ?viewport@@3PAHA           100baaa4     OpenGL.obj
 0003:00003ab4       ?pglClear@@3P6GXI@ZA       100baab4     OpenGL.obj
 0003:00003ab8       ?pwglSwapBuffers@@3P6GHPAUHDC__@@@ZA 100baab8     OpenGL.obj
 0003:00003abc       ?pglViewport@@3P6GXHHHH@ZA 100baabc     OpenGL.obj
 0003:00003ac0       ?pglBegin@@3P6GXI@ZA       100baac0     OpenGL.obj
 0003:00003ac4       ?pglVertex3fv@@3P6GXPBM@ZA 100baac4     OpenGL.obj
 0003:00003ac8       ?g_Box_pos@@3PAHA          100baac8     Pipi_edit.obj
 0003:00003ad8       ?g_isScreenCaptureAvaliable@@3_NA 100baad8     Pipi_edit.obj
 0003:00003ad9       ?g_mode_auto@@3_NA         100baad9     Pipi_edit.obj
 0003:00003adc       ?pThis@@3PAU<unnamed-type-StudioModelRenderer_d>@@A 100baadc     StudioModelRenderer.obj
 0003:00003ae0       ?pBombDrop@@3P6AHPBDHPAX@ZA 100baae0     Usermsg.obj
 0003:00003ae4       ?pDeathMsg@@3P6AHPBDHPAX@ZA 100baae4     Usermsg.obj
 0003:00003ae8       ?pTeamInfo@@3P6AHPBDHPAX@ZA 100baae8     Usermsg.obj
 0003:00003aec       ?pSetFOV@@3P6AHPBDHPAX@ZA  100baaec     Usermsg.obj
 0003:00003af0       ?pScoreAttrib@@3P6AHPBDHPAX@ZA 100baaf0     Usermsg.obj
 0003:00003af4       ?pBattery@@3P6AHPBDHPAX@ZA 100baaf4     Usermsg.obj
 0003:00003af8       ?pResetHUD@@3P6AHPBDHPAX@ZA 100baaf8     Usermsg.obj
 0003:00003afc       ?pHealth@@3P6AHPBDHPAX@ZA  100baafc     Usermsg.obj
 0003:00003b00       ?cvar@@3VCCvars@@A         100bab00     Cvars.obj
 0003:000044a0       ?speedcap@@3MA             100bb4a0     Systems.obj
 0003:000044a4       ?mySounds@@3V?$deque@Umy_sound_t@@V?$allocator@Umy_sound_t@@@std@@@std@@A 100bb4a4     Sounds.obj
 0003:000044b8       ?g_Utils@@3VCUtils@@A      100bb4b8     Utils.obj
 0003:0000450c       ?g_hwnd@@3PAUHWND__@@A     100bb50c     Pipi_edit.obj
 0003:00004510       ?Grenades@@3PAUgrenadetracer_t@@A 100bb510     Visuals.obj
 0003:00005d10       ?g_PlayerExtraInfoList@@3PAUplayer_extra_info_t@@A 100bcd10     World.obj
 0003:0001feb8       ?g_Local@@3VCBaseLocal@@A  100d6eb8     World.obj
 0003:00020068       ?g_Entities@@3PAVCBaseEntity@@A 100d7068     World.obj
 0003:00021c68       ?g_Player@@3PAVCBasePlayer@@A 100d8c68     World.obj
 0003:00022758       ?g_jsonfile@@3V?$basic_ofstream@DU?$char_traits@D@std@@@std@@A 100d9758     Pipi_edit.obj
 0003:00024428       ?_OptionsStorage@?1??__local_stdio_printf_options@@9@4_KA 100db428     Drawing.obj
 0003:0002450c       ?_Psave@?$_Facetptr@V?$ctype@D@std@@@std@@2PBVfacet@locale@2@B 100db50c     World.obj
 0003:00024510       ?_Psave@?$_Facetptr@V?$codecvt@DDU_Mbstatet@@@std@@@std@@2PBVfacet@locale@2@B 100db510     World.obj
 0003:00024514       ?_Stinit@?1??_Init@?$basic_filebuf@DU?$char_traits@D@std@@@std@@IAEXPAU_iobuf@@W4_Initfl@23@@Z@4U_Mbstatet@@A 100db514     World.obj
 0003:0002451c       ?_Psave@?$_Facetptr@V?$numpunct@D@std@@@std@@2PBVfacet@locale@2@B 100db51c     Pipi_edit.obj
 0003:00024520       ?_Psave@?$_Facetptr@V?$num_put@DV?$ostreambuf_iterator@DU?$char_traits@D@std@@@std@@@std@@@std@@2PBVfacet@locale@2@B 100db520     Pipi_edit.obj
 0003:000245b0       ?id@?$codecvt@DDU_Mbstatet@@@std@@2V0locale@2@A 100db5b0     World.obj
 0003:000245b4       ?id@?$num_put@DV?$ostreambuf_iterator@DU?$char_traits@D@std@@@std@@@std@@2V0locale@2@A 100db5b4     Pipi_edit.obj
 0003:000245b8       ?id@?$numpunct@D@std@@2V0locale@2@A 100db5b8     Pipi_edit.obj
 0003:00024dc0       ___dyn_tls_init_callback   100dbdc0     <common>
 0003:00024dc4       ___scrt_ucrt_dll_is_in_use 100dbdc4     <common>
 0003:00024dc8       __pmatherr                 100dbdc8     <common>
 0003:00024dcc       ___use_sse2_mathfcns       100dbdcc     <common>

 entry point at        0001:0003ccdb

 Static symbols

 0000:fff1c000       .debug$S                   10000000     CS1.6 data collector.exp
 0000:fff1c000       .debug$S                   10000000     OpenGL32:OPENGL32.dll
 0000:fff1c000       .debug$S                   10000000     OpenGL32:OPENGL32.dll
 0000:fff1c000       .debug$S                   10000000     OpenGL32:OPENGL32.dll
 0000:fff1c000       .debug$S                   10000000     OpenGL32:OPENGL32.dll
 0000:fff1c000       .debug$S                   10000000     OpenGL32:OPENGL32.dll
 0000:fff1c000       .debug$S                   10000000     OpenGL32:OPENGL32.dll
 0000:fff1c000       .debug$S                   10000000     OpenGL32:OPENGL32.dll
 0000:fff1c000       .debug$S                   10000000     OpenGL32:OPENGL32.dll
 0000:fff1c000       .debug$S                   10000000     OpenGL32:OPENGL32.dll
 0000:fff1c000       .debug$S                   10000000     OpenGL32:OPENGL32.dll
 0000:fff1c000       .debug$S                   10000000     OpenGL32:OPENGL32.dll
 0000:fff1c000       .debug$S                   10000000     OpenGL32:OPENGL32.dll
 0000:fff1c000       .debug$S                   10000000     OpenGL32:OPENGL32.dll
 0000:fff1c000       .debug$S                   10000000     OpenGL32:OPENGL32.dll
 0000:fff1c000       .debug$S                   10000000     OpenGL32:OPENGL32.dll
 0000:fff1c000       .debug$S                   10000000     OpenGL32:OPENGL32.dll
 0000:fff1c000       .debug$S                   10000000     gdi32:GDI32.dll
 0000:fff1c000       .debug$S                   10000000     gdi32:GDI32.dll
 0000:fff1c000       .debug$S                   10000000     gdi32:GDI32.dll
 0000:fff1c000       .debug$S                   10000000     gdi32:GDI32.dll
 0000:fff1c000       .debug$S                   10000000     gdi32:GDI32.dll
 0000:fff1c000       .debug$S                   10000000     gdi32:GDI32.dll
 0000:fff1c000       .debug$S                   10000000     kernel32:KERNEL32.dll
 0000:fff1c000       .debug$S                   10000000     kernel32:KERNEL32.dll
 0000:fff1c000       .debug$S                   10000000     kernel32:KERNEL32.dll
 0000:fff1c000       .debug$S                   10000000     kernel32:KERNEL32.dll
 0000:fff1c000       .debug$S                   10000000     kernel32:KERNEL32.dll
 0000:fff1c000       .debug$S                   10000000     kernel32:KERNEL32.dll
 0000:fff1c000       .debug$S                   10000000     kernel32:KERNEL32.dll
 0000:fff1c000       .debug$S                   10000000     kernel32:KERNEL32.dll
 0000:fff1c000       .debug$S                   10000000     kernel32:KERNEL32.dll
 0000:fff1c000       .debug$S                   10000000     kernel32:KERNEL32.dll
 0000:fff1c000       .debug$S                   10000000     kernel32:KERNEL32.dll
 0000:fff1c000       .debug$S                   10000000     kernel32:KERNEL32.dll
 0000:fff1c000       .debug$S                   10000000     kernel32:KERNEL32.dll
 0000:fff1c000       .debug$S                   10000000     kernel32:KERNEL32.dll
 0000:fff1c000       .debug$S                   10000000     kernel32:KERNEL32.dll
 0000:fff1c000       .debug$S                   10000000     kernel32:KERNEL32.dll
 0000:fff1c000       .debug$S                   10000000     kernel32:KERNEL32.dll
 0000:fff1c000       .debug$S                   10000000     kernel32:KERNEL32.dll
 0000:fff1c000       .debug$S                   10000000     kernel32:KERNEL32.dll
 0000:fff1c000       .debug$S                   10000000     kernel32:KERNEL32.dll
 0000:fff1c000       .debug$S                   10000000     kernel32:KERNEL32.dll
 0000:fff1c000       .debug$S                   10000000     kernel32:KERNEL32.dll
 0000:fff1c000       .debug$S                   10000000     kernel32:KERNEL32.dll
 0000:fff1c000       .debug$S                   10000000     kernel32:KERNEL32.dll
 0000:fff1c000       .debug$S                   10000000     kernel32:KERNEL32.dll
 0000:fff1c000       .debug$S                   10000000     kernel32:KERNEL32.dll
 0000:fff1c000       .debug$S                   10000000     kernel32:KERNEL32.dll
 0000:fff1c000       .debug$S                   10000000     kernel32:KERNEL32.dll
 0000:fff1c000       .debug$S                   10000000     kernel32:KERNEL32.dll
 0000:fff1c000       .debug$S                   10000000     kernel32:KERNEL32.dll
 0000:fff1c000       .debug$S                   10000000     kernel32:KERNEL32.dll
 0000:fff1c000       .debug$S                   10000000     kernel32:KERNEL32.dll
 0000:fff1c000       .debug$S                   10000000     kernel32:KERNEL32.dll
 0000:fff1c000       .debug$S                   10000000     kernel32:KERNEL32.dll
 0000:fff1c000       .debug$S                   10000000     kernel32:KERNEL32.dll
 0000:fff1c000       .debug$S                   10000000     kernel32:KERNEL32.dll
 0000:fff1c000       .debug$S                   10000000     kernel32:KERNEL32.dll
 0000:fff1c000       .debug$S                   10000000     kernel32:KERNEL32.dll
 0000:fff1c000       .debug$S                   10000000     kernel32:KERNEL32.dll
 0000:fff1c000       .debug$S                   10000000     kernel32:KERNEL32.dll
 0000:fff1c000       .debug$S                   10000000     kernel32:KERNEL32.dll
 0000:fff1c000       .debug$S                   10000000     kernel32:KERNEL32.dll
 0000:fff1c000       .debug$S                   10000000     kernel32:KERNEL32.dll
 0000:fff1c000       .debug$S                   10000000     kernel32:KERNEL32.dll
 0000:fff1c000       .debug$S                   10000000     kernel32:KERNEL32.dll
 0000:fff1c000       .debug$S                   10000000     kernel32:KERNEL32.dll
 0000:fff1c000       .debug$S                   10000000     kernel32:KERNEL32.dll
 0000:fff1c000       .debug$S                   10000000     kernel32:KERNEL32.dll
 0000:fff1c000       .debug$S                   10000000     kernel32:KERNEL32.dll
 0000:fff1c000       .debug$S                   10000000     kernel32:KERNEL32.dll
 0000:fff1c000       .debug$S                   10000000     kernel32:KERNEL32.dll
 0000:fff1c000       .debug$S                   10000000     kernel32:KERNEL32.dll
 0000:fff1c000       .debug$S                   10000000     kernel32:KERNEL32.dll
 0000:fff1c000       .debug$S                   10000000     kernel32:KERNEL32.dll
 0000:fff1c000       .debug$S                   10000000     kernel32:KERNEL32.dll
 0000:fff1c000       .debug$S                   10000000     kernel32:KERNEL32.dll
 0000:fff1c000       .debug$S                   10000000     kernel32:KERNEL32.dll
 0000:fff1c000       .debug$S                   10000000     kernel32:KERNEL32.dll
 0000:fff1c000       .debug$S                   10000000     kernel32:KERNEL32.dll
 0000:fff1c000       .debug$S                   10000000     kernel32:KERNEL32.dll
 0000:fff1c000       .debug$S                   10000000     kernel32:KERNEL32.dll
 0000:fff1c000       .debug$S                   10000000     kernel32:KERNEL32.dll
 0000:fff1c000       .debug$S                   10000000     kernel32:KERNEL32.dll
 0000:fff1c000       .debug$S                   10000000     kernel32:KERNEL32.dll
 0000:fff1c000       .debug$S                   10000000     kernel32:KERNEL32.dll
 0000:fff1c000       .debug$S                   10000000     kernel32:KERNEL32.dll
 0000:fff1c000       .debug$S                   10000000     kernel32:KERNEL32.dll
 0000:fff1c000       .debug$S                   10000000     kernel32:KERNEL32.dll
 0000:fff1c000       .debug$S                   10000000     kernel32:KERNEL32.dll
 0000:fff1c000       .debug$S                   10000000     kernel32:KERNEL32.dll
 0000:fff1c000       .debug$S                   10000000     kernel32:KERNEL32.dll
 0000:fff1c000       .debug$S                   10000000     kernel32:KERNEL32.dll
 0000:fff1c000       .debug$S                   10000000     kernel32:KERNEL32.dll
 0000:fff1c000       .debug$S                   10000000     kernel32:KERNEL32.dll
 0000:fff1c000       .debug$S                   10000000     kernel32:KERNEL32.dll
 0000:fff1c000       .debug$S                   10000000     kernel32:KERNEL32.dll
 0000:fff1c000       .debug$S                   10000000     kernel32:KERNEL32.dll
 0000:fff1c000       .debug$S                   10000000     kernel32:KERNEL32.dll
 0000:fff1c000       .debug$S                   10000000     kernel32:KERNEL32.dll
 0000:fff1c000       .debug$S                   10000000     kernel32:KERNEL32.dll
 0000:fff1c000       .debug$S                   10000000     kernel32:KERNEL32.dll
 0000:fff1c000       .debug$S                   10000000     kernel32:KERNEL32.dll
 0000:fff1c000       .debug$S                   10000000     kernel32:KERNEL32.dll
 0000:fff1c000       .debug$S                   10000000     kernel32:KERNEL32.dll
 0000:fff1c000       .debug$S                   10000000     kernel32:KERNEL32.dll
 0000:fff1c000       .debug$S                   10000000     kernel32:KERNEL32.dll
 0000:fff1c000       .debug$S                   10000000     kernel32:KERNEL32.dll
 0000:fff1c000       .debug$S                   10000000     kernel32:KERNEL32.dll
 0000:fff1c000       .debug$S                   10000000     kernel32:KERNEL32.dll
 0000:fff1c000       .debug$S                   10000000     kernel32:KERNEL32.dll
 0000:fff1c000       .debug$S                   10000000     kernel32:KERNEL32.dll
 0000:fff1c000       .debug$S                   10000000     kernel32:KERNEL32.dll
 0000:fff1c000       .debug$S                   10000000     kernel32:KERNEL32.dll
 0000:fff1c000       .debug$S                   10000000     kernel32:KERNEL32.dll
 0000:fff1c000       .debug$S                   10000000     kernel32:KERNEL32.dll
 0000:fff1c000       .debug$S                   10000000     kernel32:KERNEL32.dll
 0000:fff1c000       .debug$S                   10000000     kernel32:KERNEL32.dll
 0000:fff1c000       .debug$S                   10000000     kernel32:KERNEL32.dll
 0000:fff1c000       .debug$S                   10000000     kernel32:KERNEL32.dll
 0000:fff1c000       .debug$S                   10000000     kernel32:KERNEL32.dll
 0000:fff1c000       .debug$S                   10000000     kernel32:KERNEL32.dll
 0000:fff1c000       .debug$S                   10000000     kernel32:KERNEL32.dll
 0000:fff1c000       .debug$S                   10000000     kernel32:KERNEL32.dll
 0000:fff1c000       .debug$S                   10000000     kernel32:KERNEL32.dll
 0000:fff1c000       .debug$S                   10000000     kernel32:KERNEL32.dll
 0000:fff1c000       .debug$S                   10000000     kernel32:KERNEL32.dll
 0000:fff1c000       .debug$S                   10000000     kernel32:KERNEL32.dll
 0000:fff1c000       .debug$S                   10000000     kernel32:KERNEL32.dll
 0000:fff1c000       .debug$S                   10000000     kernel32:KERNEL32.dll
 0000:fff1c000       .debug$S                   10000000     kernel32:KERNEL32.dll
 0000:fff1c000       .debug$S                   10000000     kernel32:KERNEL32.dll
 0000:fff1c000       .debug$S                   10000000     kernel32:KERNEL32.dll
 0000:fff1c000       .debug$S                   10000000     kernel32:KERNEL32.dll
 0000:fff1c000       .debug$S                   10000000     kernel32:KERNEL32.dll
 0000:fff1c000       .debug$S                   10000000     kernel32:KERNEL32.dll
 0000:fff1c000       .debug$S                   10000000     kernel32:KERNEL32.dll
 0000:fff1c000       .debug$S                   10000000     kernel32:KERNEL32.dll
 0000:fff1c000       .debug$S                   10000000     ole32:ole32.dll
 0000:fff1c000       .debug$S                   10000000     ole32:ole32.dll
 0000:fff1c000       .debug$S                   10000000     oleaut32:OLEAUT32.dll
 0000:fff1c000       .debug$S                   10000000     shell32:SHELL32.dll
 0000:fff1c000       .debug$S                   10000000     user32:USER32.dll
 0000:fff1c000       .debug$S                   10000000     user32:USER32.dll
 0000:fff1c000       .debug$S                   10000000     user32:USER32.dll
 0000:fff1c000       .debug$S                   10000000     user32:USER32.dll
 0000:fff1c000       .debug$S                   10000000     user32:USER32.dll
 0000:fff1c000       .debug$S                   10000000     user32:USER32.dll
 0000:fff1c000       .debug$S                   10000000     user32:USER32.dll
 0000:fff1c000       .debug$S                   10000000     user32:USER32.dll
 0000:fff1c000       .debug$S                   10000000     user32:USER32.dll
 0000:fff1c000       .debug$S                   10000000     user32:USER32.dll
 0000:fff1c000       .debug$S                   10000000     user32:USER32.dll
 0000:fff1c000       .debug$S                   10000000     user32:USER32.dll
 0000:fff1c000       .debug$S                   10000000     user32:USER32.dll
 0001:00000c50       ??__Ecvar@@YAXXZ           10001c50 f   Cvars.obj
 0001:00000c70       ??__Espeedcap@@YAXXZ       10001c70 f   Systems.obj
 0001:00000ca0       ??__Eg_Utils@@YAXXZ        10001ca0 f   Utils.obj
 0001:00000cc0       ??__EmySounds@@YAXXZ       10001cc0 f   Sounds.obj
 0001:00000cf0       ??__EGrenades@@YAXXZ       10001cf0 f   Visuals.obj
 0001:00000d20       ??__Eg_Local@@YAXXZ        10001d20 f   World.obj
 0001:00000d40       ??__Eg_Player@@YAXXZ       10001d40 f   World.obj
 0001:00000d70       ??__Eg_Entities@@YAXXZ     10001d70 f   World.obj
 0001:00000da0       ??__Eg_PlayerExtraInfoList@@YAXXZ 10001da0 f   World.obj
 0001:00000dd0       ??__E?id@?$codecvt@DDU_Mbstatet@@@std@@2V0locale@2@A@@YAXXZ 10001dd0 f   World.obj
 0001:00000df0       ??__Ebase64_chars@@YAXXZ   10001df0 f   Main.obj
 0001:00000e20       ??__Eg_jsonfile@@YAXXZ     10001e20 f   Pipi_edit.obj
 0001:00000e50       ??__Eg_hwnd@@YAXXZ         10001e50 f   Pipi_edit.obj
 0001:00000e70       ??__E?id@?$num_put@DV?$ostreambuf_iterator@DU?$char_traits@D@std@@@std@@@std@@2V0locale@2@A@@YAXXZ 10001e70 f   Pipi_edit.obj
 0001:00000e90       ??__E?id@?$numpunct@D@std@@2V0locale@2@A@@YAXXZ 10001e90 f   Pipi_edit.obj
 0001:00000ea1       ??__Einitlocks@std@@YAXXZ  10001ea1 f   libcpmt:xlock.obj
 0001:00000eb7       ??__Eclassic_locale@std@@YAXXZ 10001eb7 f   libcpmt:locale0.obj
 0001:00000ec3       ??__F_Fac_tidy_reg@std@@YAXXZ 10001ec3 f   libcpmt:locale0.obj
 0001:00000ecf       ??__E?$_Immortalize_impl@V?$_ExceptionPtr_static@Vbad_alloc@std@@@?A0x22a8a7b5@@@?A0x22a8a7b5@@YAXXZ 10001ecf f   libcpmt:excptptr.obj
 0001:00000f26       ??__E?$_Immortalize_impl@V?$_ExceptionPtr_static@Vbad_exception@std@@@?A0x22a8a7b5@@@?A0x22a8a7b5@@YAXXZ 10001f26 f   libcpmt:excptptr.obj
 0001:00000f7d       ??__Einitlocks@std@@YAXXZ  10001f7d f   libcpmt:iosptrs.obj
 0001:00000f93       ??__Finit_atexit@@YAXXZ    10001f93 f   libcpmt:iosptrs.obj
 0001:000135dc       $LN57                      100145dc     Utils.obj
 0001:00013600       $LN56                      10014600     Utils.obj
 0001:00013610       $LN59                      10014610     Utils.obj
 0001:00013630       $LN58                      10014630     Utils.obj
 0001:0001f684       $LN24                      10020684     Weapons.obj
 0001:0001f6a0       $LN23                      100206a0     Weapons.obj
 0001:00020f34       $LN159                     10021f34     Weapons.obj
 0001:00022670       $LN186                     10023670     Weapons.obj
 0001:00023124       $LN73                      10024124     Weapons.obj
 0001:00023578       $LN10                      10024578     Weapons.obj
 0001:00023580       $LN9                       10024580     Weapons.obj
 0001:000235d8       $LN12                      100245d8     Weapons.obj
 0001:000235e0       $LN11                      100245e0     Weapons.obj
 0001:0002cfe0       _mktime                    1002dfe0 f   Pipi_edit.obj
 0001:0002e6c0       $LN29                      1002f6c0     Pipi_edit.obj
 0001:0002e6e0       $LN28                      1002f6e0     Pipi_edit.obj
 0001:0002ea20       $LN45                      1002fa20     Pipi_edit.obj
 0001:0002ea44       $LN46                      1002fa44     Pipi_edit.obj
 0001:0002ea68       $LN47                      1002fa68     Pipi_edit.obj
 0001:0002ffdc       $LN12                      10030fdc     Pipi_edit.obj
 0001:00030088       $LN12                      10031088     Pipi_edit.obj
 0001:000315eb       __catch$?_Reallocate_exactly@?$vector@V?$basic_config@Ujson_args@configor@@@configor@@V?$allocator@V?$basic_config@Ujson_args@configor@@@configor@@@std@@@std@@AAEXI@Z$0 100325eb f i Pipi_edit.obj
 0001:000318ce       __catch$?get@?$basic_istream@DU?$char_traits@D@std@@@std@@QAEHXZ$0 100328ce f i Pipi_edit.obj
 0001:00031ad9       __catch$?write@?$basic_ostream@DU?$char_traits@D@std@@@std@@QAEAAV12@PBD_J@Z$0 10032ad9 f i Pipi_edit.obj
 0001:00031c22       __catch$?put@?$basic_ostream@DU?$char_traits@D@std@@@std@@QAEAAV12@D@Z$0 10032c22 f i Pipi_edit.obj
 0001:00031dc1       __catch$??6?$basic_ostream@DU?$char_traits@D@std@@@std@@QAEAAV01@N@Z$0 10032dc1 f i Pipi_edit.obj
 0001:00031f5c       __catch$??6?$basic_ostream@DU?$char_traits@D@std@@@std@@QAEAAV01@_J@Z$0 10032f5c f i Pipi_edit.obj
 0001:000320f8       __catch$??6?$basic_ostream@DU?$char_traits@D@std@@@std@@QAEAAV01@I@Z$0 100330f8 f i Pipi_edit.obj
 0001:00032289       __catch$??6?$basic_ostream@DU?$char_traits@D@std@@@std@@QAEAAV01@G@Z$0 10033289 f i Pipi_edit.obj
 0001:000323ea       __catch$?_Osfx@?$basic_ostream@DU?$char_traits@D@std@@@std@@QAEXXZ$0 100333ea f i Pipi_edit.obj
 0001:00032808       $LN13                      10033808     Pipi_edit.obj
 0001:0003310d       __catch$?peek@?$basic_istream@DU?$char_traits@D@std@@@std@@QAEHXZ$0 1003410d f i Pipi_edit.obj
 0001:00033327       __catch$?_Ipfx@?$basic_istream@DU?$char_traits@D@std@@@std@@QAE_N_N@Z$0 10034327 f i Pipi_edit.obj
 0001:00033830       __catch$??$?6U?$char_traits@D@std@@@std@@YAAAV?$basic_ostream@DU?$char_traits@D@std@@@0@AAV10@PBD@Z$0 10034830 f i Pipi_edit.obj
 0001:00033b3a       __catch$??$?6U?$char_traits@D@std@@@std@@YAAAV?$basic_ostream@DU?$char_traits@D@std@@@0@AAV10@D@Z$0 10034b3a f i Pipi_edit.obj
 0001:00033f60       ??$serialize_hex@G@?A0x9c02c93a@detail@configor@@YA?AU?$serializable_hex@G@12@G@Z 10034f60 f   Pipi_edit.obj
 0001:00033f80       ??$serialize_hex@I@?A0x9c02c93a@detail@configor@@YA?AU?$serializable_hex@I@12@I@Z 10034f80 f   Pipi_edit.obj
 0001:00033fa0       ??$serialize_float@N@?A0x9c02c93a@detail@configor@@YA?AU?$serializable_float@N@12@N@Z 10034fa0 f   Pipi_edit.obj
 0001:00033fd0       ??$serialize_integer@_J@?A0x9c02c93a@detail@configor@@YA?AU?$serializable_integer@_J@12@_J@Z 10034fd0 f   Pipi_edit.obj
 0001:000357f2       __catch$??$_Insert_string@DU?$char_traits@D@std@@I@std@@YAAAV?$basic_ostream@DU?$char_traits@D@std@@@0@AAV10@QBDI@Z$0 100367f2 f i Pipi_edit.obj
 0001:00036de2       __catch$??$dump_config@V?$basic_config@Ujson_args@configor@@@configor@@X@configor@@YAXABV?$basic_config@Ujson_args@configor@@@0@AAV?$basic_ostream@DU?$char_traits@D@std@@@std@@AAV?$basic_serializer@V?$basic_config@Ujson_args@configor@@@configor@@@0@PAVerror_handler@0@@Z$0 10037de2 f i Pipi_edit.obj
 0001:00037a6c       $LN24                      10038a6c     Pipi_edit.obj
 0001:00038302       __catch$??$_Copy_nodes@U_Copy_tag@?$_Tree@V?$_Tmap_traits@V?$basic_string@DU?$char_traits@D@std@@V?$allocator@D@2@@std@@V?$basic_config@Ujson_args@configor@@@configor@@U?$less@V?$basic_string@DU?$char_traits@D@std@@V?$allocator@D@2@@std@@@2@V?$allocator@U?$pair@$$CBV?$basic_string@DU?$char_traits@D@std@@V?$allocator@D@2@@std@@V?$basic_config@Ujson_args@configor@@@configor@@@std@@@2@$0A@@std@@@std@@@?$_Tree@V?$_Tmap_traits@V?$basic_string@DU?$char_traits@D@std@@V?$allocator@D@2@@std@@V?$basic_config@Ujson_args@configor@@@configor@@U?$less@V?$basic_string@DU?$char_traits@D@std@@V?$allocator@D@2@@std@@@2@V?$allocator@U?$pair@$$CBV?$basic_string@DU?$char_traits@D@std@@V?$allocator@D@2@@std@@V?$basic_config@Ujson_args@configor@@@configor@@@std@@@2@$0A@@std@@@std@@IAEPAU?$_Tree_node@U?$pair@$$CBV?$basic_string@DU?$char_traits@D@std@@V?$allocator@D@2@@std@@V?$basic_config@Ujson_args@configor@@@configor@@@std@@PAX@1@PAU21@0U_Copy_tag@01@@Z$0 10039302 f i Pipi_edit.obj
 0001:0003ae67       _tidy_global               1003be67 f   libcpmt:locale0.obj
 0001:0003b323       ??0_ExceptionPtr_normal@?A0x22a8a7b5@@QAE@ABU_EXCEPTION_RECORD@@@Z 1003c323 f   libcpmt:excptptr.obj
 0001:0003b434       ??1?$_ExceptionPtr_static@Vbad_alloc@std@@@?A0x22a8a7b5@@UAE@XZ 1003c434 f   libcpmt:excptptr.obj
 0001:0003b473       ??1?$_ExceptionPtr_static@Vbad_exception@std@@@?A0x22a8a7b5@@UAE@XZ 1003c473 f   libcpmt:excptptr.obj
 0001:0003b57b       ??_G?$_ExceptionPtr_static@Vbad_alloc@std@@@?A0x22a8a7b5@@UAEPAXI@Z 1003c57b f   libcpmt:excptptr.obj
 0001:0003b5d2       ??_G?$_ExceptionPtr_static@Vbad_exception@std@@@?A0x22a8a7b5@@UAEPAXI@Z 1003c5d2 f   libcpmt:excptptr.obj
 0001:0003b652       ??_G_ExceptionPtr_normal@?A0x22a8a7b5@@UAEPAXI@Z 1003c652 f   libcpmt:excptptr.obj
 0001:0003b691       ?_Assign_cpp_exception_ptr_from_record@?A0x22a8a7b5@@YAXAAV?$shared_ptr@$$CBU_EXCEPTION_RECORD@@@std@@ABUEHExceptionRecord@@@Z 1003c691 f   libcpmt:excptptr.obj
 0001:0003b74f       __catch$?_Assign_cpp_exception_ptr_from_record@?A0x22a8a7b5@@YAXAAV?$shared_ptr@$$CBU_EXCEPTION_RECORD@@@std@@ABUEHExceptionRecord@@@Z$0 1003c74f f   libcpmt:excptptr.obj
 0001:0003b850       __catch$?_Assign_cpp_exception_ptr_from_record@?A0x22a8a7b5@@YAXAAV?$shared_ptr@$$CBU_EXCEPTION_RECORD@@@std@@ABUEHExceptionRecord@@@Z$1 1003c850 f   libcpmt:excptptr.obj
 0001:0003b91d       ?_CopyExceptionObject@?A0x22a8a7b5@@YAXPAXPBXQBU_s_CatchableType@@@Z 1003c91d f   libcpmt:excptptr.obj
 0001:0003b9da       ?_Delete_this@?$_ExceptionPtr_static@Vbad_alloc@std@@@?A0x22a8a7b5@@EAEXXZ 1003c9da f   libcpmt:excptptr.obj
 0001:0003b9da       ?_Delete_this@?$_ExceptionPtr_static@Vbad_exception@std@@@?A0x22a8a7b5@@EAEXXZ 1003c9da f   libcpmt:excptptr.obj
 0001:0003b9da       ?_Destroy@?$_ExceptionPtr_static@Vbad_alloc@std@@@?A0x22a8a7b5@@EAEXXZ 1003c9da f   libcpmt:excptptr.obj
 0001:0003b9da       ?_Destroy@?$_ExceptionPtr_static@Vbad_exception@std@@@?A0x22a8a7b5@@EAEXXZ 1003c9da f   libcpmt:excptptr.obj
 0001:0003b9dd       ?_Delete_this@_ExceptionPtr_normal@?A0x22a8a7b5@@EAEXXZ 1003c9dd f   libcpmt:excptptr.obj
 0001:0003ba18       ?_Destroy@_ExceptionPtr_normal@?A0x22a8a7b5@@EAEXXZ 1003ca18 f   libcpmt:excptptr.obj
 0001:0003bac2       ?_Get@?$_ExceptionPtr_static@Vbad_alloc@std@@@?A0x22a8a7b5@@SA?AV?$shared_ptr@$$CBU_EXCEPTION_RECORD@@@std@@XZ 1003cac2 f   libcpmt:excptptr.obj
 0001:0003bb20       ?_Get@?$_ExceptionPtr_static@Vbad_exception@std@@@?A0x22a8a7b5@@SA?AV?$shared_ptr@$$CBU_EXCEPTION_RECORD@@@std@@XZ 1003cb20 f   libcpmt:excptptr.obj
 0001:0003bb83       ?_PopulateCppExceptionRecord@?A0x22a8a7b5@@YAXAAU_EXCEPTION_RECORD@@QBXPBU_s_ThrowInfo@@@Z 1003cb83 f   libcpmt:excptptr.obj
 0001:0003bd25       ?spfun@std@@YAXAAVios_base@1@_J@Z 1003cd25 f   libcpmt:iomanip.obj
 0001:0003bd39       ?swfun@std@@YAXAAVios_base@1@_J@Z 1003cd39 f   libcpmt:iomanip.obj
 0001:0003c0ac       ?__scrt_initialize_thread_safe_statics@@YAHXZ 1003d0ac f   LIBCMT:thread_safe_statics.obj
 0001:0003c0d3       ?__scrt_initialize_thread_safe_statics_platform_specific@@YAXXZ 1003d0d3 f   LIBCMT:thread_safe_statics.obj
 0001:0003c155       ?__scrt_uninitialize_thread_safe_statics@@YAXXZ 1003d155 f   LIBCMT:thread_safe_statics.obj
 0001:0003c2fb       ?find_pe_section@@YAPAU_IMAGE_SECTION_HEADER@@QAEI@Z 1003d2fb f   LIBCMT:utility.obj
 0001:0003c99b       ?dllmain_crt_dispatch@@YGHQAUHINSTANCE__@@KQAX@Z 1003d99b f   LIBCMT:dll_dllmain.obj
 0001:0003c9ee       ?dllmain_crt_process_attach@@YAHQAUHINSTANCE__@@QAX@Z 1003d9ee f   LIBCMT:dll_dllmain.obj
 0001:0003caf5       ?dllmain_crt_process_detach@@YAH_N@Z 1003daf5 f   LIBCMT:dll_dllmain.obj
 0001:0003cba5       ?dllmain_dispatch@@YAHQAUHINSTANCE__@@KQAX@Z 1003dba5 f   LIBCMT:dll_dllmain.obj
 0001:0003ccb0       ?dllmain_raw@@YGHQAUHINSTANCE__@@KQAX@Z 1003dcb0 f   LIBCMT:dll_dllmain.obj
 0001:0003cd80       $$000000                   1003dd80     LIBCMT:alloca16.obj
 0001:0003cd96       alloca_8                   1003dd96     LIBCMT:alloca16.obj
 0001:0003cdb0       $$000000                   1003ddb0     LIBCMT:llmul.obj
 0001:0003cdc9       hard                       1003ddc9     LIBCMT:llmul.obj
 0001:0003d120       $$000000                   1003e120     LIBCMT:sehprolg4.obj
 0001:0003d165       ___get_entropy             1003e165 f   LIBCMT:gs_support.obj
 0001:0003d2a0       $$000000                   1003e2a0     LIBCMT:chkstk.obj
 0001:0003d2b4       cs10                       1003e2b4     LIBCMT:chkstk.obj
 0001:0003d2c2       cs20                       1003e2c2     LIBCMT:chkstk.obj
 0001:0003d722       ?_FilterSetCurrentException@@YAKPAU_EXCEPTION_POINTERS@@E@Z 1003e722 f   libvcruntime:ehhelpers.obj
 0001:0003d840       $$000000                   1003e840     libvcruntime:strstr.obj
 0001:0003d883       strstr_sse_safeloop        1003e883     libvcruntime:strstr.obj
 0001:0003d8aa       strstr_sse_search          1003e8aa     libvcruntime:strstr.obj
 0001:0003d8aa       strstr_sse_unsafe          1003e8aa     libvcruntime:strstr.obj
 0001:0003d8ae       strstr_sse_srchloop        1003e8ae     libvcruntime:strstr.obj
 0001:0003d8e4       strstr_sse_srchchar        1003e8e4     libvcruntime:strstr.obj
 0001:0003d8fb       strstr_sse_cmploop         1003e8fb     libvcruntime:strstr.obj
 0001:0003d936       strstr_sse_cmpchars        1003e936     libvcruntime:strstr.obj
 0001:0003d93d       strstr_sse_cmpunsafe       1003e93d     libvcruntime:strstr.obj
 0001:0003d954       strstr_sse_match           1003e954     libvcruntime:strstr.obj
 0001:0003d959       strstr_sse_not_found       1003e959     libvcruntime:strstr.obj
 0001:0003d95b       strstr_sse_exit            1003e95b     libvcruntime:strstr.obj
 0001:0003d95f       strstr_sttni               1003e95f     libvcruntime:strstr.obj
 0001:0003d97b       strstr_sttni_setchars      1003e97b     libvcruntime:strstr.obj
 0001:0003d980       strstr_sttni_setloopchar   1003e980     libvcruntime:strstr.obj
 0001:0003d986       strstr_sttni_setloopnochar 1003e986     libvcruntime:strstr.obj
 0001:0003d99a       strstr_sttni_srchnext      1003e99a     libvcruntime:strstr.obj
 0001:0003d99d       strstr_sttni_srch          1003e99d     libvcruntime:strstr.obj
 0001:0003d9a1       strstr_sttni_srchloop      1003e9a1     libvcruntime:strstr.obj
 0001:0003d9c0       strstr_sttni_srchxmm       1003e9c0     libvcruntime:strstr.obj
 0001:0003d9d3       strstr_sttni_srchcheck     1003e9d3     libvcruntime:strstr.obj
 0001:0003d9d7       strstr_sttni_cmploop       1003e9d7     libvcruntime:strstr.obj
 0001:0003da0f       strstr_sttni_cmpchar       1003ea0f     libvcruntime:strstr.obj
 0001:0003da2a       strstr_no_sse              1003ea2a     libvcruntime:strstr.obj
 0001:0003da3d       findnext                   1003ea3d     libvcruntime:strstr.obj
 0001:0003da50       loop_start                 1003ea50     libvcruntime:strstr.obj
 0001:0003da55       in_loop                    1003ea55     libvcruntime:strstr.obj
 0001:0003da5d       not_found                  1003ea5d     libvcruntime:strstr.obj
 0001:0003da63       first_char_found           1003ea63     libvcruntime:strstr.obj
 0001:0003da6c       two_first_chars_equal      1003ea6c     libvcruntime:strstr.obj
 0001:0003da6f       compare_loop               1003ea6f     libvcruntime:strstr.obj
 0001:0003da92       strchr_call                1003ea92     libvcruntime:strstr.obj
 0001:0003da9e       match                      1003ea9e     libvcruntime:strstr.obj
 0001:0003daa5       empty_str2                 1003eaa5     libvcruntime:strstr.obj
 0001:0003db50       $$000000                   1003eb50     libvcruntime:memset.obj
 0001:0003db95       XMMMov                     1003eb95     libvcruntime:memset.obj
 0001:0003dbd0       LargeRangeBytes            1003ebd0     libvcruntime:memset.obj
 0001:0003dc0d       XmmMovSmall                1003ec0d     libvcruntime:memset.obj
 0001:0003dc20       XmmSmallLoop               1003ec20     libvcruntime:memset.obj
 0001:0003dc25       MidRangeBytes              1003ec25     libvcruntime:memset.obj
 0001:0003dc41       XMMTrailingBytes           1003ec41     libvcruntime:memset.obj
 0001:0003dc55       SmallMov                   1003ec55     libvcruntime:memset.obj
 0001:0003dc5d       ByteLoop                   1003ec5d     libvcruntime:memset.obj
 0001:0003dc6b       DwordTest                  1003ec6b     libvcruntime:memset.obj
 0001:0003dc7b       QwordTest                  1003ec7b     libvcruntime:memset.obj
 0001:0003dc90       QwordLoop                  1003ec90     libvcruntime:memset.obj
 0001:0003dca3       toend                      1003eca3     libvcruntime:memset.obj
 0001:0003dcb0       $$000000                   1003ecb0     libvcruntime:exsup.obj
 0001:0003dcc0       $$000000                   1003ecc0     libvcruntime:exsup.obj
 0001:0003dccb       __NLG_Go                   1003eccb     libvcruntime:exsup.obj
 0001:0003dce0       $$000000                   1003ece0     libvcruntime:exsup.obj
 0001:0003eb84       $LN1250                    1003fb84     libvcruntime:memcmp.obj
 0001:0003ec10       $$000000                   1003fc10     libvcruntime:memcpy.obj
 0001:0003ec10       $$000000                   1003fc10     libvcruntime:memmove.obj
 0001:0003ec30       CopyUp                     1003fc30     libvcruntime:memcpy.obj
 0001:0003ec30       CopyUp                     1003fc30     libvcruntime:memmove.obj
 0001:0003ec54       CopyUpLargeMov             1003fc54     libvcruntime:memcpy.obj
 0001:0003ec54       CopyUpLargeMov             1003fc54     libvcruntime:memmove.obj
 0001:0003ec67       CopyUpSSE2Check            1003fc67     libvcruntime:memcpy.obj
 0001:0003ec67       CopyUpSSE2Check            1003fc67     libvcruntime:memmove.obj
 0001:0003ec80       AtomChk                    1003fc80     libvcruntime:memcpy.obj
 0001:0003ec80       AtomChk                    1003fc80     libvcruntime:memmove.obj
 0001:0003eca6       PalignHead4                1003fca6     libvcruntime:memcpy.obj
 0001:0003eca6       PalignHead4                1003fca6     libvcruntime:memmove.obj
 0001:0003ecb9       PalignHead8                1003fcb9     libvcruntime:memcpy.obj
 0001:0003ecb9       PalignHead8                1003fcb9     libvcruntime:memmove.obj
 0001:0003ecd0       PalignLoop                 1003fcd0     libvcruntime:memcpy.obj
 0001:0003ecd0       PalignLoop                 1003fcd0     libvcruntime:memmove.obj
 0001:0003ece2       MovPalign12                1003fce2     libvcruntime:memcpy.obj
 0001:0003ece2       MovPalign12                1003fce2     libvcruntime:memmove.obj
 0001:0003ecec       PalignLoop12               1003fcec     libvcruntime:memcpy.obj
 0001:0003ecec       PalignLoop12               1003fcec     libvcruntime:memmove.obj
 0001:0003ed3d       MovPalign8                 1003fd3d     libvcruntime:memcpy.obj
 0001:0003ed3d       MovPalign8                 1003fd3d     libvcruntime:memmove.obj
 0001:0003ed48       PalignLoop8                1003fd48     libvcruntime:memcpy.obj
 0001:0003ed48       PalignLoop8                1003fd48     libvcruntime:memmove.obj
 0001:0003ed96       MovPalign4                 1003fd96     libvcruntime:memcpy.obj
 0001:0003ed96       MovPalign4                 1003fd96     libvcruntime:memmove.obj
 0001:0003eda0       PalignLoop4                1003fda0     libvcruntime:memcpy.obj
 0001:0003eda0       PalignLoop4                1003fda0     libvcruntime:memmove.obj
 0001:0003edec       PalignTail                 1003fdec     libvcruntime:memcpy.obj
 0001:0003edec       PalignTail                 1003fdec     libvcruntime:memmove.obj
 0001:0003ee04       PalignTail4                1003fe04     libvcruntime:memcpy.obj
 0001:0003ee04       PalignTail4                1003fe04     libvcruntime:memmove.obj
 0001:0003ee17       PalignTail8                1003fe17     libvcruntime:memcpy.obj
 0001:0003ee17       PalignTail8                1003fe17     libvcruntime:memmove.obj
 0001:0003ee2e       PalignTailLE3              1003fe2e     libvcruntime:memcpy.obj
 0001:0003ee2e       PalignTailLE3              1003fe2e     libvcruntime:memmove.obj
 0001:0003ee37       Dword_align                1003fe37     libvcruntime:memcpy.obj
 0001:0003ee37       Dword_align                1003fe37     libvcruntime:memmove.obj
 0001:0003ee3f       Dword_up_align_loop        1003fe3f     libvcruntime:memcpy.obj
 0001:0003ee3f       Dword_up_align_loop        1003fe3f     libvcruntime:memmove.obj
 0001:0003ee52       Dword_align_Ok             1003fe52     libvcruntime:memcpy.obj
 0001:0003ee52       Dword_align_Ok             1003fe52     libvcruntime:memmove.obj
 0001:0003ee6c       ByteCopyUp                 1003fe6c     libvcruntime:memcpy.obj
 0001:0003ee6c       ByteCopyUp                 1003fe6c     libvcruntime:memmove.obj
 0001:0003ee74       TrailingUpVec              1003fe74     libvcruntime:memcpy.obj
 0001:0003ee74       TrailingUpVec              1003fe74     libvcruntime:memmove.obj
 0001:0003ee84       TrailingUp0                1003fe84     libvcruntime:memcpy.obj
 0001:0003ee84       TrailingUp0                1003fe84     libvcruntime:memmove.obj
 0001:0003ee8c       TrailingUp1                1003fe8c     libvcruntime:memcpy.obj
 0001:0003ee8c       TrailingUp1                1003fe8c     libvcruntime:memmove.obj
 0001:0003ee98       TrailingUp2                1003fe98     libvcruntime:memcpy.obj
 0001:0003ee98       TrailingUp2                1003fe98     libvcruntime:memmove.obj
 0001:0003eeac       TrailingUp3                1003feac     libvcruntime:memcpy.obj
 0001:0003eeac       TrailingUp3                1003feac     libvcruntime:memmove.obj
 0001:0003eec4       CopyDown                   1003fec4     libvcruntime:memcpy.obj
 0001:0003eec4       CopyDown                   1003fec4     libvcruntime:memmove.obj
 0001:0003eee9       CopyDownNotAligned         1003fee9     libvcruntime:memcpy.obj
 0001:0003eee9       CopyDownNotAligned         1003fee9     libvcruntime:memmove.obj
 0001:0003eef0       CopyDownAlignLoop          1003fef0     libvcruntime:memcpy.obj
 0001:0003eef0       CopyDownAlignLoop          1003fef0     libvcruntime:memmove.obj
 0001:0003eefd       CopyDownAligned            1003fefd     libvcruntime:memcpy.obj
 0001:0003eefd       CopyDownAligned            1003fefd     libvcruntime:memmove.obj
 0001:0003ef20       TrailingDownVec            1003ff20     libvcruntime:memcpy.obj
 0001:0003ef20       TrailingDownVec            1003ff20     libvcruntime:memmove.obj
 0001:0003ef30       TrailingDown0              1003ff30     libvcruntime:memcpy.obj
 0001:0003ef30       TrailingDown0              1003ff30     libvcruntime:memmove.obj
 0001:0003ef38       TrailingDown1              1003ff38     libvcruntime:memcpy.obj
 0001:0003ef38       TrailingDown1              1003ff38     libvcruntime:memmove.obj
 0001:0003ef48       TrailingDown2              1003ff48     libvcruntime:memcpy.obj
 0001:0003ef48       TrailingDown2              1003ff48     libvcruntime:memmove.obj
 0001:0003ef5c       TrailingDown3              1003ff5c     libvcruntime:memcpy.obj
 0001:0003ef5c       TrailingDown3              1003ff5c     libvcruntime:memmove.obj
 0001:0003ef75       XmmMovLargeAlignTest       1003ff75     libvcruntime:memcpy.obj
 0001:0003ef75       XmmMovLargeAlignTest       1003ff75     libvcruntime:memmove.obj
 0001:0003ef7d       XmmMovAlignLoop            1003ff7d     libvcruntime:memcpy.obj
 0001:0003ef7d       XmmMovAlignLoop            1003ff7d     libvcruntime:memmove.obj
 0001:0003ef8c       XmmMovLargeLoop            1003ff8c     libvcruntime:memcpy.obj
 0001:0003ef8c       XmmMovLargeLoop            1003ff8c     libvcruntime:memmove.obj
 0001:0003effc       XmmMovSmallTest            1003fffc     libvcruntime:memcpy.obj
 0001:0003effc       XmmMovSmallTest            1003fffc     libvcruntime:memmove.obj
 0001:0003f001       XmmMovSmallLoop            10040001     libvcruntime:memcpy.obj
 0001:0003f001       XmmMovSmallLoop            10040001     libvcruntime:memmove.obj
 0001:0003f024       CopyDownSmall              10040024     libvcruntime:memcpy.obj
 0001:0003f024       CopyDownSmall              10040024     libvcruntime:memmove.obj
 0001:0003f02c       CopyDownDwordLoop          1004002c     libvcruntime:memcpy.obj
 0001:0003f02c       CopyDownDwordLoop          1004002c     libvcruntime:memmove.obj
 0001:0003f041       CopyDownByteTest           10040041     libvcruntime:memcpy.obj
 0001:0003f041       CopyDownByteTest           10040041     libvcruntime:memmove.obj
 0001:0003f045       CopyDownByteLoop           10040045     libvcruntime:memcpy.obj
 0001:0003f045       CopyDownByteLoop           10040045     libvcruntime:memmove.obj
 0001:0003f054       CopyDownReturn             10040054     libvcruntime:memcpy.obj
 0001:0003f054       CopyDownReturn             10040054     libvcruntime:memmove.obj
 0001:0003f060       XmmCopy                    10040060     libvcruntime:memcpy.obj
 0001:0003f060       XmmCopy                    10040060     libvcruntime:memmove.obj
 0001:0003f06d       XmmCopyAligned             1004006d     libvcruntime:memcpy.obj
 0001:0003f06d       XmmCopyAligned             1004006d     libvcruntime:memmove.obj
 0001:0003f080       XmmCopyLargeLoop           10040080     libvcruntime:memcpy.obj
 0001:0003f080       XmmCopyLargeLoop           10040080     libvcruntime:memmove.obj
 0001:0003f0dd       XmmCopySmallTest           100400dd     libvcruntime:memcpy.obj
 0001:0003f0dd       XmmCopySmallTest           100400dd     libvcruntime:memmove.obj
 0001:0003f0f0       XmmCopySmallLoop           100400f0     libvcruntime:memcpy.obj
 0001:0003f0f0       XmmCopySmallLoop           100400f0     libvcruntime:memmove.obj
 0001:0003f10b       CopyUpDwordMov             1004010b     libvcruntime:memcpy.obj
 0001:0003f10b       CopyUpDwordMov             1004010b     libvcruntime:memmove.obj
 0001:0003f110       CopyUpDwordTest            10040110     libvcruntime:memcpy.obj
 0001:0003f110       CopyUpDwordTest            10040110     libvcruntime:memmove.obj
 0001:0003f117       CopyUpDwordLoop            10040117     libvcruntime:memcpy.obj
 0001:0003f117       CopyUpDwordLoop            10040117     libvcruntime:memmove.obj
 0001:0003f126       CopyUpByteTest             10040126     libvcruntime:memcpy.obj
 0001:0003f126       CopyUpByteTest             10040126     libvcruntime:memmove.obj
 0001:0003f12d       CopyUpByteLoop             1004012d     libvcruntime:memcpy.obj
 0001:0003f12d       CopyUpByteLoop             1004012d     libvcruntime:memmove.obj
 0001:0003f140       CopyUpReturn               10040140     libvcruntime:memcpy.obj
 0001:0003f140       CopyUpReturn               10040140     libvcruntime:memmove.obj
 0001:0003f150       XmmCopyUnaligned           10040150     libvcruntime:memcpy.obj
 0001:0003f150       XmmCopyUnaligned           10040150     libvcruntime:memmove.obj
 0001:0003f163       XmmAlignByte               10040163     libvcruntime:memcpy.obj
 0001:0003f163       XmmAlignByte               10040163     libvcruntime:memmove.obj
 0001:0003f16c       XmmAlignDwordTest          1004016c     libvcruntime:memcpy.obj
 0001:0003f16c       XmmAlignDwordTest          1004016c     libvcruntime:memmove.obj
 0001:0003f171       XmmAlignDwordLoop          10040171     libvcruntime:memcpy.obj
 0001:0003f171       XmmAlignDwordLoop          10040171     libvcruntime:memmove.obj
 0001:0003f17e       XmmAlignAdjustCnt          1004017e     libvcruntime:memcpy.obj
 0001:0003f17e       XmmAlignAdjustCnt          1004017e     libvcruntime:memmove.obj
 0001:0003f210       $$000000                   10040210     libvcruntime:memchr.obj
 0001:0003f22b       str_misaligned             1004022b     libvcruntime:memchr.obj
 0001:0003f241       main_loop_start            10040241     libvcruntime:memchr.obj
 0001:0003f257       return_from_main           10040257     libvcruntime:memchr.obj
 0001:0003f258       tail_less_then_4           10040258     libvcruntime:memchr.obj
 0001:0003f25d       tail_loop                  1004025d     libvcruntime:memchr.obj
 0001:0003f26b       retnull                    1004026b     libvcruntime:memchr.obj
 0001:0003f26d       main_loop                  1004026d     libvcruntime:memchr.obj
 0001:0003f272       main_loop_entry            10040272     libvcruntime:memchr.obj
 0001:0003f28d       char_is_found              1004028d     libvcruntime:memchr.obj
 0001:0003f2a5       byte_3                     100402a5     libvcruntime:memchr.obj
 0001:0003f2a6       found                      100402a6     libvcruntime:memchr.obj
 0001:0003f2ab       byte_2                     100402ab     libvcruntime:memchr.obj
 0001:0003f2b1       byte_1                     100402b1     libvcruntime:memchr.obj
 0001:0003f2b7       byte_0                     100402b7     libvcruntime:memchr.obj
 0001:0003f320       _ValidateLocalCookies      10040320 f   libvcruntime:chandler4.obj
 0001:0003f694       ??$BuildCatchObjectHelperInternal@V__FrameHandler3@@@@YAHPAUEHExceptionRecord@@PAXPBU_s_HandlerType@@PBU_s_CatchableType@@@Z 10040694 f   libvcruntime:frame.obj
 0001:0003f7d2       ??$BuildCatchObjectInternal@V__FrameHandler3@@@@YAXPAUEHExceptionRecord@@PAXPBU_s_HandlerType@@PBU_s_CatchableType@@@Z 100407d2 f   libvcruntime:frame.obj
 0001:0003f86b       ??$CatchIt@V__FrameHandler3@@@@YAXPAUEHExceptionRecord@@PAUEHRegistrationNode@@PAU_CONTEXT@@PAXPBU_s_FuncInfo@@PBU_s_HandlerType@@PBU_s_CatchableType@@PBU_s_TryBlockMapEntry@@H1EE@Z 1004086b f   libvcruntime:frame.obj
 0001:0003f8eb       ??$FindHandler@V__FrameHandler3@@@@YAXPAUEHExceptionRecord@@PAUEHRegistrationNode@@PAU_CONTEXT@@PAXPBU_s_FuncInfo@@EH1@Z 100408eb f   libvcruntime:frame.obj
 0001:0003fc95       ??$FindHandlerForForeignException@V__FrameHandler3@@@@YAXPAUEHExceptionRecord@@PAUEHRegistrationNode@@PAU_CONTEXT@@PAXPBU_s_FuncInfo@@HH1@Z 10040c95 f   libvcruntime:frame.obj
 0001:0003ff7a       ?CallCatchBlock@@YAPAXPAUEHExceptionRecord@@PAUEHRegistrationNode@@PAU_CONTEXT@@PBU_s_FuncInfo@@PAXHK@Z 10040f7a f   libvcruntime:frame.obj
 0001:0004013e       ?CallUnexpected@@YAXPBU_s_ESTypeList@@@Z 1004113e f   libvcruntime:frame.obj
 0001:0004015e       __catch$?CallUnexpected@@YAXPBU_s_ESTypeList@@@Z$0 1004115e f   libvcruntime:frame.obj
 0001:0004017d       ?ExFilterRethrow@@YAHPAU_EXCEPTION_POINTERS@@@Z 1004117d f   libvcruntime:frame.obj
 0001:000402c7       ?IsInExceptionSpec@@YAEPAUEHExceptionRecord@@PBU_s_ESTypeList@@@Z 100412c7 f   libvcruntime:frame.obj
 0001:00040370       $$000000                   10041370     libvcruntime:lowhelpr.obj
 0001:000403af       _NLG_Continue              100413af     libvcruntime:lowhelpr.obj
 0001:000403f0       $$000000                   100413f0     libvcruntime:strchr.obj
 0001:00040423       strchr_sse_loop            10041423     libvcruntime:strchr.obj
 0001:00040447       strchr_sse_break           10041447     libvcruntime:strchr.obj
 0001:00040458       strchr_no_sse2             10041458     libvcruntime:strchr.obj
 0001:00040470       str_misaligned             10041470     libvcruntime:strchr.obj
 0001:00040485       main_loop_start            10041485     libvcruntime:strchr.obj
 0001:00040490       main_loop                  10041490     libvcruntime:strchr.obj
 0001:000404cc       retnull                    100414cc     libvcruntime:strchr.obj
 0001:000404ce       retnull_bx                 100414ce     libvcruntime:strchr.obj
 0001:000404d2       found_bx                   100414d2     libvcruntime:strchr.obj
 0001:000404d7       chr_is_found               100414d7     libvcruntime:strchr.obj
 0001:000404ff       byte_3                     100414ff     libvcruntime:strchr.obj
 0001:00040506       byte_2                     10041506     libvcruntime:strchr.obj
 0001:0004050d       byte_1                     1004150d     libvcruntime:strchr.obj
 0001:00040514       byte_0                     10041514     libvcruntime:strchr.obj
 0001:00040590       $$000000                   10041590     libvcruntime:exsup4.obj
 0001:000405c2       _lu_top                    100415c2     libvcruntime:exsup4.obj
 0001:00040621       _lu_done                   10041621     libvcruntime:exsup4.obj
 0001:00040630       $$000000                   10041630     libvcruntime:exsup4.obj
 0001:00040630       __unwind_handler4          10041630 f   libvcruntime:exsup4.obj
 0001:00040680       $$000000                   10041680     libvcruntime:exsup4.obj
 0001:000406a0       $$000000                   100416a0     libvcruntime:exsup4.obj
 0001:000406c0       $$000000                   100416c0     libvcruntime:exsup4.obj
 0001:000406d5       ReturnPoint                100416d5     libvcruntime:exsup4.obj
 0001:000406e0       $$000000                   100416e0     libvcruntime:exsup4.obj
 0001:000406f7       ?try_get_first_available_module@@YAPAUHINSTANCE__@@QBW4module_id@?A0x622b5085@@0@Z 100416f7 f   libvcruntime:winapi_downlevel.obj
 0001:00040791       ?try_get_function@@YAPAXW4function_id@?A0x622b5085@@QBDQBW4module_id@2@2@Z 10041791 f   libvcruntime:winapi_downlevel.obj
 0001:00040958       ??$?RV<lambda_03b1d95aef87969028cfba75ccab2455>@@AAV<lambda_6e4b09c48022b2350581041d5f6b0c4c>@@V<lambda_22bdf7517842c4b3e53723af5aa32b9e>@@@?$__crt_seh_guarded_call@X@@QAEX$$QAV<lambda_03b1d95aef87969028cfba75ccab2455>@@AAV<lambda_6e4b09c48022b2350581041d5f6b0c4c>@@$$QAV<lambda_22bdf7517842c4b3e53723af5aa32b9e>@@@Z 10041958 f   libucrt:exit.obj
 0001:000409a5       ??R<lambda_6e4b09c48022b2350581041d5f6b0c4c>@@QBE@XZ 100419a5 f   libucrt:exit.obj
 0001:00040a90       ?common_exit@@YAXHW4_crt_exit_cleanup_mode@@W4_crt_exit_return_mode@@@Z 10041a90 f   libucrt:exit.obj
 0001:00040b27       ?exit_or_terminate_process@@YAXI@Z 10041b27 f   libucrt:exit.obj
 0001:00040b58       ?is_managed_app@@YA_NXZ    10041b58 f   libucrt:exit.obj
 0001:00040b9b       ?should_call_terminate_process@@YA_NXZ 10041b9b f   libucrt:exit.obj
 0001:00040bbd       ?try_cor_exit_process@@YAXI@Z 10041bbd f   libucrt:exit.obj
 0001:00041ac0       ??$common_atof_l@D@@YANQBDQAU__crt_locale_pointers@@@Z 10042ac0 f   libucrt:atof.obj
 0001:00042309       $LN30                      10043309     libucrt:atof.obj
 0001:00044c12       _memcpy_s                  10045c12 f   libucrt:atof.obj
 0001:00044c12       _memcpy_s                  10045c12 f   libucrt:cfout.obj
 0001:00044c12       _memcpy_s                  10045c12 f   libucrt:mbctype.obj
 0001:00044c12       _memcpy_s                  10045c12 f   libucrt:fread.obj
 0001:00044c93       ??$?RV<lambda_62491a2101a2aba6cc4a769149c84f1f>@@AAV<lambda_826c27fce7726908515bbc79a5266961>@@V<lambda_4e64bbd54b50a7b070e3ea8d795375b6>@@@?$__crt_seh_guarded_call@H@@QAEH$$QAV<lambda_62491a2101a2aba6cc4a769149c84f1f>@@AAV<lambda_826c27fce7726908515bbc79a5266961>@@$$QAV<lambda_4e64bbd54b50a7b070e3ea8d795375b6>@@@Z 10045c93 f   libucrt:output.obj
 0001:00044cee       ??$common_vsprintf@Vformat_validation_base@__crt_stdio_output@@D@@YAH_KQADIQBDAAV__crt_cached_ptd_host@@1@Z 10045cee f   libucrt:output.obj
 0001:00044e62       ??$common_vsprintf@Vstandard_base@__crt_stdio_output@@D@@YAH_KQADIQBDAAV__crt_cached_ptd_host@@1@Z 10045e62 f   libucrt:output.obj
 0001:00044fd6       ??$common_vsprintf_s@D@@YAH_KQADIQBDAAV__crt_cached_ptd_host@@1@Z 10045fd6 f   libucrt:output.obj
 0001:00045bb3       ??R<lambda_826c27fce7726908515bbc79a5266961>@@QBEHXZ 10046bb3 f   libucrt:output.obj
 0001:00046087       $LN120                     10047087     libucrt:output.obj
 0001:00046367       $LN139                     10047367     libucrt:output.obj
 0001:0004663b       $LN129                     1004763b     libucrt:output.obj
 0001:00047024       $LN18                      10048024     libucrt:output.obj
 0001:00047038       $LN17                      10048038     libucrt:output.obj
 0001:0004819e       ?_fputc_internal@@YAHHQAU_iobuf@@AAV__crt_cached_ptd_host@@@Z 1004919e f   libucrt:fputc.obj
 0001:0004832c       ??$?RV<lambda_2866be3712abc81a800a822484c830d8>@@AAV<lambda_39ca0ed439415581b5b15c265174cece>@@V<lambda_2b24c74d71094a6cd0cb82e44167d71b>@@@?$__crt_seh_guarded_call@X@@QAEX$$QAV<lambda_2866be3712abc81a800a822484c830d8>@@AAV<lambda_39ca0ed439415581b5b15c265174cece>@@$$QAV<lambda_2b24c74d71094a6cd0cb82e44167d71b>@@@Z 1004932c f   libucrt:fflush.obj
 0001:000483b8       ??$?RV<lambda_2cc53f568c5a2bb6f192f930a45d44ea>@@AAV<lambda_ab61a845afdef5b7c387490eaf3616ee>@@V<lambda_c2ffc0b7726aa6be21d5f0026187e748>@@@?$__crt_seh_guarded_call@X@@QAEX$$QAV<lambda_2cc53f568c5a2bb6f192f930a45d44ea>@@AAV<lambda_ab61a845afdef5b7c387490eaf3616ee>@@$$QAV<lambda_c2ffc0b7726aa6be21d5f0026187e748>@@@Z 100493b8 f   libucrt:fflush.obj
 0001:00048464       ??$?RV<lambda_6d20deecaf4856105ebacbad442d1079>@@AAV<lambda_9a32fed5bf61b6b509b2d3f6003082a1>@@V<lambda_63ea2239ed67c638ddbae41947fdf875>@@@?$__crt_seh_guarded_call@H@@QAEH$$QAV<lambda_6d20deecaf4856105ebacbad442d1079>@@AAV<lambda_9a32fed5bf61b6b509b2d3f6003082a1>@@$$QAV<lambda_63ea2239ed67c638ddbae41947fdf875>@@@Z 10049464 f   libucrt:fflush.obj
 0001:000484c4       ?common_flush_all@@YAH_N@Z 100494c4 f   libucrt:fflush.obj
 0001:00048511       ?common_flush_all_should_try_to_flush_stream@@YA_NV__crt_stdio_stream@@QAH@Z 10049511 f   libucrt:fflush.obj
 0001:00048544       ?is_stream_flushable_or_commitable@@YA_NJ@Z 10049544 f   libucrt:fflush.obj
 0001:00048695       ?_fclose_internal@@YAHQAU_iobuf@@AAV__crt_cached_ptd_host@@@Z 10049695 f   libucrt:fclose.obj
 0001:0004872c       ?_fclose_nolock_internal@@YAHQAU_iobuf@@AAV__crt_cached_ptd_host@@@Z 1004972c f   libucrt:fclose.obj
 0001:00048962       ??$?RV<lambda_76055cf4b68c1f980da8b7496a3ae623>@@AAV<lambda_26974eb511f701c600fccfa2a97a8e1b>@@V<lambda_0062726809bb3c529c0733aa37379daf>@@@?$__crt_seh_guarded_call@I@@QAEI$$QAV<lambda_76055cf4b68c1f980da8b7496a3ae623>@@AAV<lambda_26974eb511f701c600fccfa2a97a8e1b>@@$$QAV<lambda_0062726809bb3c529c0733aa37379daf>@@@Z 10049962 f   libucrt:fwrite.obj
 0001:000489bd       ??R<lambda_26974eb511f701c600fccfa2a97a8e1b>@@QBEIXZ 100499bd f   libucrt:fwrite.obj
 0001:00048cbf       ??$?RV<lambda_c390c0748f48a7db46f6ce5cc3c796da>@@AAV<lambda_703a5c3f7c88128b7f5f7a8861b0a6e0>@@V<lambda_c16a91f8771b304e2b1164fb4c043437>@@@?$__crt_seh_guarded_call@H@@QAEH$$QAV<lambda_c390c0748f48a7db46f6ce5cc3c796da>@@AAV<lambda_703a5c3f7c88128b7f5f7a8861b0a6e0>@@$$QAV<lambda_c16a91f8771b304e2b1164fb4c043437>@@@Z 10049cbf f   libucrt:setvbuf.obj
 0001:00048d1a       ??R<lambda_703a5c3f7c88128b7f5f7a8861b0a6e0>@@QBEHXZ 10049d1a f   libucrt:setvbuf.obj
 0001:00048dba       ?_setvbuf_internal@@YAHQAU_iobuf@@QADHIAAV__crt_cached_ptd_host@@@Z 10049dba f   libucrt:setvbuf.obj
 0001:00048e50       ?set_buffer@@YAHV__crt_stdio_stream@@QADIH@Z 10049e50 f   libucrt:setvbuf.obj
 0001:00049399       ?common_fseek@@YAHV__crt_stdio_stream@@_JHAAV__crt_cached_ptd_host@@@Z 1004a399 f   libucrt:fseek.obj
 0001:00049435       ?common_fseek_binary_mode_read_only_fast_track_nolock@@YA_NV__crt_stdio_stream@@_JH@Z 1004a435 f   libucrt:fseek.obj
 0001:0004950e       ?common_fseek_nolock@@YAHV__crt_stdio_stream@@_JHAAV__crt_cached_ptd_host@@@Z 1004a50e f   libucrt:fseek.obj
 0001:0004966e       ??$common_freopen@D@@YAHQAPAU_iobuf@@QBD1V__crt_stdio_stream@@H@Z 1004a66e f   libucrt:freopen.obj
 0001:0004985b       ??$common_mktime@_J@@YA_JQAUtm@@_N@Z 1004a85b f   libucrt:mktime.obj
 0001:00049c40       $$000000                   1004ac40     libucrt:strcspn.obj
 0001:00049c90       $$000000                   1004ac90     libucrt:strncpy.obj
 0001:00049ee0       $$000000                   1004aee0     libucrt:strncat.obj
 0001:0004a020       $$000000                   1004b020     libucrt:strcat.obj
 0001:0004a120       $$000000                   1004b120     libucrt:strcmp.obj
 0001:0004a26e       ??$?RV<lambda_f5952838e36297a1e2e9d6c748429792>@@AAV<lambda_2116bde18c9e5f34230805ea4a4660ed>@@V<lambda_3c7107de1cc98bf330a3031f42c322a3>@@@?$__crt_seh_guarded_call@PAD@@QAEPAD$$QAV<lambda_f5952838e36297a1e2e9d6c748429792>@@AAV<lambda_2116bde18c9e5f34230805ea4a4660ed>@@$$QAV<lambda_3c7107de1cc98bf330a3031f42c322a3>@@@Z 1004b26e f   libucrt:setlocale.obj
 0001:0004a2c9       ??R<lambda_2116bde18c9e5f34230805ea4a4660ed>@@QBEPADXZ 1004b2c9 f   libucrt:setlocale.obj
 0001:0004a428       _call_wsetlocale           1004b428 f   libucrt:setlocale.obj
 0001:0004a4fb       ??$common_fsopen@D@@YAPAU_iobuf@@QBD0H@Z 1004b4fb f   libucrt:fopen.obj
 0001:0004ac10       $$000000                   1004bc10     libucrt:pow_impl.obj
 0001:0004b4a8       ??$common_configure_argv@D@@YAHW4_crt_argv_mode@@@Z 1004c4a8 f   libucrt:argv_parsing.obj
 0001:0004b5e5       ??$parse_command_line@D@@YAXPADPAPAD0PAI2@Z 1004c5e5 f   libucrt:argv_parsing.obj
 0001:0004b7b3       ??$common_get_or_create_environment_nolock@_W@@YAPAPA_WXZ 1004c7b3 f   libucrt:environment_initialization.obj
 0001:0004b7df       ??$common_initialize_environment_nolock@D@@YAHXZ 1004c7df f   libucrt:environment_initialization.obj
 0001:0004b839       ??$common_initialize_environment_nolock@_W@@YAHXZ 1004c839 f   libucrt:environment_initialization.obj
 0001:0004b88e       ??$create_environment@D@@YAQAPADQAD@Z 1004c88e f   libucrt:environment_initialization.obj
 0001:0004b970       ??$create_environment@_W@@YAQAPA_WQA_W@Z 1004c970 f   libucrt:environment_initialization.obj
 0001:0004ba8e       ??$free_environment@D@@YAXQAPAD@Z 1004ca8e f   libucrt:environment_initialization.obj
 0001:0004ba8e       ??$free_environment@_W@@YAXQAPA_W@Z 1004ca8e f   libucrt:environment_initialization.obj
 0001:0004babd       ??$initialize_environment_by_cloning_nolock@_W@@YAHXZ 1004cabd f   libucrt:environment_initialization.obj
 0001:0004bb3e       ??$uninitialize_environment_internal@D@@YAXAAPAPAD@Z 1004cb3e f   libucrt:environment_initialization.obj
 0001:0004bb59       ??$uninitialize_environment_internal@_W@@YAXAAPAPA_W@Z 1004cb59 f   libucrt:environment_initialization.obj
 0001:0004bbcf       ??$?RV<lambda_69a2805e680e0e292e8ba93315fe43a8>@@AAV<lambda_f03950bc5685219e0bcd2087efbe011e>@@V<lambda_03fcd07e894ec930e3f35da366ca99d6>@@@?$__crt_seh_guarded_call@H@@QAEH$$QAV<lambda_69a2805e680e0e292e8ba93315fe43a8>@@AAV<lambda_f03950bc5685219e0bcd2087efbe011e>@@$$QAV<lambda_03fcd07e894ec930e3f35da366ca99d6>@@@Z 1004cbcf f   libucrt:onexit.obj
 0001:0004bc2a       ??$?RV<lambda_8e746cf0007f6ed984d6f78af1fec997>@@AAV<lambda_22ebabd17bc4fa466a2aca6d8deb888d>@@V<lambda_18ed0c0b38a6dc0daf1e7ac6d6adf05e>@@@?$__crt_seh_guarded_call@H@@QAEH$$QAV<lambda_8e746cf0007f6ed984d6f78af1fec997>@@AAV<lambda_22ebabd17bc4fa466a2aca6d8deb888d>@@$$QAV<lambda_18ed0c0b38a6dc0daf1e7ac6d6adf05e>@@@Z 1004cc2a f   libucrt:onexit.obj
 0001:0004bca4       ??R<lambda_22ebabd17bc4fa466a2aca6d8deb888d>@@QBEHXZ 1004cca4 f   libucrt:onexit.obj
 0001:0004bda6       ??R<lambda_f03950bc5685219e0bcd2087efbe011e>@@QBEHXZ 1004cda6 f   libucrt:onexit.obj
 0001:0004bf30       _initialize_global_variables 1004cf30 f   libucrt:initialization.obj
 0001:0004bf3d       _initialize_c              1004cf3d f   libucrt:initialization.obj
 0001:0004bf57       _initialize_environment    1004cf57 f   libucrt:initialization.obj
 0001:0004bf57       _initialize_global_state_isolation 1004cf57 f   libucrt:initialization.obj
 0001:0004bf57       _report_memory_leaks       1004cf57 f   libucrt:initialization.obj
 0001:0004bf57       _uninitialize_c            1004cf57 f   libucrt:initialization.obj
 0001:0004bf57       _uninitialize_global_state_isolation 1004cf57 f   libucrt:initialization.obj
 0001:0004bf5a       _uninitialize_environment  1004cf5a f   libucrt:initialization.obj
 0001:0004bf62       _initialize_pointers       1004cf62 f   libucrt:initialization.obj
 0001:0004bf90       _uninitialize_vcruntime    1004cf90 f   libucrt:initialization.obj
 0001:0004bf99       _uninitialize_allocated_memory 1004cf99 f   libucrt:initialization.obj
 0001:0004bfb0       _uninitialize_allocated_io_buffers 1004cfb0 f   libucrt:initialization.obj
 0001:0004c000       ??R<lambda_af42a3ee9806e9a7305d451646e05244>@@QBEXAAPAU__crt_multibyte_data@@@Z 1004d000 f   libucrt:initialization.obj
 0001:0004c130       $$000000                   1004d130     libucrt:strncmp.obj
 0001:0004c213       ??$?RV<lambda_15ade71b0218206bbe3333a0c9b79046>@@AAV<lambda_da44e0f8b0f19ba52fefafb335991732>@@V<lambda_207f2d024fc103971653565357d6cd41>@@@?$__crt_seh_guarded_call@X@@QAEX$$QAV<lambda_15ade71b0218206bbe3333a0c9b79046>@@AAV<lambda_da44e0f8b0f19ba52fefafb335991732>@@$$QAV<lambda_207f2d024fc103971653565357d6cd41>@@@Z 1004d213 f   libucrt:per_thread_data.obj
 0001:0004c265       ??$?RV<lambda_38edbb1296d33220d7e4dd0ed76b244a>@@AAV<lambda_5ce1d447e08cb34b2473517608e21441>@@V<lambda_fb385d3da700c9147fc39e65dd577a8c>@@@?$__crt_seh_guarded_call@X@@QAEX$$QAV<lambda_38edbb1296d33220d7e4dd0ed76b244a>@@AAV<lambda_5ce1d447e08cb34b2473517608e21441>@@$$QAV<lambda_fb385d3da700c9147fc39e65dd577a8c>@@@Z 1004d265 f   libucrt:per_thread_data.obj
 0001:0004c2d0       ??$?RV<lambda_6affb1475c98b40b75cdec977db92e3c>@@AAV<lambda_b8d4b9c228a6ecc3f80208dbb4b4a104>@@V<lambda_608742c3c92a14382c1684fc64f96c88>@@@?$__crt_seh_guarded_call@X@@QAEX$$QAV<lambda_6affb1475c98b40b75cdec977db92e3c>@@AAV<lambda_b8d4b9c228a6ecc3f80208dbb4b4a104>@@$$QAV<lambda_608742c3c92a14382c1684fc64f96c88>@@@Z 1004d2d0 f   libucrt:per_thread_data.obj
 0001:0004c325       ??$?RV<lambda_a7e850c220f1c8d1e6efeecdedd162c6>@@AAV<lambda_46720907175c18b6c9d2717bc0d2d362>@@V<lambda_9048902d66e8d99359bc9897bbb930a8>@@@?$__crt_seh_guarded_call@X@@QAEX$$QAV<lambda_a7e850c220f1c8d1e6efeecdedd162c6>@@AAV<lambda_46720907175c18b6c9d2717bc0d2d362>@@$$QAV<lambda_9048902d66e8d99359bc9897bbb930a8>@@@Z 1004d325 f   libucrt:per_thread_data.obj
 0001:0004c37f       ?construct_ptd@@YAXQAU__acrt_ptd@@QAPAU__crt_locale_data@@@Z 1004d37f f   libucrt:per_thread_data.obj
 0001:0004c418       ?destroy_fls@@YGXPAX@Z     1004d418 f   libucrt:per_thread_data.obj
 0001:0004c439       ?destroy_ptd@@YAXQAU__acrt_ptd@@@Z 1004d439 f   libucrt:per_thread_data.obj
 0001:0004c506       ?replace_current_thread_locale_nolock@@YAXQAU__acrt_ptd@@QAU__crt_locale_data@@@Z 1004d506 f   libucrt:per_thread_data.obj
 0001:0004c868       _no_op_initialize          1004d868 f   libucrt:wsetlocale.obj
 0001:0004c86b       ??$?RV<lambda_4fdada1b837b2abbf20876fac97688ad>@@AAV<lambda_b57350f2640456a0859d250846f69caf>@@V<lambda_eed5e4f92b5b7d55fa22c48c484aaa54>@@@?$__crt_seh_guarded_call@X@@QAEX$$QAV<lambda_4fdada1b837b2abbf20876fac97688ad>@@AAV<lambda_b57350f2640456a0859d250846f69caf>@@$$QAV<lambda_eed5e4f92b5b7d55fa22c48c484aaa54>@@@Z 1004d86b f   libucrt:wsetlocale.obj
 0001:0004c8b8       ??$?RV<lambda_ac03c5d59bd18b09cb88b28331f6bfed>@@AAV<lambda_2a444430fde8c29194d880d93eed5e8f>@@AAV<lambda_02db5278e8aef8b5e4976579d73f5304>@@@?$__crt_seh_guarded_call@X@@QAEX$$QAV<lambda_ac03c5d59bd18b09cb88b28331f6bfed>@@AAV<lambda_2a444430fde8c29194d880d93eed5e8f>@@AAV<lambda_02db5278e8aef8b5e4976579d73f5304>@@@Z 1004d8b8 f   libucrt:wsetlocale.obj
 0001:0004c8fd       ??$?RV<lambda_e5124f882df8998aaf41531e079ba474>@@AAV<lambda_3e16ef9562a7dcce91392c22ab16ea36>@@V<lambda_e25ca0880e6ef98be67edffd8c599615>@@@?$__crt_seh_guarded_call@X@@QAEX$$QAV<lambda_e5124f882df8998aaf41531e079ba474>@@AAV<lambda_3e16ef9562a7dcce91392c22ab16ea36>@@$$QAV<lambda_e25ca0880e6ef98be67edffd8c599615>@@@Z 1004d8fd f   libucrt:wsetlocale.obj
 0001:0004c9e5       ??R<lambda_2a444430fde8c29194d880d93eed5e8f>@@QBE@XZ 1004d9e5 f   libucrt:wsetlocale.obj
 0001:0004ca4f       ??R<lambda_b57350f2640456a0859d250846f69caf>@@QBEXXZ 1004da4f f   libucrt:wsetlocale.obj
 0001:0004ce18       __copytlocinfo_nolock      1004de18 f   libucrt:wsetlocale.obj
 0001:0004ce47       __expandlocale             1004de47 f   libucrt:wsetlocale.obj
 0001:0004d2d1       __wsetlocale_get_all       1004e2d1 f   libucrt:wsetlocale.obj
 0001:0004d46c       __wsetlocale_nolock        1004e46c f   libucrt:wsetlocale.obj
 0001:0004d75c       __wsetlocale_set_cat       1004e75c f   libucrt:wsetlocale.obj
 0001:0004db06       _get_default_code_page     1004eb06 f   libucrt:wsetlocale.obj
 0001:0004db35       _parse_bcp47               1004eb35 f   libucrt:wsetlocale.obj
 0001:0004dd0b       _parse_bcp47_code_page     1004ed0b f   libucrt:wsetlocale.obj
 0001:0004dd4a       _parse_bcp47_language      1004ed4a f   libucrt:wsetlocale.obj
 0001:0004ddbc       _parse_bcp47_region        1004edbc f   libucrt:wsetlocale.obj
 0001:0004de7a       _parse_bcp47_script        1004ee7a f   libucrt:wsetlocale.obj
 0001:0004deea       _string_is_alpha           1004eeea f   libucrt:wsetlocale.obj
 0001:0004e210       ?fe_to_nearest@@YA_NQBN_KF@Z 1004f210 f   libucrt:cvt.obj
 0001:0004e2b3       ?fp_format_a@@YAHQBNPADIQADIH_NIW4__acrt_rounding_mode@@AAV__crt_cached_ptd_host@@@Z 1004f2b3 f   libucrt:cvt.obj
 0001:0004e5df       ?fp_format_e@@YAHQBNQADI1IH_NIW4__acrt_rounding_mode@@AAV__crt_cached_ptd_host@@@Z 1004f5df f   libucrt:cvt.obj
 0001:0004e683       ?fp_format_e_internal@@YAHQADIH_NIQAU_strflt@@1AAV__crt_cached_ptd_host@@@Z 1004f683 f   libucrt:cvt.obj
 0001:0004e7c8       ?fp_format_f@@YAHQBNQADI1IHW4__acrt_rounding_mode@@AAV__crt_cached_ptd_host@@@Z 1004f7c8 f   libucrt:cvt.obj
 0001:0004e85e       ?fp_format_f_internal@@YAHQADIHQAU_strflt@@_NAAV__crt_cached_ptd_host@@@Z 1004f85e f   libucrt:cvt.obj
 0001:0004e94c       ?fp_format_g@@YAHQBNQADI1IH_NIW4__acrt_rounding_mode@@AAV__crt_cached_ptd_host@@@Z 1004f94c f   libucrt:cvt.obj
 0001:0004ea1b       ?fp_format_nan_or_infinity@@YAHW4__acrt_fp_class@@_NPADI1@Z 1004fa1b f   libucrt:cvt.obj
 0001:0004eab0       ?shift_bytes@@YAXQADI0H@Z  1004fab0 f   libucrt:cvt.obj
 0001:0004eae4       ?should_round_up@@YA_NQBN_KFW4__acrt_rounding_mode@@@Z 1004fae4 f   libucrt:cvt.obj
 0001:0004f0f6       ?initialize_inherited_file_handles_nolock@@YAXXZ 100500f6 f   libucrt:ioinit.obj
 0001:0004f1ac       ?initialize_stdio_handles_nolock@@YAXXZ 100501ac f   libucrt:ioinit.obj
 0001:0004f364       ?<lambda_invoker_stdcall>@<lambda_29d3c280b90b41c2ae070ffca879996a>@@CGHPA_W@Z 10050364 f   libucrt:winapi_thunks.obj
 0001:0004f371       ??$?RV<lambda_6b4b7855443974f2b4b77000ea21c99c>@@AAV<lambda_8f7d3b162ab39427f4fa9995c67a7986>@@V<lambda_cc9a5ba8a5d8428b9634eab82665e5dc>@@@?$__crt_seh_guarded_call@H@@QAEH$$QAV<lambda_6b4b7855443974f2b4b77000ea21c99c>@@AAV<lambda_8f7d3b162ab39427f4fa9995c67a7986>@@$$QAV<lambda_cc9a5ba8a5d8428b9634eab82665e5dc>@@@Z 10050371 f   libucrt:winapi_thunks.obj
 0001:0004f3ed       ??R<lambda_29d3c280b90b41c2ae070ffca879996a>@@QBEHPA_W@Z 100503ed f   libucrt:winapi_thunks.obj
 0001:0004f41c       ?try_get_AreFileApisANSI@@YAP6GHXZXZ 1005041c f   libucrt:winapi_thunks.obj
 0001:0004f436       ?try_get_CompareStringEx@@YAP6GHPB_WK0H0HPAU_nlsversioninfo@@PAXJ@ZXZ 10050436 f   libucrt:winapi_thunks.obj
 0001:0004f450       ?try_get_EnumSystemLocalesEx@@YAP6GHP6GHPA_WKJ@ZKJPAX@ZXZ 10050450 f   libucrt:winapi_thunks.obj
 0001:0004f46a       ?try_get_GetDateFormatEx@@YAP6GHPB_WKPBU_SYSTEMTIME@@0PA_WH0@ZXZ 1005046a f   libucrt:winapi_thunks.obj
 0001:0004f484       ?try_get_GetLocaleInfoEx@@YAP6GHPB_WKPA_WH@ZXZ 10050484 f   libucrt:winapi_thunks.obj
 0001:0004f49e       ?try_get_GetTimeFormatEx@@YAP6GHPB_WKPBU_SYSTEMTIME@@0PA_WH@ZXZ 1005049e f   libucrt:winapi_thunks.obj
 0001:0004f4b8       ?try_get_GetUserDefaultLocaleName@@YAP6GHPA_WH@ZXZ 100504b8 f   libucrt:winapi_thunks.obj
 0001:0004f4d2       ?try_get_IsValidLocaleName@@YAP6GHPB_W@ZXZ 100504d2 f   libucrt:winapi_thunks.obj
 0001:0004f4ec       ?try_get_LCIDToLocaleName@@YAP6GHKPA_WHK@ZXZ 100504ec f   libucrt:winapi_thunks.obj
 0001:0004f506       ?try_get_LCMapStringEx@@YAP6GHPB_WK0HPA_WHPAU_nlsversioninfo@@PAXJ@ZXZ 10050506 f   libucrt:winapi_thunks.obj
 0001:0004f520       ?try_get_LocaleNameToLCID@@YAP6GKPB_WK@ZXZ 10050520 f   libucrt:winapi_thunks.obj
 0001:0004f53a       ?try_get_first_available_module@@YAPAUHINSTANCE__@@QBW4module_id@?A0x391cf84c@@0@Z 1005053a f   libucrt:winapi_thunks.obj
 0001:0004f605       ?try_get_function@@YAPAXW4function_id@?A0x391cf84c@@QBDQBW4module_id@2@2@Z 10050605 f   libucrt:winapi_thunks.obj
 0001:0004fcf4       ?__acrt_LCMapStringA_stat@@YAHPAU__crt_locale_pointers@@PB_WKPBDHPADHHH@Z 10050cf4 f   libucrt:lcmapstringa.obj
 0001:0004ff30       $$000000                   10050f30     libucrt:_strnicm.obj
 0001:0004ff91       ??$common_flush_and_write_nolock@D@@YAHHV__crt_stdio_stream@@AAV__crt_cached_ptd_host@@@Z 10050f91 f   libucrt:_flsbuf.obj
 0001:00050087       ??$write_buffer_nolock@D@@YA_NDV__crt_stdio_stream@@AAV__crt_cached_ptd_host@@@Z 10051087 f   libucrt:_flsbuf.obj
 0001:00050159       ?stream_is_at_end_of_file_nolock@@YA_NV__crt_stdio_stream@@@Z 10051159 f   libucrt:_flsbuf.obj
 0001:000501e9       ??$?RV<lambda_9e9de3de5fa147e2223d7db92bc10aa6>@@AAV<lambda_38ce7e780aa69e748d6df282ebc68efe>@@V<lambda_8ca6da459f0f6780f1cff60fdc3d00e5>@@@?$__crt_seh_guarded_call@H@@QAEH$$QAV<lambda_9e9de3de5fa147e2223d7db92bc10aa6>@@AAV<lambda_38ce7e780aa69e748d6df282ebc68efe>@@$$QAV<lambda_8ca6da459f0f6780f1cff60fdc3d00e5>@@@Z 100511e9 f   libucrt:commit.obj
 0001:00050308       ?write_double_translated_ansi_nolock@@YA?AUwrite_result@?A0x17268360@@HQBDIAAV__crt_cached_ptd_host@@@Z 10051308 f   libucrt:write.obj
 0001:000506da       ?write_double_translated_unicode_nolock@@YA?AUwrite_result@?A0x17268360@@QBDI@Z 100516da f   libucrt:write.obj
 0001:00050742       ?write_requires_double_translation_nolock@@YA_NHAAV__crt_cached_ptd_host@@@Z 10051742 f   libucrt:write.obj
 0001:000507c0       ?write_text_ansi_nolock@@YA?AUwrite_result@?A0x17268360@@HQBDI@Z 100517c0 f   libucrt:write.obj
 0001:0005089b       ?write_text_utf16le_nolock@@YA?AUwrite_result@?A0x17268360@@HQBDI@Z 1005189b f   libucrt:write.obj
 0001:00050984       ?write_text_utf8_nolock@@YA?AUwrite_result@?A0x17268360@@HQBDI@Z 10051984 f   libucrt:write.obj
 0001:00050df5       ??$?RV<lambda_d422a76eb4c3bf3ad751449ab71a6ea4>@@AAV<lambda_c9ba49e555ba839a7b07aa3fbecb7617>@@V<lambda_9476263c8ee91a25d21c55370bdb50de>@@@?$__crt_seh_guarded_call@H@@QAEH$$QAV<lambda_d422a76eb4c3bf3ad751449ab71a6ea4>@@AAV<lambda_c9ba49e555ba839a7b07aa3fbecb7617>@@$$QAV<lambda_9476263c8ee91a25d21c55370bdb50de>@@@Z 10051df5 f   libucrt:close.obj
 0001:0005109d       ?find_or_allocate_unused_stream_nolock@@YA?AV__crt_stdio_stream@@XZ 1005209d f   libucrt:stream.obj
 0001:0005115f       ??$common_refill_and_read_nolock@D@@YAHV__crt_stdio_stream@@@Z 1005215f f   libucrt:_filbuf.obj
 0001:000512f9       ??$common_ftell@_J@@YA_JV__crt_stdio_stream@@AAV__crt_cached_ptd_host@@@Z 100522f9 f   libucrt:ftell.obj
 0001:00051388       ??$common_ftell_nolock@_J@@YA_JV__crt_stdio_stream@@AAV__crt_cached_ptd_host@@@Z 10052388 f   libucrt:ftell.obj
 0001:00051529       ?common_ftell_read_mode_nolock@@YA_JV__crt_stdio_stream@@_J1AAV__crt_cached_ptd_host@@@Z 10052529 f   libucrt:ftell.obj
 0001:000516e8       ?common_ftell_translated_utf8_nolock@@YA_JV__crt_stdio_stream@@_JAAV__crt_cached_ptd_host@@@Z 100526e8 f   libucrt:ftell.obj
 0001:00051893       ?count_newline_bytes@@YA_JQBD0W4__crt_lowio_text_mode@@@Z 10052893 f   libucrt:ftell.obj
 0001:00051981       ??$translate_text_mode_nolock@D@@YAHHQADI@Z 10052981 f   libucrt:read.obj
 0001:00051acd       ??$translate_text_mode_nolock@_W@@YAHHQA_WI@Z 10052acd f   libucrt:read.obj
 0001:00051c5b       ?translate_ansi_or_utf8_nolock@@YAHHQADIQA_WI@Z 10052c5b f   libucrt:read.obj
 0001:00051db2       ?translate_utf16_from_console_nolock@@YAHHQA_WI@Z 10052db2 f   libucrt:read.obj
 0001:000522e0       ??$common_lseek@_J@@YA_JH_JHAAV__crt_cached_ptd_host@@@Z 100532e0 f   libucrt:lseek.obj
 0001:00052406       ??$common_lseek_nolock@_J@@YA_JH_JHAAV__crt_cached_ptd_host@@@Z 10053406 f   libucrt:lseek.obj
 0001:0005276f       ??$common_openfile@D@@YAPAU_iobuf@@QBD0HV__crt_stdio_stream@@@Z 1005376f f   libucrt:openfile.obj
 0001:00052a22       ??$common_gmtime_s@_J@@YAHQAUtm@@QB_J@Z 10053a22 f   libucrt:gmtime.obj
 0001:00052b6c       ?compute_year@@YAHAA_JAA_N@Z 10053b6c f   libucrt:gmtime.obj
 0001:00052c30       ??$common_localtime_s@_J@@YAHQAUtm@@QB_J@Z 10053c30 f   libucrt:localtime.obj
 0001:00052eca       ?_isindst_nolock@@YAHQAUtm@@@Z 10053eca f   libucrt:tzset.obj
 0001:000530e4       ?cvtdate@@YAXW4transition_type@?A0x7639d0b4@@W4date_type@2@HHHHHHHHH@Z 100540e4 f   libucrt:tzset.obj
 0001:00053224       ?get_tz_environment_variable@@YAPA_WAAY0BAA@_W@Z 10054224 f   libucrt:tzset.obj
 0001:0005329b       ?tzset_env_copy_to_tzname@@YAXQB_WQA_WQADI@Z 1005429b f   libucrt:tzset.obj
 0001:000532e2       ?tzset_from_environment_nolock@@YAXPA_W@Z 100542e2 f   libucrt:tzset.obj
 0001:00053574       ?tzset_from_system_nolock@@YAXXZ 10054574 f   libucrt:tzset.obj
 0001:000536ce       ?tzset_nolock@@YAXXZ       100546ce f   libucrt:tzset.obj
 0001:00053744       ?tzset_os_copy_to_tzname@@YAXQB_WQA_WQADI@Z 10054744 f   libucrt:tzset.obj
 0001:0005423c       ?_mbstowcs_internal@@YAHPAIPA_WIPBDIAAV__crt_cached_ptd_host@@@Z 1005523c f   libucrt:mbstowcs.obj
 0001:0005431c       ?_mbstowcs_l_helper@@YAIPA_WPBDIAAV__crt_cached_ptd_host@@@Z 1005531c f   libucrt:mbstowcs.obj
 0001:00054524       ?_wcstombs_internal@@YAHPAIPADIPB_WIAAV__crt_cached_ptd_host@@@Z 10055524 f   libucrt:wcstombs.obj
 0001:00054602       ?_wcstombs_l_helper@@YAIPADPB_WIAAV__crt_cached_ptd_host@@@Z 10055602 f   libucrt:wcstombs.obj
 0001:000548e7       ?InternalGetLocaleInfoA@@YAHQAU__crt_locale_pointers@@QB_WKQADH@Z 100558e7 f   libucrt:getlocaleinfoa.obj
 0001:00054ceb       ??$?RV<lambda_cbab9ec6f41b0180b23cc171c22676b0>@@AAV<lambda_44731a7d0e6d81c3e6aa82d741081786>@@V<lambda_4b292cb8dd18144e164572427af410ab>@@@?$__crt_seh_guarded_call@P6AXH@Z@@QAEP6AXH@Z$$QAV<lambda_cbab9ec6f41b0180b23cc171c22676b0>@@AAV<lambda_44731a7d0e6d81c3e6aa82d741081786>@@$$QAV<lambda_4b292cb8dd18144e164572427af410ab>@@@Z 10055ceb f   libucrt:signal.obj
 0001:00054d4f       ?get_global_action_nolock@@YAPAP6AXH@ZH@Z 10055d4f f   libucrt:signal.obj
 0001:00054d91       ?siglookup@@YAPAU__crt_signal_action_t@@HQAU1@@Z 10055d91 f   libucrt:signal.obj
 0001:00055110       $$000000                   10056110     libucrt:pow_pentium4.obj
 0001:00055c30       $$000000                   10056c30     libucrt:87tran.obj
 0001:00055e40       $$000000                   10056e40     libucrt:87disp.obj
 0001:000560a0       $$000000                   100570a0     libucrt:genexcep.obj
 0001:00056100       $$000000                   10057100     libucrt:common.obj
 0001:00056653       ?<lambda_invoker_cdecl>@<lambda_838c7f62c73c983481e27c09e84b0b5d>@@CAHPBX0@Z 10057653 f   libucrt:argv_wildcards.obj
 0001:00056731       ??$common_expand_argv_wildcards@D@@YAHQAPADQAPAPAD@Z 10057731 f   libucrt:argv_wildcards.obj
 0001:000568ae       ??$copy_and_add_argument_to_buffer@D@@YAHQBD0IAAV?$argument_list@D@?A0x5f5c8891@@@Z 100578ae f   libucrt:argv_wildcards.obj
 0001:0005695f       ??$expand_argument_wildcards@D@@YAHQAD0AAV?$argument_list@D@?A0x5f5c8891@@@Z 1005795f f   libucrt:argv_wildcards.obj
 0001:00056be4       ??1?$argument_list@D@?A0x5f5c8891@@QAE@XZ 10057be4 f   libucrt:argv_wildcards.obj
 0001:00056c49       ?expand_if_necessary@?$argument_list@D@?A0x5f5c8891@@AAEHXZ 10057c49 f   libucrt:argv_wildcards.obj
 0001:00056d7c       ??$?RV<lambda_ceb1ee4838e85a9d631eb091e2fbe199>@@AAV<lambda_ae742caa10f662c28703da3d2ea5e57e>@@V<lambda_cd08b5d6af4937fe54fc07d0c9bf6b37>@@@?$__crt_seh_guarded_call@X@@QAEX$$QAV<lambda_ceb1ee4838e85a9d631eb091e2fbe199>@@AAV<lambda_ae742caa10f662c28703da3d2ea5e57e>@@$$QAV<lambda_cd08b5d6af4937fe54fc07d0c9bf6b37>@@@Z 10057d7c f   libucrt:mbctype.obj
 0001:00056dc9       ??R<lambda_ae742caa10f662c28703da3d2ea5e57e>@@QBEXXZ 10057dc9 f   libucrt:mbctype.obj
 0001:00056e4c       ?CPtoLocaleName@@YAPB_WH@Z 10057e4c f   libucrt:mbctype.obj
 0001:00056e8a       ?getSystemCP@@YAHH@Z       10057e8a f   libucrt:mbctype.obj
 0001:00056efb       ?setSBCS@@YAXPAU__crt_multibyte_data@@@Z 10057efb f   libucrt:mbctype.obj
 0001:00056f5e       ?setSBUpLow@@YAXPAU__crt_multibyte_data@@@Z 10057f5e f   libucrt:mbctype.obj
 0001:0005710a       ?setmbcp_internal@@YAHH_NQAU__acrt_ptd@@QAPAU__crt_multibyte_data@@@Z 1005810a f   libucrt:mbctype.obj
 0001:0005725f       ?update_thread_multibyte_data_internal@@YAPAU__crt_multibyte_data@@QAU__acrt_ptd@@QAPAU1@@Z 1005825f f   libucrt:mbctype.obj
 0001:00057562       ?x_ismbbtype_l@@YAHPAU__crt_locale_pointers@@IHH@Z 10058562 f   libucrt:ismbbyte.obj
 0001:000575e3       ?find_end_of_double_null_terminated_sequence@@YAPB_WQB_W@Z 100585e3 f   libucrt:get_environment_from_os.obj
 0001:00057708       ??$common_set_variable_in_environment_nolock@_W@@YAHQA_WH@Z 10058708 f   libucrt:setenv.obj
 0001:00057987       ??$copy_environment@_W@@YAPAPA_WQAPA_W@Z 10058987 f   libucrt:setenv.obj
 0001:00057a45       ??$ensure_current_environment_is_not_initial_environment_nolock@_W@@YAXXZ 10058a45 f   libucrt:setenv.obj
 0001:00057a5f       ??$find_in_environment_nolock@_W@@YAHQB_WI@Z 10058a5f f   libucrt:setenv.obj
 0001:00058706       ?free_crt_array_internal@@YAXQAPBXI@Z 10059706 f   libucrt:inittime.obj
 0001:0005872b       ?initialize_lc_time@@YA_NQAU__crt_lc_time_data@@QAU__crt_locale_data@@@Z 1005972b f   libucrt:inittime.obj
 0001:00058b06       ??$common_tcscat_s@_W@@YAHQA_WIQB_W@Z 10059b06 f   libucrt:wcscat_s.obj
 0001:00058b89       ??$common_tcsncat_s@_W@@YAHQA_WIQB_WI@Z 10059b89 f   libucrt:wcsncat_s.obj
 0001:00058c81       ??$common_tcsncpy_s@_W@@YAHQA_WIQB_WI@Z 10059c81 f   libucrt:wcsncpy_s.obj
 0001:00058e01       _GetLocaleNameFromDefault  10059e01 f   libucrt:get_qualified_locale.obj
 0001:00058e88       _GetLocaleNameFromLangCountry 10059e88 f   libucrt:get_qualified_locale.obj
 0001:00058f21       _GetLocaleNameFromLanguage 10059f21 f   libucrt:get_qualified_locale.obj
 0001:00058f7a       _GetPrimaryLen             10059f7a f   libucrt:get_qualified_locale.obj
 0001:00058fae       _LangCountryEnumProcEx@12  10059fae f   libucrt:get_qualified_locale.obj
 0001:0005928e       _LanguageEnumProcEx@12     1005a28e f   libucrt:get_qualified_locale.obj
 0001:0005934d       _ProcessCodePage           1005a34d f   libucrt:get_qualified_locale.obj
 0001:00059443       _TestDefaultCountry        1005a443 f   libucrt:get_qualified_locale.obj
 0001:00059490       _TranslateName             1005a490 f   libucrt:get_qualified_locale.obj
 0001:000596f8       _CountryEnumProc@4         1005a6f8 f   libucrt:getqloc_downlevel.obj
 0001:0005979f       _GetLcidFromCountry        1005a79f f   libucrt:getqloc_downlevel.obj
 0001:000597ea       _GetLcidFromLangCountry    1005a7ea f   libucrt:getqloc_downlevel.obj
 0001:00059885       _GetLcidFromLanguage       1005a885 f   libucrt:getqloc_downlevel.obj
 0001:000598e4       _GetPrimaryLen             1005a8e4 f   libucrt:getqloc_downlevel.obj
 0001:00059910       _LangCountryEnumProc@4     1005a910 f   libucrt:getqloc_downlevel.obj
 0001:00059b63       _LanguageEnumProc@4        1005ab63 f   libucrt:getqloc_downlevel.obj
 0001:00059c38       _LcidFromHexString         1005ac38 f   libucrt:getqloc_downlevel.obj
 0001:00059c8c       _ProcessCodePage           1005ac8c f   libucrt:getqloc_downlevel.obj
 0001:00059d6d       _TestDefaultCountry        1005ad6d f   libucrt:getqloc_downlevel.obj
 0001:00059d92       _TestDefaultLanguage       1005ad92 f   libucrt:getqloc_downlevel.obj
 0001:00059e00       _TranslateName             1005ae00 f   libucrt:getqloc_downlevel.obj
 0001:0005a06f       ?to_abstract_control@@YA?AW4__acrt_fenv_abstract_control@@W4__acrt_fenv_machine_sse_control@@@Z 1005b06f f   libucrt:_fenvutils.obj
 0001:0005a11f       ?to_abstract_control@@YA?AW4__acrt_fenv_abstract_control@@W4__acrt_fenv_machine_x87_control@@@Z 1005b11f f   libucrt:_fenvutils.obj
 0001:0005a1cc       ?to_machine_sse_control@@YA?AW4__acrt_fenv_machine_sse_control@@W4__acrt_fenv_abstract_control@@@Z 1005b1cc f   libucrt:_fenvutils.obj
 0001:0005a282       ?to_machine_x87_control@@YA?AW4__acrt_fenv_machine_x87_control@@W4__acrt_fenv_abstract_control@@@Z 1005b282 f   libucrt:_fenvutils.obj
 0001:0005a600       ?should_round_up@@YA_NQBD0HW4__acrt_has_trailing_digits@@W4__acrt_rounding_mode@@@Z 1005b600 f   libucrt:_fptostr.obj
 0001:0005bd61       ??R<lambda_e96123212306c92459f955e8e4eac55d>@@QBEIPBD@Z 1005cd61 f   libucrt:mbrtowc.obj
 0001:0005c362       ?GetTableIndexFromLocaleName@@YAHPB_W@Z 1005d362 f   libucrt:lcidtoname_downlevel.obj
 0001:0005c621       ??$common_sopen_dispatch@D@@YAHQBDHHHQAHH@Z 1005d621 f   libucrt:open.obj
 0001:0005c6e2       ?configure_text_mode@@YAHHUfile_options@?A0xa9d50aae@@HAAW4__crt_lowio_text_mode@@@Z 1005d6e2 f   libucrt:open.obj
 0001:0005c930       ?create_file@@YAPAXQB_WQAU_SECURITY_ATTRIBUTES@@Ufile_options@?A0xa9d50aae@@@Z 1005d930 f   libucrt:open.obj
 0001:0005c955       ?decode_open_create_flags@@YAKH@Z 1005d955 f   libucrt:open.obj
 0001:0005c9c5       ?decode_options@@YA?AUfile_options@?A0xa9d50aae@@HHH@Z 1005d9c5 f   libucrt:open.obj
 0001:0005cb3f       ?truncate_ctrl_z_if_present@@YAHH@Z 1005db3f f   libucrt:open.obj
 0001:0005cfe7       ??$common_getenv_nolock@_W@@YAPA_WQB_W@Z 1005dfe7 f   libucrt:getenv.obj
 0001:0005d06b       ??$common_getenv_s@_W@@YAHQAIQA_WIQB_W@Z 1005e06b f   libucrt:getenv.obj
 0001:0005d0ca       ??$common_getenv_s_nolock@_W@@YAHQAIQA_WIQB_W@Z 1005e0ca f   libucrt:getenv.obj
 0001:0005d419       ??$common_tcsncpy_s@D@@YAHQADIQBDI@Z 1005e419 f   libucrt:strncpy_s.obj
 0001:0005ddc0       $$000000                   1005edc0     libucrt:strpbrk.obj
 0001:0005dea4       ?initialize_multibyte@@YAHXZ 1005eea4 f   libucrt:multibyte_initializer.obj
 0001:0005e013       ??$common_xtox@K_W@@YAHKQA_WII_N@Z 1005f013 f   libucrt:xtoa.obj
 0001:0005e0c6       ??$common_xtox_s@K_W@@YAHKQA_WII_N@Z 1005f0c6 f   libucrt:xtoa.obj
 0001:0005e280       $$000000                   1005f280     libucrt:log10_impl.obj
 0001:0005e390       $$000000                   1005f390     libucrt:ceil_pentium4.obj
 0001:0005e6a7       ?__dcrt_lowio_initialize_console_output@@YAXXZ 1005f6a7 f   libucrt:initcon.obj
 0001:0005ebc0       ___hw_cw_sse2              1005fbc0 f   libucrt:ieee87.obj
 0001:0005f046       __hw_cw                    10060046 f   libucrt:ieee87.obj
 0001:0005f0f0       $$000000                   100600f0     libucrt:log10_pentium4.obj
 0001:0005f5a0       $$000000                   100605a0     LIBCMT:ulldvrm.obj
 0001:0005f5d1       L1                         100605d1     LIBCMT:ulldvrm.obj
 0001:0005f5df       L3                         100605df     LIBCMT:ulldvrm.obj
 0001:0005f60d       L4                         1006060d     LIBCMT:ulldvrm.obj
 0001:0005f616       L5                         10060616     LIBCMT:ulldvrm.obj
 0001:0005f618       L2                         10060618     LIBCMT:ulldvrm.obj
 0001:0005f640       $$000000                   10060640     LIBCMT:llshl.obj
 0001:0005f650       MORE32                     10060650     LIBCMT:llshl.obj
 0001:0005f65a       RETZERO                    1006065a     LIBCMT:llshl.obj
 0001:0005f660       $$000000                   10060660     LIBCMT:ullshr.obj
 0001:0005f670       MORE32                     10060670     LIBCMT:ullshr.obj
 0001:0005f67a       RETZERO                    1006067a     LIBCMT:ullshr.obj
 0001:0005f680       $$000000                   10060680     LIBCMT:lldiv.obj
 0001:0005f6a1       L1                         100606a1     LIBCMT:lldiv.obj
 0001:0005f6bd       L2                         100606bd     LIBCMT:lldiv.obj
 0001:0005f6d9       L3                         100606d9     LIBCMT:lldiv.obj
 0001:0005f6e7       L5                         100606e7     LIBCMT:lldiv.obj
 0001:0005f715       L6                         10060715     LIBCMT:lldiv.obj
 0001:0005f716       L7                         10060716     LIBCMT:lldiv.obj
 0001:0005f71a       L4                         1006071a     LIBCMT:lldiv.obj
 0001:0005f724       L8                         10060724     LIBCMT:lldiv.obj
 0001:0005f730       $$000000                   10060730     LIBCMT:llrem.obj
 0001:0005f750       L1                         10060750     LIBCMT:llrem.obj
 0001:0005f76b       L2                         1006076b     LIBCMT:llrem.obj
 0001:0005f78a       L3                         1006078a     LIBCMT:llrem.obj
 0001:0005f798       L5                         10060798     LIBCMT:llrem.obj
 0001:0005f7c3       L6                         100607c3     LIBCMT:llrem.obj
 0001:0005f7cb       L7                         100607cb     LIBCMT:llrem.obj
 0001:0005f7d6       L4                         100607d6     LIBCMT:llrem.obj
 0001:0005f7dd       L8                         100607dd     LIBCMT:llrem.obj
 0001:0005f7f0       $$000000                   100607f0     LIBCMT:lldvrm.obj
 0001:0005f814       L1                         10060814     LIBCMT:lldvrm.obj
 0001:0005f830       L2                         10060830     LIBCMT:lldvrm.obj
 0001:0005f85c       L3                         1006085c     LIBCMT:lldvrm.obj
 0001:0005f86a       L5                         1006086a     LIBCMT:lldvrm.obj
 0001:0005f898       L6                         10060898     LIBCMT:lldvrm.obj
 0001:0005f8a1       L7                         100608a1     LIBCMT:lldvrm.obj
 0001:0005f8a3       L4                         100608a3     LIBCMT:lldvrm.obj
 0001:0005f8b5       L9                         100608b5     LIBCMT:lldvrm.obj
 0001:0005f8c9       L8                         100608c9     LIBCMT:lldvrm.obj
 0001:0005f8d0       $$000000                   100608d0     LIBCMT:ftol2.obj
 0001:0005f8e0       $$000000                   100608e0     LIBCMT:ftol2.obj
 0001:0005f8f1       L3B                        100608f1     LIBCMT:ftol2.obj
 0001:0005f934       L3F                        10060934     LIBCMT:ftol2.obj
 0001:0005f93c       L40                        1006093c     LIBCMT:ftol2.obj
 0001:0005f94f       L41                        1006094f     LIBCMT:ftol2.obj
 0001:0005f960       $$000000                   10060960     libvcruntime:strrchr.obj
 0001:0005f99d       strrchr_sse_loop           1006099d     libvcruntime:strrchr.obj
 0001:0005f9cd       strrchr_sse_break          100609cd     libvcruntime:strrchr.obj
 0001:0005f9ed       strrchr_sttni              100609ed     libvcruntime:strrchr.obj
 0001:0005f9ff       strrchr_sttni_chars        100609ff     libvcruntime:strrchr.obj
 0001:0005fa14       strrchr_sttni_aligned      10060a14     libvcruntime:strrchr.obj
 0001:0005fa18       strrchr_sttni_xmm          10060a18     libvcruntime:strrchr.obj
 0001:0005fa2b       exit                       10060a2b     libvcruntime:strrchr.obj
 0001:0005fa2e       strrchr_zero               10060a2e     libvcruntime:strrchr.obj
 0001:0005fa53       strchr_zero_loop           10060a53     libvcruntime:strrchr.obj
 0001:0005fa67       strchr_zero_result         10060a67     libvcruntime:strrchr.obj
 0001:0005fa6e       strrchr_no_sse             10060a6e     libvcruntime:strrchr.obj
 0001:0005fa91       returndi                   10060a91     libvcruntime:strrchr.obj
 0001:0005fa93       toend                      10060a93     libvcruntime:strrchr.obj
 0001:0005fbe0       $$000000                   10060be0     LIBCMT:ftol3.obj
 0001:0005fbf0       _ftoui3_default            10060bf0     LIBCMT:ftol3.obj
 0001:0005fbff       _ftoui3_cvt                10060bff     LIBCMT:ftol3.obj
 0001:0005fc04       _ftoui3_notsafe            10060c04     LIBCMT:ftol3.obj
 0001:0005fc13       _ftoui3_neg                10060c13     LIBCMT:ftol3.obj
 0001:0005fc1a       _ftoui3_NaN                10060c1a     LIBCMT:ftol3.obj
 0001:0005fc30       $$000000                   10060c30     LIBCMT:ftol3.obj
 0001:0005fc4e       _dtol3_default             10060c4e     LIBCMT:ftol3.obj
 0001:0005fc78       _dtol3_getbits             10060c78     LIBCMT:ftol3.obj
 0001:0005fca1       _dtol3_trunc               10060ca1     LIBCMT:ftol3.obj
 0001:0005fca8       _dtol3_lshift              10060ca8     LIBCMT:ftol3.obj
 0001:0005fcae       _dtol3_notsafe             10060cae     LIBCMT:ftol3.obj
 0001:0005fcc7       _dtol3_large               10060cc7     LIBCMT:ftol3.obj
 0001:0005fccf       _dtol3_NaN                 10060ccf     LIBCMT:ftol3.obj
 0001:0005fcd7       _dtol3_retmin              10060cd7     LIBCMT:ftol3.obj
 0001:0005fce0       $$000000                   10060ce0     libucrt:87ctriga.obj
 0001:0005fcf0       $$000000                   10060cf0     libucrt:87fmod_impl.obj
 0001:0005fd20       $$000000                   10060d20     libucrt:acos_sse2_precise.obj
 0001:00060240       $$000000                   10061240     libucrt:cos_sse2_precise.obj
 0001:00060400       $$000000                   10061400     libucrt:log10_sse2_precise.obj
 0001:000606b0       $$000000                   100616b0     libucrt:pow_sse2_precise.obj
 0001:00061200       $$000000                   10062200     libucrt:sin_sse2_precise.obj
 0001:000613d0       $$000000                   100623d0     libucrt:sqrt_sse2_precise.obj
 0001:000614d0       $$000000                   100624d0     libucrt:tan_sse2_precise.obj
 0001:00061740       $$000000                   10062740     libucrt:floor_pentium4.obj
 0001:00061890       $$000000                   10062890     libucrt:87triga.obj
 0001:00061950       $$000000                   10062950     libucrt:87cdisp.obj
 0001:00061bf0       $$000000                   10062bf0     libucrt:acos_impl.obj
 0001:00061d00       $$000000                   10062d00     libucrt:cos_impl.obj
 0001:00061df0       $$000000                   10062df0     libucrt:sin_impl.obj
 0001:00061ee0       $$000000                   10062ee0     libucrt:sqrt.obj
 0001:00061ef0       $$000000                   10062ef0     libucrt:tan_impl.obj
 0001:00062090       $$000000                   10063090     libucrt:acos_pentium4.obj
 0001:000625f0       $$000000                   100635f0     libucrt:cos_pentium4.obj
 0001:000627a0       $$000000                   100637a0     libucrt:sin_pentium4.obj
 0001:00062970       $$000000                   10063970     libucrt:sqrt_impl.obj
 0001:00062a30       $$000000                   10063a30     libucrt:tan_pentium4.obj
 0001:00062c90       __unwindfunclet$?CL_CreateMove@@YAXMPAUusercmd_s@@H@Z$0 10063c90 f   Client.obj
 0001:00062c98       __unwindfunclet$?CL_CreateMove@@YAXMPAUusercmd_s@@H@Z$1 10063c98 f   Client.obj
 0001:00062ca0       __unwindfunclet$?CL_CreateMove@@YAXMPAUusercmd_s@@H@Z$2 10063ca0 f   Client.obj
 0001:00062ca8       __unwindfunclet$?CL_CreateMove@@YAXMPAUusercmd_s@@H@Z$3 10063ca8 f   Client.obj
 0001:00062cb3       __unwindfunclet$?CL_CreateMove@@YAXMPAUusercmd_s@@H@Z$4 10063cb3 f   Client.obj
 0001:00062cc3       __ehhandler$?CL_CreateMove@@YAXMPAUusercmd_s@@H@Z 10063cc3 f   Client.obj
 0001:00062cf0       __unwindfunclet$??0pmtrace_s@@QAE@XZ$0 10063cf0 f   Client.obj
 0001:00062cfb       __unwindfunclet$??0pmtrace_s@@QAE@XZ$1 10063cfb f   Client.obj
 0001:00062d0b       __ehhandler$??0pmtrace_s@@QAE@XZ 10063d0b f   Client.obj
 0001:00062d30       __unwindfunclet$?HUD_AddEntity@@YAHHPAUcl_entity_s@@PBD@Z$0 10063d30 f   Client.obj
 0001:00062d38       __unwindfunclet$?HUD_AddEntity@@YAHHPAUcl_entity_s@@PBD@Z$1 10063d38 f   Client.obj
 0001:00062d40       __unwindfunclet$?HUD_AddEntity@@YAHHPAUcl_entity_s@@PBD@Z$2 10063d40 f   Client.obj
 0001:00062d48       __unwindfunclet$?HUD_AddEntity@@YAHHPAUcl_entity_s@@PBD@Z$3 10063d48 f   Client.obj
 0001:00062d53       __unwindfunclet$?HUD_AddEntity@@YAHHPAUcl_entity_s@@PBD@Z$4 10063d53 f   Client.obj
 0001:00062d5e       __unwindfunclet$?HUD_AddEntity@@YAHHPAUcl_entity_s@@PBD@Z$5 10063d5e f   Client.obj
 0001:00062d69       __unwindfunclet$?HUD_AddEntity@@YAHHPAUcl_entity_s@@PBD@Z$6 10063d69 f   Client.obj
 0001:00062d76       __ehhandler$?HUD_AddEntity@@YAHHPAUcl_entity_s@@PBD@Z 10063d76 f   Client.obj
 0001:00062da0       __unwindfunclet$??GQAngle@@QBE?AV0@ABV0@@Z$0 10063da0 f   Aimbot.obj
 0001:00062da0       __unwindfunclet$??HQAngle@@QBE?AV0@PAM@Z$0 10063da0 f   Aimbot.obj
 0001:00062da0       __unwindfunclet$?Distance@Vector@@QAEMAAV1@@Z$0 10063da0 f   Misc.obj
 0001:00062dad       __ehhandler$??GQAngle@@QBE?AV0@ABV0@@Z 10063dad f   Aimbot.obj
 0001:00062dad       __ehhandler$??HQAngle@@QBE?AV0@PAM@Z 10063dad f   Aimbot.obj
 0001:00062dad       __ehhandler$?Distance@Vector@@QAEMAAV1@@Z 10063dad f   Misc.obj
 0001:00062dd0       __unwindfunclet$?SmoothAimAngles@@YAXVQAngle@@0AAV1@M_NMM@Z$0 10063dd0 f   Aimbot.obj
 0001:00062dd8       __unwindfunclet$?SmoothAimAngles@@YAXVQAngle@@0AAV1@M_NMM@Z$1 10063dd8 f   Aimbot.obj
 0001:00062de0       __unwindfunclet$?SmoothAimAngles@@YAXVQAngle@@0AAV1@M_NMM@Z$2 10063de0 f   Aimbot.obj
 0001:00062de8       __unwindfunclet$?SmoothAimAngles@@YAXVQAngle@@0AAV1@M_NMM@Z$3 10063de8 f   Aimbot.obj
 0001:00062df0       __unwindfunclet$?SmoothAimAngles@@YAXVQAngle@@0AAV1@M_NMM@Z$4 10063df0 f   Aimbot.obj
 0001:00062df8       __unwindfunclet$?SmoothAimAngles@@YAXVQAngle@@0AAV1@M_NMM@Z$5 10063df8 f   Aimbot.obj
 0001:00062e05       __ehhandler$?SmoothAimAngles@@YAXVQAngle@@0AAV1@M_NMM@Z 10063e05 f   Aimbot.obj
 0001:00062e30       __unwindfunclet$?Trigger@CAimBot@@QAEXPAUusercmd_s@@@Z$0 10063e30 f   Aimbot.obj
 0001:00062e38       __unwindfunclet$?Trigger@CAimBot@@QAEXPAUusercmd_s@@@Z$1 10063e38 f   Aimbot.obj
 0001:00062e40       __unwindfunclet$?Trigger@CAimBot@@QAEXPAUusercmd_s@@@Z$2 10063e40 f   Aimbot.obj
 0001:00062e48       __unwindfunclet$?Trigger@CAimBot@@QAEXPAUusercmd_s@@@Z$3 10063e48 f   Aimbot.obj
 0001:00062e50       __unwindfunclet$?Trigger@CAimBot@@QAEXPAUusercmd_s@@@Z$4 10063e50 f   Aimbot.obj
 0001:00062e58       __unwindfunclet$?Trigger@CAimBot@@QAEXPAUusercmd_s@@@Z$5 10063e58 f   Aimbot.obj
 0001:00062e60       __unwindfunclet$?Trigger@CAimBot@@QAEXPAUusercmd_s@@@Z$6 10063e60 f   Aimbot.obj
 0001:00062e68       __unwindfunclet$?Trigger@CAimBot@@QAEXPAUusercmd_s@@@Z$7 10063e68 f   Aimbot.obj
 0001:00062e73       __unwindfunclet$?Trigger@CAimBot@@QAEXPAUusercmd_s@@@Z$8 10063e73 f   Aimbot.obj
 0001:00062e7e       __unwindfunclet$?Trigger@CAimBot@@QAEXPAUusercmd_s@@@Z$9 10063e7e f   Aimbot.obj
 0001:00062e89       __unwindfunclet$?Trigger@CAimBot@@QAEXPAUusercmd_s@@@Z$10 10063e89 f   Aimbot.obj
 0001:00062e99       __ehhandler$?Trigger@CAimBot@@QAEXPAUusercmd_s@@@Z 10063e99 f   Aimbot.obj
 0001:00062ed0       __unwindfunclet$?LegitAimbot@CAimBot@@AAEXPAUusercmd_s@@@Z$0 10063ed0 f   Aimbot.obj
 0001:00062ed8       __unwindfunclet$?LegitAimbot@CAimBot@@AAEXPAUusercmd_s@@@Z$1 10063ed8 f   Aimbot.obj
 0001:00062ee3       __unwindfunclet$?LegitAimbot@CAimBot@@AAEXPAUusercmd_s@@@Z$2 10063ee3 f   Aimbot.obj
 0001:00062eee       __unwindfunclet$?LegitAimbot@CAimBot@@AAEXPAUusercmd_s@@@Z$3 10063eee f   Aimbot.obj
 0001:00062ef9       __unwindfunclet$?LegitAimbot@CAimBot@@AAEXPAUusercmd_s@@@Z$4 10063ef9 f   Aimbot.obj
 0001:00062f04       __unwindfunclet$?LegitAimbot@CAimBot@@AAEXPAUusercmd_s@@@Z$5 10063f04 f   Aimbot.obj
 0001:00062f0f       __unwindfunclet$?LegitAimbot@CAimBot@@AAEXPAUusercmd_s@@@Z$6 10063f0f f   Aimbot.obj
 0001:00062f17       __unwindfunclet$?LegitAimbot@CAimBot@@AAEXPAUusercmd_s@@@Z$7 10063f17 f   Aimbot.obj
 0001:00062f1f       __unwindfunclet$?LegitAimbot@CAimBot@@AAEXPAUusercmd_s@@@Z$8 10063f1f f   Aimbot.obj
 0001:00062f27       __unwindfunclet$?LegitAimbot@CAimBot@@AAEXPAUusercmd_s@@@Z$9 10063f27 f   Aimbot.obj
 0001:00062f2f       __unwindfunclet$?LegitAimbot@CAimBot@@AAEXPAUusercmd_s@@@Z$10 10063f2f f   Aimbot.obj
 0001:00062f3a       __unwindfunclet$?LegitAimbot@CAimBot@@AAEXPAUusercmd_s@@@Z$11 10063f3a f   Aimbot.obj
 0001:00062f45       __unwindfunclet$?LegitAimbot@CAimBot@@AAEXPAUusercmd_s@@@Z$12 10063f45 f   Aimbot.obj
 0001:00062f4d       __unwindfunclet$?LegitAimbot@CAimBot@@AAEXPAUusercmd_s@@@Z$13 10063f4d f   Aimbot.obj
 0001:00062f58       __unwindfunclet$?LegitAimbot@CAimBot@@AAEXPAUusercmd_s@@@Z$14 10063f58 f   Aimbot.obj
 0001:00062f63       __unwindfunclet$?LegitAimbot@CAimBot@@AAEXPAUusercmd_s@@@Z$15 10063f63 f   Aimbot.obj
 0001:00062f6e       __unwindfunclet$?LegitAimbot@CAimBot@@AAEXPAUusercmd_s@@@Z$17 10063f6e f   Aimbot.obj
 0001:00062f76       __unwindfunclet$?LegitAimbot@CAimBot@@AAEXPAUusercmd_s@@@Z$18 10063f76 f   Aimbot.obj
 0001:00062f7e       __unwindfunclet$?LegitAimbot@CAimBot@@AAEXPAUusercmd_s@@@Z$19 10063f7e f   Aimbot.obj
 0001:00062f89       __unwindfunclet$?LegitAimbot@CAimBot@@AAEXPAUusercmd_s@@@Z$20 10063f89 f   Aimbot.obj
 0001:00062f94       __unwindfunclet$?LegitAimbot@CAimBot@@AAEXPAUusercmd_s@@@Z$21 10063f94 f   Aimbot.obj
 0001:00062f9f       __unwindfunclet$?LegitAimbot@CAimBot@@AAEXPAUusercmd_s@@@Z$23 10063f9f f   Aimbot.obj
 0001:00062faa       __unwindfunclet$?LegitAimbot@CAimBot@@AAEXPAUusercmd_s@@@Z$24 10063faa f   Aimbot.obj
 0001:00062fb5       __unwindfunclet$?LegitAimbot@CAimBot@@AAEXPAUusercmd_s@@@Z$25 10063fb5 f   Aimbot.obj
 0001:00062fc0       __unwindfunclet$?LegitAimbot@CAimBot@@AAEXPAUusercmd_s@@@Z$26 10063fc0 f   Aimbot.obj
 0001:00062fcb       __unwindfunclet$?LegitAimbot@CAimBot@@AAEXPAUusercmd_s@@@Z$27 10063fcb f   Aimbot.obj
 0001:00062fd6       __unwindfunclet$?LegitAimbot@CAimBot@@AAEXPAUusercmd_s@@@Z$29 10063fd6 f   Aimbot.obj
 0001:00062fe1       __unwindfunclet$?LegitAimbot@CAimBot@@AAEXPAUusercmd_s@@@Z$30 10063fe1 f   Aimbot.obj
 0001:00062fec       __unwindfunclet$?LegitAimbot@CAimBot@@AAEXPAUusercmd_s@@@Z$31 10063fec f   Aimbot.obj
 0001:00062ff7       __unwindfunclet$?LegitAimbot@CAimBot@@AAEXPAUusercmd_s@@@Z$32 10063ff7 f   Aimbot.obj
 0001:00063007       __ehhandler$?LegitAimbot@CAimBot@@AAEXPAUusercmd_s@@@Z 10064007 f   Aimbot.obj
 0001:00063040       __unwindfunclet$?RageAimbot@CAimBot@@AAEXPAUusercmd_s@@@Z$0 10064040 f   Aimbot.obj
 0001:00063048       __unwindfunclet$?RageAimbot@CAimBot@@AAEXPAUusercmd_s@@@Z$1 10064048 f   Aimbot.obj
 0001:00063050       __unwindfunclet$?RageAimbot@CAimBot@@AAEXPAUusercmd_s@@@Z$2 10064050 f   Aimbot.obj
 0001:00063058       __unwindfunclet$?RageAimbot@CAimBot@@AAEXPAUusercmd_s@@@Z$3 10064058 f   Aimbot.obj
 0001:00063060       __unwindfunclet$?RageAimbot@CAimBot@@AAEXPAUusercmd_s@@@Z$4 10064060 f   Aimbot.obj
 0001:00063068       __unwindfunclet$?RageAimbot@CAimBot@@AAEXPAUusercmd_s@@@Z$5 10064068 f   Aimbot.obj
 0001:00063078       __ehhandler$?RageAimbot@CAimBot@@AAEXPAUusercmd_s@@@Z 10064078 f   Aimbot.obj
 0001:000630b0       __ehhandler$?_Tidy@?$deque@IV?$allocator@I@std@@@std@@AAEXXZ 100640b0 f   Aimbot.obj
 0001:000630b0       __ehhandler$?_Tidy@?$deque@Umy_sound_t@@V?$allocator@Umy_sound_t@@@std@@@std@@AAEXXZ 100640b0 f   Sounds.obj
 0001:000630b0       __ehhandler$?_Tidy@?$deque@VVector@@V?$allocator@VVector@@@std@@@std@@AAEXXZ 100640b0 f   Visuals.obj
 0001:000630e0       __ehhandler$?pop_back@?$deque@IV?$allocator@I@std@@@std@@QAEXXZ 100640e0 f   Aimbot.obj
 0001:000630e0       __ehhandler$?_Tidy@?$vector@V?$basic_config@Ujson_args@configor@@@configor@@V?$allocator@V?$basic_config@Ujson_args@configor@@@configor@@@std@@@std@@AAEXXZ 100640e0 f   Pipi_edit.obj
 0001:000630e0       __ehhandler$?pop_back@?$deque@Umy_sound_t@@V?$allocator@Umy_sound_t@@@std@@@std@@QAEXXZ 100640e0 f   Sounds.obj
 0001:000630e0       __ehhandler$?pop_back@?$deque@VVector@@V?$allocator@VVector@@@std@@@std@@QAEXXZ 100640e0 f   Visuals.obj
 0001:000630e0       __ehhandler$?pop_front@?$deque@Umy_sound_t@@V?$allocator@Umy_sound_t@@@std@@@std@@QAEXXZ 100640e0 f   Visuals.obj
 0001:00063100       __ehhandler$??$_Deallocate@$07$0A@@std@@YAXPAXI@Z 10064100 f   Aimbot.obj
 0001:00063100       __ehhandler$??$_Deallocate_plain@V?$allocator@U_Container_proxy@std@@@std@@@std@@YAXAAV?$allocator@U_Container_proxy@std@@@0@QAU_Container_proxy@0@@Z 10064100 f   Aimbot.obj
 0001:00063100       __ehhandler$??$_Destroy_range@V?$allocator@V?$basic_config@Ujson_args@configor@@@configor@@@std@@@std@@YAXPAV?$basic_config@Ujson_args@configor@@@configor@@QAV12@AAV?$allocator@V?$basic_config@Ujson_args@configor@@@configor@@@0@@Z 10064100 f   Pipi_edit.obj
 0001:00063100       __ehhandler$??$_Freenode0@V?$allocator@U?$_Tree_node@U?$pair@$$CBV?$basic_string@DU?$char_traits@D@std@@V?$allocator@D@2@@std@@V?$basic_config@Ujson_args@configor@@@configor@@@std@@PAX@std@@@std@@@?$_Tree_node@U?$pair@$$CBV?$basic_string@DU?$char_traits@D@std@@V?$allocator@D@2@@std@@V?$basic_config@Ujson_args@configor@@@configor@@@std@@PAX@std@@SAXAAV?$allocator@U?$_Tree_node@U?$pair@$$CBV?$basic_string@DU?$char_traits@D@std@@V?$allocator@D@2@@std@@V?$basic_config@Ujson_args@configor@@@configor@@@std@@PAX@std@@@1@PAU01@@Z 10064100 f   Pipi_edit.obj
 0001:00063100       __ehhandler$??$_Freenode@V?$allocator@U?$_Tree_node@U?$pair@$$CBV?$basic_string@DU?$char_traits@D@std@@V?$allocator@D@2@@std@@V?$basic_config@Ujson_args@configor@@@configor@@@std@@PAX@std@@@std@@@?$_Tree_node@U?$pair@$$CBV?$basic_string@DU?$char_traits@D@std@@V?$allocator@D@2@@std@@V?$basic_config@Ujson_args@configor@@@configor@@@std@@PAX@std@@SAXAAV?$allocator@U?$_Tree_node@U?$pair@$$CBV?$basic_string@DU?$char_traits@D@std@@V?$allocator@D@2@@std@@V?$basic_config@Ujson_args@configor@@@configor@@@std@@PAX@std@@@1@PAU01@@Z 10064100 f   Pipi_edit.obj
 0001:00063120       __unwindfunclet$??$_Uninitialized_copy_unchecked@PAPAIPAPAI@std@@YAPAPAIPAPAIQAPAI0@Z$0 10064120 f   Aimbot.obj
 0001:00063120       __unwindfunclet$??$_Uninitialized_copy_unchecked@PAPAUmy_sound_t@@PAPAU1@@std@@YAPAPAUmy_sound_t@@PAPAU1@QAPAU1@0@Z$0 10064120 f   Sounds.obj
 0001:00063120       __unwindfunclet$??$_Uninitialized_copy_unchecked@PAPAVVector@@PAPAV1@@std@@YAPAPAVVector@@PAPAV1@QAPAV1@0@Z$0 10064120 f   Visuals.obj
 0001:0006312d       __ehhandler$??$_Uninitialized_copy_unchecked@PAPAIPAPAI@std@@YAPAPAIPAPAIQAPAI0@Z 1006412d f   Aimbot.obj
 0001:0006312d       __ehhandler$??$_Uninitialized_copy_unchecked@PAPAUmy_sound_t@@PAPAU1@@std@@YAPAPAUmy_sound_t@@PAPAU1@QAPAU1@0@Z 1006412d f   Sounds.obj
 0001:0006312d       __ehhandler$??$_Uninitialized_copy_unchecked@PAPAVVector@@PAPAV1@@std@@YAPAPAVVector@@PAPAV1@QAPAV1@0@Z 1006412d f   Visuals.obj
 0001:00063160       __unwindfunclet$?LoadCvars@CFunctions@@QAEXXZ$0 10064160 f   Cvars.obj
 0001:0006316d       __ehhandler$?LoadCvars@CFunctions@@QAEXXZ 1006416d f   Cvars.obj
 0001:000631a0       __unwindfunclet$??0?$basic_string@DU?$char_traits@D@std@@V?$allocator@D@2@@std@@QAE@QBD@Z$0 100641a0 f   Cvars.obj
 0001:000631a0       __unwindfunclet$??0?$basic_string@DU?$char_traits@D@std@@V?$allocator@D@2@@std@@QAE@ABV01@@Z$0 100641a0 f   Menu.obj
 0001:000631a0       __unwindfunclet$??0?$basic_string@DU?$char_traits@D@std@@V?$allocator@D@2@@std@@QAE@QBDI@Z$0 100641a0 f   Menu.obj
 0001:000631a0       __unwindfunclet$??0?$basic_string@DU?$char_traits@D@std@@V?$allocator@D@2@@std@@QAE@ID@Z$0 100641a0 f   Pipi_edit.obj
 0001:000631a0       __unwindfunclet$??$?0V?$istreambuf_iterator@DU?$char_traits@D@std@@@std@@$0A@@?$basic_string@DU?$char_traits@D@std@@V?$allocator@D@2@@std@@QAE@V?$istreambuf_iterator@DU?$char_traits@D@std@@@1@0ABV?$allocator@D@1@@Z$0 100641a0 f   World.obj
 0001:000631a0       __unwindfunclet$??0?$basic_string@DU?$char_traits@D@std@@V?$allocator@D@2@@std@@QAE@ABV01@IIABV?$allocator@D@1@@Z$0 100641a0 f   World.obj
 0001:000631ad       __ehhandler$??0?$basic_string@DU?$char_traits@D@std@@V?$allocator@D@2@@std@@QAE@QBD@Z 100641ad f   Cvars.obj
 0001:000631ad       __ehhandler$??0?$basic_string@DU?$char_traits@D@std@@V?$allocator@D@2@@std@@QAE@ABV01@@Z 100641ad f   Menu.obj
 0001:000631ad       __ehhandler$??0?$basic_string@DU?$char_traits@D@std@@V?$allocator@D@2@@std@@QAE@QBDI@Z 100641ad f   Menu.obj
 0001:000631ad       __ehhandler$??0?$basic_string@DU?$char_traits@D@std@@V?$allocator@D@2@@std@@QAE@ID@Z 100641ad f   Pipi_edit.obj
 0001:000631ad       __ehhandler$??$?0V?$istreambuf_iterator@DU?$char_traits@D@std@@@std@@$0A@@?$basic_string@DU?$char_traits@D@std@@V?$allocator@D@2@@std@@QAE@V?$istreambuf_iterator@DU?$char_traits@D@std@@@1@0ABV?$allocator@D@1@@Z 100641ad f   World.obj
 0001:000631ad       __ehhandler$??0?$basic_string@DU?$char_traits@D@std@@V?$allocator@D@2@@std@@QAE@ABV01@IIABV?$allocator@D@1@@Z 100641ad f   World.obj
 0001:000631e0       __ehhandler$?_Tidy_deallocate@?$basic_string@DU?$char_traits@D@std@@V?$allocator@D@2@@std@@AAEXXZ 100641e0 f   Cvars.obj
 0001:00063200       __unwindfunclet$?FakeLag@CMisc@@QAEXPAUusercmd_s@@@Z$0 10064200 f   Misc.obj
 0001:0006320d       __ehhandler$?FakeLag@CMisc@@QAEXPAUusercmd_s@@@Z 1006420d f   Misc.obj
 0001:00063240       __unwindfunclet$?FakeEdge@CMisc@@QAE_NAAM@Z$0 10064240 f   Misc.obj
 0001:00063248       __unwindfunclet$?FakeEdge@CMisc@@QAE_NAAM@Z$1 10064248 f   Misc.obj
 0001:00063250       __unwindfunclet$?FakeEdge@CMisc@@QAE_NAAM@Z$2 10064250 f   Misc.obj
 0001:0006325d       __ehhandler$?FakeEdge@CMisc@@QAE_NAAM@Z 1006425d f   Misc.obj
 0001:00063290       __unwindfunclet$?AntiAim@CMisc@@QAEXPAUusercmd_s@@@Z$0 10064290 f   Misc.obj
 0001:00063298       __unwindfunclet$?AntiAim@CMisc@@QAEXPAUusercmd_s@@@Z$1 10064298 f   Misc.obj
 0001:000632a5       __ehhandler$?AntiAim@CMisc@@QAEXPAUusercmd_s@@@Z 100642a5 f   Misc.obj
 0001:000632d0       __unwindfunclet$?GetSpreadOffset@CNoSpread@@QAEXIHPAM0@Z$0 100642d0 f   NoSpread.obj
 0001:000632db       __unwindfunclet$?GetSpreadOffset@CNoSpread@@QAEXIHPAM0@Z$1 100642db f   NoSpread.obj
 0001:000632e3       __unwindfunclet$?GetSpreadOffset@CNoSpread@@QAEXIHPAM0@Z$2 100642e3 f   NoSpread.obj
 0001:000632ee       __unwindfunclet$?GetSpreadOffset@CNoSpread@@QAEXIHPAM0@Z$3 100642ee f   NoSpread.obj
 0001:000632f9       __unwindfunclet$?GetSpreadOffset@CNoSpread@@QAEXIHPAM0@Z$4 100642f9 f   NoSpread.obj
 0001:00063301       __unwindfunclet$?GetSpreadOffset@CNoSpread@@QAEXIHPAM0@Z$5 10064301 f   NoSpread.obj
 0001:0006330c       __unwindfunclet$?GetSpreadOffset@CNoSpread@@QAEXIHPAM0@Z$6 1006430c f   NoSpread.obj
 0001:00063317       __unwindfunclet$?GetSpreadOffset@CNoSpread@@QAEXIHPAM0@Z$7 10064317 f   NoSpread.obj
 0001:0006331f       __unwindfunclet$?GetSpreadOffset@CNoSpread@@QAEXIHPAM0@Z$8 1006431f f   NoSpread.obj
 0001:00063327       __unwindfunclet$?GetSpreadOffset@CNoSpread@@QAEXIHPAM0@Z$9 10064327 f   NoSpread.obj
 0001:0006332f       __unwindfunclet$?GetSpreadOffset@CNoSpread@@QAEXIHPAM0@Z$10 1006432f f   NoSpread.obj
 0001:00063337       __unwindfunclet$?GetSpreadOffset@CNoSpread@@QAEXIHPAM0@Z$11 10064337 f   NoSpread.obj
 0001:00063342       __unwindfunclet$?GetSpreadOffset@CNoSpread@@QAEXIHPAM0@Z$12 10064342 f   NoSpread.obj
 0001:0006334a       __unwindfunclet$?GetSpreadOffset@CNoSpread@@QAEXIHPAM0@Z$13 1006434a f   NoSpread.obj
 0001:00063352       __unwindfunclet$?GetSpreadOffset@CNoSpread@@QAEXIHPAM0@Z$14 10064352 f   NoSpread.obj
 0001:0006335d       __unwindfunclet$?GetSpreadOffset@CNoSpread@@QAEXIHPAM0@Z$15 1006435d f   NoSpread.obj
 0001:00063368       __unwindfunclet$?GetSpreadOffset@CNoSpread@@QAEXIHPAM0@Z$16 10064368 f   NoSpread.obj
 0001:00063373       __unwindfunclet$?GetSpreadOffset@CNoSpread@@QAEXIHPAM0@Z$17 10064373 f   NoSpread.obj
 0001:0006337e       __unwindfunclet$?GetSpreadOffset@CNoSpread@@QAEXIHPAM0@Z$18 1006437e f   NoSpread.obj
 0001:00063389       __unwindfunclet$?GetSpreadOffset@CNoSpread@@QAEXIHPAM0@Z$19 10064389 f   NoSpread.obj
 0001:00063394       __unwindfunclet$?GetSpreadOffset@CNoSpread@@QAEXIHPAM0@Z$20 10064394 f   NoSpread.obj
 0001:0006339f       __unwindfunclet$?GetSpreadOffset@CNoSpread@@QAEXIHPAM0@Z$21 1006439f f   NoSpread.obj
 0001:000633aa       __unwindfunclet$?GetSpreadOffset@CNoSpread@@QAEXIHPAM0@Z$22 100643aa f   NoSpread.obj
 0001:000633b5       __unwindfunclet$?GetSpreadOffset@CNoSpread@@QAEXIHPAM0@Z$23 100643b5 f   NoSpread.obj
 0001:000633c0       __unwindfunclet$?GetSpreadOffset@CNoSpread@@QAEXIHPAM0@Z$24 100643c0 f   NoSpread.obj
 0001:000633cb       __unwindfunclet$?GetSpreadOffset@CNoSpread@@QAEXIHPAM0@Z$25 100643cb f   NoSpread.obj
 0001:000633d6       __unwindfunclet$?GetSpreadOffset@CNoSpread@@QAEXIHPAM0@Z$26 100643d6 f   NoSpread.obj
 0001:000633e1       __unwindfunclet$?GetSpreadOffset@CNoSpread@@QAEXIHPAM0@Z$27 100643e1 f   NoSpread.obj
 0001:000633ec       __unwindfunclet$?GetSpreadOffset@CNoSpread@@QAEXIHPAM0@Z$28 100643ec f   NoSpread.obj
 0001:000633f7       __unwindfunclet$?GetSpreadOffset@CNoSpread@@QAEXIHPAM0@Z$29 100643f7 f   NoSpread.obj
 0001:00063402       __unwindfunclet$?GetSpreadOffset@CNoSpread@@QAEXIHPAM0@Z$30 10064402 f   NoSpread.obj
 0001:0006340d       __unwindfunclet$?GetSpreadOffset@CNoSpread@@QAEXIHPAM0@Z$31 1006440d f   NoSpread.obj
 0001:00063418       __unwindfunclet$?GetSpreadOffset@CNoSpread@@QAEXIHPAM0@Z$32 10064418 f   NoSpread.obj
 0001:00063423       __unwindfunclet$?GetSpreadOffset@CNoSpread@@QAEXIHPAM0@Z$33 10064423 f   NoSpread.obj
 0001:0006342e       __unwindfunclet$?GetSpreadOffset@CNoSpread@@QAEXIHPAM0@Z$34 1006442e f   NoSpread.obj
 0001:00063439       __unwindfunclet$?GetSpreadOffset@CNoSpread@@QAEXIHPAM0@Z$35 10064439 f   NoSpread.obj
 0001:00063444       __unwindfunclet$?GetSpreadOffset@CNoSpread@@QAEXIHPAM0@Z$36 10064444 f   NoSpread.obj
 0001:0006344f       __unwindfunclet$?GetSpreadOffset@CNoSpread@@QAEXIHPAM0@Z$37 1006444f f   NoSpread.obj
 0001:0006345a       __unwindfunclet$?GetSpreadOffset@CNoSpread@@QAEXIHPAM0@Z$38 1006445a f   NoSpread.obj
 0001:00063465       __unwindfunclet$?GetSpreadOffset@CNoSpread@@QAEXIHPAM0@Z$39 10064465 f   NoSpread.obj
 0001:00063470       __unwindfunclet$?GetSpreadOffset@CNoSpread@@QAEXIHPAM0@Z$40 10064470 f   NoSpread.obj
 0001:00063478       __unwindfunclet$?GetSpreadOffset@CNoSpread@@QAEXIHPAM0@Z$41 10064478 f   NoSpread.obj
 0001:00063483       __unwindfunclet$?GetSpreadOffset@CNoSpread@@QAEXIHPAM0@Z$42 10064483 f   NoSpread.obj
 0001:0006348e       __unwindfunclet$?GetSpreadOffset@CNoSpread@@QAEXIHPAM0@Z$43 1006448e f   NoSpread.obj
 0001:00063499       __unwindfunclet$?GetSpreadOffset@CNoSpread@@QAEXIHPAM0@Z$44 10064499 f   NoSpread.obj
 0001:000634a4       __unwindfunclet$?GetSpreadOffset@CNoSpread@@QAEXIHPAM0@Z$45 100644a4 f   NoSpread.obj
 0001:000634af       __unwindfunclet$?GetSpreadOffset@CNoSpread@@QAEXIHPAM0@Z$46 100644af f   NoSpread.obj
 0001:000634ba       __unwindfunclet$?GetSpreadOffset@CNoSpread@@QAEXIHPAM0@Z$47 100644ba f   NoSpread.obj
 0001:000634c5       __unwindfunclet$?GetSpreadOffset@CNoSpread@@QAEXIHPAM0@Z$48 100644c5 f   NoSpread.obj
 0001:000634d5       __ehhandler$?GetSpreadOffset@CNoSpread@@QAEXIHPAM0@Z 100644d5 f   NoSpread.obj
 0001:00063500       __unwindfunclet$?CL_CreateMove@CNoSpread@@QAEXPAUusercmd_s@@@Z$0 10064500 f   NoSpread.obj
 0001:00063508       __unwindfunclet$?CL_CreateMove@CNoSpread@@QAEXPAUusercmd_s@@@Z$1 10064508 f   NoSpread.obj
 0001:00063515       __ehhandler$?CL_CreateMove@CNoSpread@@QAEXPAUusercmd_s@@@Z 10064515 f   NoSpread.obj
 0001:00063540       __unwindfunclet$?DrawSpread@CNoSpread@@QAEXXZ$0 10064540 f   NoSpread.obj
 0001:00063548       __unwindfunclet$?DrawSpread@CNoSpread@@QAEXXZ$1 10064548 f   NoSpread.obj
 0001:00063550       __unwindfunclet$?DrawSpread@CNoSpread@@QAEXXZ$2 10064550 f   NoSpread.obj
 0001:00063558       __unwindfunclet$?DrawSpread@CNoSpread@@QAEXXZ$3 10064558 f   NoSpread.obj
 0001:00063560       __unwindfunclet$?DrawSpread@CNoSpread@@QAEXXZ$4 10064560 f   NoSpread.obj
 0001:0006356b       __unwindfunclet$?DrawSpread@CNoSpread@@QAEXXZ$5 1006456b f   NoSpread.obj
 0001:00063576       __unwindfunclet$?DrawSpread@CNoSpread@@QAEXXZ$6 10064576 f   NoSpread.obj
 0001:00063586       __ehhandler$?DrawSpread@CNoSpread@@QAEXXZ 10064586 f   NoSpread.obj
 0001:000635b0       __unwindfunclet$?isGoodJump@@YA_NXZ$0 100645b0 f   Systems.obj
 0001:000635b8       __unwindfunclet$?isGoodJump@@YA_NXZ$1 100645b8 f   Systems.obj
 0001:000635c0       __unwindfunclet$?isGoodJump@@YA_NXZ$2 100645c0 f   Systems.obj
 0001:000635cd       __ehhandler$?isGoodJump@@YA_NXZ 100645cd f   Systems.obj
 0001:00063600       __unwindfunclet$?isBadJump@@YA_NXZ$0 10064600 f   Systems.obj
 0001:00063608       __unwindfunclet$?isBadJump@@YA_NXZ$1 10064608 f   Systems.obj
 0001:00063615       __ehhandler$?isBadJump@@YA_NXZ 10064615 f   Systems.obj
 0001:00063640       __unwindfunclet$?asdfg@@YA_NH@Z$0 10064640 f   Systems.obj
 0001:00063648       __unwindfunclet$?asdfg@@YA_NH@Z$1 10064648 f   Systems.obj
 0001:00063650       __unwindfunclet$?asdfg@@YA_NH@Z$2 10064650 f   Systems.obj
 0001:00063658       __unwindfunclet$?asdfg@@YA_NH@Z$3 10064658 f   Systems.obj
 0001:00063660       __unwindfunclet$?asdfg@@YA_NH@Z$4 10064660 f   Systems.obj
 0001:00063670       __ehhandler$?asdfg@@YA_NH@Z 10064670 f   Systems.obj
 0001:000636a0       __unwindfunclet$?KnifeBot@CSystems@@QAEXPAUusercmd_s@@@Z$0 100646a0 f   Systems.obj
 0001:000636ab       __unwindfunclet$?KnifeBot@CSystems@@QAEXPAUusercmd_s@@@Z$1 100646ab f   Systems.obj
 0001:000636b3       __unwindfunclet$?KnifeBot@CSystems@@QAEXPAUusercmd_s@@@Z$2 100646b3 f   Systems.obj
 0001:000636bb       __unwindfunclet$?KnifeBot@CSystems@@QAEXPAUusercmd_s@@@Z$3 100646bb f   Systems.obj
 0001:000636c3       __unwindfunclet$?KnifeBot@CSystems@@QAEXPAUusercmd_s@@@Z$4 100646c3 f   Systems.obj
 0001:000636cb       __unwindfunclet$?KnifeBot@CSystems@@QAEXPAUusercmd_s@@@Z$5 100646cb f   Systems.obj
 0001:000636d3       __unwindfunclet$?KnifeBot@CSystems@@QAEXPAUusercmd_s@@@Z$6 100646d3 f   Systems.obj
 0001:000636e3       __ehhandler$?KnifeBot@CSystems@@QAEXPAUusercmd_s@@@Z 100646e3 f   Systems.obj
 0001:00063710       __unwindfunclet$?AutoStrafe@CSystems@@QAEXPAUusercmd_s@@M@Z$0 10064710 f   Systems.obj
 0001:0006371d       __ehhandler$?AutoStrafe@CSystems@@QAEXPAUusercmd_s@@M@Z 1006471d f   Systems.obj
 0001:00063750       __unwindfunclet$??0CUtils@@QAE@XZ$0 10064750 f   Utils.obj
 0001:00063758       __unwindfunclet$??0CUtils@@QAE@XZ$1 10064758 f   Utils.obj
 0001:00063763       __unwindfunclet$??0CUtils@@QAE@XZ$2 10064763 f   Utils.obj
 0001:0006376e       __unwindfunclet$??0CUtils@@QAE@XZ$3 1006476e f   Utils.obj
 0001:00063779       __unwindfunclet$??0CUtils@@QAE@XZ$4 10064779 f   Utils.obj
 0001:00063789       __ehhandler$??0CUtils@@QAE@XZ 10064789 f   Utils.obj
 0001:000637b0       __unwindfunclet$?UTIL_TextureHit@@YAXVVector@@00HAAUpmtrace_s@@@Z$0 100647b0 f   Utils.obj
 0001:000637b8       __unwindfunclet$?UTIL_TextureHit@@YAXVVector@@00HAAUpmtrace_s@@@Z$1 100647b8 f   Utils.obj
 0001:000637c0       __unwindfunclet$?UTIL_TextureHit@@YAXVVector@@00HAAUpmtrace_s@@@Z$2 100647c0 f   Utils.obj
 0001:000637c8       __unwindfunclet$?UTIL_TextureHit@@YAXVVector@@00HAAUpmtrace_s@@@Z$3 100647c8 f   Utils.obj
 0001:000637d0       __unwindfunclet$?UTIL_TextureHit@@YAXVVector@@00HAAUpmtrace_s@@@Z$4 100647d0 f   Utils.obj
 0001:000637d8       __unwindfunclet$?UTIL_TextureHit@@YAXVVector@@00HAAUpmtrace_s@@@Z$5 100647d8 f   Utils.obj
 0001:000637e0       __unwindfunclet$?UTIL_TextureHit@@YAXVVector@@00HAAUpmtrace_s@@@Z$6 100647e0 f   Utils.obj
 0001:000637ed       __ehhandler$?UTIL_TextureHit@@YAXVVector@@00HAAUpmtrace_s@@@Z 100647ed f   Utils.obj
 0001:00063820       __unwindfunclet$?FireBullets@CUtils@@QAEHVVector@@0MHHHM@Z$0 10064820 f   Utils.obj
 0001:00063828       __unwindfunclet$?FireBullets@CUtils@@QAEHVVector@@0MHHHM@Z$1 10064828 f   Utils.obj
 0001:00063830       __unwindfunclet$?FireBullets@CUtils@@QAEHVVector@@0MHHHM@Z$2 10064830 f   Utils.obj
 0001:00063838       __unwindfunclet$?FireBullets@CUtils@@QAEHVVector@@0MHHHM@Z$3 10064838 f   Utils.obj
 0001:00063840       __unwindfunclet$?FireBullets@CUtils@@QAEHVVector@@0MHHHM@Z$4 10064840 f   Utils.obj
 0001:00063848       __unwindfunclet$?FireBullets@CUtils@@QAEHVVector@@0MHHHM@Z$5 10064848 f   Utils.obj
 0001:00063850       __unwindfunclet$?FireBullets@CUtils@@QAEHVVector@@0MHHHM@Z$6 10064850 f   Utils.obj
 0001:0006385b       __unwindfunclet$?FireBullets@CUtils@@QAEHVVector@@0MHHHM@Z$7 1006485b f   Utils.obj
 0001:00063866       __unwindfunclet$?FireBullets@CUtils@@QAEHVVector@@0MHHHM@Z$8 10064866 f   Utils.obj
 0001:00063871       __unwindfunclet$?FireBullets@CUtils@@QAEHVVector@@0MHHHM@Z$9 10064871 f   Utils.obj
 0001:0006387c       __unwindfunclet$?FireBullets@CUtils@@QAEHVVector@@0MHHHM@Z$10 1006487c f   Utils.obj
 0001:00063887       __unwindfunclet$?FireBullets@CUtils@@QAEHVVector@@0MHHHM@Z$11 10064887 f   Utils.obj
 0001:00063892       __unwindfunclet$?FireBullets@CUtils@@QAEHVVector@@0MHHHM@Z$13 10064892 f   Utils.obj
 0001:0006389d       __unwindfunclet$?FireBullets@CUtils@@QAEHVVector@@0MHHHM@Z$14 1006489d f   Utils.obj
 0001:000638a8       __unwindfunclet$?FireBullets@CUtils@@QAEHVVector@@0MHHHM@Z$15 100648a8 f   Utils.obj
 0001:000638b3       __unwindfunclet$?FireBullets@CUtils@@QAEHVVector@@0MHHHM@Z$16 100648b3 f   Utils.obj
 0001:000638be       __unwindfunclet$?FireBullets@CUtils@@QAEHVVector@@0MHHHM@Z$17 100648be f   Utils.obj
 0001:000638c9       __unwindfunclet$?FireBullets@CUtils@@QAEHVVector@@0MHHHM@Z$18 100648c9 f   Utils.obj
 0001:000638d4       __unwindfunclet$?FireBullets@CUtils@@QAEHVVector@@0MHHHM@Z$19 100648d4 f   Utils.obj
 0001:000638df       __unwindfunclet$?FireBullets@CUtils@@QAEHVVector@@0MHHHM@Z$20 100648df f   Utils.obj
 0001:000638ea       __unwindfunclet$?FireBullets@CUtils@@QAEHVVector@@0MHHHM@Z$21 100648ea f   Utils.obj
 0001:000638f5       __unwindfunclet$?FireBullets@CUtils@@QAEHVVector@@0MHHHM@Z$22 100648f5 f   Utils.obj
 0001:00063900       __unwindfunclet$?FireBullets@CUtils@@QAEHVVector@@0MHHHM@Z$23 10064900 f   Utils.obj
 0001:00063910       __ehhandler$?FireBullets@CUtils@@QAEHVVector@@0MHHHM@Z 10064910 f   Utils.obj
 0001:00063940       __unwindfunclet$?bPathFree@CUtils@@QAE_NPAM0@Z$0 10064940 f   Utils.obj
 0001:0006394d       __ehhandler$?bPathFree@CUtils@@QAE_NPAM0@Z 1006494d f   Utils.obj
 0001:00063980       __unwindfunclet$?FixMoveStart@CUtils@@QAEXPAUusercmd_s@@@Z$0 10064980 f   Utils.obj
 0001:0006398d       __ehhandler$?FixMoveStart@CUtils@@QAEXPAUusercmd_s@@@Z 1006498d f   Utils.obj
 0001:000639b0       __unwindfunclet$?FixMoveEnd@CUtils@@QAEXPAUusercmd_s@@@Z$0 100649b0 f   Utils.obj
 0001:000639bb       __unwindfunclet$?FixMoveEnd@CUtils@@QAEXPAUusercmd_s@@@Z$1 100649bb f   Utils.obj
 0001:000639c3       __unwindfunclet$?FixMoveEnd@CUtils@@QAEXPAUusercmd_s@@@Z$2 100649c3 f   Utils.obj
 0001:000639cb       __unwindfunclet$?FixMoveEnd@CUtils@@QAEXPAUusercmd_s@@@Z$3 100649cb f   Utils.obj
 0001:000639d3       __unwindfunclet$?FixMoveEnd@CUtils@@QAEXPAUusercmd_s@@@Z$4 100649d3 f   Utils.obj
 0001:000639db       __unwindfunclet$?FixMoveEnd@CUtils@@QAEXPAUusercmd_s@@@Z$5 100649db f   Utils.obj
 0001:000639e3       __unwindfunclet$?FixMoveEnd@CUtils@@QAEXPAUusercmd_s@@@Z$6 100649e3 f   Utils.obj
 0001:000639f0       __ehhandler$?FixMoveEnd@CUtils@@QAEXPAUusercmd_s@@@Z 100649f0 f   Utils.obj
 0001:00063a20       __unwindfunclet$?GetFirstNonSolidPoint@CUtils@@QAEXABVVector@@0AAV2@@Z$0 10064a20 f   Utils.obj
 0001:00063a28       __unwindfunclet$?GetFirstNonSolidPoint@CUtils@@QAEXABVVector@@0AAV2@@Z$1 10064a28 f   Utils.obj
 0001:00063a30       __unwindfunclet$?GetFirstNonSolidPoint@CUtils@@QAEXABVVector@@0AAV2@@Z$2 10064a30 f   Utils.obj
 0001:00063a38       __unwindfunclet$?GetFirstNonSolidPoint@CUtils@@QAEXABVVector@@0AAV2@@Z$3 10064a38 f   Utils.obj
 0001:00063a40       __unwindfunclet$?GetFirstNonSolidPoint@CUtils@@QAEXABVVector@@0AAV2@@Z$4 10064a40 f   Utils.obj
 0001:00063a4b       __unwindfunclet$?GetFirstNonSolidPoint@CUtils@@QAEXABVVector@@0AAV2@@Z$5 10064a4b f   Utils.obj
 0001:00063a56       __unwindfunclet$?GetFirstNonSolidPoint@CUtils@@QAEXABVVector@@0AAV2@@Z$6 10064a56 f   Utils.obj
 0001:00063a66       __ehhandler$?GetFirstNonSolidPoint@CUtils@@QAEXABVVector@@0AAV2@@Z 10064a66 f   Utils.obj
 0001:00063a90       __unwindfunclet$?_Makestr@_System_error@std@@CA?AV?$basic_string@DU?$char_traits@D@std@@V?$allocator@D@2@@2@Verror_code@2@V32@@Z$0 10064a90 f   Menu.obj
 0001:00063a98       __unwindfunclet$?_Makestr@_System_error@std@@CA?AV?$basic_string@DU?$char_traits@D@std@@V?$allocator@D@2@@2@Verror_code@2@V32@@Z$1 10064a98 f   Menu.obj
 0001:00063aa5       __ehhandler$?_Makestr@_System_error@std@@CA?AV?$basic_string@DU?$char_traits@D@std@@V?$allocator@D@2@@2@Verror_code@2@V32@@Z 10064aa5 f   Menu.obj
 0001:00063ad0       __unwindfunclet$??0_System_error@std@@IAE@Verror_code@1@ABV?$basic_string@DU?$char_traits@D@std@@V?$allocator@D@2@@1@@Z$1 10064ad0 f   Menu.obj
 0001:00063add       __ehhandler$??0_System_error@std@@IAE@Verror_code@1@ABV?$basic_string@DU?$char_traits@D@std@@V?$allocator@D@2@@1@@Z 10064add f   Menu.obj
 0001:00063b00       __unwindfunclet$??0system_error@std@@QAE@Verror_code@1@PBD@Z$0 10064b00 f   Menu.obj
 0001:00063b0d       __ehhandler$??0system_error@std@@QAE@Verror_code@1@PBD@Z 10064b0d f   Menu.obj
 0001:00063b30       __ehhandler$?_Take_contents@?$basic_string@DU?$char_traits@D@std@@V?$allocator@D@2@@std@@AAEXAAV12@@Z 10064b30 f   Menu.obj
 0001:00063b30       __ehhandler$??1_Sentry_base@?$basic_istream@DU?$char_traits@D@std@@@std@@QAE@XZ 10064b30 f   Pipi_edit.obj
 0001:00063b30       __ehhandler$??1_Sentry_base@?$basic_ostream@DU?$char_traits@D@std@@@std@@QAE@XZ 10064b30 f   Pipi_edit.obj
 0001:00063b50       __unwindfunclet$?PreS_DynamicSound@@YAXHKPADPAMMMHH@Z$0 10064b50 f   Sounds.obj
 0001:00063b5d       __ehhandler$?PreS_DynamicSound@@YAXHKPADPAMMMHH@Z 10064b5d f   Sounds.obj
 0001:00063b90       __unwindfunclet$?DrawHistory@CVisuals@@AAEXH@Z$0 10064b90 f   Visuals.obj
 0001:00063b98       __unwindfunclet$?DrawHistory@CVisuals@@AAEXH@Z$1 10064b98 f   Visuals.obj
 0001:00063ba5       __ehhandler$?DrawHistory@CVisuals@@AAEXH@Z 10064ba5 f   Visuals.obj
 0001:00063bd0       __unwindfunclet$?PenetrationInfo@CVisuals@@AAEXXZ$0 10064bd0 f   Visuals.obj
 0001:00063bd8       __unwindfunclet$?PenetrationInfo@CVisuals@@AAEXXZ$1 10064bd8 f   Visuals.obj
 0001:00063be0       __unwindfunclet$?PenetrationInfo@CVisuals@@AAEXXZ$2 10064be0 f   Visuals.obj
 0001:00063be8       __unwindfunclet$?PenetrationInfo@CVisuals@@AAEXXZ$3 10064be8 f   Visuals.obj
 0001:00063bf3       __unwindfunclet$?PenetrationInfo@CVisuals@@AAEXXZ$4 10064bf3 f   Visuals.obj
 0001:00063bfe       __unwindfunclet$?PenetrationInfo@CVisuals@@AAEXXZ$5 10064bfe f   Visuals.obj
 0001:00063c09       __unwindfunclet$?PenetrationInfo@CVisuals@@AAEXXZ$6 10064c09 f   Visuals.obj
 0001:00063c14       __unwindfunclet$?PenetrationInfo@CVisuals@@AAEXXZ$7 10064c14 f   Visuals.obj
 0001:00063c1f       __unwindfunclet$?PenetrationInfo@CVisuals@@AAEXXZ$8 10064c1f f   Visuals.obj
 0001:00063c2a       __unwindfunclet$?PenetrationInfo@CVisuals@@AAEXXZ$9 10064c2a f   Visuals.obj
 0001:00063c35       __unwindfunclet$?PenetrationInfo@CVisuals@@AAEXXZ$10 10064c35 f   Visuals.obj
 0001:00063c40       __unwindfunclet$?PenetrationInfo@CVisuals@@AAEXXZ$12 10064c40 f   Visuals.obj
 0001:00063c4b       __unwindfunclet$?PenetrationInfo@CVisuals@@AAEXXZ$13 10064c4b f   Visuals.obj
 0001:00063c5b       __ehhandler$?PenetrationInfo@CVisuals@@AAEXXZ 10064c5b f   Visuals.obj
 0001:00063c90       __unwindfunclet$?TraceGrenade@CVisuals@@AAEXXZ$0 10064c90 f   Visuals.obj
 0001:00063c98       __unwindfunclet$?TraceGrenade@CVisuals@@AAEXXZ$1 10064c98 f   Visuals.obj
 0001:00063ca0       __unwindfunclet$?TraceGrenade@CVisuals@@AAEXXZ$2 10064ca0 f   Visuals.obj
 0001:00063ca8       __unwindfunclet$?TraceGrenade@CVisuals@@AAEXXZ$3 10064ca8 f   Visuals.obj
 0001:00063cb0       __unwindfunclet$?TraceGrenade@CVisuals@@AAEXXZ$4 10064cb0 f   Visuals.obj
 0001:00063cb8       __unwindfunclet$?TraceGrenade@CVisuals@@AAEXXZ$5 10064cb8 f   Visuals.obj
 0001:00063cc3       __unwindfunclet$?TraceGrenade@CVisuals@@AAEXXZ$6 10064cc3 f   Visuals.obj
 0001:00063cce       __unwindfunclet$?TraceGrenade@CVisuals@@AAEXXZ$7 10064cce f   Visuals.obj
 0001:00063cd9       __unwindfunclet$?TraceGrenade@CVisuals@@AAEXXZ$8 10064cd9 f   Visuals.obj
 0001:00063ce4       __unwindfunclet$?TraceGrenade@CVisuals@@AAEXXZ$9 10064ce4 f   Visuals.obj
 0001:00063cef       __unwindfunclet$?TraceGrenade@CVisuals@@AAEXXZ$10 10064cef f   Visuals.obj
 0001:00063cfa       __unwindfunclet$?TraceGrenade@CVisuals@@AAEXXZ$11 10064cfa f   Visuals.obj
 0001:00063d05       __unwindfunclet$?TraceGrenade@CVisuals@@AAEXXZ$12 10064d05 f   Visuals.obj
 0001:00063d10       __unwindfunclet$?TraceGrenade@CVisuals@@AAEXXZ$13 10064d10 f   Visuals.obj
 0001:00063d1b       __unwindfunclet$?TraceGrenade@CVisuals@@AAEXXZ$14 10064d1b f   Visuals.obj
 0001:00063d26       __unwindfunclet$?TraceGrenade@CVisuals@@AAEXXZ$15 10064d26 f   Visuals.obj
 0001:00063d31       __unwindfunclet$?TraceGrenade@CVisuals@@AAEXXZ$16 10064d31 f   Visuals.obj
 0001:00063d3c       __unwindfunclet$?TraceGrenade@CVisuals@@AAEXXZ$17 10064d3c f   Visuals.obj
 0001:00063d47       __unwindfunclet$?TraceGrenade@CVisuals@@AAEXXZ$18 10064d47 f   Visuals.obj
 0001:00063d57       __ehhandler$?TraceGrenade@CVisuals@@AAEXXZ 10064d57 f   Visuals.obj
 0001:00063d90       __unwindfunclet$?SoundESP@CVisuals@@AAEXXZ$0 10064d90 f   Visuals.obj
 0001:00063d9d       __ehhandler$?SoundESP@CVisuals@@AAEXXZ 10064d9d f   Visuals.obj
 0001:00063dd0       __unwindfunclet$?PlayerESP@CVisuals@@AAEXI@Z$0 10064dd0 f   Visuals.obj
 0001:00063dd8       __unwindfunclet$?PlayerESP@CVisuals@@AAEXI@Z$1 10064dd8 f   Visuals.obj
 0001:00063de5       __ehhandler$?PlayerESP@CVisuals@@AAEXI@Z 10064de5 f   Visuals.obj
 0001:00063e10       __unwindfunclet$?ScreenESP@CVisuals@@AAEXIEEEE@Z$0 10064e10 f   Visuals.obj
 0001:00063e18       __unwindfunclet$?ScreenESP@CVisuals@@AAEXIEEEE@Z$1 10064e18 f   Visuals.obj
 0001:00063e25       __ehhandler$?ScreenESP@CVisuals@@AAEXIEEEE@Z 10064e25 f   Visuals.obj
 0001:00063e50       __unwindfunclet$?GetAmountOfPlayerVisible@@YAMVVector@@PAUcl_entity_s@@@Z$0 10064e50 f   Visuals.obj
 0001:00063e58       __unwindfunclet$?GetAmountOfPlayerVisible@@YAMVVector@@PAUcl_entity_s@@@Z$1 10064e58 f   Visuals.obj
 0001:00063e63       __unwindfunclet$?GetAmountOfPlayerVisible@@YAMVVector@@PAUcl_entity_s@@@Z$2 10064e63 f   Visuals.obj
 0001:00063e6b       __unwindfunclet$?GetAmountOfPlayerVisible@@YAMVVector@@PAUcl_entity_s@@@Z$3 10064e6b f   Visuals.obj
 0001:00063e76       __unwindfunclet$?GetAmountOfPlayerVisible@@YAMVVector@@PAUcl_entity_s@@@Z$4 10064e76 f   Visuals.obj
 0001:00063e7e       __unwindfunclet$?GetAmountOfPlayerVisible@@YAMVVector@@PAUcl_entity_s@@@Z$5 10064e7e f   Visuals.obj
 0001:00063e86       __unwindfunclet$?GetAmountOfPlayerVisible@@YAMVVector@@PAUcl_entity_s@@@Z$6 10064e86 f   Visuals.obj
 0001:00063e8e       __unwindfunclet$?GetAmountOfPlayerVisible@@YAMVVector@@PAUcl_entity_s@@@Z$7 10064e8e f   Visuals.obj
 0001:00063e99       __unwindfunclet$?GetAmountOfPlayerVisible@@YAMVVector@@PAUcl_entity_s@@@Z$8 10064e99 f   Visuals.obj
 0001:00063ea4       __unwindfunclet$?GetAmountOfPlayerVisible@@YAMVVector@@PAUcl_entity_s@@@Z$9 10064ea4 f   Visuals.obj
 0001:00063eac       __unwindfunclet$?GetAmountOfPlayerVisible@@YAMVVector@@PAUcl_entity_s@@@Z$10 10064eac f   Visuals.obj
 0001:00063eb7       __unwindfunclet$?GetAmountOfPlayerVisible@@YAMVVector@@PAUcl_entity_s@@@Z$11 10064eb7 f   Visuals.obj
 0001:00063ec4       __ehhandler$?GetAmountOfPlayerVisible@@YAMVVector@@PAUcl_entity_s@@@Z 10064ec4 f   Visuals.obj
 0001:00063ef0       __unwindfunclet$?Bomb@CVisuals@@AAEXXZ$0 10064ef0 f   Visuals.obj
 0001:00063ef8       __unwindfunclet$?Bomb@CVisuals@@AAEXXZ$1 10064ef8 f   Visuals.obj
 0001:00063f00       __unwindfunclet$?Bomb@CVisuals@@AAEXXZ$3 10064f00 f   Visuals.obj
 0001:00063f0d       __ehhandler$?Bomb@CVisuals@@AAEXXZ 10064f0d f   Visuals.obj
 0001:00063f40       __unwindfunclet$?DrawFake@CVisuals@@AAEXHH@Z$0 10064f40 f   Visuals.obj
 0001:00063f48       __unwindfunclet$?DrawFake@CVisuals@@AAEXHH@Z$1 10064f48 f   Visuals.obj
 0001:00063f55       __ehhandler$?DrawFake@CVisuals@@AAEXHH@Z 10064f55 f   Visuals.obj
 0001:00063f80       __unwindfunclet$??0_Locinfo@std@@QAE@PBD@Z$0 10064f80 f   World.obj
 0001:00063f88       __unwindfunclet$??0_Locinfo@std@@QAE@PBD@Z$1 10064f88 f   World.obj
 0001:00063f93       __unwindfunclet$??0_Locinfo@std@@QAE@PBD@Z$2 10064f93 f   World.obj
 0001:00063f9e       __unwindfunclet$??0_Locinfo@std@@QAE@PBD@Z$3 10064f9e f   World.obj
 0001:00063fa9       __unwindfunclet$??0_Locinfo@std@@QAE@PBD@Z$4 10064fa9 f   World.obj
 0001:00063fb4       __unwindfunclet$??0_Locinfo@std@@QAE@PBD@Z$5 10064fb4 f   World.obj
 0001:00063fbf       __unwindfunclet$??0_Locinfo@std@@QAE@PBD@Z$6 10064fbf f   World.obj
 0001:00063fcf       __ehhandler$??0_Locinfo@std@@QAE@PBD@Z 10064fcf f   World.obj
 0001:00063ff0       __ehhandler$??0?$basic_config@Ujson_args@configor@@@configor@@QAE@$$QAV01@@Z 10064ff0 f   Pipi_edit.obj
 0001:00063ff0       __ehhandler$??1?$_Alloc_construct_ptr@V?$allocator@U?$_Tree_node@U?$pair@$$CBV?$basic_string@DU?$char_traits@D@std@@V?$allocator@D@2@@std@@V?$basic_config@Ujson_args@configor@@@configor@@@std@@PAX@std@@@std@@@std@@QAE@XZ 10064ff0 f   Pipi_edit.obj
 0001:00063ff0       __ehhandler$??1?$_Tree_temp_node@V?$allocator@U?$_Tree_node@U?$pair@$$CBV?$basic_string@DU?$char_traits@D@std@@V?$allocator@D@2@@std@@V?$basic_config@Ujson_args@configor@@@configor@@@std@@PAX@std@@@std@@@std@@QAE@XZ 10064ff0 f   Pipi_edit.obj
 0001:00063ff0       __ehhandler$??1?$config_value@V?$basic_config@Ujson_args@configor@@@configor@@@detail@configor@@QAE@XZ 10064ff0 f   Pipi_edit.obj
 0001:00063ff0       __ehhandler$??0locale@std@@QAE@XZ 10064ff0 f   World.obj
 0001:00063ff0       __ehhandler$??1?$basic_filebuf@DU?$char_traits@D@std@@@std@@UAE@XZ 10064ff0 f   World.obj
 0001:00063ff0       __ehhandler$??1_Locinfo@std@@QAE@XZ 10064ff0 f   World.obj
 0001:00063ff0       __ehhandler$??1ios_base@std@@UAE@XZ 10064ff0 f   World.obj
 0001:00063ff0       __ehhandler$??1player_extra_info_t@@QAE@XZ 10064ff0 f   World.obj
 0001:00063ff0       __ehhandler$??1_Init_atexit@@QAE@XZ 10064ff0 f   libcpmt:iosptrs.obj
 0001:00064010       __unwindfunclet$??0?$ctype@D@std@@QAE@ABV_Locinfo@1@I@Z$0 10065010 f   World.obj
 0001:0006401d       __ehhandler$??0?$ctype@D@std@@QAE@ABV_Locinfo@1@I@Z 1006501d f   World.obj
 0001:00064040       __unwindfunclet$?_Getcat@?$numpunct@D@std@@SAIPAPBVfacet@locale@2@PBV42@@Z$0 10065040 f   Pipi_edit.obj
 0001:00064040       __unwindfunclet$?_Getcat@?$ctype@D@std@@SAIPAPBVfacet@locale@2@PBV42@@Z$0 10065040 f   World.obj
 0001:0006404f       __unwindfunclet$?_Getcat@?$numpunct@D@std@@SAIPAPBVfacet@locale@2@PBV42@@Z$1 1006504f f   Pipi_edit.obj
 0001:0006404f       __unwindfunclet$?_Getcat@?$ctype@D@std@@SAIPAPBVfacet@locale@2@PBV42@@Z$1 1006504f f   World.obj
 0001:0006406d       __ehhandler$?_Getcat@?$numpunct@D@std@@SAIPAPBVfacet@locale@2@PBV42@@Z 1006506d f   Pipi_edit.obj
 0001:0006406d       __ehhandler$?_Getcat@?$ctype@D@std@@SAIPAPBVfacet@locale@2@PBV42@@Z 1006506d f   World.obj
 0001:00064090       __unwindfunclet$??0CBaseLocal@@QAE@XZ$0 10065090 f   World.obj
 0001:0006409b       __unwindfunclet$??0CBaseLocal@@QAE@XZ$1 1006509b f   World.obj
 0001:000640a6       __unwindfunclet$??0CBaseLocal@@QAE@XZ$2 100650a6 f   World.obj
 0001:000640b1       __unwindfunclet$??0CBaseLocal@@QAE@XZ$3 100650b1 f   World.obj
 0001:000640bc       __unwindfunclet$??0CBaseLocal@@QAE@XZ$4 100650bc f   World.obj
 0001:000640c7       __unwindfunclet$??0CBaseLocal@@QAE@XZ$5 100650c7 f   World.obj
 0001:000640d2       __unwindfunclet$??0CBaseLocal@@QAE@XZ$6 100650d2 f   World.obj
 0001:000640e0       __unwindfunclet$??0CBaseLocal@@QAE@XZ$7 100650e0 f   World.obj
 0001:000640ee       __unwindfunclet$??0CBaseLocal@@QAE@XZ$8 100650ee f   World.obj
 0001:000640fc       __unwindfunclet$??0CBaseLocal@@QAE@XZ$9 100650fc f   World.obj
 0001:0006410f       __ehhandler$??0CBaseLocal@@QAE@XZ 1006510f f   World.obj
 0001:00064130       __unwindfunclet$??0CBasePlayer@@QAE@XZ$0 10065130 f   World.obj
 0001:0006413b       __unwindfunclet$??0CBasePlayer@@QAE@XZ$1 1006513b f   World.obj
 0001:00064146       __unwindfunclet$??0CBasePlayer@@QAE@XZ$2 10065146 f   World.obj
 0001:00064156       __ehhandler$??0CBasePlayer@@QAE@XZ 10065156 f   World.obj
 0001:00064180       __unwindfunclet$??0player_extra_info_t@@QAE@XZ$0 10065180 f   World.obj
 0001:00064196       __unwindfunclet$??0player_extra_info_t@@QAE@XZ$1 10065196 f   World.obj
 0001:000641ae       __unwindfunclet$??0player_extra_info_t@@QAE@XZ$2 100651ae f   World.obj
 0001:000641cb       __ehhandler$??0player_extra_info_t@@QAE@XZ 100651cb f   World.obj
 0001:000641f0       __unwindfunclet$?MyVectorTransform@@YAXVVector@@QAY03MPAMHM@Z$0 100651f0 f   World.obj
 0001:000641f8       __unwindfunclet$?MyVectorTransform@@YAXVVector@@QAY03MPAMHM@Z$1 100651f8 f   World.obj
 0001:00064200       __unwindfunclet$?MyVectorTransform@@YAXVVector@@QAY03MPAMHM@Z$2 10065200 f   World.obj
 0001:00064208       __unwindfunclet$?MyVectorTransform@@YAXVVector@@QAY03MPAMHM@Z$3 10065208 f   World.obj
 0001:00064215       __ehhandler$?MyVectorTransform@@YAXVVector@@QAY03MPAMHM@Z 10065215 f   World.obj
 0001:00064240       __unwindfunclet$?GetHitboxes@CWorld@@QAEXPAUcl_entity_s@@@Z$0 10065240 f   World.obj
 0001:00064248       __unwindfunclet$?GetHitboxes@CWorld@@QAEXPAUcl_entity_s@@@Z$1 10065248 f   World.obj
 0001:00064250       __unwindfunclet$?GetHitboxes@CWorld@@QAEXPAUcl_entity_s@@@Z$2 10065250 f   World.obj
 0001:00064258       __unwindfunclet$?GetHitboxes@CWorld@@QAEXPAUcl_entity_s@@@Z$3 10065258 f   World.obj
 0001:00064260       __unwindfunclet$?GetHitboxes@CWorld@@QAEXPAUcl_entity_s@@@Z$4 10065260 f   World.obj
 0001:0006426b       __unwindfunclet$?GetHitboxes@CWorld@@QAEXPAUcl_entity_s@@@Z$5 1006526b f   World.obj
 0001:00064276       __unwindfunclet$?GetHitboxes@CWorld@@QAEXPAUcl_entity_s@@@Z$6 10065276 f   World.obj
 0001:00064281       __unwindfunclet$?GetHitboxes@CWorld@@QAEXPAUcl_entity_s@@@Z$7 10065281 f   World.obj
 0001:0006428c       __unwindfunclet$?GetHitboxes@CWorld@@QAEXPAUcl_entity_s@@@Z$8 1006528c f   World.obj
 0001:00064297       __unwindfunclet$?GetHitboxes@CWorld@@QAEXPAUcl_entity_s@@@Z$9 10065297 f   World.obj
 0001:000642a2       __unwindfunclet$?GetHitboxes@CWorld@@QAEXPAUcl_entity_s@@@Z$10 100652a2 f   World.obj
 0001:000642ad       __unwindfunclet$?GetHitboxes@CWorld@@QAEXPAUcl_entity_s@@@Z$11 100652ad f   World.obj
 0001:000642b8       __unwindfunclet$?GetHitboxes@CWorld@@QAEXPAUcl_entity_s@@@Z$12 100652b8 f   World.obj
 0001:000642c3       __unwindfunclet$?GetHitboxes@CWorld@@QAEXPAUcl_entity_s@@@Z$13 100652c3 f   World.obj
 0001:000642ce       __unwindfunclet$?GetHitboxes@CWorld@@QAEXPAUcl_entity_s@@@Z$14 100652ce f   World.obj
 0001:000642d9       __unwindfunclet$?GetHitboxes@CWorld@@QAEXPAUcl_entity_s@@@Z$15 100652d9 f   World.obj
 0001:000642e4       __unwindfunclet$?GetHitboxes@CWorld@@QAEXPAUcl_entity_s@@@Z$16 100652e4 f   World.obj
 0001:000642ef       __unwindfunclet$?GetHitboxes@CWorld@@QAEXPAUcl_entity_s@@@Z$17 100652ef f   World.obj
 0001:000642fa       __unwindfunclet$?GetHitboxes@CWorld@@QAEXPAUcl_entity_s@@@Z$18 100652fa f   World.obj
 0001:00064305       __unwindfunclet$?GetHitboxes@CWorld@@QAEXPAUcl_entity_s@@@Z$20 10065305 f   World.obj
 0001:00064310       __unwindfunclet$?GetHitboxes@CWorld@@QAEXPAUcl_entity_s@@@Z$21 10065310 f   World.obj
 0001:0006431b       __unwindfunclet$?GetHitboxes@CWorld@@QAEXPAUcl_entity_s@@@Z$23 1006531b f   World.obj
 0001:00064326       __unwindfunclet$?GetHitboxes@CWorld@@QAEXPAUcl_entity_s@@@Z$24 10065326 f   World.obj
 0001:00064331       __unwindfunclet$?GetHitboxes@CWorld@@QAEXPAUcl_entity_s@@@Z$26 10065331 f   World.obj
 0001:0006433c       __unwindfunclet$?GetHitboxes@CWorld@@QAEXPAUcl_entity_s@@@Z$27 1006533c f   World.obj
 0001:00064347       __unwindfunclet$?GetHitboxes@CWorld@@QAEXPAUcl_entity_s@@@Z$29 10065347 f   World.obj
 0001:00064352       __unwindfunclet$?GetHitboxes@CWorld@@QAEXPAUcl_entity_s@@@Z$30 10065352 f   World.obj
 0001:0006435d       __unwindfunclet$?GetHitboxes@CWorld@@QAEXPAUcl_entity_s@@@Z$32 1006535d f   World.obj
 0001:00064368       __unwindfunclet$?GetHitboxes@CWorld@@QAEXPAUcl_entity_s@@@Z$33 10065368 f   World.obj
 0001:00064373       __unwindfunclet$?GetHitboxes@CWorld@@QAEXPAUcl_entity_s@@@Z$35 10065373 f   World.obj
 0001:0006437e       __unwindfunclet$?GetHitboxes@CWorld@@QAEXPAUcl_entity_s@@@Z$36 1006537e f   World.obj
 0001:0006438e       __ehhandler$?GetHitboxes@CWorld@@QAEXPAUcl_entity_s@@@Z 1006538e f   World.obj
 0001:000643c0       __unwindfunclet$?UpdateLocalPlayer@CWorld@@QAEXMPAUusercmd_s@@@Z$0 100653c0 f   World.obj
 0001:000643cb       __unwindfunclet$?UpdateLocalPlayer@CWorld@@QAEXMPAUusercmd_s@@@Z$1 100653cb f   World.obj
 0001:000643d3       __unwindfunclet$?UpdateLocalPlayer@CWorld@@QAEXMPAUusercmd_s@@@Z$2 100653d3 f   World.obj
 0001:000643db       __unwindfunclet$?UpdateLocalPlayer@CWorld@@QAEXMPAUusercmd_s@@@Z$3 100653db f   World.obj
 0001:000643e8       __ehhandler$?UpdateLocalPlayer@CWorld@@QAEXMPAUusercmd_s@@@Z 100653e8 f   World.obj
 0001:00064420       __unwindfunclet$?UpdateEntities@CWorld@@QAEXXZ$0 10065420 f   World.obj
 0001:00064430       __ehhandler$?UpdateEntities@CWorld@@QAEXXZ 10065430 f   World.obj
 0001:00064460       __unwindfunclet$?UpdatePlayers@CWorld@@QAEXXZ$0 10065460 f   World.obj
 0001:0006446b       __unwindfunclet$?UpdatePlayers@CWorld@@QAEXXZ$1 1006546b f   World.obj
 0001:0006447b       __ehhandler$?UpdatePlayers@CWorld@@QAEXXZ 1006547b f   World.obj
 0001:000644b0       __unwindfunclet$?UpdateVisibility@CWorld@@QAEXH@Z$0 100654b0 f   World.obj
 0001:000644b8       __unwindfunclet$?UpdateVisibility@CWorld@@QAEXH@Z$1 100654b8 f   World.obj
 0001:000644c0       __unwindfunclet$?UpdateVisibility@CWorld@@QAEXH@Z$2 100654c0 f   World.obj
 0001:000644cb       __unwindfunclet$?UpdateVisibility@CWorld@@QAEXH@Z$4 100654cb f   World.obj
 0001:000644db       __ehhandler$?UpdateVisibility@CWorld@@QAEXH@Z 100654db f   World.obj
 0001:00064510       __unwindfunclet$?UpdateMapInfo@CWorld@@QAEXXZ$0 10065510 f   World.obj
 0001:0006451b       __unwindfunclet$?UpdateMapInfo@CWorld@@QAEXXZ$1 1006551b f   World.obj
 0001:00064526       __unwindfunclet$?UpdateMapInfo@CWorld@@QAEXXZ$2 10065526 f   World.obj
 0001:00064536       __ehhandler$?UpdateMapInfo@CWorld@@QAEXXZ 10065536 f   World.obj
 0001:00064560       __ehhandler$??1sentry@?$basic_ostream@DU?$char_traits@D@std@@@std@@QAE@XZ 10065560 f   Pipi_edit.obj
 0001:00064560       __ehhandler$??0?$istreambuf_iterator@DU?$char_traits@D@std@@@std@@QAE@AAV?$basic_istream@DU?$char_traits@D@std@@@1@@Z 10065560 f   World.obj
 0001:00064560       __ehhandler$?_Tidy@ios_base@std@@AAEXXZ 10065560 f   libcpmt:ios.obj
 0001:00064560       __ehhandler$?try_cor_exit_process@@YAXI@Z 10065560 f   libucrt:exit.obj
 0001:00064580       __unwindfunclet$?uflow@?$basic_filebuf@DU?$char_traits@D@std@@@std@@MAEHXZ$0 10065580 f   World.obj
 0001:0006458d       __ehhandler$?uflow@?$basic_filebuf@DU?$char_traits@D@std@@@std@@MAEHXZ 1006558d f   World.obj
 0001:000645c0       __unwindfunclet$??0?$basic_ifstream@DU?$char_traits@D@std@@@std@@QAE@PBDHH@Z$0 100655c0 f   World.obj
 0001:000645dc       __unwindfunclet$??0?$basic_ifstream@DU?$char_traits@D@std@@@std@@QAE@PBDHH@Z$1 100655dc f   World.obj
 0001:000645e7       __unwindfunclet$??0?$basic_ifstream@DU?$char_traits@D@std@@@std@@QAE@PBDHH@Z$2 100655e7 f   World.obj
 0001:000645f7       __ehhandler$??0?$basic_ifstream@DU?$char_traits@D@std@@@std@@QAE@PBDHH@Z 100655f7 f   World.obj
 0001:00064620       __unwindfunclet$?open@?$basic_filebuf@DU?$char_traits@D@std@@@std@@QAEPAV12@PBDHH@Z$0 10065620 f   World.obj
 0001:00064620       __unwindfunclet$?widen@?$basic_ios@DU?$char_traits@D@std@@@std@@QBEDD@Z$0 10065620 f   World.obj
 0001:0006462d       __ehhandler$?open@?$basic_filebuf@DU?$char_traits@D@std@@@std@@QAEPAV12@PBDHH@Z 1006562d f   World.obj
 0001:0006462d       __ehhandler$?widen@?$basic_ios@DU?$char_traits@D@std@@@std@@QBEDD@Z 1006562d f   World.obj
 0001:00064650       __unwindfunclet$??0?$basic_filebuf@DU?$char_traits@D@std@@@std@@QAE@XZ$0 10065650 f   World.obj
 0001:0006465d       __ehhandler$??0?$basic_filebuf@DU?$char_traits@D@std@@@std@@QAE@XZ 1006565d f   World.obj
 0001:00064680       __unwindfunclet$??0?$basic_istream@DU?$char_traits@D@std@@@std@@QAE@PAV?$basic_streambuf@DU?$char_traits@D@std@@@1@_N@Z$0 10065680 f   World.obj
 0001:000646a1       __ehhandler$??0?$basic_istream@DU?$char_traits@D@std@@@std@@QAE@PAV?$basic_streambuf@DU?$char_traits@D@std@@@1@_N@Z 100656a1 f   World.obj
 0001:000646c0       __unwindfunclet$??$use_facet@V?$num_put@DV?$ostreambuf_iterator@DU?$char_traits@D@std@@@std@@@std@@@std@@YAABV?$num_put@DV?$ostreambuf_iterator@DU?$char_traits@D@std@@@std@@@0@ABVlocale@0@@Z$0 100656c0 f   Pipi_edit.obj
 0001:000646c0       __unwindfunclet$??$use_facet@V?$numpunct@D@std@@@std@@YAABV?$numpunct@D@0@ABVlocale@0@@Z$0 100656c0 f   Pipi_edit.obj
 0001:000646c0       __unwindfunclet$??$use_facet@V?$codecvt@DDU_Mbstatet@@@std@@@std@@YAABV?$codecvt@DDU_Mbstatet@@@0@ABVlocale@0@@Z$0 100656c0 f   World.obj
 0001:000646c0       __unwindfunclet$??$use_facet@V?$ctype@D@std@@@std@@YAABV?$ctype@D@0@ABVlocale@0@@Z$0 100656c0 f   World.obj
 0001:000646c8       __unwindfunclet$??$use_facet@V?$num_put@DV?$ostreambuf_iterator@DU?$char_traits@D@std@@@std@@@std@@@std@@YAABV?$num_put@DV?$ostreambuf_iterator@DU?$char_traits@D@std@@@std@@@0@ABVlocale@0@@Z$1 100656c8 f   Pipi_edit.obj
 0001:000646c8       __unwindfunclet$??$use_facet@V?$numpunct@D@std@@@std@@YAABV?$numpunct@D@0@ABVlocale@0@@Z$1 100656c8 f   Pipi_edit.obj
 0001:000646c8       __unwindfunclet$??$use_facet@V?$codecvt@DDU_Mbstatet@@@std@@@std@@YAABV?$codecvt@DDU_Mbstatet@@@0@ABVlocale@0@@Z$1 100656c8 f   World.obj
 0001:000646c8       __unwindfunclet$??$use_facet@V?$ctype@D@std@@@std@@YAABV?$ctype@D@0@ABVlocale@0@@Z$1 100656c8 f   World.obj
 0001:000646d5       __ehhandler$??$use_facet@V?$num_put@DV?$ostreambuf_iterator@DU?$char_traits@D@std@@@std@@@std@@@std@@YAABV?$num_put@DV?$ostreambuf_iterator@DU?$char_traits@D@std@@@std@@@0@ABVlocale@0@@Z 100656d5 f   Pipi_edit.obj
 0001:000646d5       __ehhandler$??$use_facet@V?$numpunct@D@std@@@std@@YAABV?$numpunct@D@0@ABVlocale@0@@Z 100656d5 f   Pipi_edit.obj
 0001:000646d5       __ehhandler$??$use_facet@V?$codecvt@DDU_Mbstatet@@@std@@@std@@YAABV?$codecvt@DDU_Mbstatet@@@0@ABVlocale@0@@Z 100656d5 f   World.obj
 0001:000646d5       __ehhandler$??$use_facet@V?$ctype@D@std@@@std@@YAABV?$ctype@D@0@ABVlocale@0@@Z 100656d5 f   World.obj
 0001:00064700       __unwindfunclet$?_Getcat@?$num_put@DV?$ostreambuf_iterator@DU?$char_traits@D@std@@@std@@@std@@SAIPAPBVfacet@locale@2@PBV42@@Z$0 10065700 f   Pipi_edit.obj
 0001:00064700       __unwindfunclet$?_Getcat@?$codecvt@DDU_Mbstatet@@@std@@SAIPAPBVfacet@locale@2@PBV42@@Z$0 10065700 f   World.obj
 0001:0006470f       __unwindfunclet$?_Getcat@?$num_put@DV?$ostreambuf_iterator@DU?$char_traits@D@std@@@std@@@std@@SAIPAPBVfacet@locale@2@PBV42@@Z$1 1006570f f   Pipi_edit.obj
 0001:0006470f       __unwindfunclet$?_Getcat@?$codecvt@DDU_Mbstatet@@@std@@SAIPAPBVfacet@locale@2@PBV42@@Z$1 1006570f f   World.obj
 0001:0006472d       __ehhandler$?_Getcat@?$num_put@DV?$ostreambuf_iterator@DU?$char_traits@D@std@@@std@@@std@@SAIPAPBVfacet@locale@2@PBV42@@Z 1006572d f   Pipi_edit.obj
 0001:0006472d       __ehhandler$?_Getcat@?$codecvt@DDU_Mbstatet@@@std@@SAIPAPBVfacet@locale@2@PBV42@@Z 1006572d f   World.obj
 0001:00064750       __unwindfunclet$??0?$codecvt@DDU_Mbstatet@@@std@@QAE@ABV_Locinfo@1@I@Z$0 10065750 f   World.obj
 0001:0006475d       __ehhandler$??0?$codecvt@DDU_Mbstatet@@@std@@QAE@ABV_Locinfo@1@I@Z 1006575d f   World.obj
 0001:00064780       __unwindfunclet$??$_Construct@V?$istreambuf_iterator@DU?$char_traits@D@std@@@std@@@?$basic_string@DU?$char_traits@D@std@@V?$allocator@D@2@@std@@QAEXV?$istreambuf_iterator@DU?$char_traits@D@std@@@1@V21@Uinput_iterator_tag@1@@Z$0 10065780 f   World.obj
 0001:0006478d       __ehhandler$??$_Construct@V?$istreambuf_iterator@DU?$char_traits@D@std@@@std@@@?$basic_string@DU?$char_traits@D@std@@V?$allocator@D@2@@std@@QAEXV?$istreambuf_iterator@DU?$char_traits@D@std@@@1@V21@Uinput_iterator_tag@1@@Z 1006578d f   World.obj
 0001:000647c0       __unwindfunclet$??0configor_invalid_key@configor@@QAE@ABV?$basic_string@DU?$char_traits@D@std@@V?$allocator@D@2@@std@@@Z$0 100657c0 f   Pipi_edit.obj
 0001:000647c0       __unwindfunclet$??0configor_serialization_error@configor@@QAE@ABV?$basic_string@DU?$char_traits@D@std@@V?$allocator@D@2@@std@@@Z$0 100657c0 f   Pipi_edit.obj
 0001:000647c0       __unwindfunclet$??0configor_type_error@configor@@QAE@ABV?$basic_string@DU?$char_traits@D@std@@V?$allocator@D@2@@std@@@Z$0 100657c0 f   Pipi_edit.obj
 0001:000647cd       __ehhandler$??0configor_invalid_key@configor@@QAE@ABV?$basic_string@DU?$char_traits@D@std@@V?$allocator@D@2@@std@@@Z 100657cd f   Pipi_edit.obj
 0001:000647cd       __ehhandler$??0configor_serialization_error@configor@@QAE@ABV?$basic_string@DU?$char_traits@D@std@@V?$allocator@D@2@@std@@@Z 100657cd f   Pipi_edit.obj
 0001:000647cd       __ehhandler$??0configor_type_error@configor@@QAE@ABV?$basic_string@DU?$char_traits@D@std@@V?$allocator@D@2@@std@@@Z 100657cd f   Pipi_edit.obj
 0001:000647f0       __unwindfunclet$?writejson@@YA_NV?$basic_config@Ujson_args@configor@@@configor@@@Z$0 100657f0 f   Pipi_edit.obj
 0001:000647fd       __ehhandler$?writejson@@YA_NV?$basic_config@Ujson_args@configor@@@configor@@@Z 100657fd f   Pipi_edit.obj
 0001:00064820       __unwindfunclet$?GetAIdata@@YAXQAH@Z$0 10065820 f   Pipi_edit.obj
 0001:0006482b       __unwindfunclet$?GetAIdata@@YAXQAH@Z$1 1006582b f   Pipi_edit.obj
 0001:00064836       __unwindfunclet$?GetAIdata@@YAXQAH@Z$2 10065836 f   Pipi_edit.obj
 0001:00064841       __unwindfunclet$?GetAIdata@@YAXQAH@Z$4 10065841 f   Pipi_edit.obj
 0001:00064857       __unwindfunclet$?GetAIdata@@YAXQAH@Z$5 10065857 f   Pipi_edit.obj
 0001:00064862       __unwindfunclet$?GetAIdata@@YAXQAH@Z$6 10065862 f   Pipi_edit.obj
 0001:0006486d       __unwindfunclet$?GetAIdata@@YAXQAH@Z$7 1006586d f   Pipi_edit.obj
 0001:00064878       __unwindfunclet$?GetAIdata@@YAXQAH@Z$9 10065878 f   Pipi_edit.obj
 0001:0006488e       __unwindfunclet$?GetAIdata@@YAXQAH@Z$10 1006588e f   Pipi_edit.obj
 0001:00064899       __unwindfunclet$?GetAIdata@@YAXQAH@Z$11 10065899 f   Pipi_edit.obj
 0001:000648a4       __unwindfunclet$?GetAIdata@@YAXQAH@Z$13 100658a4 f   Pipi_edit.obj
 0001:000648ba       __unwindfunclet$?GetAIdata@@YAXQAH@Z$15 100658ba f   Pipi_edit.obj
 0001:000648d0       __unwindfunclet$?GetAIdata@@YAXQAH@Z$17 100658d0 f   Pipi_edit.obj
 0001:000648e6       __unwindfunclet$?GetAIdata@@YAXQAH@Z$19 100658e6 f   Pipi_edit.obj
 0001:000648fc       __unwindfunclet$?GetAIdata@@YAXQAH@Z$20 100658fc f   Pipi_edit.obj
 0001:0006490c       __ehhandler$?GetAIdata@@YAXQAH@Z 1006590c f   Pipi_edit.obj
 0001:00064940       __unwindfunclet$??0?$basic_config@Ujson_args@configor@@@configor@@QAE@ABV?$initializer_list@V?$basic_config@Ujson_args@configor@@@configor@@@std@@W4config_value_type@1@@Z$0 10065940 f   Pipi_edit.obj
 0001:00064948       __unwindfunclet$??0?$basic_config@Ujson_args@configor@@@configor@@QAE@ABV?$initializer_list@V?$basic_config@Ujson_args@configor@@@configor@@@std@@W4config_value_type@1@@Z$1 10065948 f   Pipi_edit.obj
 0001:00064950       __unwindfunclet$??0?$basic_config@Ujson_args@configor@@@configor@@QAE@ABV?$initializer_list@V?$basic_config@Ujson_args@configor@@@configor@@@std@@W4config_value_type@1@@Z$2 10065950 f   Pipi_edit.obj
 0001:00064958       __unwindfunclet$??0?$basic_config@Ujson_args@configor@@@configor@@QAE@ABV?$initializer_list@V?$basic_config@Ujson_args@configor@@@configor@@@std@@W4config_value_type@1@@Z$3 10065958 f   Pipi_edit.obj
 0001:00064965       __ehhandler$??0?$basic_config@Ujson_args@configor@@@configor@@QAE@ABV?$initializer_list@V?$basic_config@Ujson_args@configor@@@configor@@@std@@W4config_value_type@1@@Z 10065965 f   Pipi_edit.obj
 0001:00064990       __unwindfunclet$?put_string@?$json_serializer@V?$basic_config@Ujson_args@configor@@@configor@@@detail@configor@@UAEXABV?$basic_string@DU?$char_traits@D@std@@V?$allocator@D@2@@std@@@Z$0 10065990 f   Pipi_edit.obj
 0001:00064998       __unwindfunclet$?put_string@?$json_serializer@V?$basic_config@Ujson_args@configor@@@configor@@@detail@configor@@UAEXABV?$basic_string@DU?$char_traits@D@std@@V?$allocator@D@2@@std@@@Z$1 10065998 f   Pipi_edit.obj
 0001:000649a3       __unwindfunclet$?put_string@?$json_serializer@V?$basic_config@Ujson_args@configor@@@configor@@@detail@configor@@UAEXABV?$basic_string@DU?$char_traits@D@std@@V?$allocator@D@2@@std@@@Z$2 100659a3 f   Pipi_edit.obj
 0001:000649ae       __unwindfunclet$?put_string@?$json_serializer@V?$basic_config@Ujson_args@configor@@@configor@@@detail@configor@@UAEXABV?$basic_string@DU?$char_traits@D@std@@V?$allocator@D@2@@std@@@Z$3 100659ae f   Pipi_edit.obj
 0001:000649be       __ehhandler$?put_string@?$json_serializer@V?$basic_config@Ujson_args@configor@@@configor@@@detail@configor@@UAEXABV?$basic_string@DU?$char_traits@D@std@@V?$allocator@D@2@@std@@@Z 100659be f   Pipi_edit.obj
 0001:000649f0       __unwindfunclet$??0?$basic_ofstream@DU?$char_traits@D@std@@@std@@QAE@XZ$0 100659f0 f   Pipi_edit.obj
 0001:00064a0c       __unwindfunclet$??0?$basic_ofstream@DU?$char_traits@D@std@@@std@@QAE@XZ$1 10065a0c f   Pipi_edit.obj
 0001:00064a1c       __ehhandler$??0?$basic_ofstream@DU?$char_traits@D@std@@@std@@QAE@XZ 10065a1c f   Pipi_edit.obj
 0001:00064a40       __unwindfunclet$??0?$fast_basic_ostringstream@D@detail@configor@@QAE@XZ$0 10065a40 f   Pipi_edit.obj
 0001:00064a5c       __unwindfunclet$??0?$fast_basic_ostringstream@D@detail@configor@@QAE@XZ$1 10065a5c f   Pipi_edit.obj
 0001:00064a67       __unwindfunclet$??0?$fast_basic_ostringstream@D@detail@configor@@QAE@XZ$2 10065a67 f   Pipi_edit.obj
 0001:00064a72       __unwindfunclet$??0?$fast_basic_ostringstream@D@detail@configor@@QAE@XZ$3 10065a72 f   Pipi_edit.obj
 0001:00064a82       __ehhandler$??0?$fast_basic_ostringstream@D@detail@configor@@QAE@XZ 10065a82 f   Pipi_edit.obj
 0001:00064aa0       __unwindfunclet$?do_put@?$num_put@DV?$ostreambuf_iterator@DU?$char_traits@D@std@@@std@@@std@@MBE?AV?$ostreambuf_iterator@DU?$char_traits@D@std@@@2@V32@AAVios_base@2@DO@Z$0 10065aa0 f   Pipi_edit.obj
 0001:00064aad       __ehhandler$?do_put@?$num_put@DV?$ostreambuf_iterator@DU?$char_traits@D@std@@@std@@@std@@MBE?AV?$ostreambuf_iterator@DU?$char_traits@D@std@@@2@V32@AAVios_base@2@DO@Z 10065aad f   Pipi_edit.obj
 0001:00064ae0       __unwindfunclet$?do_put@?$num_put@DV?$ostreambuf_iterator@DU?$char_traits@D@std@@@std@@@std@@MBE?AV?$ostreambuf_iterator@DU?$char_traits@D@std@@@2@V32@AAVios_base@2@DN@Z$0 10065ae0 f   Pipi_edit.obj
 0001:00064aed       __ehhandler$?do_put@?$num_put@DV?$ostreambuf_iterator@DU?$char_traits@D@std@@@std@@@std@@MBE?AV?$ostreambuf_iterator@DU?$char_traits@D@std@@@2@V32@AAVios_base@2@DN@Z 10065aed f   Pipi_edit.obj
 0001:00064b20       __unwindfunclet$?do_put@?$num_put@DV?$ostreambuf_iterator@DU?$char_traits@D@std@@@std@@@std@@MBE?AV?$ostreambuf_iterator@DU?$char_traits@D@std@@@2@V32@AAVios_base@2@D_N@Z$0 10065b20 f   Pipi_edit.obj
 0001:00064b28       __unwindfunclet$?do_put@?$num_put@DV?$ostreambuf_iterator@DU?$char_traits@D@std@@@std@@@std@@MBE?AV?$ostreambuf_iterator@DU?$char_traits@D@std@@@2@V32@AAVios_base@2@D_N@Z$1 10065b28 f   Pipi_edit.obj
 0001:00064b35       __ehhandler$?do_put@?$num_put@DV?$ostreambuf_iterator@DU?$char_traits@D@std@@@std@@@std@@MBE?AV?$ostreambuf_iterator@DU?$char_traits@D@std@@@2@V32@AAVios_base@2@D_N@Z 10065b35 f   Pipi_edit.obj
 0001:00064b60       __unwindfunclet$??0sentry@?$basic_ostream@DU?$char_traits@D@std@@@std@@QAE@AAV12@@Z$0 10065b60 f   Pipi_edit.obj
 0001:00064b6d       __ehhandler$??0sentry@?$basic_ostream@DU?$char_traits@D@std@@@std@@QAE@AAV12@@Z 10065b6d f   Pipi_edit.obj
 0001:00064b90       __unwindfunclet$?fail@?$json_serializer@V?$basic_config@Ujson_args@configor@@@configor@@@detail@configor@@QAEXABV?$basic_string@DU?$char_traits@D@std@@V?$allocator@D@2@@std@@I@Z$0 10065b90 f   Pipi_edit.obj
 0001:00064ba0       __ehhandler$?fail@?$json_serializer@V?$basic_config@Ujson_args@configor@@@configor@@@detail@configor@@QAEXABV?$basic_string@DU?$char_traits@D@std@@V?$allocator@D@2@@std@@I@Z 10065ba0 f   Pipi_edit.obj
 0001:00064bd0       __unwindfunclet$??0?$basic_ostream@DU?$char_traits@D@std@@@std@@QAE@PAV?$basic_streambuf@DU?$char_traits@D@std@@@1@_N@Z$0 10065bd0 f   Pipi_edit.obj
 0001:00064bf1       __ehhandler$??0?$basic_ostream@DU?$char_traits@D@std@@@std@@QAE@PAV?$basic_streambuf@DU?$char_traits@D@std@@@1@_N@Z 10065bf1 f   Pipi_edit.obj
 0001:00064c10       __unwindfunclet$?_Iput@?$num_put@DV?$ostreambuf_iterator@DU?$char_traits@D@std@@@std@@@std@@ABA?AV?$ostreambuf_iterator@DU?$char_traits@D@std@@@2@V32@AAVios_base@2@DPADI@Z$0 10065c10 f   Pipi_edit.obj
 0001:00064c18       __unwindfunclet$?_Iput@?$num_put@DV?$ostreambuf_iterator@DU?$char_traits@D@std@@@std@@@std@@ABA?AV?$ostreambuf_iterator@DU?$char_traits@D@std@@@2@V32@AAVios_base@2@DPADI@Z$1 10065c18 f   Pipi_edit.obj
 0001:00064c20       __unwindfunclet$?_Iput@?$num_put@DV?$ostreambuf_iterator@DU?$char_traits@D@std@@@std@@@std@@ABA?AV?$ostreambuf_iterator@DU?$char_traits@D@std@@@2@V32@AAVios_base@2@DPADI@Z$2 10065c20 f   Pipi_edit.obj
 0001:00064c2b       __unwindfunclet$?_Iput@?$num_put@DV?$ostreambuf_iterator@DU?$char_traits@D@std@@@std@@@std@@ABA?AV?$ostreambuf_iterator@DU?$char_traits@D@std@@@2@V32@AAVios_base@2@DPADI@Z$3 10065c2b f   Pipi_edit.obj
 0001:00064c38       __ehhandler$?_Iput@?$num_put@DV?$ostreambuf_iterator@DU?$char_traits@D@std@@@std@@@std@@ABA?AV?$ostreambuf_iterator@DU?$char_traits@D@std@@@2@V32@AAVios_base@2@DPADI@Z 10065c38 f   Pipi_edit.obj
 0001:00064c70       __unwindfunclet$?_Fput@?$num_put@DV?$ostreambuf_iterator@DU?$char_traits@D@std@@@std@@@std@@ABA?AV?$ostreambuf_iterator@DU?$char_traits@D@std@@@2@V32@AAVios_base@2@DPBDI@Z$0 10065c70 f   Pipi_edit.obj
 0001:00064c7b       __unwindfunclet$?_Fput@?$num_put@DV?$ostreambuf_iterator@DU?$char_traits@D@std@@@std@@@std@@ABA?AV?$ostreambuf_iterator@DU?$char_traits@D@std@@@2@V32@AAVios_base@2@DPBDI@Z$1 10065c7b f   Pipi_edit.obj
 0001:00064c83       __unwindfunclet$?_Fput@?$num_put@DV?$ostreambuf_iterator@DU?$char_traits@D@std@@@std@@@std@@ABA?AV?$ostreambuf_iterator@DU?$char_traits@D@std@@@2@V32@AAVios_base@2@DPBDI@Z$2 10065c83 f   Pipi_edit.obj
 0001:00064c8e       __unwindfunclet$?_Fput@?$num_put@DV?$ostreambuf_iterator@DU?$char_traits@D@std@@@std@@@std@@ABA?AV?$ostreambuf_iterator@DU?$char_traits@D@std@@@2@V32@AAVios_base@2@DPBDI@Z$3 10065c8e f   Pipi_edit.obj
 0001:00064c9b       __ehhandler$?_Fput@?$num_put@DV?$ostreambuf_iterator@DU?$char_traits@D@std@@@std@@@std@@ABA?AV?$ostreambuf_iterator@DU?$char_traits@D@std@@@2@V32@AAVios_base@2@DPBDI@Z 10065c9b f   Pipi_edit.obj
 0001:00064cd0       __ehhandler$?_Reallocate_exactly@?$vector@V?$basic_config@Ujson_args@configor@@@configor@@V?$allocator@V?$basic_config@Ujson_args@configor@@@configor@@@std@@@std@@AAEXI@Z 10065cd0 f   Pipi_edit.obj
 0001:00064cf0       __unwindfunclet$?at@?$basic_config@Ujson_args@configor@@@configor@@QBEAAV12@I@Z$0 10065cf0 f   Pipi_edit.obj
 0001:00064cfd       __ehhandler$?at@?$basic_config@Ujson_args@configor@@@configor@@QBEAAV12@I@Z 10065cfd f   Pipi_edit.obj
 0001:00064d20       __unwindfunclet$?get@?$basic_istream@DU?$char_traits@D@std@@@std@@QAEHXZ$2 10065d20 f   Pipi_edit.obj
 0001:00064d2d       __ehhandler$?get@?$basic_istream@DU?$char_traits@D@std@@@std@@QAEHXZ 10065d2d f   Pipi_edit.obj
 0001:00064d60       __unwindfunclet$?flush@?$basic_ostream@DU?$char_traits@D@std@@@std@@QAEAAV12@XZ$0 10065d60 f   Pipi_edit.obj
 0001:00064d6d       __ehhandler$?flush@?$basic_ostream@DU?$char_traits@D@std@@@std@@QAEAAV12@XZ 10065d6d f   Pipi_edit.obj
 0001:00064da0       __unwindfunclet$?write@?$basic_ostream@DU?$char_traits@D@std@@@std@@QAEAAV12@PBD_J@Z$2 10065da0 f   Pipi_edit.obj
 0001:00064dad       __ehhandler$?write@?$basic_ostream@DU?$char_traits@D@std@@@std@@QAEAAV12@PBD_J@Z 10065dad f   Pipi_edit.obj
 0001:00064de0       __unwindfunclet$?put@?$basic_ostream@DU?$char_traits@D@std@@@std@@QAEAAV12@D@Z$2 10065de0 f   Pipi_edit.obj
 0001:00064ded       __ehhandler$?put@?$basic_ostream@DU?$char_traits@D@std@@@std@@QAEAAV12@D@Z 10065ded f   Pipi_edit.obj
 0001:00064e20       __unwindfunclet$??6?$basic_ostream@DU?$char_traits@D@std@@@std@@QAEAAV01@N@Z$2 10065e20 f   Pipi_edit.obj
 0001:00064e28       __unwindfunclet$??6?$basic_ostream@DU?$char_traits@D@std@@@std@@QAEAAV01@N@Z$3 10065e28 f   Pipi_edit.obj
 0001:00064e35       __ehhandler$??6?$basic_ostream@DU?$char_traits@D@std@@@std@@QAEAAV01@N@Z 10065e35 f   Pipi_edit.obj
 0001:00064e60       __unwindfunclet$??6?$basic_ostream@DU?$char_traits@D@std@@@std@@QAEAAV01@_J@Z$2 10065e60 f   Pipi_edit.obj
 0001:00064e68       __unwindfunclet$??6?$basic_ostream@DU?$char_traits@D@std@@@std@@QAEAAV01@_J@Z$3 10065e68 f   Pipi_edit.obj
 0001:00064e75       __ehhandler$??6?$basic_ostream@DU?$char_traits@D@std@@@std@@QAEAAV01@_J@Z 10065e75 f   Pipi_edit.obj
 0001:00064ea0       __unwindfunclet$??6?$basic_ostream@DU?$char_traits@D@std@@@std@@QAEAAV01@I@Z$2 10065ea0 f   Pipi_edit.obj
 0001:00064ea8       __unwindfunclet$??6?$basic_ostream@DU?$char_traits@D@std@@@std@@QAEAAV01@I@Z$3 10065ea8 f   Pipi_edit.obj
 0001:00064eb5       __ehhandler$??6?$basic_ostream@DU?$char_traits@D@std@@@std@@QAEAAV01@I@Z 10065eb5 f   Pipi_edit.obj
 0001:00064ee0       __unwindfunclet$??6?$basic_ostream@DU?$char_traits@D@std@@@std@@QAEAAV01@G@Z$2 10065ee0 f   Pipi_edit.obj
 0001:00064ee8       __unwindfunclet$??6?$basic_ostream@DU?$char_traits@D@std@@@std@@QAEAAV01@G@Z$3 10065ee8 f   Pipi_edit.obj
 0001:00064ef5       __ehhandler$??6?$basic_ostream@DU?$char_traits@D@std@@@std@@QAEAAV01@G@Z 10065ef5 f   Pipi_edit.obj
 0001:00064f20       __ehhandler$?_Osfx@?$basic_ostream@DU?$char_traits@D@std@@@std@@QAEXXZ 10065f20 f   Pipi_edit.obj
 0001:00064f40       __unwindfunclet$??0sentry@?$basic_istream@DU?$char_traits@D@std@@@std@@QAE@AAV12@_N@Z$0 10065f40 f   Pipi_edit.obj
 0001:00064f4d       __ehhandler$??0sentry@?$basic_istream@DU?$char_traits@D@std@@@std@@QAE@AAV12@_N@Z 10065f4d f   Pipi_edit.obj
 0001:00064f70       __unwindfunclet$?peek@?$basic_istream@DU?$char_traits@D@std@@@std@@QAEHXZ$2 10065f70 f   Pipi_edit.obj
 0001:00064f7d       __ehhandler$?peek@?$basic_istream@DU?$char_traits@D@std@@@std@@QAEHXZ 10065f7d f   Pipi_edit.obj
 0001:00064fb0       __unwindfunclet$?_Ipfx@?$basic_istream@DU?$char_traits@D@std@@@std@@QAE_N_N@Z$2 10065fb0 f   Pipi_edit.obj
 0001:00064fbd       __ehhandler$?_Ipfx@?$basic_istream@DU?$char_traits@D@std@@@std@@QAE_N_N@Z 10065fbd f   Pipi_edit.obj
 0001:00064ff0       __unwindfunclet$??$?6U?$char_traits@D@std@@@std@@YAAAV?$basic_ostream@DU?$char_traits@D@std@@@0@AAV10@PBD@Z$2 10065ff0 f   Pipi_edit.obj
 0001:00064ffd       __ehhandler$??$?6U?$char_traits@D@std@@@std@@YAAAV?$basic_ostream@DU?$char_traits@D@std@@@0@AAV10@PBD@Z 10065ffd f   Pipi_edit.obj
 0001:00065030       __unwindfunclet$??$?6U?$char_traits@D@std@@@std@@YAAAV?$basic_ostream@DU?$char_traits@D@std@@@0@AAV10@D@Z$2 10066030 f   Pipi_edit.obj
 0001:0006503d       __ehhandler$??$?6U?$char_traits@D@std@@@std@@YAAAV?$basic_ostream@DU?$char_traits@D@std@@@0@AAV10@D@Z 1006603d f   Pipi_edit.obj
 0001:00065070       __unwindfunclet$??$?0AAHHX@?$basic_config@Ujson_args@configor@@@configor@@QAE@AAH@Z$0 10066070 f   Pipi_edit.obj
 0001:00065070       __unwindfunclet$??$?0AAY04$$CBD$$BY04DX@?$basic_config@Ujson_args@configor@@@configor@@QAE@AAY04$$CBD@Z$0 10066070 f   Pipi_edit.obj
 0001:00065070       __unwindfunclet$??$?0AAY07$$CBD$$BY07DX@?$basic_config@Ujson_args@configor@@@configor@@QAE@AAY07$$CBD@Z$0 10066070 f   Pipi_edit.obj
 0001:00065070       __unwindfunclet$??$?0V?$basic_string@DU?$char_traits@D@std@@V?$allocator@D@2@@std@@V01@X@?$basic_config@Ujson_args@configor@@@configor@@QAE@$$QAV?$basic_string@DU?$char_traits@D@std@@V?$allocator@D@2@@std@@@Z$0 10066070 f   Pipi_edit.obj
 0001:0006507d       __ehhandler$??$?0AAHHX@?$basic_config@Ujson_args@configor@@@configor@@QAE@AAH@Z 1006607d f   Pipi_edit.obj
 0001:0006507d       __ehhandler$??$?0AAY04$$CBD$$BY04DX@?$basic_config@Ujson_args@configor@@@configor@@QAE@AAY04$$CBD@Z 1006607d f   Pipi_edit.obj
 0001:0006507d       __ehhandler$??$?0AAY07$$CBD$$BY07DX@?$basic_config@Ujson_args@configor@@@configor@@QAE@AAY07$$CBD@Z 1006607d f   Pipi_edit.obj
 0001:0006507d       __ehhandler$??$?0V?$basic_string@DU?$char_traits@D@std@@V?$allocator@D@2@@std@@V01@X@?$basic_config@Ujson_args@configor@@@configor@@QAE@$$QAV?$basic_string@DU?$char_traits@D@std@@V?$allocator@D@2@@std@@@Z 1006607d f   Pipi_edit.obj
 0001:000650a0       __unwindfunclet$??$_Uninitialized_copy@PAV?$basic_config@Ujson_args@configor@@@configor@@V?$allocator@V?$basic_config@Ujson_args@configor@@@configor@@@std@@@std@@YAPAV?$basic_config@Ujson_args@configor@@@configor@@QAV12@0PAV12@AAV?$allocator@V?$basic_config@Ujson_args@configor@@@configor@@@0@@Z$0 100660a0 f   Pipi_edit.obj
 0001:000650a0       __unwindfunclet$??$_Uninitialized_copy@PBV?$basic_config@Ujson_args@configor@@@configor@@V?$allocator@V?$basic_config@Ujson_args@configor@@@configor@@@std@@@std@@YAPAV?$basic_config@Ujson_args@configor@@@configor@@QBV12@0PAV12@AAV?$allocator@V?$basic_config@Ujson_args@configor@@@configor@@@0@@Z$0 100660a0 f   Pipi_edit.obj
 0001:000650a0       __unwindfunclet$??$_Uninitialized_move@PAV?$basic_config@Ujson_args@configor@@@configor@@V?$allocator@V?$basic_config@Ujson_args@configor@@@configor@@@std@@@std@@YAPAV?$basic_config@Ujson_args@configor@@@configor@@QAV12@0PAV12@AAV?$allocator@V?$basic_config@Ujson_args@configor@@@configor@@@0@@Z$0 100660a0 f   Pipi_edit.obj
 0001:000650ad       __ehhandler$??$_Uninitialized_copy@PAV?$basic_config@Ujson_args@configor@@@configor@@V?$allocator@V?$basic_config@Ujson_args@configor@@@configor@@@std@@@std@@YAPAV?$basic_config@Ujson_args@configor@@@configor@@QAV12@0PAV12@AAV?$allocator@V?$basic_config@Ujson_args@configor@@@configor@@@0@@Z 100660ad f   Pipi_edit.obj
 0001:000650ad       __ehhandler$??$_Uninitialized_copy@PBV?$basic_config@Ujson_args@configor@@@configor@@V?$allocator@V?$basic_config@Ujson_args@configor@@@configor@@@std@@@std@@YAPAV?$basic_config@Ujson_args@configor@@@configor@@QBV12@0PAV12@AAV?$allocator@V?$basic_config@Ujson_args@configor@@@configor@@@0@@Z 100660ad f   Pipi_edit.obj
 0001:000650ad       __ehhandler$??$_Uninitialized_move@PAV?$basic_config@Ujson_args@configor@@@configor@@V?$allocator@V?$basic_config@Ujson_args@configor@@@configor@@@std@@@std@@YAPAV?$basic_config@Ujson_args@configor@@@configor@@QAV12@0PAV12@AAV?$allocator@V?$basic_config@Ujson_args@configor@@@configor@@@0@@Z 100660ad f   Pipi_edit.obj
 0001:000650e0       __unwindfunclet$??0?$basic_string@DU?$char_traits@D@std@@V?$allocator@D@2@@std@@QAE@U_String_constructor_concat_tag@1@ABV01@QBDI2I@Z$0 100660e0 f   Pipi_edit.obj
 0001:000650ed       __ehhandler$??0?$basic_string@DU?$char_traits@D@std@@V?$allocator@D@2@@std@@QAE@U_String_constructor_concat_tag@1@ABV01@QBDI2I@Z 100660ed f   Pipi_edit.obj
 0001:00065120       __unwindfunclet$??0?$num_put@DV?$ostreambuf_iterator@DU?$char_traits@D@std@@@std@@@std@@QAE@ABV_Locinfo@1@I@Z$0 10066120 f   Pipi_edit.obj
 0001:00065120       __unwindfunclet$??0?$numpunct@D@std@@QAE@ABV_Locinfo@1@I_N@Z$0 10066120 f   Pipi_edit.obj
 0001:0006512d       __ehhandler$??0?$num_put@DV?$ostreambuf_iterator@DU?$char_traits@D@std@@@std@@@std@@QAE@ABV_Locinfo@1@I@Z 1006612d f   Pipi_edit.obj
 0001:0006512d       __ehhandler$??0?$numpunct@D@std@@QAE@ABV_Locinfo@1@I_N@Z 1006612d f   Pipi_edit.obj
 0001:00065150       __unwindfunclet$?_Init@?$numpunct@D@std@@IAEXABV_Locinfo@2@_N@Z$0 10066150 f   Pipi_edit.obj
 0001:0006515d       __ehhandler$?_Init@?$numpunct@D@std@@IAEXABV_Locinfo@2@_N@Z 1006615d f   Pipi_edit.obj
 0001:00065190       __unwindfunclet$??$_Insert_string@DU?$char_traits@D@std@@I@std@@YAAAV?$basic_ostream@DU?$char_traits@D@std@@@0@AAV10@QBDI@Z$2 10066190 f   Pipi_edit.obj
 0001:0006519d       __ehhandler$??$_Insert_string@DU?$char_traits@D@std@@I@std@@YAAAV?$basic_ostream@DU?$char_traits@D@std@@@0@AAV10@QBDI@Z 1006619d f   Pipi_edit.obj
 0001:000651d0       __unwindfunclet$??$dump_config@V?$basic_config@Ujson_args@configor@@@configor@@X@configor@@YAXABV?$basic_config@Ujson_args@configor@@@0@AAV?$basic_ostream@DU?$char_traits@D@std@@@std@@ABUargs@?$json_serializer@V?$basic_config@Ujson_args@configor@@@configor@@@detail@0@PAVerror_handler@0@@Z$0 100661d0 f   Pipi_edit.obj
 0001:000651e0       __ehhandler$??$dump_config@V?$basic_config@Ujson_args@configor@@@configor@@X@configor@@YAXABV?$basic_config@Ujson_args@configor@@@0@AAV?$basic_ostream@DU?$char_traits@D@std@@@std@@ABUargs@?$json_serializer@V?$basic_config@Ujson_args@configor@@@configor@@@detail@0@PAVerror_handler@0@@Z 100661e0 f   Pipi_edit.obj
 0001:00065210       __unwindfunclet$??0?$vector@V?$basic_config@Ujson_args@configor@@@configor@@V?$allocator@V?$basic_config@Ujson_args@configor@@@configor@@@std@@@std@@QAE@ABV01@@Z$0 10066210 f   Pipi_edit.obj
 0001:0006521d       __ehhandler$??0?$vector@V?$basic_config@Ujson_args@configor@@@configor@@V?$allocator@V?$basic_config@Ujson_args@configor@@@configor@@@std@@@std@@QAE@ABV01@@Z 1006621d f   Pipi_edit.obj
 0001:00065250       __unwindfunclet$??0?$json_serializer@V?$basic_config@Ujson_args@configor@@@configor@@@detail@configor@@QAE@ABUargs@012@@Z$0 10066250 f   Pipi_edit.obj
 0001:0006525b       __unwindfunclet$??0?$json_serializer@V?$basic_config@Ujson_args@configor@@@configor@@@detail@configor@@QAE@ABUargs@012@@Z$1 1006625b f   Pipi_edit.obj
 0001:0006526b       __ehhandler$??0?$json_serializer@V?$basic_config@Ujson_args@configor@@@configor@@@detail@configor@@QAE@ABUargs@012@@Z 1006626b f   Pipi_edit.obj
 0001:00065290       __unwindfunclet$??$adl_to_config@V?$basic_config@Ujson_args@configor@@@configor@@$$BY04D@detail@configor@@YAXAAV?$basic_config@Ujson_args@configor@@@1@AAY04$$CBD@Z$0 10066290 f   Pipi_edit.obj
 0001:00065290       __unwindfunclet$??$adl_to_config@V?$basic_config@Ujson_args@configor@@@configor@@$$BY07D@detail@configor@@YAXAAV?$basic_config@Ujson_args@configor@@@1@AAY07$$CBD@Z$0 10066290 f   Pipi_edit.obj
 0001:0006529d       __ehhandler$??$adl_to_config@V?$basic_config@Ujson_args@configor@@@configor@@$$BY04D@detail@configor@@YAXAAV?$basic_config@Ujson_args@configor@@@1@AAY04$$CBD@Z 1006629d f   Pipi_edit.obj
 0001:0006529d       __ehhandler$??$adl_to_config@V?$basic_config@Ujson_args@configor@@@configor@@$$BY07D@detail@configor@@YAXAAV?$basic_config@Ujson_args@configor@@@1@AAY07$$CBD@Z 1006629d f   Pipi_edit.obj
 0001:000652c0       __ehhandler$??$dump_config@V?$basic_config@Ujson_args@configor@@@configor@@X@configor@@YAXABV?$basic_config@Ujson_args@configor@@@0@AAV?$basic_ostream@DU?$char_traits@D@std@@@std@@AAV?$basic_serializer@V?$basic_config@Ujson_args@configor@@@configor@@@0@PAVerror_handler@0@@Z 100662c0 f   Pipi_edit.obj
 0001:000652e0       __unwindfunclet$??$?0AAV?$basic_string@DU?$char_traits@D@std@@V?$allocator@D@2@@std@@AAV?$basic_config@Ujson_args@configor@@@configor@@@?$_Tree_temp_node@V?$allocator@U?$_Tree_node@U?$pair@$$CBV?$basic_string@DU?$char_traits@D@std@@V?$allocator@D@2@@std@@V?$basic_config@Ujson_args@configor@@@configor@@@std@@PAX@std@@@std@@@std@@QAE@AAV?$allocator@U?$_Tree_node@U?$pair@$$CBV?$basic_string@DU?$char_traits@D@std@@V?$allocator@D@2@@std@@V?$basic_config@Ujson_args@configor@@@configor@@@std@@PAX@std@@@1@PAU?$_Tree_node@U?$pair@$$CBV?$basic_string@DU?$char_traits@D@std@@V?$allocator@D@2@@std@@V?$basic_config@Ujson_args@configor@@@configor@@@std@@PAX@1@AAV?$basic_string@DU?$char_traits@D@std@@V?$allocator@D@2@@1@AAV?$basic_config@Ujson_args@configor@@@configor@@@Z$0 100662e0 f   Pipi_edit.obj
 0001:000652ed       __ehhandler$??$?0AAV?$basic_string@DU?$char_traits@D@std@@V?$allocator@D@2@@std@@AAV?$basic_config@Ujson_args@configor@@@configor@@@?$_Tree_temp_node@V?$allocator@U?$_Tree_node@U?$pair@$$CBV?$basic_string@DU?$char_traits@D@std@@V?$allocator@D@2@@std@@V?$basic_config@Ujson_args@configor@@@configor@@@std@@PAX@std@@@std@@@std@@QAE@AAV?$allocator@U?$_Tree_node@U?$pair@$$CBV?$basic_string@DU?$char_traits@D@std@@V?$allocator@D@2@@std@@V?$basic_config@Ujson_args@configor@@@configor@@@std@@PAX@std@@@1@PAU?$_Tree_node@U?$pair@$$CBV?$basic_string@DU?$char_traits@D@std@@V?$allocator@D@2@@std@@V?$basic_config@Ujson_args@configor@@@configor@@@std@@PAX@1@AAV?$basic_string@DU?$char_traits@D@std@@V?$allocator@D@2@@1@AAV?$basic_config@Ujson_args@configor@@@configor@@@Z 100662ed f   Pipi_edit.obj
 0001:00065310       __unwindfunclet$??$?0V?$allocator@U?$_Tree_node@U?$pair@$$CBV?$basic_string@DU?$char_traits@D@std@@V?$allocator@D@2@@std@@V?$basic_config@Ujson_args@configor@@@configor@@@std@@PAX@std@@@std@@@?$_Tree@V?$_Tmap_traits@V?$basic_string@DU?$char_traits@D@std@@V?$allocator@D@2@@std@@V?$basic_config@Ujson_args@configor@@@configor@@U?$less@V?$basic_string@DU?$char_traits@D@std@@V?$allocator@D@2@@std@@@2@V?$allocator@U?$pair@$$CBV?$basic_string@DU?$char_traits@D@std@@V?$allocator@D@2@@std@@V?$basic_config@Ujson_args@configor@@@configor@@@std@@@2@$0A@@std@@@std@@QAE@ABV01@$$QAV?$allocator@U?$_Tree_node@U?$pair@$$CBV?$basic_string@DU?$char_traits@D@std@@V?$allocator@D@2@@std@@V?$basic_config@Ujson_args@configor@@@configor@@@std@@PAX@std@@@1@@Z$0 10066310 f   Pipi_edit.obj
 0001:0006531d       __ehhandler$??$?0V?$allocator@U?$_Tree_node@U?$pair@$$CBV?$basic_string@DU?$char_traits@D@std@@V?$allocator@D@2@@std@@V?$basic_config@Ujson_args@configor@@@configor@@@std@@PAX@std@@@std@@@?$_Tree@V?$_Tmap_traits@V?$basic_string@DU?$char_traits@D@std@@V?$allocator@D@2@@std@@V?$basic_config@Ujson_args@configor@@@configor@@U?$less@V?$basic_string@DU?$char_traits@D@std@@V?$allocator@D@2@@std@@@2@V?$allocator@U?$pair@$$CBV?$basic_string@DU?$char_traits@D@std@@V?$allocator@D@2@@std@@V?$basic_config@Ujson_args@configor@@@configor@@@std@@@2@$0A@@std@@@std@@QAE@ABV01@$$QAV?$allocator@U?$_Tree_node@U?$pair@$$CBV?$basic_string@DU?$char_traits@D@std@@V?$allocator@D@2@@std@@V?$basic_config@Ujson_args@configor@@@configor@@@std@@PAX@std@@@1@@Z 1006631d f   Pipi_edit.obj
 0001:00065350       __unwindfunclet$??0?$_Tree_temp_node_alloc@V?$allocator@U?$_Tree_node@U?$pair@$$CBV?$basic_string@DU?$char_traits@D@std@@V?$allocator@D@2@@std@@V?$basic_config@Ujson_args@configor@@@configor@@@std@@PAX@std@@@std@@@std@@QAE@AAV?$allocator@U?$_Tree_node@U?$pair@$$CBV?$basic_string@DU?$char_traits@D@std@@V?$allocator@D@2@@std@@V?$basic_config@Ujson_args@configor@@@configor@@@std@@PAX@std@@@1@@Z$0 10066350 f   Pipi_edit.obj
 0001:0006535d       __ehhandler$??0?$_Tree_temp_node_alloc@V?$allocator@U?$_Tree_node@U?$pair@$$CBV?$basic_string@DU?$char_traits@D@std@@V?$allocator@D@2@@std@@V?$basic_config@Ujson_args@configor@@@configor@@@std@@PAX@std@@@std@@@std@@QAE@AAV?$allocator@U?$_Tree_node@U?$pair@$$CBV?$basic_string@DU?$char_traits@D@std@@V?$allocator@D@2@@std@@V?$basic_config@Ujson_args@configor@@@configor@@@std@@PAX@std@@@1@@Z 1006635d f   Pipi_edit.obj
 0001:00065380       __unwindfunclet$??4?$basic_config@Ujson_args@configor@@@configor@@QAEAAV01@V01@@Z$0 10066380 f   Pipi_edit.obj
 0001:0006538d       __ehhandler$??4?$basic_config@Ujson_args@configor@@@configor@@QAEAAV01@V01@@Z 1006638d f   Pipi_edit.obj
 0001:000653b0       __unwindfunclet$??$?0AAV?$basic_string@DU?$char_traits@D@std@@V?$allocator@D@2@@std@@AAV?$basic_config@Ujson_args@configor@@@configor@@$0A@@?$pair@$$CBV?$basic_string@DU?$char_traits@D@std@@V?$allocator@D@2@@std@@V?$basic_config@Ujson_args@configor@@@configor@@@std@@QAE@AAV?$basic_string@DU?$char_traits@D@std@@V?$allocator@D@2@@1@AAV?$basic_config@Ujson_args@configor@@@configor@@@Z$0 100663b0 f   Pipi_edit.obj
 0001:000653b0       __unwindfunclet$??0?$pair@$$CBV?$basic_string@DU?$char_traits@D@std@@V?$allocator@D@2@@std@@V?$basic_config@Ujson_args@configor@@@configor@@@std@@QAE@ABU01@@Z$0 100663b0 f   Pipi_edit.obj
 0001:000653bd       __ehhandler$??$?0AAV?$basic_string@DU?$char_traits@D@std@@V?$allocator@D@2@@std@@AAV?$basic_config@Ujson_args@configor@@@configor@@$0A@@?$pair@$$CBV?$basic_string@DU?$char_traits@D@std@@V?$allocator@D@2@@std@@V?$basic_config@Ujson_args@configor@@@configor@@@std@@QAE@AAV?$basic_string@DU?$char_traits@D@std@@V?$allocator@D@2@@1@AAV?$basic_config@Ujson_args@configor@@@configor@@@Z 100663bd f   Pipi_edit.obj
 0001:000653bd       __ehhandler$??0?$pair@$$CBV?$basic_string@DU?$char_traits@D@std@@V?$allocator@D@2@@std@@V?$basic_config@Ujson_args@configor@@@configor@@@std@@QAE@ABU01@@Z 100663bd f   Pipi_edit.obj
 0001:000653e0       __ehhandler$??$_Copy_nodes@U_Copy_tag@?$_Tree@V?$_Tmap_traits@V?$basic_string@DU?$char_traits@D@std@@V?$allocator@D@2@@std@@V?$basic_config@Ujson_args@configor@@@configor@@U?$less@V?$basic_string@DU?$char_traits@D@std@@V?$allocator@D@2@@std@@@2@V?$allocator@U?$pair@$$CBV?$basic_string@DU?$char_traits@D@std@@V?$allocator@D@2@@std@@V?$basic_config@Ujson_args@configor@@@configor@@@std@@@2@$0A@@std@@@std@@@?$_Tree@V?$_Tmap_traits@V?$basic_string@DU?$char_traits@D@std@@V?$allocator@D@2@@std@@V?$basic_config@Ujson_args@configor@@@configor@@U?$less@V?$basic_string@DU?$char_traits@D@std@@V?$allocator@D@2@@std@@@2@V?$allocator@U?$pair@$$CBV?$basic_string@DU?$char_traits@D@std@@V?$allocator@D@2@@std@@V?$basic_config@Ujson_args@configor@@@configor@@@std@@@2@$0A@@std@@@std@@IAEPAU?$_Tree_node@U?$pair@$$CBV?$basic_string@DU?$char_traits@D@std@@V?$allocator@D@2@@std@@V?$basic_config@Ujson_args@configor@@@configor@@@std@@PAX@1@PAU21@0U_Copy_tag@01@@Z 100663e0 f   Pipi_edit.obj
 0001:00065400       __unwindfunclet$??$_Buynode@V?$allocator@U?$_Tree_node@U?$pair@$$CBV?$basic_string@DU?$char_traits@D@std@@V?$allocator@D@2@@std@@V?$basic_config@Ujson_args@configor@@@configor@@@std@@PAX@std@@@std@@AAU?$pair@$$CBV?$basic_string@DU?$char_traits@D@std@@V?$allocator@D@2@@std@@V?$basic_config@Ujson_args@configor@@@configor@@@2@@?$_Tree_node@U?$pair@$$CBV?$basic_string@DU?$char_traits@D@std@@V?$allocator@D@2@@std@@V?$basic_config@Ujson_args@configor@@@configor@@@std@@PAX@std@@SAPAU01@AAV?$allocator@U?$_Tree_node@U?$pair@$$CBV?$basic_string@DU?$char_traits@D@std@@V?$allocator@D@2@@std@@V?$basic_config@Ujson_args@configor@@@configor@@@std@@PAX@std@@@1@PAU01@AAU?$pair@$$CBV?$basic_string@DU?$char_traits@D@std@@V?$allocator@D@2@@std@@V?$basic_config@Ujson_args@configor@@@configor@@@1@@Z$0 10066400 f   Pipi_edit.obj
 0001:0006540d       __ehhandler$??$_Buynode@V?$allocator@U?$_Tree_node@U?$pair@$$CBV?$basic_string@DU?$char_traits@D@std@@V?$allocator@D@2@@std@@V?$basic_config@Ujson_args@configor@@@configor@@@std@@PAX@std@@@std@@AAU?$pair@$$CBV?$basic_string@DU?$char_traits@D@std@@V?$allocator@D@2@@std@@V?$basic_config@Ujson_args@configor@@@configor@@@2@@?$_Tree_node@U?$pair@$$CBV?$basic_string@DU?$char_traits@D@std@@V?$allocator@D@2@@std@@V?$basic_config@Ujson_args@configor@@@configor@@@std@@PAX@std@@SAPAU01@AAV?$allocator@U?$_Tree_node@U?$pair@$$CBV?$basic_string@DU?$char_traits@D@std@@V?$allocator@D@2@@std@@V?$basic_config@Ujson_args@configor@@@configor@@@std@@PAX@std@@@1@PAU01@AAU?$pair@$$CBV?$basic_string@DU?$char_traits@D@std@@V?$allocator@D@2@@std@@V?$basic_config@Ujson_args@configor@@@configor@@@1@@Z 1006640d f   Pipi_edit.obj
 0001:00065440       __unwindfunclet$?VectorRotate@Vector@@QAEXAAV1@AAVQAngle@@@Z$0 10066440 f   Vector.obj
 0001:00065448       __unwindfunclet$?VectorRotate@Vector@@QAEXAAV1@AAVQAngle@@@Z$1 10066448 f   Vector.obj
 0001:00065450       __unwindfunclet$?VectorRotate@Vector@@QAEXAAV1@AAVQAngle@@@Z$2 10066450 f   Vector.obj
 0001:0006545d       __ehhandler$?VectorRotate@Vector@@QAEXAAV1@AAVQAngle@@@Z 1006645d f   Vector.obj
 0001:00065490       __unwindfunclet$?ToEulerAngles@Vector@@QAE?AVQAngle@@XZ$0 10066490 f   Vector.obj
 0001:0006549d       __ehhandler$?ToEulerAngles@Vector@@QAE?AVQAngle@@XZ 1006649d f   Vector.obj
 0001:000654c0       __unwindfunclet$?ToEulerAngles@Vector@@QAE?AVQAngle@@PAV1@@Z$0 100664c0 f   Vector.obj
 0001:000654c8       __unwindfunclet$?ToEulerAngles@Vector@@QAE?AVQAngle@@PAV1@@Z$1 100664c8 f   Vector.obj
 0001:000654d5       __ehhandler$?ToEulerAngles@Vector@@QAE?AVQAngle@@PAV1@@Z 100664d5 f   Vector.obj
 0001:000654fc       __unwindfunclet$?_Init@locale@std@@CAPAV_Locimp@12@_N@Z$0 100664fc f   libcpmt:locale0.obj
 0001:00065509       __ehhandler$?_Init@locale@std@@CAPAV_Locimp@12@_N@Z 10066509 f   libcpmt:locale0.obj
 0001:00065526       __unwindfunclet$??0bad_exception@std@@QAE@ABV01@@Z$0 10066526 f   libcpmt:excptptr.obj
 0001:00065533       __ehhandler$??0bad_exception@std@@QAE@ABV01@@Z 10066533 f   libcpmt:excptptr.obj
 0001:00065550       __unwindfunclet$??0bad_exception@std@@QAE@XZ$0 10066550 f   libcpmt:excptptr.obj
 0001:00065550       __unwindfunclet$??1bad_exception@std@@UAE@XZ$0 10066550 f   libcpmt:excptptr.obj
 0001:0006555d       __ehhandler$??0bad_exception@std@@QAE@XZ 1006655d f   libcpmt:excptptr.obj
 0001:0006555d       __ehhandler$??1bad_exception@std@@UAE@XZ 1006655d f   libcpmt:excptptr.obj
 0001:0006557a       __unwindfunclet$??1?$_ExceptionPtr_static@Vbad_alloc@std@@@?A0x22a8a7b5@@UAE@XZ$0 1006657a f   libcpmt:excptptr.obj
 0001:0006558a       __ehhandler$??1?$_ExceptionPtr_static@Vbad_alloc@std@@@?A0x22a8a7b5@@UAE@XZ 1006658a f   libcpmt:excptptr.obj
 0001:000655a7       __unwindfunclet$??1?$_ExceptionPtr_static@Vbad_exception@std@@@?A0x22a8a7b5@@UAE@XZ$0 100665a7 f   libcpmt:excptptr.obj
 0001:000655b7       __ehhandler$??1?$_ExceptionPtr_static@Vbad_exception@std@@@?A0x22a8a7b5@@UAE@XZ 100665b7 f   libcpmt:excptptr.obj
 0001:000655d4       __unwindfunclet$??4?$shared_ptr@$$CBU_EXCEPTION_RECORD@@@std@@QAEAAV01@$$QAV01@@Z$0 100665d4 f   libcpmt:excptptr.obj
 0001:000655e1       __ehhandler$??4?$shared_ptr@$$CBU_EXCEPTION_RECORD@@@std@@QAEAAV01@$$QAV01@@Z 100665e1 f   libcpmt:excptptr.obj
 0001:000655fe       __unwindfunclet$??_G?$_ExceptionPtr_static@Vbad_alloc@std@@@?A0x22a8a7b5@@UAEPAXI@Z$0 100665fe f   libcpmt:excptptr.obj
 0001:0006560e       __ehhandler$??_G?$_ExceptionPtr_static@Vbad_alloc@std@@@?A0x22a8a7b5@@UAEPAXI@Z 1006660e f   libcpmt:excptptr.obj
 0001:0006562b       __unwindfunclet$??_G?$_ExceptionPtr_static@Vbad_exception@std@@@?A0x22a8a7b5@@UAEPAXI@Z$0 1006662b f   libcpmt:excptptr.obj
 0001:0006563b       __ehhandler$??_G?$_ExceptionPtr_static@Vbad_exception@std@@@?A0x22a8a7b5@@UAEPAXI@Z 1006663b f   libcpmt:excptptr.obj
 0001:00065658       __unwindfunclet$??__E?$_Immortalize_impl@V?$_ExceptionPtr_static@Vbad_alloc@std@@@?A0x22a8a7b5@@@?A0x22a8a7b5@@YAXXZ$2 10066658 f   libcpmt:excptptr.obj
 0001:00065660       __unwindfunclet$??__E?$_Immortalize_impl@V?$_ExceptionPtr_static@Vbad_alloc@std@@@?A0x22a8a7b5@@@?A0x22a8a7b5@@YAXXZ$1 10066660 f   libcpmt:excptptr.obj
 0001:0006566b       __unwindfunclet$??__E?$_Immortalize_impl@V?$_ExceptionPtr_static@Vbad_alloc@std@@@?A0x22a8a7b5@@@?A0x22a8a7b5@@YAXXZ$0 1006666b f   libcpmt:excptptr.obj
 0001:0006567a       __ehhandler$??__E?$_Immortalize_impl@V?$_ExceptionPtr_static@Vbad_alloc@std@@@?A0x22a8a7b5@@@?A0x22a8a7b5@@YAXXZ 1006667a f   libcpmt:excptptr.obj
 0001:00065697       __unwindfunclet$??__E?$_Immortalize_impl@V?$_ExceptionPtr_static@Vbad_exception@std@@@?A0x22a8a7b5@@@?A0x22a8a7b5@@YAXXZ$2 10066697 f   libcpmt:excptptr.obj
 0001:0006569f       __unwindfunclet$??__E?$_Immortalize_impl@V?$_ExceptionPtr_static@Vbad_exception@std@@@?A0x22a8a7b5@@@?A0x22a8a7b5@@YAXXZ$1 1006669f f   libcpmt:excptptr.obj
 0001:000656aa       __unwindfunclet$??__E?$_Immortalize_impl@V?$_ExceptionPtr_static@Vbad_exception@std@@@?A0x22a8a7b5@@@?A0x22a8a7b5@@YAXXZ$0 100666aa f   libcpmt:excptptr.obj
 0001:000656b9       __ehhandler$??__E?$_Immortalize_impl@V?$_ExceptionPtr_static@Vbad_exception@std@@@?A0x22a8a7b5@@@?A0x22a8a7b5@@YAXXZ 100666b9 f   libcpmt:excptptr.obj
 0001:000656d6       __unwindfunclet$?_Assign_cpp_exception_ptr_from_record@?A0x22a8a7b5@@YAXAAV?$shared_ptr@$$CBU_EXCEPTION_RECORD@@@std@@ABUEHExceptionRecord@@@Z$4 100666d6 f   libcpmt:excptptr.obj
 0001:000656de       __unwindfunclet$?_Assign_cpp_exception_ptr_from_record@?A0x22a8a7b5@@YAXAAV?$shared_ptr@$$CBU_EXCEPTION_RECORD@@@std@@ABUEHExceptionRecord@@@Z$6 100666de f   libcpmt:excptptr.obj
 0001:000656e6       __unwindfunclet$?_Assign_cpp_exception_ptr_from_record@?A0x22a8a7b5@@YAXAAV?$shared_ptr@$$CBU_EXCEPTION_RECORD@@@std@@ABUEHExceptionRecord@@@Z$7 100666e6 f   libcpmt:excptptr.obj
 0001:000656ee       __unwindfunclet$?_Assign_cpp_exception_ptr_from_record@?A0x22a8a7b5@@YAXAAV?$shared_ptr@$$CBU_EXCEPTION_RECORD@@@std@@ABUEHExceptionRecord@@@Z$5 100666ee f   libcpmt:excptptr.obj
 0001:000656fb       __ehhandler$?_Assign_cpp_exception_ptr_from_record@?A0x22a8a7b5@@YAXAAV?$shared_ptr@$$CBU_EXCEPTION_RECORD@@@std@@ABUEHExceptionRecord@@@Z 100666fb f   libcpmt:excptptr.obj
 0001:00065718       __ehhandler$?_Delete_this@_ExceptionPtr_normal@?A0x22a8a7b5@@EAEXXZ 10066718 f   libcpmt:excptptr.obj
 0001:00065735       __ehhandler$?_Destroy@_ExceptionPtr_normal@?A0x22a8a7b5@@EAEXXZ 10066735 f   libcpmt:excptptr.obj
 0001:00065752       __unwindfunclet$?_Get@?$_ExceptionPtr_static@Vbad_alloc@std@@@?A0x22a8a7b5@@SA?AV?$shared_ptr@$$CBU_EXCEPTION_RECORD@@@std@@XZ$0 10066752 f   libcpmt:excptptr.obj
 0001:00065752       __unwindfunclet$?_Get@?$_ExceptionPtr_static@Vbad_exception@std@@@?A0x22a8a7b5@@SA?AV?$shared_ptr@$$CBU_EXCEPTION_RECORD@@@std@@XZ$0 10066752 f   libcpmt:excptptr.obj
 0001:00065770       __ehhandler$?_Get@?$_ExceptionPtr_static@Vbad_alloc@std@@@?A0x22a8a7b5@@SA?AV?$shared_ptr@$$CBU_EXCEPTION_RECORD@@@std@@XZ 10066770 f   libcpmt:excptptr.obj
 0001:00065770       __ehhandler$?_Get@?$_ExceptionPtr_static@Vbad_exception@std@@@?A0x22a8a7b5@@SA?AV?$shared_ptr@$$CBU_EXCEPTION_RECORD@@@std@@XZ 10066770 f   libcpmt:excptptr.obj
 0001:0006578d       __unwindfunclet$?__ExceptionPtrCurrentException@@YAXPAX@Z$0 1006678d f   libcpmt:excptptr.obj
 0001:0006579a       __ehhandler$?__ExceptionPtrCurrentException@@YAXPAX@Z 1006679a f   libcpmt:excptptr.obj
 0001:000657b7       __ehhandler$?CallUnexpected@@YAXPBU_s_ESTypeList@@@Z 100667b7 f   libvcruntime:frame.obj
 0001:000657d4       __ehhandler$?common_exit@@YAXHW4_crt_exit_cleanup_mode@@W4_crt_exit_return_mode@@@Z 100667d4 f   libucrt:exit.obj
 0001:000657f1       __ehhandler$___dcrt_uninitialize_environments_nolock 100667f1 f   libucrt:environment_initialization.obj
 0001:0006580e       __ehhandler$__execute_onexit_table 1006680e f   libucrt:onexit.obj
 0001:0006582b       __ehhandler$?write_double_translated_ansi_nolock@@YA?AUwrite_result@?A0x17268360@@HQBDIAAV__crt_cached_ptd_host@@@Z 1006682b f   libucrt:write.obj
 0001:00065855       __ehhandler$?_mbstowcs_l_helper@@YAIPA_WPBDIAAV__crt_cached_ptd_host@@@Z 10066855 f   libucrt:mbstowcs.obj
 0001:00065880       ??__Fg_Utils@@YAXXZ        10066880 f   Utils.obj
 0001:00065890       ??__FmySounds@@YAXXZ       10066890 f   Sounds.obj
 0001:000658a0       ??__FGrenades@@YAXXZ       100668a0 f   Visuals.obj
 0001:000658c0       ??__Fg_Local@@YAXXZ        100668c0 f   World.obj
 0001:000658d0       ??__Fg_Player@@YAXXZ       100668d0 f   World.obj
 0001:000658f0       ??__Fg_Entities@@YAXXZ     100668f0 f   World.obj
 0001:00065910       ??__Fg_PlayerExtraInfoList@@YAXXZ 10066910 f   World.obj
 0001:00065930       ??__Fbase64_chars@@YAXXZ   10066930 f   Main.obj
 0001:00065940       ??__Fg_jsonfile@@YAXXZ     10066940 f   Pipi_edit.obj
 0001:0006594f       ??__Finitlocks@std@@YAXXZ  1006694f f   libcpmt:xlock.obj
 0001:00065959       ??__F_Fac_tidy_reg@std@@YAXXZ 10066959 f   libcpmt:locale0.obj
 0001:00065963       ??__Fclassic_locale@std@@YAXXZ 10066963 f   libcpmt:locale0.obj
 0001:0006596d       ??__F?$_Immortalize_impl@V?$_ExceptionPtr_static@Vbad_alloc@std@@@?A0x22a8a7b5@@@?A0x22a8a7b5@@YAXXZ 1006696d f   libcpmt:excptptr.obj
 0001:00065970       ??__F?$_Immortalize_impl@V?$_ExceptionPtr_static@Vbad_exception@std@@@?A0x22a8a7b5@@@?A0x22a8a7b5@@YAXXZ 10066970 f   libcpmt:excptptr.obj
 0001:00065973       ??__Finit_atexit@@YAXXZ    10066973 f   libcpmt:iosptrs.obj
 0001:0006597d       ??__Finitlocks@std@@YAXXZ  1006697d f   libcpmt:iosptrs.obj
 0002:00000254       ?initlocks$initializer$@std@@3P6AXXZA 10067254     libcpmt:xlock.obj
 0002:00000258       ?initlocks$initializer$@std@@3P6AXXZA 10067258     libcpmt:iosptrs.obj
 0002:0000025c       ?init_atexit$initializer$@@3P6AXXZA 1006725c     libcpmt:iosptrs.obj
 0002:00000260       ?_Fac_tidy_reg$initializer$@std@@3P6AXXZA 10067260     libcpmt:locale0.obj
 0002:00000264       ?classic_locale$initializer$@std@@3P6AXXZA 10067264     libcpmt:locale0.obj
 0002:00000268       ??$_Immortalize_impl@V?$_ExceptionPtr_static@Vbad_exception@std@@@?A0x22a8a7b5@@$initializer$@?A0x22a8a7b5@@3P6AXXZA 10067268     libcpmt:excptptr.obj
 0002:0000026c       ??$_Immortalize_impl@V?$_ExceptionPtr_static@Vbad_alloc@std@@@?A0x22a8a7b5@@$initializer$@?A0x22a8a7b5@@3P6AXXZA 1006726c     libcpmt:excptptr.obj
 0002:00000270       ?cvar$initializer$@@3P6AXXZA 10067270     Cvars.obj
 0002:00000274       ?speedcap$initializer$@@3P6AXXZA 10067274     Systems.obj
 0002:00000278       ?g_Utils$initializer$@@3P6AXXZA 10067278     Utils.obj
 0002:0000027c       ?mySounds$initializer$@@3P6AXXZA 1006727c     Sounds.obj
 0002:00000280       ?Grenades$initializer$@@3P6AXXZA 10067280     Visuals.obj
 0002:00000284       ?g_Local$initializer$@@3P6AXXZA 10067284     World.obj
 0002:00000288       ?g_Player$initializer$@@3P6AXXZA 10067288     World.obj
 0002:0000028c       ?g_Entities$initializer$@@3P6AXXZA 1006728c     World.obj
 0002:00000290       ?g_PlayerExtraInfoList$initializer$@@3P6AXXZA 10067290     World.obj
 0002:00000294       ??id$initializer$@?$codecvt@DDU_Mbstatet@@@std@@2P6AXXZA@@3P6AXXZA 10067294     World.obj
 0002:00000298       ?base64_chars$initializer$@@3P6AXXZA 10067298     Main.obj
 0002:0000029c       ?g_jsonfile$initializer$@@3P6AXXZA 1006729c     Pipi_edit.obj
 0002:000002a0       ?g_hwnd$initializer$@@3P6AXXZA 100672a0     Pipi_edit.obj
 0002:000002a4       ??id$initializer$@?$num_put@DV?$ostreambuf_iterator@DU?$char_traits@D@std@@@std@@@std@@2P6AXXZA@@3P6AXXZA 100672a4     Pipi_edit.obj
 0002:000002a8       ??id$initializer$@?$numpunct@D@std@@2P6AXXZA@@3P6AXXZA 100672a8     Pipi_edit.obj
 0002:000002b4       ?__scrt_initialize_tss_var@@3P6AHXZA 100672b4     LIBCMT:thread_safe_statics.obj
 0002:00001478       ?_Whitespace_bitmap@?A0x00f340cf@@3U_Whitespace_bitmap_t@1@B 10068478     libcpmt:syserror_import_lib.obj
 0002:00001578       ?_Win_errtab@?A0x9678aa79@@3QBU_Win_errtab_t@1@B 10068578     libcpmt:syserror.obj
 0002:000017f0       ?_Sys_errtab@?A0x9678aa79@@3QBU_Sys_errtab_t@1@B 100687f0     libcpmt:syserror.obj
 0002:000020d8       ?mods@?1??_Xfsopen@std@@YAPAU_iobuf@@PBDHH@Z@4QBQBDB 100690d8     libcpmt:fiopen.obj
 0002:00002164       ??_7_ExceptionPtr_normal@?A0x22a8a7b5@@6B@ 10069164     libcpmt:excptptr.obj
 0002:00002178       ??_7?$_ExceptionPtr_static@Vbad_alloc@std@@@?A0x22a8a7b5@@6B@ 10069178     libcpmt:excptptr.obj
 0002:0000218c       ??_7?$_ExceptionPtr_static@Vbad_exception@std@@@?A0x22a8a7b5@@6B@ 1006918c     libcpmt:excptptr.obj
 0002:0000229c       _digits                    1006929c     libcpmt:xstoul.obj
 0002:000022c4       _ndigs                     100692c4     libcpmt:xstoul.obj
 0002:000022ec       _digits                    100692ec     libcpmt:xstoull.obj
 0002:00002314       _ndigs                     10069314     libcpmt:xstoull.obj
 0002:000023e0       _GS_ExceptionPointers      100693e0     LIBCMT:gs_report.obj
 0002:000023f0       ?tokenTable@@3QBUStringLiteral@@B 100693f0     libvcruntime:undname.obj
 0002:00002470       ?nameTable@@3QBUStringLiteral@@B 10069470     libvcruntime:undname.obj
 0002:00002708       ?rttiTable@@3QBUStringLiteral@@B 10069708     libvcruntime:undname.obj
 0002:00002730       ?IndirectionName@@3QBUStringLiteral@@B 10069730     libvcruntime:undname.obj
 0002:00002760       ?PrefixName@@3QBUStringLiteral@@B 10069760     libvcruntime:undname.obj
 0002:00002d88       ?module_names@?A0x622b5085@@3QBQB_WB 10069d88     libvcruntime:winapi_downlevel.obj
 0002:00002e30       ?candidate_modules@?1??try_get_FlsAlloc@@YAP6GKP6GXPAX@Z@ZXZ@4QBW4module_id@?A0x622b5085@@B 10069e30     libvcruntime:winapi_downlevel.obj
 0002:00002e44       ?candidate_modules@?1??try_get_FlsFree@@YAP6GHK@ZXZ@4QBW4module_id@?A0x622b5085@@B 10069e44     libvcruntime:winapi_downlevel.obj
 0002:00002e54       ?candidate_modules@?1??try_get_FlsGetValue@@YAP6GPAXK@ZXZ@4QBW4module_id@?A0x622b5085@@B 10069e54     libvcruntime:winapi_downlevel.obj
 0002:00002e68       ?candidate_modules@?1??try_get_FlsSetValue@@YAP6GHKPAX@ZXZ@4QBW4module_id@?A0x622b5085@@B 10069e68     libvcruntime:winapi_downlevel.obj
 0002:00002e7c       ?candidate_modules@?1??try_get_InitializeCriticalSectionEx@@YAP6GHPAU_RTL_CRITICAL_SECTION@@KK@ZXZ@4QBW4module_id@?A0x622b5085@@B 10069e7c     libvcruntime:winapi_downlevel.obj
 0002:00004448       ?errtable@@3QBUerrentry@?A0x31fdb9ec@@B 1006b448     libucrt:errno.obj
 0002:000045b0       POW_name                   1006b5b0     libucrt:pow_impl.obj
 0002:00004660       ___acrt_initializers       1006b660     libucrt:initialization.obj
 0002:000046e0       __first_127char            1006b6e0     libucrt:wsetlocale.obj
 0002:00004d10       ?strings@?1??fp_format_nan_or_infinity@@YAHW4__acrt_fp_class@@_NPADI1@Z@4QAY03QBDA 1006bd10     libucrt:cvt.obj
 0002:00004d98       ?module_names@?A0x391cf84c@@3QBQB_WB 1006bd98     libucrt:winapi_thunks.obj
 0002:0000524c       ?candidate_modules@?1??try_get_AreFileApisANSI@@YAP6GHXZXZ@4QBW4module_id@?A0x391cf84c@@B 1006c24c     libucrt:winapi_thunks.obj
 0002:00005260       ?candidate_modules@?1??try_get_CompareStringEx@@YAP6GHPB_WK0H0HPAU_nlsversioninfo@@PAXJ@ZXZ@4QBW4module_id@?A0x391cf84c@@B 1006c260     libucrt:winapi_thunks.obj
 0002:00005278       ?candidate_modules@?1??try_get_EnumSystemLocalesEx@@YAP6GHP6GHPA_WKJ@ZKJPAX@ZXZ@4QBW4module_id@?A0x391cf84c@@B 1006c278     libucrt:winapi_thunks.obj
 0002:00005294       ?candidate_modules@?1??try_get_GetDateFormatEx@@YAP6GHPB_WKPBU_SYSTEMTIME@@0PA_WH0@ZXZ@4QBW4module_id@?A0x391cf84c@@B 1006c294     libucrt:winapi_thunks.obj
 0002:000052ac       ?candidate_modules@?1??try_get_GetLocaleInfoEx@@YAP6GHPB_WKPA_WH@ZXZ@4QBW4module_id@?A0x391cf84c@@B 1006c2ac     libucrt:winapi_thunks.obj
 0002:000052c4       ?candidate_modules@?1??try_get_GetTimeFormatEx@@YAP6GHPB_WKPBU_SYSTEMTIME@@0PA_WH@ZXZ@4QBW4module_id@?A0x391cf84c@@B 1006c2c4     libucrt:winapi_thunks.obj
 0002:000052dc       ?candidate_modules@?1??try_get_GetUserDefaultLocaleName@@YAP6GHPA_WH@ZXZ@4QBW4module_id@?A0x391cf84c@@B 1006c2dc     libucrt:winapi_thunks.obj
 0002:00005300       ?candidate_modules@?1??try_get_InitializeCriticalSectionEx@@YAP6GHPAU_RTL_CRITICAL_SECTION@@KK@ZXZ@4QBW4module_id@?A0x391cf84c@@B 1006c300     libucrt:winapi_thunks.obj
 0002:00005308       ?candidate_modules@?1??try_get_IsValidLocaleName@@YAP6GHPB_W@ZXZ@4QBW4module_id@?A0x391cf84c@@B 1006c308     libucrt:winapi_thunks.obj
 0002:00005324       ?candidate_modules@?1??try_get_LCMapStringEx@@YAP6GHPB_WK0HPA_WHPAU_nlsversioninfo@@PAXJ@ZXZ@4QBW4module_id@?A0x391cf84c@@B 1006c324     libucrt:winapi_thunks.obj
 0002:0000533c       ?candidate_modules@?1??try_get_LCIDToLocaleName@@YAP6GHKPA_WHK@ZXZ@4QBW4module_id@?A0x391cf84c@@B 1006c33c     libucrt:winapi_thunks.obj
 0002:00005358       ?candidate_modules@?1??try_get_LocaleNameToLCID@@YAP6GKPB_WK@ZXZ@4QBW4module_id@?A0x391cf84c@@B 1006c358     libucrt:winapi_thunks.obj
 0002:00005374       ?candidate_modules@?1??try_get_AppPolicyGetProcessTerminationMethod@@YAP6GJPAXPAW4AppPolicyProcessTerminationMethod@@@ZXZ@4QBW4module_id@?A0x391cf84c@@B 1006c374     libucrt:winapi_thunks.obj
 0002:000053a0       ?candidate_modules@?1??try_get_FlsAlloc@@YAP6GKP6GXPAX@Z@ZXZ@4QBW4module_id@?A0x391cf84c@@B 1006c3a0     libucrt:winapi_thunks.obj
 0002:000053a8       ?candidate_modules@?1??try_get_FlsFree@@YAP6GHK@ZXZ@4QBW4module_id@?A0x391cf84c@@B 1006c3a8     libucrt:winapi_thunks.obj
 0002:000053b0       ?candidate_modules@?1??try_get_FlsGetValue@@YAP6GPAXK@ZXZ@4QBW4module_id@?A0x391cf84c@@B 1006c3b0     libucrt:winapi_thunks.obj
 0002:000053b8       ?candidate_modules@?1??try_get_FlsSetValue@@YAP6GHKPAX@ZXZ@4QBW4module_id@?A0x391cf84c@@B 1006c3b8     libucrt:winapi_thunks.obj
 0002:00005450       ?_names@?1??_get_fname@@9@4QBU<unnamed-type-_names>@?1??1@YAPADI@Z@B 1006c450     libucrt:fpexcept.obj
 0002:00005618       _over                      1006c618     libucrt:fpctrl.obj
 0002:00005624       _under                     1006c624     libucrt:fpctrl.obj
 0002:00005630       Shifter                    1006c630     libucrt:pow_pentium4.obj
 0002:00005640       SIGMASK                    1006c640     libucrt:pow_pentium4.obj
 0002:00005650       ONEMASK                    1006c650     libucrt:pow_pentium4.obj
 0002:00005660       ABSVALMASK                 1006c660     libucrt:pow_pentium4.obj
 0002:00005670       cev                        1006c670     libucrt:pow_pentium4.obj
 0002:00005698       HALFSIG                    1006c698     libucrt:pow_pentium4.obj
 0002:000056a0       LHN                        1006c6a0     libucrt:pow_pentium4.obj
 0002:000056a8       sNaN                       1006c6a8     libucrt:pow_pentium4.obj
 0002:000056b0       INF                        1006c6b0     libucrt:pow_pentium4.obj
 0002:000056b8       NEG_INF                    1006c6b8     libucrt:pow_pentium4.obj
 0002:000056c0       NEG_ZERO                   1006c6c0     libucrt:pow_pentium4.obj
 0002:000056c8       NEG_BIG                    1006c6c8     libucrt:pow_pentium4.obj
 0002:000056d0       POS_BIG                    1006c6d0     libucrt:pow_pentium4.obj
 0002:000056d8       EMIN                       1006c6d8     libucrt:pow_pentium4.obj
 0002:000056e0       QIND                       1006c6e0     libucrt:pow_pentium4.obj
 0002:0000570e       _log2max                   1006c70e     libucrt:87tran.obj
 0002:00005718       _smallarg                  1006c718     libucrt:87tran.obj
 0002:00005722       _half                      1006c722     libucrt:87tran.obj
 0002:0000576e       One                        1006c76e     libucrt:87disp.obj
 0002:00005776       Three                      1006c776     libucrt:87disp.obj
 0002:0000577e       XAMtoTagTab                1006c77e     libucrt:87disp.obj
 0002:00005790       One                        1006c790     libucrt:common.obj
 0002:000057a4       DblMax                     1006c7a4     libucrt:common.obj
 0002:000057ac       DblMin                     1006c7ac     libucrt:common.obj
 0002:000057b4       IeeeAdjO                   1006c7b4     libucrt:common.obj
 0002:000057bc       IeeeAdjU                   1006c7bc     libucrt:common.obj
 0002:000057c4       _infinity                  1006c7c4     libucrt:common.obj
 0002:000057cc       _zero                      1006c7cc     libucrt:common.obj
 0002:000057d4       ?_mb_locale_names@@3QBQB_WB 1006c7d4     libucrt:mbctype.obj
 0002:00006610       ?LcidToLocaleNameTable@?A0x881e4c05@@3QBULcidToLocaleName@1@B 1006d610     libucrt:lcidtoname_downlevel.obj
 0002:00007730       ?LocaleNameToIndexTable@?A0x881e4c05@@3QBULocaleNameIndex@1@B 1006e730     libucrt:lcidtoname_downlevel.obj
 0002:00008680       ?mask@?P@??_fd_int@@9@4QBGB 1006f680     libucrt:_test.obj
 0002:000086a0       ?sub@?P@??_fd_int@@9@4QBIB 1006f6a0     libucrt:_test.obj
 0002:0000bf30       LOG_name                   10072f30     libucrt:log10_impl.obj
 0002:0000bf40       _One                       10072f40     libucrt:ceil_pentium4.obj
 0002:0000bf50       _Bns                       10072f50     libucrt:ceil_pentium4.obj
 0002:0000bf60       _Zero                      10072f60     libucrt:ceil_pentium4.obj
 0002:0000bf70       _S                         10072f70     libucrt:ceil_pentium4.obj
 0002:0000bf80       _NegZero                   10072f80     libucrt:ceil_pentium4.obj
 0002:0000bfa0       emask                      10072fa0     libucrt:log10_pentium4.obj
 0002:0000bfb0       CC                         10072fb0     libucrt:log10_pentium4.obj
 0002:0000bfc0       Magic                      10072fc0     libucrt:log10_pentium4.obj
 0002:0000bfd0       hi_mask                    10072fd0     libucrt:log10_pentium4.obj
 0002:0000bfe0       LOG10_2                    10072fe0     libucrt:log10_pentium4.obj
 0002:0000bff0       place_L                    10072ff0     libucrt:log10_pentium4.obj
 0002:0000c010       One                        10073010     libucrt:log10_pentium4.obj
 0002:0000c020       Zero                       10073020     libucrt:log10_pentium4.obj
 0002:0000c030       Two52                      10073030     libucrt:log10_pentium4.obj
 0002:0000c040       Infs                       10073040     libucrt:log10_pentium4.obj
 0002:0000c050       NaN                        10073050     libucrt:log10_pentium4.obj
 0002:0000c060       coeff                      10073060     libucrt:log10_pentium4.obj
 0002:0000c8c0       two32                      100738c0     LIBCMT:ftol2.obj
 0002:0000c8c4       two63                      100738c4     LIBCMT:ftol2.obj
 0002:0000c8c8       _NaN                       100738c8     LIBCMT:ftol2.obj
 0002:0000c8d0       $SG4294967201              100738d0     Client.obj
 0002:0000c8dc       $SG4294967200              100738dc     Client.obj
 0002:0000c8e8       $SG4294967199              100738e8     Client.obj
 0002:0000c8fb       ?_Fake_alloc@std@@3U_Fake_allocator@1@B 100738fb     Client.obj
 0002:0000c8fc       $SG4294967198              100738fc     Client.obj
 0002:0000c90f       ?_Fake_alloc@std@@3U_Fake_allocator@1@B 1007390f     Aimbot.obj
 0002:0000c910       $SG4294967197              10073910     Client.obj
 0002:0000c91e       ?_Fake_alloc@std@@3U_Fake_allocator@1@B 1007391e     Cvars.obj
 0002:0000c91f       ?_Fake_alloc@std@@3U_Fake_allocator@1@B 1007391f     Drawing.obj
 0002:0000c920       $SG4294967196              10073920     Client.obj
 0002:0000c92a       ?_Fake_alloc@std@@3U_Fake_allocator@1@B 1007392a     Misc.obj
 0002:0000c92b       $SG4294952081              1007392b     Misc.obj
 0002:0000c92c       $SG4294967195              1007392c     Client.obj
 0002:0000c942       ?_Fake_alloc@std@@3U_Fake_allocator@1@B 10073942     NoFlash.obj
 0002:0000c943       ?_Fake_alloc@std@@3U_Fake_allocator@1@B 10073943     NoRecoil.obj
 0002:0000c944       $SG4294967194              10073944     Client.obj
 0002:0000c94d       ?_Fake_alloc@std@@3U_Fake_allocator@1@B 1007394d     NoSpread.obj
 0002:0000c94e       ?_Fake_alloc@std@@3U_Fake_allocator@1@B 1007394e     Systems.obj
 0002:0000c94f       ?_Fake_alloc@std@@3U_Fake_allocator@1@B 1007394f     Utils.obj
 0002:0000c950       $SG4294967193              10073950     Client.obj
 0002:0000c95b       $SG4294933158              1007395b     Menu.obj
 0002:0000c95c       $SG4294967192              1007395c     Client.obj
 0002:0000c96f       $SG4294933157              1007396f     Menu.obj
 0002:0000c970       $SG4294967191              10073970     Client.obj
 0002:0000c97c       $SG4294967190              1007397c     Client.obj
 0002:0000c984       $SG4294967189              10073984     Client.obj
 0002:0000c986       $SG4294933156              10073986     Menu.obj
 0002:0000c987       $SG4294933153              10073987     Menu.obj
 0002:0000c988       $SG4294967188              10073988     Client.obj
 0002:0000c99b       $SG4294933145              1007399b     Menu.obj
 0002:0000c99c       $SG4294967187              1007399c     Client.obj
 0002:0000c99e       ?_Fake_alloc@std@@3U_Fake_allocator@1@B 1007399e     Menu.obj
 0002:0000c99f       ?_Fake_alloc@std@@3U_Fake_allocator@1@B 1007399f     Sounds.obj
 0002:0000c9a0       $SG4294967186              100739a0     Client.obj
 0002:0000c9b9       $SG4294926774              100739b9     Visuals.obj
 0002:0000c9ba       ?_Fake_alloc@std@@3U_Fake_allocator@1@B 100739ba     Visuals.obj
 0002:0000c9bb       ?_Fake_alloc@std@@3U_Fake_allocator@1@B 100739bb     Textures.obj
 0002:0000c9bc       $SG4294967185              100739bc     Client.obj
 0002:0000c9be       ?_Fake_alloc@std@@3U_Fake_allocator@1@B 100739be     Weapons.obj
 0002:0000c9bf       $SG4294917658              100739bf     World.obj
 0002:0000c9c0       $SG4294967184              100739c0     Client.obj
 0002:0000c9d9       ?_Fake_alloc@std@@3U_Fake_allocator@1@B 100739d9     World.obj
 0002:0000c9da       ?_Fake_alloc@std@@3U_Fake_allocator@1@B 100739da     Hook.obj
 0002:0000c9db       $SG4294911715              100739db     Main.obj
 0002:0000c9dc       $SG4294967183              100739dc     Client.obj
 0002:0000c9f2       ?_Fake_alloc@std@@3U_Fake_allocator@1@B 100739f2     Main.obj
 0002:0000c9f3       ?_Fake_alloc@std@@3U_Fake_allocator@1@B 100739f3     Offsets.obj
 0002:0000c9f4       $SG4294967182              100739f4     Client.obj
 0002:0000c9fa       ?_Fake_alloc@std@@3U_Fake_allocator@1@B 100739fa     OpenGL.obj
 0002:0000c9fb       ?_Fake_alloc@std@@3U_Fake_allocator@1@B 100739fb     Pipi_edit.obj
 0002:0000c9fc       $SG4294967181              100739fc     Client.obj
 0002:0000ca05       ?_Fake_alloc@std@@3U_Fake_allocator@1@B 10073a05     QAngle.obj
 0002:0000ca06       ?_Fake_alloc@std@@3U_Fake_allocator@1@B 10073a06     StudioModelRenderer.obj
 0002:0000ca07       ?_Fake_alloc@std@@3U_Fake_allocator@1@B 10073a07     Usermsg.obj
 0002:0000ca08       $SG4294967180              10073a08     Client.obj
 0002:0000ca11       $SG4294891722              10073a11     parsemsg.obj
 0002:0000ca12       $SG4294891723              10073a12     parsemsg.obj
 0002:0000ca13       ?_Fake_alloc@std@@3U_Fake_allocator@1@B 10073a13     Vector.obj
 0002:0000ca14       $SG4294967179              10073a14     Client.obj
 0002:0000ca1c       $SG4294967178              10073a1c     Client.obj
 0002:0000ca24       $SG4294967177              10073a24     Client.obj
 0002:0000ca30       $SG4294967176              10073a30     Client.obj
 0002:0000ca38       $SG4294967175              10073a38     Client.obj
 0002:0000ca44       $SG4294967174              10073a44     Client.obj
 0002:0000ca50       $SG4294959098              10073a50     Cvars.obj
 0002:0000ca54       $SG4294959097              10073a54     Cvars.obj
 0002:0000ca58       $SG4294959096              10073a58     Cvars.obj
 0002:0000ca5c       $SG4294959095              10073a5c     Cvars.obj
 0002:0000ca68       $SG4294959094              10073a68     Cvars.obj
 0002:0000ca6c       $SG4294959093              10073a6c     Cvars.obj
 0002:0000ca7c       $SG4294959092              10073a7c     Cvars.obj
 0002:0000ca8c       $SG4294959091              10073a8c     Cvars.obj
 0002:0000caa4       $SG4294959090              10073aa4     Cvars.obj
 0002:0000cab0       $SG4294959089              10073ab0     Cvars.obj
 0002:0000cac0       $SG4294959088              10073ac0     Cvars.obj
 0002:0000cad0       $SG4294959087              10073ad0     Cvars.obj
 0002:0000cadc       $SG4294959086              10073adc     Cvars.obj
 0002:0000caf0       $SG4294959085              10073af0     Cvars.obj
 0002:0000cb00       $SG4294959084              10073b00     Cvars.obj
 0002:0000cb08       $SG4294959083              10073b08     Cvars.obj
 0002:0000cb20       $SG4294959082              10073b20     Cvars.obj
 0002:0000cb30       $SG4294959081              10073b30     Cvars.obj
 0002:0000cb40       $SG4294959080              10073b40     Cvars.obj
 0002:0000cb54       $SG4294959079              10073b54     Cvars.obj
 0002:0000cb64       $SG4294959078              10073b64     Cvars.obj
 0002:0000cb70       $SG4294959077              10073b70     Cvars.obj
 0002:0000cb80       $SG4294959076              10073b80     Cvars.obj
 0002:0000cb90       $SG4294959075              10073b90     Cvars.obj
 0002:0000cba0       $SG4294959074              10073ba0     Cvars.obj
 0002:0000cbac       $SG4294959073              10073bac     Cvars.obj
 0002:0000cbbc       $SG4294959072              10073bbc     Cvars.obj
 0002:0000cbc8       $SG4294959071              10073bc8     Cvars.obj
 0002:0000cbd4       $SG4294959070              10073bd4     Cvars.obj
 0002:0000cbe0       $SG4294959069              10073be0     Cvars.obj
 0002:0000cbe8       $SG4294959068              10073be8     Cvars.obj
 0002:0000cbf8       $SG4294959067              10073bf8     Cvars.obj
 0002:0000cc04       $SG4294959066              10073c04     Cvars.obj
 0002:0000cc10       $SG4294959065              10073c10     Cvars.obj
 0002:0000cc1c       $SG4294959064              10073c1c     Cvars.obj
 0002:0000cc28       $SG4294959063              10073c28     Cvars.obj
 0002:0000cc34       $SG4294959062              10073c34     Cvars.obj
 0002:0000cc3c       $SG4294959061              10073c3c     Cvars.obj
 0002:0000cc48       $SG4294959060              10073c48     Cvars.obj
 0002:0000cc64       $SG4294959059              10073c64     Cvars.obj
 0002:0000cc74       $SG4294959058              10073c74     Cvars.obj
 0002:0000cc78       $SG4294959057              10073c78     Cvars.obj
 0002:0000cc84       $SG4294959056              10073c84     Cvars.obj
 0002:0000cc94       $SG4294959055              10073c94     Cvars.obj
 0002:0000cc9c       $SG4294959054              10073c9c     Cvars.obj
 0002:0000cca8       $SG4294959053              10073ca8     Cvars.obj
 0002:0000ccbc       $SG4294959052              10073cbc     Cvars.obj
 0002:0000ccd0       $SG4294959051              10073cd0     Cvars.obj
 0002:0000cce4       $SG4294959050              10073ce4     Cvars.obj
 0002:0000ccf4       $SG4294959049              10073cf4     Cvars.obj
 0002:0000cd04       $SG4294959048              10073d04     Cvars.obj
 0002:0000cd14       $SG4294959047              10073d14     Cvars.obj
 0002:0000cd28       $SG4294959046              10073d28     Cvars.obj
 0002:0000cd3c       $SG4294959045              10073d3c     Cvars.obj
 0002:0000cd50       $SG4294959044              10073d50     Cvars.obj
 0002:0000cd64       $SG4294959043              10073d64     Cvars.obj
 0002:0000cd78       $SG4294959042              10073d78     Cvars.obj
 0002:0000cd8c       $SG4294959041              10073d8c     Cvars.obj
 0002:0000cda0       $SG4294959040              10073da0     Cvars.obj
 0002:0000cdb4       $SG4294959039              10073db4     Cvars.obj
 0002:0000cdc8       $SG4294959038              10073dc8     Cvars.obj
 0002:0000cdd8       $SG4294959037              10073dd8     Cvars.obj
 0002:0000cde4       $SG4294959036              10073de4     Cvars.obj
 0002:0000cdf0       $SG4294959035              10073df0     Cvars.obj
 0002:0000ce08       $SG4294959034              10073e08     Cvars.obj
 0002:0000ce20       $SG4294959033              10073e20     Cvars.obj
 0002:0000ce3c       $SG4294959032              10073e3c     Cvars.obj
 0002:0000ce48       $SG4294959031              10073e48     Cvars.obj
 0002:0000ce58       $SG4294959030              10073e58     Cvars.obj
 0002:0000ce68       $SG4294959029              10073e68     Cvars.obj
 0002:0000ce78       $SG4294959028              10073e78     Cvars.obj
 0002:0000ce84       $SG4294959027              10073e84     Cvars.obj
 0002:0000ce98       $SG4294959026              10073e98     Cvars.obj
 0002:0000ceac       $SG4294959025              10073eac     Cvars.obj
 0002:0000cec0       $SG4294959024              10073ec0     Cvars.obj
 0002:0000ced4       $SG4294959023              10073ed4     Cvars.obj
 0002:0000cee4       $SG4294959022              10073ee4     Cvars.obj
 0002:0000cef0       $SG4294959021              10073ef0     Cvars.obj
 0002:0000cf00       $SG4294959020              10073f00     Cvars.obj
 0002:0000cf10       $SG4294959019              10073f10     Cvars.obj
 0002:0000cf1c       $SG4294959018              10073f1c     Cvars.obj
 0002:0000cf28       $SG4294959017              10073f28     Cvars.obj
 0002:0000cf34       $SG4294959016              10073f34     Cvars.obj
 0002:0000cf48       $SG4294959015              10073f48     Cvars.obj
 0002:0000cf5c       $SG4294959014              10073f5c     Cvars.obj
 0002:0000cf70       $SG4294959013              10073f70     Cvars.obj
 0002:0000cf84       $SG4294959012              10073f84     Cvars.obj
 0002:0000cf90       $SG4294959011              10073f90     Cvars.obj
 0002:0000cf9c       $SG4294959010              10073f9c     Cvars.obj
 0002:0000cfa8       $SG4294959009              10073fa8     Cvars.obj
 0002:0000cfb4       $SG4294959008              10073fb4     Cvars.obj
 0002:0000cfc0       $SG4294959007              10073fc0     Cvars.obj
 0002:0000cfd4       $SG4294959006              10073fd4     Cvars.obj
 0002:0000cfe4       $SG4294959005              10073fe4     Cvars.obj
 0002:0000cff8       $SG4294959004              10073ff8     Cvars.obj
 0002:0000d00c       $SG4294959003              1007400c     Cvars.obj
 0002:0000d020       $SG4294959002              10074020     Cvars.obj
 0002:0000d034       $SG4294959001              10074034     Cvars.obj
 0002:0000d048       $SG4294959000              10074048     Cvars.obj
 0002:0000d05c       $SG4294958999              1007405c     Cvars.obj
 0002:0000d068       $SG4294958998              10074068     Cvars.obj
 0002:0000d07c       $SG4294958997              1007407c     Cvars.obj
 0002:0000d090       $SG4294958996              10074090     Cvars.obj
 0002:0000d0a4       $SG4294958995              100740a4     Cvars.obj
 0002:0000d0b8       $SG4294958994              100740b8     Cvars.obj
 0002:0000d0cc       $SG4294958993              100740cc     Cvars.obj
 0002:0000d0e0       $SG4294958992              100740e0     Cvars.obj
 0002:0000d0f4       $SG4294958991              100740f4     Cvars.obj
 0002:0000d0fc       $SG4294958990              100740fc     Cvars.obj
 0002:0000d110       $SG4294958989              10074110     Cvars.obj
 0002:0000d11c       $SG4294958988              1007411c     Cvars.obj
 0002:0000d12c       $SG4294958987              1007412c     Cvars.obj
 0002:0000d13c       $SG4294958986              1007413c     Cvars.obj
 0002:0000d14c       $SG4294958985              1007414c     Cvars.obj
 0002:0000d15c       $SG4294958984              1007415c     Cvars.obj
 0002:0000d16c       $SG4294958983              1007416c     Cvars.obj
 0002:0000d17c       $SG4294958982              1007417c     Cvars.obj
 0002:0000d18c       $SG4294958981              1007418c     Cvars.obj
 0002:0000d19c       $SG4294958980              1007419c     Cvars.obj
 0002:0000d1ac       $SG4294958979              100741ac     Cvars.obj
 0002:0000d1c0       $SG4294958978              100741c0     Cvars.obj
 0002:0000d1d4       $SG4294958977              100741d4     Cvars.obj
 0002:0000d1e8       $SG4294958976              100741e8     Cvars.obj
 0002:0000d1f8       $SG4294958975              100741f8     Cvars.obj
 0002:0000d20c       $SG4294958974              1007420c     Cvars.obj
 0002:0000d21c       $SG4294958973              1007421c     Cvars.obj
 0002:0000d22c       $SG4294958972              1007422c     Cvars.obj
 0002:0000d23c       $SG4294958971              1007423c     Cvars.obj
 0002:0000d24c       $SG4294958970              1007424c     Cvars.obj
 0002:0000d25c       $SG4294958969              1007425c     Cvars.obj
 0002:0000d268       $SG4294958968              10074268     Cvars.obj
 0002:0000d278       $SG4294958967              10074278     Cvars.obj
 0002:0000d284       $SG4294958966              10074284     Cvars.obj
 0002:0000d294       $SG4294958965              10074294     Cvars.obj
 0002:0000d2ac       $SG4294958964              100742ac     Cvars.obj
 0002:0000d2b4       $SG4294958963              100742b4     Cvars.obj
 0002:0000d2c4       $SG4294958962              100742c4     Cvars.obj
 0002:0000d2d0       $SG4294958961              100742d0     Cvars.obj
 0002:0000d2d8       $SG4294958960              100742d8     Cvars.obj
 0002:0000d2e8       $SG4294958959              100742e8     Cvars.obj
 0002:0000d304       $SG4294958958              10074304     Cvars.obj
 0002:0000d31c       $SG4294958957              1007431c     Cvars.obj
 0002:0000d328       $SG4294958956              10074328     Cvars.obj
 0002:0000d334       $SG4294958955              10074334     Cvars.obj
 0002:0000d33c       $SG4294958954              1007433c     Cvars.obj
 0002:0000d348       $SG4294958953              10074348     Cvars.obj
 0002:0000d358       $SG4294958952              10074358     Cvars.obj
 0002:0000d364       $SG4294958951              10074364     Cvars.obj
 0002:0000d374       $SG4294958950              10074374     Cvars.obj
 0002:0000d384       $SG4294958949              10074384     Cvars.obj
 0002:0000d39c       $SG4294958948              1007439c     Cvars.obj
 0002:0000d3b0       $SG4294958947              100743b0     Cvars.obj
 0002:0000d3bc       $SG4294958946              100743bc     Cvars.obj
 0002:0000d3c8       $SG4294958945              100743c8     Cvars.obj
 0002:0000d3d0       $SG4294958944              100743d0     Cvars.obj
 0002:0000d3d4       $SG4294958943              100743d4     Cvars.obj
 0002:0000d3e0       $SG4294958942              100743e0     Cvars.obj
 0002:0000d3ec       $SG4294958941              100743ec     Cvars.obj
 0002:0000d3f8       $SG4294958940              100743f8     Cvars.obj
 0002:0000d408       $SG4294958939              10074408     Cvars.obj
 0002:0000d418       $SG4294958938              10074418     Cvars.obj
 0002:0000d424       $SG4294958937              10074424     Cvars.obj
 0002:0000d434       $SG4294958936              10074434     Cvars.obj
 0002:0000d450       $SG4294958935              10074450     Cvars.obj
 0002:0000d458       $SG4294958934              10074458     Cvars.obj
 0002:0000d464       $SG4294958933              10074464     Cvars.obj
 0002:0000d478       $SG4294958932              10074478     Cvars.obj
 0002:0000d48c       $SG4294958931              1007448c     Cvars.obj
 0002:0000d4ac       $SG4294958930              100744ac     Cvars.obj
 0002:0000d4c8       $SG4294958929              100744c8     Cvars.obj
 0002:0000d4f4       $SG4294958928              100744f4     Cvars.obj
 0002:0000d508       $SG4294958927              10074508     Cvars.obj
 0002:0000d510       $SG4294958926              10074510     Cvars.obj
 0002:0000d520       $SG4294958925              10074520     Cvars.obj
 0002:0000d530       $SG4294958924              10074530     Cvars.obj
 0002:0000d540       $SG4294958923              10074540     Cvars.obj
 0002:0000d554       $SG4294958922              10074554     Cvars.obj
 0002:0000d568       $SG4294958921              10074568     Cvars.obj
 0002:0000d574       $SG4294958920              10074574     Cvars.obj
 0002:0000d578       $SG4294958919              10074578     Cvars.obj
 0002:0000d588       $SG4294958918              10074588     Cvars.obj
 0002:0000d58c       $SG4294958917              1007458c     Cvars.obj
 0002:0000d590       $SG4294958916              10074590     Cvars.obj
 0002:0000d594       $SG4294958915              10074594     Cvars.obj
 0002:0000d5a4       $SG4294958914              100745a4     Cvars.obj
 0002:0000d5a8       $SG4294958913              100745a8     Cvars.obj
 0002:0000d5b8       $SG4294958912              100745b8     Cvars.obj
 0002:0000d5bc       $SG4294958911              100745bc     Cvars.obj
 0002:0000d5d4       $SG4294958910              100745d4     Cvars.obj
 0002:0000d5d8       $SG4294958909              100745d8     Cvars.obj
 0002:0000d5e4       $SG4294958908              100745e4     Cvars.obj
 0002:0000d5e8       $SG4294958907              100745e8     Cvars.obj
 0002:0000d5f8       $SG4294958906              100745f8     Cvars.obj
 0002:0000d5fc       $SG4294958905              100745fc     Cvars.obj
 0002:0000d60c       $SG4294958904              1007460c     Cvars.obj
 0002:0000d610       $SG4294958903              10074610     Cvars.obj
 0002:0000d61c       $SG4294958902              1007461c     Cvars.obj
 0002:0000d620       $SG4294958901              10074620     Cvars.obj
 0002:0000d634       $SG4294958900              10074634     Cvars.obj
 0002:0000d638       $SG4294958899              10074638     Cvars.obj
 0002:0000d648       $SG4294958898              10074648     Cvars.obj
 0002:0000d64c       $SG4294958897              1007464c     Cvars.obj
 0002:0000d654       $SG4294958896              10074654     Cvars.obj
 0002:0000d658       $SG4294958895              10074658     Cvars.obj
 0002:0000d670       $SG4294958894              10074670     Cvars.obj
 0002:0000d674       $SG4294958893              10074674     Cvars.obj
 0002:0000d684       $SG4294958892              10074684     Cvars.obj
 0002:0000d688       $SG4294958891              10074688     Cvars.obj
 0002:0000d698       $SG4294958890              10074698     Cvars.obj
 0002:0000d69c       $SG4294958889              1007469c     Cvars.obj
 0002:0000d6b0       $SG4294958888              100746b0     Cvars.obj
 0002:0000d6b4       $SG4294958887              100746b4     Cvars.obj
 0002:0000d6c4       $SG4294958886              100746c4     Cvars.obj
 0002:0000d6c8       $SG4294958885              100746c8     Cvars.obj
 0002:0000d6d4       $SG4294958884              100746d4     Cvars.obj
 0002:0000d6d8       $SG4294958883              100746d8     Cvars.obj
 0002:0000d6e8       $SG4294958882              100746e8     Cvars.obj
 0002:0000d6ec       $SG4294958881              100746ec     Cvars.obj
 0002:0000d6fc       $SG4294958880              100746fc     Cvars.obj
 0002:0000d700       $SG4294958879              10074700     Cvars.obj
 0002:0000d710       $SG4294958878              10074710     Cvars.obj
 0002:0000d714       $SG4294958877              10074714     Cvars.obj
 0002:0000d720       $SG4294958876              10074720     Cvars.obj
 0002:0000d724       $SG4294958875              10074724     Cvars.obj
 0002:0000d734       $SG4294958874              10074734     Cvars.obj
 0002:0000d738       $SG4294958873              10074738     Cvars.obj
 0002:0000d744       $SG4294958872              10074744     Cvars.obj
 0002:0000d748       $SG4294958871              10074748     Cvars.obj
 0002:0000d754       $SG4294958870              10074754     Cvars.obj
 0002:0000d758       $SG4294958869              10074758     Cvars.obj
 0002:0000d764       $SG4294958868              10074764     Cvars.obj
 0002:0000d768       $SG4294958867              10074768     Cvars.obj
 0002:0000d770       $SG4294958866              10074770     Cvars.obj
 0002:0000d774       $SG4294958865              10074774     Cvars.obj
 0002:0000d784       $SG4294958864              10074784     Cvars.obj
 0002:0000d788       $SG4294958863              10074788     Cvars.obj
 0002:0000d794       $SG4294958862              10074794     Cvars.obj
 0002:0000d798       $SG4294958861              10074798     Cvars.obj
 0002:0000d7a4       $SG4294958860              100747a4     Cvars.obj
 0002:0000d7a8       $SG4294958859              100747a8     Cvars.obj
 0002:0000d7b4       $SG4294958858              100747b4     Cvars.obj
 0002:0000d7b8       $SG4294958857              100747b8     Cvars.obj
 0002:0000d7c4       $SG4294958856              100747c4     Cvars.obj
 0002:0000d7c8       $SG4294958855              100747c8     Cvars.obj
 0002:0000d7d4       $SG4294958854              100747d4     Cvars.obj
 0002:0000d7d8       $SG4294958853              100747d8     Cvars.obj
 0002:0000d7e0       $SG4294958852              100747e0     Cvars.obj
 0002:0000d7e4       $SG4294958851              100747e4     Cvars.obj
 0002:0000d7f0       $SG4294958850              100747f0     Cvars.obj
 0002:0000d7f4       $SG4294958849              100747f4     Cvars.obj
 0002:0000d810       $SG4294958848              10074810     Cvars.obj
 0002:0000d814       $SG4294958847              10074814     Cvars.obj
 0002:0000d824       $SG4294958846              10074824     Cvars.obj
 0002:0000d828       $SG4294958845              10074828     Cvars.obj
 0002:0000d82c       $SG4294958844              1007482c     Cvars.obj
 0002:0000d830       $SG4294958843              10074830     Cvars.obj
 0002:0000d83c       $SG4294958842              1007483c     Cvars.obj
 0002:0000d840       $SG4294958841              10074840     Cvars.obj
 0002:0000d850       $SG4294958840              10074850     Cvars.obj
 0002:0000d854       $SG4294958839              10074854     Cvars.obj
 0002:0000d85c       $SG4294958838              1007485c     Cvars.obj
 0002:0000d860       $SG4294958837              10074860     Cvars.obj
 0002:0000d86c       $SG4294958836              1007486c     Cvars.obj
 0002:0000d870       $SG4294958835              10074870     Cvars.obj
 0002:0000d884       $SG4294958834              10074884     Cvars.obj
 0002:0000d888       $SG4294958833              10074888     Cvars.obj
 0002:0000d89c       $SG4294958832              1007489c     Cvars.obj
 0002:0000d8a0       $SG4294958831              100748a0     Cvars.obj
 0002:0000d8b4       $SG4294958830              100748b4     Cvars.obj
 0002:0000d8b8       $SG4294958829              100748b8     Cvars.obj
 0002:0000d8c8       $SG4294958828              100748c8     Cvars.obj
 0002:0000d8cc       $SG4294958827              100748cc     Cvars.obj
 0002:0000d8dc       $SG4294958826              100748dc     Cvars.obj
 0002:0000d8e0       $SG4294958825              100748e0     Cvars.obj
 0002:0000d8f0       $SG4294958824              100748f0     Cvars.obj
 0002:0000d8f4       $SG4294958823              100748f4     Cvars.obj
 0002:0000d908       $SG4294958822              10074908     Cvars.obj
 0002:0000d90c       $SG4294958821              1007490c     Cvars.obj
 0002:0000d920       $SG4294958820              10074920     Cvars.obj
 0002:0000d924       $SG4294958819              10074924     Cvars.obj
 0002:0000d938       $SG4294958818              10074938     Cvars.obj
 0002:0000d93c       $SG4294958817              1007493c     Cvars.obj
 0002:0000d950       $SG4294958816              10074950     Cvars.obj
 0002:0000d954       $SG4294958815              10074954     Cvars.obj
 0002:0000d968       $SG4294958814              10074968     Cvars.obj
 0002:0000d96c       $SG4294958813              1007496c     Cvars.obj
 0002:0000d980       $SG4294958812              10074980     Cvars.obj
 0002:0000d984       $SG4294958811              10074984     Cvars.obj
 0002:0000d998       $SG4294958810              10074998     Cvars.obj
 0002:0000d99c       $SG4294958809              1007499c     Cvars.obj
 0002:0000d9b0       $SG4294958808              100749b0     Cvars.obj
 0002:0000d9b4       $SG4294958807              100749b4     Cvars.obj
 0002:0000d9c8       $SG4294958806              100749c8     Cvars.obj
 0002:0000d9cc       $SG4294958805              100749cc     Cvars.obj
 0002:0000d9dc       $SG4294958804              100749dc     Cvars.obj
 0002:0000d9e0       $SG4294958803              100749e0     Cvars.obj
 0002:0000d9ec       $SG4294958802              100749ec     Cvars.obj
 0002:0000d9f0       $SG4294958801              100749f0     Cvars.obj
 0002:0000d9fc       $SG4294958800              100749fc     Cvars.obj
 0002:0000da00       $SG4294958799              10074a00     Cvars.obj
 0002:0000da18       $SG4294958798              10074a18     Cvars.obj
 0002:0000da1c       $SG4294958797              10074a1c     Cvars.obj
 0002:0000da34       $SG4294958796              10074a34     Cvars.obj
 0002:0000da38       $SG4294958795              10074a38     Cvars.obj
 0002:0000da54       $SG4294958794              10074a54     Cvars.obj
 0002:0000da58       $SG4294958793              10074a58     Cvars.obj
 0002:0000da64       $SG4294958792              10074a64     Cvars.obj
 0002:0000da68       $SG4294958791              10074a68     Cvars.obj
 0002:0000da78       $SG4294958790              10074a78     Cvars.obj
 0002:0000da7c       $SG4294958789              10074a7c     Cvars.obj
 0002:0000da8c       $SG4294958788              10074a8c     Cvars.obj
 0002:0000da90       $SG4294958787              10074a90     Cvars.obj
 0002:0000daa0       $SG4294958786              10074aa0     Cvars.obj
 0002:0000daa4       $SG4294958785              10074aa4     Cvars.obj
 0002:0000dab8       $SG4294958784              10074ab8     Cvars.obj
 0002:0000dabc       $SG4294958783              10074abc     Cvars.obj
 0002:0000dad0       $SG4294958782              10074ad0     Cvars.obj
 0002:0000dad4       $SG4294958781              10074ad4     Cvars.obj
 0002:0000dae8       $SG4294958780              10074ae8     Cvars.obj
 0002:0000daec       $SG4294958779              10074aec     Cvars.obj
 0002:0000db00       $SG4294958778              10074b00     Cvars.obj
 0002:0000db04       $SG4294958777              10074b04     Cvars.obj
 0002:0000db14       $SG4294958776              10074b14     Cvars.obj
 0002:0000db18       $SG4294958775              10074b18     Cvars.obj
 0002:0000db24       $SG4294958774              10074b24     Cvars.obj
 0002:0000db28       $SG4294958773              10074b28     Cvars.obj
 0002:0000db38       $SG4294958772              10074b38     Cvars.obj
 0002:0000db3c       $SG4294958771              10074b3c     Cvars.obj
 0002:0000db4c       $SG4294958770              10074b4c     Cvars.obj
 0002:0000db50       $SG4294958769              10074b50     Cvars.obj
 0002:0000db5c       $SG4294958768              10074b5c     Cvars.obj
 0002:0000db60       $SG4294958767              10074b60     Cvars.obj
 0002:0000db6c       $SG4294958766              10074b6c     Cvars.obj
 0002:0000db70       $SG4294958765              10074b70     Cvars.obj
 0002:0000db7c       $SG4294958764              10074b7c     Cvars.obj
 0002:0000db80       $SG4294958763              10074b80     Cvars.obj
 0002:0000db94       $SG4294958762              10074b94     Cvars.obj
 0002:0000db98       $SG4294958761              10074b98     Cvars.obj
 0002:0000dbac       $SG4294958760              10074bac     Cvars.obj
 0002:0000dbb0       $SG4294958759              10074bb0     Cvars.obj
 0002:0000dbc4       $SG4294958758              10074bc4     Cvars.obj
 0002:0000dbc8       $SG4294958757              10074bc8     Cvars.obj
 0002:0000dbdc       $SG4294958756              10074bdc     Cvars.obj
 0002:0000dbe0       $SG4294958755              10074be0     Cvars.obj
 0002:0000dbec       $SG4294958754              10074bec     Cvars.obj
 0002:0000dbf0       $SG4294958753              10074bf0     Cvars.obj
 0002:0000dbfc       $SG4294958752              10074bfc     Cvars.obj
 0002:0000dc00       $SG4294958751              10074c00     Cvars.obj
 0002:0000dc0c       $SG4294958750              10074c0c     Cvars.obj
 0002:0000dc10       $SG4294958749              10074c10     Cvars.obj
 0002:0000dc1c       $SG4294958748              10074c1c     Cvars.obj
 0002:0000dc20       $SG4294958747              10074c20     Cvars.obj
 0002:0000dc2c       $SG4294958746              10074c2c     Cvars.obj
 0002:0000dc30       $SG4294958745              10074c30     Cvars.obj
 0002:0000dc44       $SG4294958744              10074c44     Cvars.obj
 0002:0000dc48       $SG4294958743              10074c48     Cvars.obj
 0002:0000dc58       $SG4294958742              10074c58     Cvars.obj
 0002:0000dc5c       $SG4294958741              10074c5c     Cvars.obj
 0002:0000dc70       $SG4294958740              10074c70     Cvars.obj
 0002:0000dc74       $SG4294958739              10074c74     Cvars.obj
 0002:0000dc88       $SG4294958738              10074c88     Cvars.obj
 0002:0000dc8c       $SG4294958737              10074c8c     Cvars.obj
 0002:0000dca0       $SG4294958736              10074ca0     Cvars.obj
 0002:0000dca4       $SG4294958735              10074ca4     Cvars.obj
 0002:0000dcb8       $SG4294958734              10074cb8     Cvars.obj
 0002:0000dcbc       $SG4294958733              10074cbc     Cvars.obj
 0002:0000dcd0       $SG4294958732              10074cd0     Cvars.obj
 0002:0000dcd4       $SG4294958731              10074cd4     Cvars.obj
 0002:0000dce8       $SG4294958730              10074ce8     Cvars.obj
 0002:0000dcec       $SG4294958729              10074cec     Cvars.obj
 0002:0000dcf8       $SG4294958728              10074cf8     Cvars.obj
 0002:0000dcfc       $SG4294958727              10074cfc     Cvars.obj
 0002:0000dd10       $SG4294958726              10074d10     Cvars.obj
 0002:0000dd14       $SG4294958725              10074d14     Cvars.obj
 0002:0000dd28       $SG4294958724              10074d28     Cvars.obj
 0002:0000dd2c       $SG4294958723              10074d2c     Cvars.obj
 0002:0000dd40       $SG4294958722              10074d40     Cvars.obj
 0002:0000dd44       $SG4294958721              10074d44     Cvars.obj
 0002:0000dd58       $SG4294958720              10074d58     Cvars.obj
 0002:0000dd5c       $SG4294958719              10074d5c     Cvars.obj
 0002:0000dd70       $SG4294958718              10074d70     Cvars.obj
 0002:0000dd74       $SG4294958717              10074d74     Cvars.obj
 0002:0000dd88       $SG4294958716              10074d88     Cvars.obj
 0002:0000dd8c       $SG4294958715              10074d8c     Cvars.obj
 0002:0000dda0       $SG4294958714              10074da0     Cvars.obj
 0002:0000dda4       $SG4294958713              10074da4     Cvars.obj
 0002:0000ddac       $SG4294958712              10074dac     Cvars.obj
 0002:0000ddb0       $SG4294958711              10074db0     Cvars.obj
 0002:0000ddc4       $SG4294958710              10074dc4     Cvars.obj
 0002:0000ddc8       $SG4294958709              10074dc8     Cvars.obj
 0002:0000ddd4       $SG4294958708              10074dd4     Cvars.obj
 0002:0000ddd8       $SG4294958707              10074dd8     Cvars.obj
 0002:0000dde8       $SG4294958706              10074de8     Cvars.obj
 0002:0000ddec       $SG4294958705              10074dec     Cvars.obj
 0002:0000ddfc       $SG4294958704              10074dfc     Cvars.obj
 0002:0000de00       $SG4294958703              10074e00     Cvars.obj
 0002:0000de10       $SG4294958702              10074e10     Cvars.obj
 0002:0000de14       $SG4294958701              10074e14     Cvars.obj
 0002:0000de24       $SG4294958700              10074e24     Cvars.obj
 0002:0000de28       $SG4294958699              10074e28     Cvars.obj
 0002:0000de38       $SG4294958698              10074e38     Cvars.obj
 0002:0000de3c       $SG4294958697              10074e3c     Cvars.obj
 0002:0000de4c       $SG4294958696              10074e4c     Cvars.obj
 0002:0000de50       $SG4294958695              10074e50     Cvars.obj
 0002:0000de60       $SG4294958694              10074e60     Cvars.obj
 0002:0000de64       $SG4294958693              10074e64     Cvars.obj
 0002:0000de74       $SG4294958692              10074e74     Cvars.obj
 0002:0000de78       $SG4294958691              10074e78     Cvars.obj
 0002:0000de88       $SG4294958690              10074e88     Cvars.obj
 0002:0000de8c       $SG4294958689              10074e8c     Cvars.obj
 0002:0000dea0       $SG4294958688              10074ea0     Cvars.obj
 0002:0000dea4       $SG4294958687              10074ea4     Cvars.obj
 0002:0000deb8       $SG4294958686              10074eb8     Cvars.obj
 0002:0000debc       $SG4294958685              10074ebc     Cvars.obj
 0002:0000ded0       $SG4294958684              10074ed0     Cvars.obj
 0002:0000ded4       $SG4294958683              10074ed4     Cvars.obj
 0002:0000dee4       $SG4294958682              10074ee4     Cvars.obj
 0002:0000dee8       $SG4294958681              10074ee8     Cvars.obj
 0002:0000defc       $SG4294958680              10074efc     Cvars.obj
 0002:0000df00       $SG4294958679              10074f00     Cvars.obj
 0002:0000df10       $SG4294958678              10074f10     Cvars.obj
 0002:0000df14       $SG4294958677              10074f14     Cvars.obj
 0002:0000df24       $SG4294958676              10074f24     Cvars.obj
 0002:0000df28       $SG4294958675              10074f28     Cvars.obj
 0002:0000df38       $SG4294958674              10074f38     Cvars.obj
 0002:0000df3c       $SG4294958673              10074f3c     Cvars.obj
 0002:0000df4c       $SG4294958672              10074f4c     Cvars.obj
 0002:0000df50       $SG4294958671              10074f50     Cvars.obj
 0002:0000df60       $SG4294958670              10074f60     Cvars.obj
 0002:0000df64       $SG4294958669              10074f64     Cvars.obj
 0002:0000df70       $SG4294958668              10074f70     Cvars.obj
 0002:0000df74       $SG4294958667              10074f74     Cvars.obj
 0002:0000df84       $SG4294958666              10074f84     Cvars.obj
 0002:0000df88       $SG4294958665              10074f88     Cvars.obj
 0002:0000df94       $SG4294958664              10074f94     Cvars.obj
 0002:0000df98       $SG4294958663              10074f98     Cvars.obj
 0002:0000dfa8       $SG4294958662              10074fa8     Cvars.obj
 0002:0000dfac       $SG4294958661              10074fac     Cvars.obj
 0002:0000dfc4       $SG4294958660              10074fc4     Cvars.obj
 0002:0000dfc8       $SG4294958659              10074fc8     Cvars.obj
 0002:0000dfd0       $SG4294958658              10074fd0     Cvars.obj
 0002:0000dfd4       $SG4294958657              10074fd4     Cvars.obj
 0002:0000dfe4       $SG4294958656              10074fe4     Cvars.obj
 0002:0000dfe8       $SG4294958655              10074fe8     Cvars.obj
 0002:0000dff4       $SG4294958654              10074ff4     Cvars.obj
 0002:0000dff8       $SG4294958653              10074ff8     Cvars.obj
 0002:0000e000       $SG4294958652              10075000     Cvars.obj
 0002:0000e004       $SG4294958651              10075004     Cvars.obj
 0002:0000e020       $SG4294958650              10075020     Cvars.obj
 0002:0000e024       $SG4294958649              10075024     Cvars.obj
 0002:0000e03c       $SG4294958648              1007503c     Cvars.obj
 0002:0000e040       $SG4294958647              10075040     Cvars.obj
 0002:0000e04c       $SG4294958646              1007504c     Cvars.obj
 0002:0000e050       $SG4294958645              10075050     Cvars.obj
 0002:0000e060       $SG4294958644              10075060     Cvars.obj
 0002:0000e064       $SG4294958643              10075064     Cvars.obj
 0002:0000e074       $SG4294958642              10075074     Cvars.obj
 0002:0000e078       $SG4294958641              10075078     Cvars.obj
 0002:0000e090       $SG4294958640              10075090     Cvars.obj
 0002:0000e094       $SG4294958639              10075094     Cvars.obj
 0002:0000e0a8       $SG4294958638              100750a8     Cvars.obj
 0002:0000e0ac       $SG4294958637              100750ac     Cvars.obj
 0002:0000e0b8       $SG4294958636              100750b8     Cvars.obj
 0002:0000e0bc       $SG4294958635              100750bc     Cvars.obj
 0002:0000e0c8       $SG4294958634              100750c8     Cvars.obj
 0002:0000e0cc       $SG4294958633              100750cc     Cvars.obj
 0002:0000e0d8       $SG4294958632              100750d8     Cvars.obj
 0002:0000e0dc       $SG4294958631              100750dc     Cvars.obj
 0002:0000e0e4       $SG4294958630              100750e4     Cvars.obj
 0002:0000e0e8       $SG4294958629              100750e8     Cvars.obj
 0002:0000e0f4       $SG4294958628              100750f4     Cvars.obj
 0002:0000e0f8       $SG4294958627              100750f8     Cvars.obj
 0002:0000e108       $SG4294958626              10075108     Cvars.obj
 0002:0000e10c       $SG4294958625              1007510c     Cvars.obj
 0002:0000e118       $SG4294958624              10075118     Cvars.obj
 0002:0000e120       $SG4294958623              10075120     Cvars.obj
 0002:0000e124       $SG4294958622              10075124     Cvars.obj
 0002:0000e128       $SG4294958621              10075128     Cvars.obj
 0002:0000e12c       $SG4294958620              1007512c     Cvars.obj
 0002:0000e138       $SG4294958619              10075138     Cvars.obj
 0002:0000e13c       $SG4294958618              1007513c     Cvars.obj
 0002:0000e148       $SG4294958617              10075148     Cvars.obj
 0002:0000e14c       $SG4294958616              1007514c     Cvars.obj
 0002:0000e158       $SG4294958615              10075158     Cvars.obj
 0002:0000e15c       $SG4294958614              1007515c     Cvars.obj
 0002:0000e16c       $SG4294958613              1007516c     Cvars.obj
 0002:0000e170       $SG4294958612              10075170     Cvars.obj
 0002:0000e18c       $SG4294958611              1007518c     Cvars.obj
 0002:0000e190       $SG4294958610              10075190     Cvars.obj
 0002:0000e198       $SG4294958609              10075198     Cvars.obj
 0002:0000e19c       $SG4294958608              1007519c     Cvars.obj
 0002:0000e1a8       $SG4294958607              100751a8     Cvars.obj
 0002:0000e1ac       $SG4294958606              100751ac     Cvars.obj
 0002:0000e1c0       $SG4294958605              100751c0     Cvars.obj
 0002:0000e1c4       $SG4294958604              100751c4     Cvars.obj
 0002:0000e1d8       $SG4294958603              100751d8     Cvars.obj
 0002:0000e1dc       $SG4294958602              100751dc     Cvars.obj
 0002:0000e1ec       $SG4294958601              100751ec     Cvars.obj
 0002:0000e1f0       $SG4294958600              100751f0     Cvars.obj
 0002:0000e210       $SG4294958599              10075210     Cvars.obj
 0002:0000e214       $SG4294958598              10075214     Cvars.obj
 0002:0000e230       $SG4294958597              10075230     Cvars.obj
 0002:0000e234       $SG4294958596              10075234     Cvars.obj
 0002:0000e260       $SG4294958595              10075260     Cvars.obj
 0002:0000e264       $SG4294958594              10075264     Cvars.obj
 0002:0000e278       $SG4294958593              10075278     Cvars.obj
 0002:0000e27c       $SG4294958592              1007527c     Cvars.obj
 0002:0000e28c       $SG4294958591              1007528c     Cvars.obj
 0002:0000e290       $SG4294958590              10075290     Cvars.obj
 0002:0000e29c       $SG4294958589              1007529c     Cvars.obj
 0002:0000e2a0       $SG4294958588              100752a0     Cvars.obj
 0002:0000e2a8       $SG4294958587              100752a8     Cvars.obj
 0002:0000e2ac       $SG4294958586              100752ac     Cvars.obj
 0002:0000e2bc       $SG4294958585              100752bc     Cvars.obj
 0002:0000e2c0       $SG4294958584              100752c0     Cvars.obj
 0002:0000e2d0       $SG4294958583              100752d0     Cvars.obj
 0002:0000e2d4       $SG4294958582              100752d4     Cvars.obj
 0002:0000e2e4       $SG4294958581              100752e4     Cvars.obj
 0002:0000e2e8       $SG4294958580              100752e8     Cvars.obj
 0002:0000e2fc       $SG4294958579              100752fc     Cvars.obj
 0002:0000e300       $SG4294958578              10075300     Cvars.obj
 0002:0000e314       $SG4294955300              10075314     Drawing.obj
 0002:0000e320       $SG4294955299              10075320     Drawing.obj
 0002:0000e328       $SG4294952099              10075328     Misc.obj
 0002:0000e32c       $SG4294952098              1007532c     Misc.obj
 0002:0000e330       $SG4294952097              10075330     Misc.obj
 0002:0000e334       $SG4294952096              10075334     Misc.obj
 0002:0000e338       $SG4294952095              10075338     Misc.obj
 0002:0000e33c       $SG4294952094              1007533c     Misc.obj
 0002:0000e340       $SG4294952093              10075340     Misc.obj
 0002:0000e344       $SG4294952092              10075344     Misc.obj
 0002:0000e348       $SG4294952091              10075348     Misc.obj
 0002:0000e34c       $SG4294952090              1007534c     Misc.obj
 0002:0000e350       $SG4294952089              10075350     Misc.obj
 0002:0000e354       $SG4294952088              10075354     Misc.obj
 0002:0000e358       $SG4294952087              10075358     Misc.obj
 0002:0000e35c       $SG4294952086              1007535c     Misc.obj
 0002:0000e360       $SG4294952085              10075360     Misc.obj
 0002:0000e364       $SG4294952084              10075364     Misc.obj
 0002:0000e368       $SG4294952083              10075368     Misc.obj
 0002:0000e36c       $SG4294952082              1007536c     Misc.obj
 0002:0000e370       $SG4294952080              10075370     Misc.obj
 0002:0000e378       $SG4294952079              10075378     Misc.obj
 0002:0000e37c       $SG4294948906              1007537c     NoFlash.obj
 0002:0000e38c       $SG4294939561              1007538c     Systems.obj
 0002:0000e398       $SG4294933163              10075398     Menu.obj
 0002:0000e3b0       $SG4294933162              100753b0     Menu.obj
 0002:0000e3b8       $SG4294933161              100753b8     Menu.obj
 0002:0000e3c0       $SG4294933160              100753c0     Menu.obj
 0002:0000e3c8       $SG4294933159              100753c8     Menu.obj
 0002:0000e3d4       $SG4294933155              100753d4     Menu.obj
 0002:0000e3dc       $SG4294933154              100753dc     Menu.obj
 0002:0000e3e4       $SG4294933152              100753e4     Menu.obj
 0002:0000e3ec       $SG4294933151              100753ec     Menu.obj
 0002:0000e3f4       $SG4294933150              100753f4     Menu.obj
 0002:0000e3fc       $SG4294933149              100753fc     Menu.obj
 0002:0000e404       $SG4294933148              10075404     Menu.obj
 0002:0000e410       $SG4294933147              10075410     Menu.obj
 0002:0000e41c       $SG4294933146              1007541c     Menu.obj
 0002:0000e424       $SG4294933144              10075424     Menu.obj
 0002:0000e42c       $SG4294933143              1007542c     Menu.obj
 0002:0000e434       $SG4294933142              10075434     Menu.obj
 0002:0000e43c       $SG4294933141              1007543c     Menu.obj
 0002:0000e444       $SG4294929971              10075444     Sounds.obj
 0002:0000e44c       $SG4294929970              1007544c     Sounds.obj
 0002:0000e454       $SG4294929969              10075454     Sounds.obj
 0002:0000e45c       $SG4294929968              1007545c     Sounds.obj
 0002:0000e464       $SG4294929967              10075464     Sounds.obj
 0002:0000e46c       $SG4294929966              1007546c     Sounds.obj
 0002:0000e478       $SG4294929965              10075478     Sounds.obj
 0002:0000e484       $SG4294929964              10075484     Sounds.obj
 0002:0000e490       $SG4294929963              10075490     Sounds.obj
 0002:0000e498       $SG4294929962              10075498     Sounds.obj
 0002:0000e4a0       $SG4294929961              100754a0     Sounds.obj
 0002:0000e4ac       $SG4294929960              100754ac     Sounds.obj
 0002:0000e4b4       $SG4294929959              100754b4     Sounds.obj
 0002:0000e4bc       $SG4294929958              100754bc     Sounds.obj
 0002:0000e4c4       $SG4294929957              100754c4     Sounds.obj
 0002:0000e4d0       $SG4294929956              100754d0     Sounds.obj
 0002:0000e4dc       $SG4294929955              100754dc     Sounds.obj
 0002:0000e4e4       $SG4294929954              100754e4     Sounds.obj
 0002:0000e4f4       $SG4294929953              100754f4     Sounds.obj
 0002:0000e504       $SG4294929952              10075504     Sounds.obj
 0002:0000e50c       $SG4294929951              1007550c     Sounds.obj
 0002:0000e514       $SG4294929950              10075514     Sounds.obj
 0002:0000e51c       $SG4294929949              1007551c     Sounds.obj
 0002:0000e524       $SG4294929948              10075524     Sounds.obj
 0002:0000e52c       $SG4294929947              1007552c     Sounds.obj
 0002:0000e534       $SG4294929946              10075534     Sounds.obj
 0002:0000e53c       $SG4294929945              1007553c     Sounds.obj
 0002:0000e544       $SG4294929944              10075544     Sounds.obj
 0002:0000e554       $SG4294929943              10075554     Sounds.obj
 0002:0000e55c       $SG4294929942              1007555c     Sounds.obj
 0002:0000e564       $SG4294929941              10075564     Sounds.obj
 0002:0000e56c       $SG4294929940              1007556c     Sounds.obj
 0002:0000e574       $SG4294929939              10075574     Sounds.obj
 0002:0000e57c       $SG4294929938              1007557c     Sounds.obj
 0002:0000e584       $SG4294929937              10075584     Sounds.obj
 0002:0000e590       $SG4294929936              10075590     Sounds.obj
 0002:0000e598       $SG4294929935              10075598     Sounds.obj
 0002:0000e5a0       $SG4294929934              100755a0     Sounds.obj
 0002:0000e5ac       $SG4294929933              100755ac     Sounds.obj
 0002:0000e5b4       $SG4294929932              100755b4     Sounds.obj
 0002:0000e5bc       $SG4294929931              100755bc     Sounds.obj
 0002:0000e5c8       $SG4294929930              100755c8     Sounds.obj
 0002:0000e5d4       $SG4294929929              100755d4     Sounds.obj
 0002:0000e5e0       $SG4294929928              100755e0     Sounds.obj
 0002:0000e5ec       $SG4294929927              100755ec     Sounds.obj
 0002:0000e5f0       $SG4294929926              100755f0     Sounds.obj
 0002:0000e5f8       $SG4294926821              100755f8     Visuals.obj
 0002:0000e5fc       $SG4294926820              100755fc     Visuals.obj
 0002:0000e600       $SG4294926819              10075600     Visuals.obj
 0002:0000e604       $SG4294926818              10075604     Visuals.obj
 0002:0000e618       $SG4294926817              10075618     Visuals.obj
 0002:0000e62c       $SG4294926816              1007562c     Visuals.obj
 0002:0000e634       $SG4294926815              10075634     Visuals.obj
 0002:0000e644       $SG4294926814              10075644     Visuals.obj
 0002:0000e650       $SG4294926813              10075650     Visuals.obj
 0002:0000e664       $SG4294926812              10075664     Visuals.obj
 0002:0000e678       $SG4294926811              10075678     Visuals.obj
 0002:0000e684       $SG4294926810              10075684     Visuals.obj
 0002:0000e6a0       $SG4294926809              100756a0     Visuals.obj
 0002:0000e6ac       $SG4294926808              100756ac     Visuals.obj
 0002:0000e6c0       $SG4294926807              100756c0     Visuals.obj
 0002:0000e6cc       $SG4294926806              100756cc     Visuals.obj
 0002:0000e6e8       $SG4294926805              100756e8     Visuals.obj
 0002:0000e6f4       $SG4294926804              100756f4     Visuals.obj
 0002:0000e6f8       $SG4294926803              100756f8     Visuals.obj
 0002:0000e6fc       $SG4294926802              100756fc     Visuals.obj
 0002:0000e704       $SG4294926801              10075704     Visuals.obj
 0002:0000e70c       $SG4294926800              1007570c     Visuals.obj
 0002:0000e714       $SG4294926799              10075714     Visuals.obj
 0002:0000e720       $SG4294926798              10075720     Visuals.obj
 0002:0000e72c       $SG4294926797              1007572c     Visuals.obj
 0002:0000e738       $SG4294926796              10075738     Visuals.obj
 0002:0000e744       $SG4294926795              10075744     Visuals.obj
 0002:0000e748       $SG4294926794              10075748     Visuals.obj
 0002:0000e754       $SG4294926793              10075754     Visuals.obj
 0002:0000e75c       $SG4294926792              1007575c     Visuals.obj
 0002:0000e760       $SG4294926791              10075760     Visuals.obj
 0002:0000e778       $SG4294926790              10075778     Visuals.obj
 0002:0000e798       $SG4294926789              10075798     Visuals.obj
 0002:0000e7a8       $SG4294926788              100757a8     Visuals.obj
 0002:0000e7b8       $SG4294926787              100757b8     Visuals.obj
 0002:0000e7cc       $SG4294926786              100757cc     Visuals.obj
 0002:0000e7dc       $SG4294926785              100757dc     Visuals.obj
 0002:0000e7f0       $SG4294926784              100757f0     Visuals.obj
 0002:0000e804       $SG4294926783              10075804     Visuals.obj
 0002:0000e81c       $SG4294926782              1007581c     Visuals.obj
 0002:0000e824       $SG4294926781              10075824     Visuals.obj
 0002:0000e82c       $SG4294926780              1007582c     Visuals.obj
 0002:0000e834       $SG4294926779              10075834     Visuals.obj
 0002:0000e83c       $SG4294926778              1007583c     Visuals.obj
 0002:0000e840       $SG4294926777              10075840     Visuals.obj
 0002:0000e844       $SG4294926776              10075844     Visuals.obj
 0002:0000e850       $SG4294926775              10075850     Visuals.obj
 0002:0000e854       $SG4294926773              10075854     Visuals.obj
 0002:0000e85c       $SG4294926772              1007585c     Visuals.obj
 0002:0000e864       $SG4294926771              10075864     Visuals.obj
 0002:0000e86c       $SG4294926770              1007586c     Visuals.obj
 0002:0000e874       $SG4294926769              10075874     Visuals.obj
 0002:0000e87c       $SG4294926768              1007587c     Visuals.obj
 0002:0000e880       $SG4294926767              10075880     Visuals.obj
 0002:0000e888       $SG4294926766              10075888     Visuals.obj
 0002:0000e88c       $SG4294926765              1007588c     Visuals.obj
 0002:0000e894       $SG4294926764              10075894     Visuals.obj
 0002:0000e898       $SG4294926763              10075898     Visuals.obj
 0002:0000e89c       $SG4294926762              1007589c     Visuals.obj
 0002:0000e8a4       $SG4294926761              100758a4     Visuals.obj
 0002:0000e8ac       $SG4294926760              100758ac     Visuals.obj
 0002:0000e8b4       $SG4294926759              100758b4     Visuals.obj
 0002:0000e8bc       $SG4294926758              100758bc     Visuals.obj
 0002:0000e8c4       $SG4294926757              100758c4     Visuals.obj
 0002:0000e8cc       $SG4294926756              100758cc     Visuals.obj
 0002:0000e8d0       $SG4294926755              100758d0     Visuals.obj
 0002:0000e8d8       $SG4294926754              100758d8     Visuals.obj
 0002:0000e8dc       $SG4294926753              100758dc     Visuals.obj
 0002:0000e8e4       $SG4294926752              100758e4     Visuals.obj
 0002:0000e8f0       $SG4294926751              100758f0     Visuals.obj
 0002:0000e8f8       $SG4294926750              100758f8     Visuals.obj
 0002:0000e8fc       $SG4294926749              100758fc     Visuals.obj
 0002:0000e904       $SG4294926748              10075904     Visuals.obj
 0002:0000e90c       $SG4294926747              1007590c     Visuals.obj
 0002:0000e910       $SG4294926746              10075910     Visuals.obj
 0002:0000e91c       $SG4294926745              1007591c     Visuals.obj
 0002:0000e92c       $SG4294926744              1007592c     Visuals.obj
 0002:0000e938       ?icon_wpn_scout@@3QBEB     10075938     Visuals.obj
 0002:000111d8       ?icon_wpn_p228@@3QBEB      100781d8     Visuals.obj
 0002:000123a8       ?icon_wpn_m4a1@@3QBEB      100793a8     Visuals.obj
 0002:00015268       ?icon_wpn_awp@@3QBEB       1007c268     Visuals.obj
 0002:000182c0       ?icon_wpn_mac10@@3QBEB     1007f2c0     Visuals.obj
 0002:00019d00       ?icon_wpn_fiveseven@@3QBEB 10080d00     Visuals.obj
 0002:0001ab38       ?icon_wpn_m249@@3QBEB      10081b38     Visuals.obj
 0002:0001def8       ?icon_wpn_knife@@3QBEB     10084ef8     Visuals.obj
 0002:0001f25c       $SG4294923475              1008625c     Textures.obj
 0002:0001f270       ?icon_wpn_famas@@3QBEB     10086270     Visuals.obj
 0002:00021c34       $SG4294917662              10088c34     World.obj
 0002:00021c38       ?icon_wpn_xm1014@@3QBEB    10088c38     Visuals.obj
 0002:0002421c       $SG4294917659              1008b21c     World.obj
 0002:00024220       ?icon_wpn_aug@@3QBEB       1008b220     Visuals.obj
 0002:000271f0       ?icon_wpn_ak47@@3QBEB      1008e1f0     Visuals.obj
 0002:0002a270       ?icon_wpn_tmp@@3QBEB       10091270     Visuals.obj
 0002:0002bddc       $SG4294917656              10092ddc     World.obj
 0002:0002bdf0       ?icon_wpn_mp5n@@3QBEB      10092df0     Visuals.obj
 0002:0002e384       $SG4294917654              10095384     World.obj
 0002:0002e398       ?icon_wpn_p90@@3QBEB       10095398     Visuals.obj
 0002:0003093c       $SG4294917652              1009793c     World.obj
 0002:00030950       ?icon_wpn_m3@@3QBEB        10097950     Visuals.obj
 0002:00032a50       ?icon_wpn_deagle@@3QBEB    10099a50     Visuals.obj
 0002:00034084       $SG4294917651              1009b084     World.obj
 0002:00034098       ?icon_wpn_galil@@3QBEB     1009b098     Visuals.obj
 0002:00036ca8       ?icon_wpn_ump45@@3QBEB     1009dca8     Visuals.obj
 0002:000397c8       ?icon_wpn_glock18@@3QBEB   100a07c8     Visuals.obj
 0002:0003a980       ?icon_wpn_elite@@3QBEB     100a1980     Visuals.obj
 0002:0003c3e8       ?icon_wpn_sg552@@3QBEB     100a33e8     Visuals.obj
 0002:0003e968       ?icon_wpn_g3sg1@@3QBEB     100a5968     Visuals.obj
 0002:000417d0       ?icon_wpn_usp@@3QBEB       100a87d0     Visuals.obj
 0002:000433e8       ?icon_wpn_sg550@@3QBEB     100aa3e8     Visuals.obj
 0002:00045bfc       $SG4294917663              100acbfc     World.obj
 0002:00045c04       $SG4294917661              100acc04     World.obj
 0002:00045c1c       $SG4294917660              100acc1c     World.obj
 0002:00045c24       $SG4294917657              100acc24     World.obj
 0002:00045c2c       $SG4294917655              100acc2c     World.obj
 0002:00045c44       $SG4294917653              100acc44     World.obj
 0002:00045c5c       $SG4294917650              100acc5c     World.obj
 0002:00045c70       $SG4294917649              100acc70     World.obj
 0002:00045c84       $SG4294917648              100acc84     World.obj
 0002:00045c98       $SG4294917647              100acc98     World.obj
 0002:00045cac       $SG4294917646              100accac     World.obj
 0002:00045cc4       $SG4294917645              100accc4     World.obj
 0002:00045cd4       $SG4294917644              100accd4     World.obj
 0002:00045cd8       $SG4294917643              100accd8     World.obj
 0002:00045cdc       $SG4294917642              100accdc     World.obj
 0002:00045cec       $SG4294917641              100accec     World.obj
 0002:00045cf0       $SG4294911724              100accf0     Main.obj
 0002:00045d10       $SG4294911723              100acd10     Main.obj
 0002:00045d14       $SG4294911722              100acd14     Main.obj
 0002:00045d1c       $SG4294911721              100acd1c     Main.obj
 0002:00045d20       $SG4294911720              100acd20     Main.obj
 0002:00045d28       $SG4294911719              100acd28     Main.obj
 0002:00045d6c       $SG4294911716              100acd6c     Main.obj
 0002:00045d80       $SG4294911718              100acd80     Main.obj
 0002:00045dc4       $SG4294911714              100acdc4     Main.obj
 0002:00045dd0       $SG4294911717              100acdd0     Main.obj
 0002:00045e14       $SG4294911713              100ace14     Main.obj
 0002:00045e20       $SG4294911712              100ace20     Main.obj
 0002:00045e28       $SG4294911711              100ace28     Main.obj
 0002:00045e34       $SG4294911710              100ace34     Main.obj
 0002:00045e48       $SG4294911709              100ace48     Main.obj
 0002:00045e5c       $SG4294911708              100ace5c     Main.obj
 0002:00045e68       $SG4294911707              100ace68     Main.obj
 0002:00045e78       $SG4294911706              100ace78     Main.obj
 0002:00045e88       $SG4294911705              100ace88     Main.obj
 0002:00045e98       $SG4294911704              100ace98     Main.obj
 0002:00045ea8       $SG4294911703              100acea8     Main.obj
 0002:00045eb4       $SG4294911702              100aceb4     Main.obj
 0002:00045ec4       $SG4294911701              100acec4     Main.obj
 0002:00045ed4       $SG4294908924              100aced4     Offsets.obj
 0002:00045ee0       $SG4294908923              100acee0     Offsets.obj
 0002:00045efc       $SG4294908922              100acefc     Offsets.obj
 0002:00045f00       $SG4294908921              100acf00     Offsets.obj
 0002:00045f1c       $SG4294908920              100acf1c     Offsets.obj
 0002:00045f20       $SG4294908919              100acf20     Offsets.obj
 0002:00045f40       $SG4294908918              100acf40     Offsets.obj
 0002:00045f44       $SG4294908917              100acf44     Offsets.obj
 0002:00045f48       $SG4294908916              100acf48     Offsets.obj
 0002:00045f6c       $SG4294908915              100acf6c     Offsets.obj
 0002:00045f70       $SG4294908914              100acf70     Offsets.obj
 0002:00045f88       $SG4294908913              100acf88     Offsets.obj
 0002:00045f9c       $SG4294908912              100acf9c     Offsets.obj
 0002:00045fc0       $SG4294908911              100acfc0     Offsets.obj
 0002:00045fe4       $SG4294908910              100acfe4     Offsets.obj
 0002:00045ff8       $SG4294908909              100acff8     Offsets.obj
 0002:00045ffc       $SG4294908908              100acffc     Offsets.obj
 0002:00046000       $SG4294908907              100ad000     Offsets.obj
 0002:00046018       $SG4294908906              100ad018     Offsets.obj
 0002:00046040       $SG4294908905              100ad040     Offsets.obj
 0002:00046068       $SG4294908904              100ad068     Offsets.obj
 0002:00046084       $SG4294908903              100ad084     Offsets.obj
 0002:000460a0       $SG4294908902              100ad0a0     Offsets.obj
 0002:000460bc       $SG4294908901              100ad0bc     Offsets.obj
 0002:000460dc       $SG4294908900              100ad0dc     Offsets.obj
 0002:00046108       $SG4294908899              100ad108     Offsets.obj
 0002:00046134       $SG4294908898              100ad134     Offsets.obj
 0002:00046154       $SG4294908897              100ad154     Offsets.obj
 0002:00046160       $SG4294908896              100ad160     Offsets.obj
 0002:0004616c       $SG4294908895              100ad16c     Offsets.obj
 0002:00046180       $SG4294908894              100ad180     Offsets.obj
 0002:00046190       $SG4294908893              100ad190     Offsets.obj
 0002:000461a0       $SG4294908892              100ad1a0     Offsets.obj
 0002:000461b8       $SG4294908891              100ad1b8     Offsets.obj
 0002:000461c4       $SG4294908890              100ad1c4     Offsets.obj
 0002:000461dc       $SG4294908889              100ad1dc     Offsets.obj
 0002:000461f0       $SG4294908888              100ad1f0     Offsets.obj
 0002:00046204       $SG4294908887              100ad204     Offsets.obj
 0002:00046210       $SG4294908886              100ad210     Offsets.obj
 0002:00046224       $SG4294908885              100ad224     Offsets.obj
 0002:0004622c       $SG4294908884              100ad22c     Offsets.obj
 0002:00046238       $SG4294908883              100ad238     Offsets.obj
 0002:00046244       $SG4294908882              100ad244     Offsets.obj
 0002:00046250       $SG4294906340              100ad250     OpenGL.obj
 0002:0004625c       $SG4294906339              100ad25c     OpenGL.obj
 0002:00046274       $SG4294906338              100ad274     OpenGL.obj
 0002:0004628c       $SG4294906337              100ad28c     OpenGL.obj
 0002:0004629c       $SG4294906336              100ad29c     OpenGL.obj
 0002:000462a4       $SG4294906335              100ad2a4     OpenGL.obj
 0002:000462b0       $SG4294906334              100ad2b0     OpenGL.obj
 0002:000462bc       $SG4294906333              100ad2bc     OpenGL.obj
 0002:000462c4       $SG4294906332              100ad2c4     OpenGL.obj
 0002:000462d4       $SG4294906331              100ad2d4     OpenGL.obj
 0002:000462e0       $SG4294903726              100ad2e0     Pipi_edit.obj
 0002:000462f0       $SG4294903725              100ad2f0     Pipi_edit.obj
 0002:0004630c       $SG4294903724              100ad30c     Pipi_edit.obj
 0002:00046310       $SG4294903723              100ad310     Pipi_edit.obj
 0002:00046318       $SG4294903722              100ad318     Pipi_edit.obj
 0002:00046328       $SG4294903721              100ad328     Pipi_edit.obj
 0002:00046330       $SG4294903720              100ad330     Pipi_edit.obj
 0002:00046338       $SG4294903719              100ad338     Pipi_edit.obj
 0002:00046340       $SG4294903718              100ad340     Pipi_edit.obj
 0002:00046348       $SG4294903717              100ad348     Pipi_edit.obj
 0002:0004635c       $SG4294903716              100ad35c     Pipi_edit.obj
 0002:00046370       $SG4294903715              100ad370     Pipi_edit.obj
 0002:00046388       $SG4294894214              100ad388     Usermsg.obj
 0002:0004638c       $SG4294894215              100ad38c     Usermsg.obj
 0002:00046398       $SG4294891860              100ad398     interface.obj
 0002:00046d90       _NaN                       100add90     LIBCMT:ftol3.obj
 0002:00046d94       _onept5                    100add94     LIBCMT:ftol3.obj
 0002:00046d98       _DP2to32                   100add98     LIBCMT:ftol3.obj
 0002:00046d98       _Int32ToUInt32             100add98     LIBCMT:ftol3.obj
 0002:00046e00       Shifter                    100ade00     libucrt:acos_sse2_precise.obj
 0002:00046e10       PI_BY_2                    100ade10     libucrt:acos_sse2_precise.obj
 0002:00046e20       NEG_PI                     100ade20     libucrt:acos_sse2_precise.obj
 0002:00046e30       PI                         100ade30     libucrt:acos_sse2_precise.obj
 0002:00046e40       SIGNMASK                   100ade40     libucrt:acos_sse2_precise.obj
 0002:00046e50       HALFMASK                   100ade50     libucrt:acos_sse2_precise.obj
 0002:00046e60       HALFMASK2                  100ade60     libucrt:acos_sse2_precise.obj
 0002:00046e70       cv                         100ade70     libucrt:acos_sse2_precise.obj
 0002:00046e90       cv2                        100ade90     libucrt:acos_sse2_precise.obj
 0002:00046ed0       ABSVALMASK                 100aded0     libucrt:acos_sse2_precise.obj
 0002:00046ed8       TMASK                      100aded8     libucrt:acos_sse2_precise.obj
 0002:00046ee0       ONEMASK                    100adee0     libucrt:acos_sse2_precise.obj
 0002:00046ee8       ONE_BY_2                   100adee8     libucrt:acos_sse2_precise.obj
 0002:00046ef0       EMIN                       100adef0     libucrt:acos_sse2_precise.obj
 0002:00046ef8       MAX_ARG                    100adef8     libucrt:acos_sse2_precise.obj
 0002:00046f00       MIN_ARG                    100adf00     libucrt:acos_sse2_precise.obj
 0002:00046f08       INF                        100adf08     libucrt:acos_sse2_precise.obj
 0002:00046f10       ZERO                       100adf10     libucrt:acos_sse2_precise.obj
 0002:00046f18       ALPHA                      100adf18     libucrt:acos_sse2_precise.obj
 0002:00046f20       SC_1                       100adf20     libucrt:cos_sse2_precise.obj
 0002:00046f30       SC_2                       100adf30     libucrt:cos_sse2_precise.obj
 0002:00046f40       SC_3                       100adf40     libucrt:cos_sse2_precise.obj
 0002:00046f50       SC_4                       100adf50     libucrt:cos_sse2_precise.obj
 0002:00046f60       PI32INV                    100adf60     libucrt:cos_sse2_precise.obj
 0002:00046f68       SHIFTER                    100adf68     libucrt:cos_sse2_precise.obj
 0002:00046f70       P_2                        100adf70     libucrt:cos_sse2_precise.obj
 0002:00046f80       P_1                        100adf80     libucrt:cos_sse2_precise.obj
 0002:00046f88       P_3                        100adf88     libucrt:cos_sse2_precise.obj
 0002:00046f90       TWO_POW_55                 100adf90     libucrt:cos_sse2_precise.obj
 0002:00046f98       TWO_POW_M55                100adf98     libucrt:cos_sse2_precise.obj
 0002:00046fa0       ALL_ONES                   100adfa0     libucrt:cos_sse2_precise.obj
 0002:00046fa8       NEG_ZERO                   100adfa8     libucrt:cos_sse2_precise.obj
 0002:00046fb0       ONE                        100adfb0     libucrt:cos_sse2_precise.obj
 0002:00046fc0       SIGN_MASK                  100adfc0     libucrt:cos_sse2_precise.obj
 0002:00046fd0       emask                      100adfd0     libucrt:log10_sse2_precise.obj
 0002:00046fe0       CC                         100adfe0     libucrt:log10_sse2_precise.obj
 0002:00046ff0       Magic                      100adff0     libucrt:log10_sse2_precise.obj
 0002:00047000       hi_mask                    100ae000     libucrt:log10_sse2_precise.obj
 0002:00047010       LOG10_2                    100ae010     libucrt:log10_sse2_precise.obj
 0002:00047020       place_L                    100ae020     libucrt:log10_sse2_precise.obj
 0002:00047040       One                        100ae040     libucrt:log10_sse2_precise.obj
 0002:00047050       Zero                       100ae050     libucrt:log10_sse2_precise.obj
 0002:00047060       Two52                      100ae060     libucrt:log10_sse2_precise.obj
 0002:00047070       Infs                       100ae070     libucrt:log10_sse2_precise.obj
 0002:00047080       NaN                        100ae080     libucrt:log10_sse2_precise.obj
 0002:00047090       coeff                      100ae090     libucrt:log10_sse2_precise.obj
 0002:000470d0       Shifter                    100ae0d0     libucrt:pow_sse2_precise.obj
 0002:000470e0       SIGMASK                    100ae0e0     libucrt:pow_sse2_precise.obj
 0002:000470f0       ONEMASK                    100ae0f0     libucrt:pow_sse2_precise.obj
 0002:00047100       ABSVALMASK                 100ae100     libucrt:pow_sse2_precise.obj
 0002:00047110       cev                        100ae110     libucrt:pow_sse2_precise.obj
 0002:00047138       HALFSIG                    100ae138     libucrt:pow_sse2_precise.obj
 0002:00047140       LHN                        100ae140     libucrt:pow_sse2_precise.obj
 0002:00047148       sNaN                       100ae148     libucrt:pow_sse2_precise.obj
 0002:00047150       INF                        100ae150     libucrt:pow_sse2_precise.obj
 0002:00047158       NEG_INF                    100ae158     libucrt:pow_sse2_precise.obj
 0002:00047160       NEG_ZERO                   100ae160     libucrt:pow_sse2_precise.obj
 0002:00047168       NEG_BIG                    100ae168     libucrt:pow_sse2_precise.obj
 0002:00047170       POS_BIG                    100ae170     libucrt:pow_sse2_precise.obj
 0002:00047178       EMIN                       100ae178     libucrt:pow_sse2_precise.obj
 0002:00047180       QIND                       100ae180     libucrt:pow_sse2_precise.obj
 0002:00047190       SC_1                       100ae190     libucrt:sin_sse2_precise.obj
 0002:000471a0       SC_2                       100ae1a0     libucrt:sin_sse2_precise.obj
 0002:000471b0       SC_3                       100ae1b0     libucrt:sin_sse2_precise.obj
 0002:000471c0       SC_4                       100ae1c0     libucrt:sin_sse2_precise.obj
 0002:000471d0       PI32INV                    100ae1d0     libucrt:sin_sse2_precise.obj
 0002:000471d8       SHIFTER                    100ae1d8     libucrt:sin_sse2_precise.obj
 0002:000471e0       P_2                        100ae1e0     libucrt:sin_sse2_precise.obj
 0002:000471f0       P_1                        100ae1f0     libucrt:sin_sse2_precise.obj
 0002:000471f8       P_3                        100ae1f8     libucrt:sin_sse2_precise.obj
 0002:00047200       TWO_POW_55                 100ae200     libucrt:sin_sse2_precise.obj
 0002:00047208       TWO_POW_M55                100ae208     libucrt:sin_sse2_precise.obj
 0002:00047210       ALL_ONES                   100ae210     libucrt:sin_sse2_precise.obj
 0002:00047218       NEG_ZERO                   100ae218     libucrt:sin_sse2_precise.obj
 0002:00047220       ONE                        100ae220     libucrt:sin_sse2_precise.obj
 0002:00047230       PI32INV                    100ae230     libucrt:tan_sse2_precise.obj
 0002:00047240       SHIFTER                    100ae240     libucrt:tan_sse2_precise.obj
 0002:00047250       P_1                        100ae250     libucrt:tan_sse2_precise.obj
 0002:00047260       P_2                        100ae260     libucrt:tan_sse2_precise.obj
 0002:00047270       P_3                        100ae270     libucrt:tan_sse2_precise.obj
 0002:00047280       QQ_2                       100ae280     libucrt:tan_sse2_precise.obj
 0002:00047288       ONE                        100ae288     libucrt:tan_sse2_precise.obj
 0002:00047290       MASK_35                    100ae290     libucrt:tan_sse2_precise.obj
 0002:000472a0       sign_mask                  100ae2a0     libucrt:tan_sse2_precise.obj
 0002:000472a8       TWO_POW_55                 100ae2a8     libucrt:tan_sse2_precise.obj
 0002:000472b0       TWO_POW_M55                100ae2b0     libucrt:tan_sse2_precise.obj
 0002:000472b8       TWO_POW_M53                100ae2b8     libucrt:tan_sse2_precise.obj
 0002:000472c0       INF                        100ae2c0     libucrt:tan_sse2_precise.obj
 0002:000472d0       _One                       100ae2d0     libucrt:floor_pentium4.obj
 0002:000472e0       _Bns                       100ae2e0     libucrt:floor_pentium4.obj
 0002:000472f0       _NegOne                    100ae2f0     libucrt:floor_pentium4.obj
 0002:00047300       _NegZero                   100ae300     libucrt:floor_pentium4.obj
 0002:00047310       _S                         100ae310     libucrt:floor_pentium4.obj
 0002:00047370       DblMax                     100ae370     libucrt:87cdisp.obj
 0002:00047378       DblMin                     100ae378     libucrt:87cdisp.obj
 0002:00047380       IeeeAdjO                   100ae380     libucrt:87cdisp.obj
 0002:00047388       IeeeAdjU                   100ae388     libucrt:87cdisp.obj
 0002:00047390       _infinity                  100ae390     libucrt:87cdisp.obj
 0002:00047398       _zero                      100ae398     libucrt:87cdisp.obj
 0002:000473a0       _NAME_                     100ae3a0     libucrt:acos_impl.obj
 0002:00048ab0       _NAME_                     100afab0     libucrt:cos_impl.obj
 0002:000492c0       _NAME_                     100b02c0     libucrt:sin_impl.obj
 0002:000492d0       _NAME_                     100b02d0     libucrt:tan_impl.obj
 0002:0004a8e0       Shifter                    100b18e0     libucrt:acos_pentium4.obj
 0002:0004a8f0       PI_BY_2                    100b18f0     libucrt:acos_pentium4.obj
 0002:0004a900       NEG_PI                     100b1900     libucrt:acos_pentium4.obj
 0002:0004a910       PI                         100b1910     libucrt:acos_pentium4.obj
 0002:0004a920       SIGNMASK                   100b1920     libucrt:acos_pentium4.obj
 0002:0004a930       HALFMASK                   100b1930     libucrt:acos_pentium4.obj
 0002:0004a940       HALFMASK2                  100b1940     libucrt:acos_pentium4.obj
 0002:0004a950       cv                         100b1950     libucrt:acos_pentium4.obj
 0002:0004a970       cv2                        100b1970     libucrt:acos_pentium4.obj
 0002:0004a9b0       ABSVALMASK                 100b19b0     libucrt:acos_pentium4.obj
 0002:0004a9b8       TMASK                      100b19b8     libucrt:acos_pentium4.obj
 0002:0004a9c0       ONEMASK                    100b19c0     libucrt:acos_pentium4.obj
 0002:0004a9c8       ONE_BY_2                   100b19c8     libucrt:acos_pentium4.obj
 0002:0004a9d0       EMIN                       100b19d0     libucrt:acos_pentium4.obj
 0002:0004a9d8       MAX_ARG                    100b19d8     libucrt:acos_pentium4.obj
 0002:0004a9e0       MIN_ARG                    100b19e0     libucrt:acos_pentium4.obj
 0002:0004a9e8       INF                        100b19e8     libucrt:acos_pentium4.obj
 0002:0004a9f0       ZERO                       100b19f0     libucrt:acos_pentium4.obj
 0002:0004a9f8       ALPHA                      100b19f8     libucrt:acos_pentium4.obj
 0002:0004aa00       SC_1                       100b1a00     libucrt:cos_pentium4.obj
 0002:0004aa10       SC_2                       100b1a10     libucrt:cos_pentium4.obj
 0002:0004aa20       SC_3                       100b1a20     libucrt:cos_pentium4.obj
 0002:0004aa30       SC_4                       100b1a30     libucrt:cos_pentium4.obj
 0002:0004aa40       PI32INV                    100b1a40     libucrt:cos_pentium4.obj
 0002:0004aa48       SHIFTER                    100b1a48     libucrt:cos_pentium4.obj
 0002:0004aa50       P_2                        100b1a50     libucrt:cos_pentium4.obj
 0002:0004aa60       P_1                        100b1a60     libucrt:cos_pentium4.obj
 0002:0004aa68       P_3                        100b1a68     libucrt:cos_pentium4.obj
 0002:0004aa70       TWO_POW_55                 100b1a70     libucrt:cos_pentium4.obj
 0002:0004aa78       TWO_POW_M55                100b1a78     libucrt:cos_pentium4.obj
 0002:0004aa80       ALL_ONES                   100b1a80     libucrt:cos_pentium4.obj
 0002:0004aa88       NEG_ZERO                   100b1a88     libucrt:cos_pentium4.obj
 0002:0004aa90       ONE                        100b1a90     libucrt:cos_pentium4.obj
 0002:0004aaa0       SIGN_MASK                  100b1aa0     libucrt:cos_pentium4.obj
 0002:0004aab0       SC_1                       100b1ab0     libucrt:sin_pentium4.obj
 0002:0004aac0       SC_2                       100b1ac0     libucrt:sin_pentium4.obj
 0002:0004aad0       SC_3                       100b1ad0     libucrt:sin_pentium4.obj
 0002:0004aae0       SC_4                       100b1ae0     libucrt:sin_pentium4.obj
 0002:0004aaf0       PI32INV                    100b1af0     libucrt:sin_pentium4.obj
 0002:0004aaf8       SHIFTER                    100b1af8     libucrt:sin_pentium4.obj
 0002:0004ab00       P_2                        100b1b00     libucrt:sin_pentium4.obj
 0002:0004ab10       P_1                        100b1b10     libucrt:sin_pentium4.obj
 0002:0004ab18       P_3                        100b1b18     libucrt:sin_pentium4.obj
 0002:0004ab20       TWO_POW_55                 100b1b20     libucrt:sin_pentium4.obj
 0002:0004ab28       TWO_POW_M55                100b1b28     libucrt:sin_pentium4.obj
 0002:0004ab30       ALL_ONES                   100b1b30     libucrt:sin_pentium4.obj
 0002:0004ab38       NEG_ZERO                   100b1b38     libucrt:sin_pentium4.obj
 0002:0004ab40       ONE                        100b1b40     libucrt:sin_pentium4.obj
 0002:0004ab50       _NAME_                     100b1b50     libucrt:sqrt_impl.obj
 0002:0004ab60       PI32INV                    100b1b60     libucrt:tan_pentium4.obj
 0002:0004ab70       SHIFTER                    100b1b70     libucrt:tan_pentium4.obj
 0002:0004ab80       P_1                        100b1b80     libucrt:tan_pentium4.obj
 0002:0004ab90       P_2                        100b1b90     libucrt:tan_pentium4.obj
 0002:0004aba0       P_3                        100b1ba0     libucrt:tan_pentium4.obj
 0002:0004abb0       QQ_2                       100b1bb0     libucrt:tan_pentium4.obj
 0002:0004abb8       ONE                        100b1bb8     libucrt:tan_pentium4.obj
 0002:0004abc0       MASK_35                    100b1bc0     libucrt:tan_pentium4.obj
 0002:0004abd0       sign_mask                  100b1bd0     libucrt:tan_pentium4.obj
 0002:0004abd8       TWO_POW_55                 100b1bd8     libucrt:tan_pentium4.obj
 0002:0004abe0       TWO_POW_M55                100b1be0     libucrt:tan_pentium4.obj
 0002:0004abe8       TWO_POW_M53                100b1be8     libucrt:tan_pentium4.obj
 0002:0004abf0       INF                        100b1bf0     libucrt:tan_pentium4.obj
 0002:0004ae7c       ??_R4_ExceptionPtr_normal@?A0x22a8a7b5@@6B@ 100b1e7c     libcpmt:excptptr.obj
 0002:0004ae90       ??_R3_ExceptionPtr_normal@?A0x22a8a7b5@@8 100b1e90     libcpmt:excptptr.obj
 0002:0004aea0       ??_R2_ExceptionPtr_normal@?A0x22a8a7b5@@8 100b1ea0     libcpmt:excptptr.obj
 0002:0004aeac       ??_R1A@?0A@EA@_ExceptionPtr_normal@?A0x22a8a7b5@@8 100b1eac     libcpmt:excptptr.obj
 0002:0004aec8       ??_R4?$_ExceptionPtr_static@Vbad_alloc@std@@@?A0x22a8a7b5@@6B@ 100b1ec8     libcpmt:excptptr.obj
 0002:0004aedc       ??_R3?$_ExceptionPtr_static@Vbad_alloc@std@@@?A0x22a8a7b5@@8 100b1edc     libcpmt:excptptr.obj
 0002:0004aeec       ??_R2?$_ExceptionPtr_static@Vbad_alloc@std@@@?A0x22a8a7b5@@8 100b1eec     libcpmt:excptptr.obj
 0002:0004aef8       ??_R1A@?0A@EA@?$_ExceptionPtr_static@Vbad_alloc@std@@@?A0x22a8a7b5@@8 100b1ef8     libcpmt:excptptr.obj
 0002:0004af14       ??_R4?$_ExceptionPtr_static@Vbad_exception@std@@@?A0x22a8a7b5@@6B@ 100b1f14     libcpmt:excptptr.obj
 0002:0004af28       ??_R3?$_ExceptionPtr_static@Vbad_exception@std@@@?A0x22a8a7b5@@8 100b1f28     libcpmt:excptptr.obj
 0002:0004af38       ??_R2?$_ExceptionPtr_static@Vbad_exception@std@@@?A0x22a8a7b5@@8 100b1f38     libcpmt:excptptr.obj
 0002:0004af44       ??_R1A@?0A@EA@?$_ExceptionPtr_static@Vbad_exception@std@@@?A0x22a8a7b5@@8 100b1f44     libcpmt:excptptr.obj
 0002:0004c048       __ehfuncinfo$?CL_CreateMove@@YAXMPAUusercmd_s@@H@Z 100b3048     Client.obj
 0002:0004c06c       __unwindtable$?CL_CreateMove@@YAXMPAUusercmd_s@@H@Z 100b306c     Client.obj
 0002:0004c094       __ehfuncinfo$??0pmtrace_s@@QAE@XZ 100b3094     Client.obj
 0002:0004c0b8       __unwindtable$??0pmtrace_s@@QAE@XZ 100b30b8     Client.obj
 0002:0004c0c8       __ehfuncinfo$?HUD_AddEntity@@YAHHPAUcl_entity_s@@PBD@Z 100b30c8     Client.obj
 0002:0004c0ec       __unwindtable$?HUD_AddEntity@@YAHHPAUcl_entity_s@@PBD@Z 100b30ec     Client.obj
 0002:0004c124       __ehfuncinfo$??GQAngle@@QBE?AV0@ABV0@@Z 100b3124     Aimbot.obj
 0002:0004c124       __ehfuncinfo$??HQAngle@@QBE?AV0@PAM@Z 100b3124     Aimbot.obj
 0002:0004c124       __ehfuncinfo$?Distance@Vector@@QAEMAAV1@@Z 100b3124     Misc.obj
 0002:0004c148       __unwindtable$??GQAngle@@QBE?AV0@ABV0@@Z 100b3148     Aimbot.obj
 0002:0004c148       __unwindtable$??HQAngle@@QBE?AV0@PAM@Z 100b3148     Aimbot.obj
 0002:0004c148       __unwindtable$?Distance@Vector@@QAEMAAV1@@Z 100b3148     Misc.obj
 0002:0004c150       __ehfuncinfo$?SmoothAimAngles@@YAXVQAngle@@0AAV1@M_NMM@Z 100b3150     Aimbot.obj
 0002:0004c174       __unwindtable$?SmoothAimAngles@@YAXVQAngle@@0AAV1@M_NMM@Z 100b3174     Aimbot.obj
 0002:0004c1a8       __ehfuncinfo$?Trigger@CAimBot@@QAEXPAUusercmd_s@@@Z 100b31a8     Aimbot.obj
 0002:0004c1d0       __unwindtable$?Trigger@CAimBot@@QAEXPAUusercmd_s@@@Z 100b31d0     Aimbot.obj
 0002:0004c228       __ehfuncinfo$?LegitAimbot@CAimBot@@AAEXPAUusercmd_s@@@Z 100b3228     Aimbot.obj
 0002:0004c250       __unwindtable$?LegitAimbot@CAimBot@@AAEXPAUusercmd_s@@@Z 100b3250     Aimbot.obj
 0002:0004c350       __ehfuncinfo$?RageAimbot@CAimBot@@AAEXPAUusercmd_s@@@Z 100b3350     Aimbot.obj
 0002:0004c374       __unwindtable$?RageAimbot@CAimBot@@AAEXPAUusercmd_s@@@Z 100b3374     Aimbot.obj
 0002:0004c3a4       __ehfuncinfo$??$_Deallocate@$07$0A@@std@@YAXPAXI@Z 100b33a4     Aimbot.obj
 0002:0004c3a4       __ehfuncinfo$??$_Deallocate_plain@V?$allocator@U_Container_proxy@std@@@std@@@std@@YAXAAV?$allocator@U_Container_proxy@std@@@0@QAU_Container_proxy@0@@Z 100b33a4     Aimbot.obj
 0002:0004c3a4       __ehfuncinfo$?_Tidy@?$deque@IV?$allocator@I@std@@@std@@AAEXXZ 100b33a4     Aimbot.obj
 0002:0004c3a4       __ehfuncinfo$?pop_back@?$deque@IV?$allocator@I@std@@@std@@QAEXXZ 100b33a4     Aimbot.obj
 0002:0004c3a4       __ehfuncinfo$?_Tidy_deallocate@?$basic_string@DU?$char_traits@D@std@@V?$allocator@D@2@@std@@AAEXXZ 100b33a4     Cvars.obj
 0002:0004c3a4       __ehfuncinfo$?_Take_contents@?$basic_string@DU?$char_traits@D@std@@V?$allocator@D@2@@std@@AAEXAAV12@@Z 100b33a4     Menu.obj
 0002:0004c3a4       __ehfuncinfo$??$_Destroy_range@V?$allocator@V?$basic_config@Ujson_args@configor@@@configor@@@std@@@std@@YAXPAV?$basic_config@Ujson_args@configor@@@configor@@QAV12@AAV?$allocator@V?$basic_config@Ujson_args@configor@@@configor@@@0@@Z 100b33a4     Pipi_edit.obj
 0002:0004c3a4       __ehfuncinfo$??$_Freenode0@V?$allocator@U?$_Tree_node@U?$pair@$$CBV?$basic_string@DU?$char_traits@D@std@@V?$allocator@D@2@@std@@V?$basic_config@Ujson_args@configor@@@configor@@@std@@PAX@std@@@std@@@?$_Tree_node@U?$pair@$$CBV?$basic_string@DU?$char_traits@D@std@@V?$allocator@D@2@@std@@V?$basic_config@Ujson_args@configor@@@configor@@@std@@PAX@std@@SAXAAV?$allocator@U?$_Tree_node@U?$pair@$$CBV?$basic_string@DU?$char_traits@D@std@@V?$allocator@D@2@@std@@V?$basic_config@Ujson_args@configor@@@configor@@@std@@PAX@std@@@1@PAU01@@Z 100b33a4     Pipi_edit.obj
 0002:0004c3a4       __ehfuncinfo$??$_Freenode@V?$allocator@U?$_Tree_node@U?$pair@$$CBV?$basic_string@DU?$char_traits@D@std@@V?$allocator@D@2@@std@@V?$basic_config@Ujson_args@configor@@@configor@@@std@@PAX@std@@@std@@@?$_Tree_node@U?$pair@$$CBV?$basic_string@DU?$char_traits@D@std@@V?$allocator@D@2@@std@@V?$basic_config@Ujson_args@configor@@@configor@@@std@@PAX@std@@SAXAAV?$allocator@U?$_Tree_node@U?$pair@$$CBV?$basic_string@DU?$char_traits@D@std@@V?$allocator@D@2@@std@@V?$basic_config@Ujson_args@configor@@@configor@@@std@@PAX@std@@@1@PAU01@@Z 100b33a4     Pipi_edit.obj
 0002:0004c3a4       __ehfuncinfo$??0?$basic_config@Ujson_args@configor@@@configor@@QAE@$$QAV01@@Z 100b33a4     Pipi_edit.obj
 0002:0004c3a4       __ehfuncinfo$??1?$_Alloc_construct_ptr@V?$allocator@U?$_Tree_node@U?$pair@$$CBV?$basic_string@DU?$char_traits@D@std@@V?$allocator@D@2@@std@@V?$basic_config@Ujson_args@configor@@@configor@@@std@@PAX@std@@@std@@@std@@QAE@XZ 100b33a4     Pipi_edit.obj
 0002:0004c3a4       __ehfuncinfo$??1?$_Tree_temp_node@V?$allocator@U?$_Tree_node@U?$pair@$$CBV?$basic_string@DU?$char_traits@D@std@@V?$allocator@D@2@@std@@V?$basic_config@Ujson_args@configor@@@configor@@@std@@PAX@std@@@std@@@std@@QAE@XZ 100b33a4     Pipi_edit.obj
 0002:0004c3a4       __ehfuncinfo$??1?$config_value@V?$basic_config@Ujson_args@configor@@@configor@@@detail@configor@@QAE@XZ 100b33a4     Pipi_edit.obj
 0002:0004c3a4       __ehfuncinfo$??1_Sentry_base@?$basic_istream@DU?$char_traits@D@std@@@std@@QAE@XZ 100b33a4     Pipi_edit.obj
 0002:0004c3a4       __ehfuncinfo$??1_Sentry_base@?$basic_ostream@DU?$char_traits@D@std@@@std@@QAE@XZ 100b33a4     Pipi_edit.obj
 0002:0004c3a4       __ehfuncinfo$??1sentry@?$basic_ostream@DU?$char_traits@D@std@@@std@@QAE@XZ 100b33a4     Pipi_edit.obj
 0002:0004c3a4       __ehfuncinfo$?_Tidy@?$vector@V?$basic_config@Ujson_args@configor@@@configor@@V?$allocator@V?$basic_config@Ujson_args@configor@@@configor@@@std@@@std@@AAEXXZ 100b33a4     Pipi_edit.obj
 0002:0004c3a4       __ehfuncinfo$?_Tidy@?$deque@Umy_sound_t@@V?$allocator@Umy_sound_t@@@std@@@std@@AAEXXZ 100b33a4     Sounds.obj
 0002:0004c3a4       __ehfuncinfo$?pop_back@?$deque@Umy_sound_t@@V?$allocator@Umy_sound_t@@@std@@@std@@QAEXXZ 100b33a4     Sounds.obj
 0002:0004c3a4       __ehfuncinfo$?_Tidy@?$deque@VVector@@V?$allocator@VVector@@@std@@@std@@AAEXXZ 100b33a4     Visuals.obj
 0002:0004c3a4       __ehfuncinfo$?pop_back@?$deque@VVector@@V?$allocator@VVector@@@std@@@std@@QAEXXZ 100b33a4     Visuals.obj
 0002:0004c3a4       __ehfuncinfo$?pop_front@?$deque@Umy_sound_t@@V?$allocator@Umy_sound_t@@@std@@@std@@QAEXXZ 100b33a4     Visuals.obj
 0002:0004c3a4       __ehfuncinfo$??0?$istreambuf_iterator@DU?$char_traits@D@std@@@std@@QAE@AAV?$basic_istream@DU?$char_traits@D@std@@@1@@Z 100b33a4     World.obj
 0002:0004c3a4       __ehfuncinfo$??0locale@std@@QAE@XZ 100b33a4     World.obj
 0002:0004c3a4       __ehfuncinfo$??1?$basic_filebuf@DU?$char_traits@D@std@@@std@@UAE@XZ 100b33a4     World.obj
 0002:0004c3a4       __ehfuncinfo$??1_Locinfo@std@@QAE@XZ 100b33a4     World.obj
 0002:0004c3a4       __ehfuncinfo$??1ios_base@std@@UAE@XZ 100b33a4     World.obj
 0002:0004c3a4       __ehfuncinfo$??1player_extra_info_t@@QAE@XZ 100b33a4     World.obj
 0002:0004c3a4       __ehfuncinfo$?_Tidy@ios_base@std@@AAEXXZ 100b33a4     libcpmt:ios.obj
 0002:0004c3a4       __ehfuncinfo$??1_Init_atexit@@QAE@XZ 100b33a4     libcpmt:iosptrs.obj
 0002:0004c3a4       __ehfuncinfo$?_mbstowcs_l_helper@@YAIPA_WPBDIAAV__crt_cached_ptd_host@@@Z 100b33a4     libucrt:mbstowcs.obj
 0002:0004c3a4       __ehfuncinfo$?write_double_translated_ansi_nolock@@YA?AUwrite_result@?A0x17268360@@HQBDIAAV__crt_cached_ptd_host@@@Z 100b33a4     libucrt:write.obj
 0002:0004c3a4       __ehfuncinfo$?try_cor_exit_process@@YAXI@Z 100b33a4     libucrt:exit.obj
 0002:0004c3c8       __ehfuncinfo$??$_Uninitialized_copy_unchecked@PAPAIPAPAI@std@@YAPAPAIPAPAIQAPAI0@Z 100b33c8     Aimbot.obj
 0002:0004c3c8       __ehfuncinfo$??$_Uninitialized_copy_unchecked@PAPAUmy_sound_t@@PAPAU1@@std@@YAPAPAUmy_sound_t@@PAPAU1@QAPAU1@0@Z 100b33c8     Sounds.obj
 0002:0004c3c8       __ehfuncinfo$??$_Uninitialized_copy_unchecked@PAPAVVector@@PAPAV1@@std@@YAPAPAVVector@@PAPAV1@QAPAV1@0@Z 100b33c8     Visuals.obj
 0002:0004c3ec       __unwindtable$??$_Uninitialized_copy_unchecked@PAPAIPAPAI@std@@YAPAPAIPAPAIQAPAI0@Z 100b33ec     Aimbot.obj
 0002:0004c3ec       __unwindtable$??$_Uninitialized_copy_unchecked@PAPAUmy_sound_t@@PAPAU1@@std@@YAPAPAUmy_sound_t@@PAPAU1@QAPAU1@0@Z 100b33ec     Sounds.obj
 0002:0004c3ec       __unwindtable$??$_Uninitialized_copy_unchecked@PAPAVVector@@PAPAV1@@std@@YAPAPAVVector@@PAPAV1@QAPAV1@0@Z 100b33ec     Visuals.obj
 0002:0004c3f4       __ehfuncinfo$?LoadCvars@CFunctions@@QAEXXZ 100b33f4     Cvars.obj
 0002:0004c418       __unwindtable$?LoadCvars@CFunctions@@QAEXXZ 100b3418     Cvars.obj
 0002:0004c420       __ehfuncinfo$??0?$basic_string@DU?$char_traits@D@std@@V?$allocator@D@2@@std@@QAE@QBD@Z 100b3420     Cvars.obj
 0002:0004c420       __ehfuncinfo$??0?$basic_string@DU?$char_traits@D@std@@V?$allocator@D@2@@std@@QAE@ABV01@@Z 100b3420     Menu.obj
 0002:0004c420       __ehfuncinfo$??0?$basic_string@DU?$char_traits@D@std@@V?$allocator@D@2@@std@@QAE@QBDI@Z 100b3420     Menu.obj
 0002:0004c420       __ehfuncinfo$??0?$basic_string@DU?$char_traits@D@std@@V?$allocator@D@2@@std@@QAE@ID@Z 100b3420     Pipi_edit.obj
 0002:0004c420       __ehfuncinfo$??$?0V?$istreambuf_iterator@DU?$char_traits@D@std@@@std@@$0A@@?$basic_string@DU?$char_traits@D@std@@V?$allocator@D@2@@std@@QAE@V?$istreambuf_iterator@DU?$char_traits@D@std@@@1@0ABV?$allocator@D@1@@Z 100b3420     World.obj
 0002:0004c420       __ehfuncinfo$??0?$basic_string@DU?$char_traits@D@std@@V?$allocator@D@2@@std@@QAE@ABV01@IIABV?$allocator@D@1@@Z 100b3420     World.obj
 0002:0004c444       __unwindtable$??0?$basic_string@DU?$char_traits@D@std@@V?$allocator@D@2@@std@@QAE@QBD@Z 100b3444     Cvars.obj
 0002:0004c444       __unwindtable$??0?$basic_string@DU?$char_traits@D@std@@V?$allocator@D@2@@std@@QAE@ABV01@@Z 100b3444     Menu.obj
 0002:0004c444       __unwindtable$??0?$basic_string@DU?$char_traits@D@std@@V?$allocator@D@2@@std@@QAE@QBDI@Z 100b3444     Menu.obj
 0002:0004c444       __unwindtable$??0?$basic_string@DU?$char_traits@D@std@@V?$allocator@D@2@@std@@QAE@ID@Z 100b3444     Pipi_edit.obj
 0002:0004c444       __unwindtable$??$?0V?$istreambuf_iterator@DU?$char_traits@D@std@@@std@@$0A@@?$basic_string@DU?$char_traits@D@std@@V?$allocator@D@2@@std@@QAE@V?$istreambuf_iterator@DU?$char_traits@D@std@@@1@0ABV?$allocator@D@1@@Z 100b3444     World.obj
 0002:0004c444       __unwindtable$??0?$basic_string@DU?$char_traits@D@std@@V?$allocator@D@2@@std@@QAE@ABV01@IIABV?$allocator@D@1@@Z 100b3444     World.obj
 0002:0004c44c       __ehfuncinfo$?FakeLag@CMisc@@QAEXPAUusercmd_s@@@Z 100b344c     Misc.obj
 0002:0004c470       __unwindtable$?FakeLag@CMisc@@QAEXPAUusercmd_s@@@Z 100b3470     Misc.obj
 0002:0004c478       __ehfuncinfo$?FakeEdge@CMisc@@QAE_NAAM@Z 100b3478     Misc.obj
 0002:0004c49c       __unwindtable$?FakeEdge@CMisc@@QAE_NAAM@Z 100b349c     Misc.obj
 0002:0004c4b4       __ehfuncinfo$?AntiAim@CMisc@@QAEXPAUusercmd_s@@@Z 100b34b4     Misc.obj
 0002:0004c4d8       __unwindtable$?AntiAim@CMisc@@QAEXPAUusercmd_s@@@Z 100b34d8     Misc.obj
 0002:0004c4e8       __ehfuncinfo$?GetSpreadOffset@CNoSpread@@QAEXIHPAM0@Z 100b34e8     NoSpread.obj
 0002:0004c510       __unwindtable$?GetSpreadOffset@CNoSpread@@QAEXIHPAM0@Z 100b3510     NoSpread.obj
 0002:0004c698       __ehfuncinfo$?CL_CreateMove@CNoSpread@@QAEXPAUusercmd_s@@@Z 100b3698     NoSpread.obj
 0002:0004c6bc       __unwindtable$?CL_CreateMove@CNoSpread@@QAEXPAUusercmd_s@@@Z 100b36bc     NoSpread.obj
 0002:0004c6cc       __ehfuncinfo$?DrawSpread@CNoSpread@@QAEXXZ 100b36cc     NoSpread.obj
 0002:0004c6f0       __unwindtable$?DrawSpread@CNoSpread@@QAEXXZ 100b36f0     NoSpread.obj
 0002:0004c728       __ehfuncinfo$?isGoodJump@@YA_NXZ 100b3728     Systems.obj
 0002:0004c74c       __unwindtable$?isGoodJump@@YA_NXZ 100b374c     Systems.obj
 0002:0004c764       __ehfuncinfo$?isBadJump@@YA_NXZ 100b3764     Systems.obj
 0002:0004c788       __unwindtable$?isBadJump@@YA_NXZ 100b3788     Systems.obj
 0002:0004c798       __ehfuncinfo$?asdfg@@YA_NH@Z 100b3798     Systems.obj
 0002:0004c7bc       __unwindtable$?asdfg@@YA_NH@Z 100b37bc     Systems.obj
 0002:0004c7e8       __ehfuncinfo$?KnifeBot@CSystems@@QAEXPAUusercmd_s@@@Z 100b37e8     Systems.obj
 0002:0004c810       __unwindtable$?KnifeBot@CSystems@@QAEXPAUusercmd_s@@@Z 100b3810     Systems.obj
 0002:0004c850       __ehfuncinfo$?AutoStrafe@CSystems@@QAEXPAUusercmd_s@@M@Z 100b3850     Systems.obj
 0002:0004c874       __unwindtable$?AutoStrafe@CSystems@@QAEXPAUusercmd_s@@M@Z 100b3874     Systems.obj
 0002:0004c87c       __ehfuncinfo$??0CUtils@@QAE@XZ 100b387c     Utils.obj
 0002:0004c8a0       __unwindtable$??0CUtils@@QAE@XZ 100b38a0     Utils.obj
 0002:0004c8c8       __ehfuncinfo$?UTIL_TextureHit@@YAXVVector@@00HAAUpmtrace_s@@@Z 100b38c8     Utils.obj
 0002:0004c8ec       __unwindtable$?UTIL_TextureHit@@YAXVVector@@00HAAUpmtrace_s@@@Z 100b38ec     Utils.obj
 0002:0004c928       __ehfuncinfo$?FireBullets@CUtils@@QAEHVVector@@0MHHHM@Z 100b3928     Utils.obj
 0002:0004c950       __unwindtable$?FireBullets@CUtils@@QAEHVVector@@0MHHHM@Z 100b3950     Utils.obj
 0002:0004ca08       __ehfuncinfo$?bPathFree@CUtils@@QAE_NPAM0@Z 100b3a08     Utils.obj
 0002:0004ca2c       __unwindtable$?bPathFree@CUtils@@QAE_NPAM0@Z 100b3a2c     Utils.obj
 0002:0004ca34       __ehfuncinfo$?FixMoveStart@CUtils@@QAEXPAUusercmd_s@@@Z 100b3a34     Utils.obj
 0002:0004ca58       __unwindtable$?FixMoveStart@CUtils@@QAEXPAUusercmd_s@@@Z 100b3a58     Utils.obj
 0002:0004ca60       __ehfuncinfo$?FixMoveEnd@CUtils@@QAEXPAUusercmd_s@@@Z 100b3a60     Utils.obj
 0002:0004ca84       __unwindtable$?FixMoveEnd@CUtils@@QAEXPAUusercmd_s@@@Z 100b3a84     Utils.obj
 0002:0004cabc       __ehfuncinfo$?GetFirstNonSolidPoint@CUtils@@QAEXABVVector@@0AAV2@@Z 100b3abc     Utils.obj
 0002:0004cae0       __unwindtable$?GetFirstNonSolidPoint@CUtils@@QAEXABVVector@@0AAV2@@Z 100b3ae0     Utils.obj
 0002:0004cb18       __ehfuncinfo$?_Makestr@_System_error@std@@CA?AV?$basic_string@DU?$char_traits@D@std@@V?$allocator@D@2@@2@Verror_code@2@V32@@Z 100b3b18     Menu.obj
 0002:0004cb3c       __unwindtable$?_Makestr@_System_error@std@@CA?AV?$basic_string@DU?$char_traits@D@std@@V?$allocator@D@2@@2@Verror_code@2@V32@@Z 100b3b3c     Menu.obj
 0002:0004cb4c       __ehfuncinfo$??0_System_error@std@@IAE@Verror_code@1@ABV?$basic_string@DU?$char_traits@D@std@@V?$allocator@D@2@@1@@Z 100b3b4c     Menu.obj
 0002:0004cb70       __unwindtable$??0_System_error@std@@IAE@Verror_code@1@ABV?$basic_string@DU?$char_traits@D@std@@V?$allocator@D@2@@1@@Z 100b3b70     Menu.obj
 0002:0004cb78       __ehfuncinfo$??0system_error@std@@QAE@Verror_code@1@PBD@Z 100b3b78     Menu.obj
 0002:0004cb9c       __unwindtable$??0system_error@std@@QAE@Verror_code@1@PBD@Z 100b3b9c     Menu.obj
 0002:0004cba4       __ehfuncinfo$?PreS_DynamicSound@@YAXHKPADPAMMMHH@Z 100b3ba4     Sounds.obj
 0002:0004cbc8       __unwindtable$?PreS_DynamicSound@@YAXHKPADPAMMMHH@Z 100b3bc8     Sounds.obj
 0002:0004cbd0       __ehfuncinfo$?DrawHistory@CVisuals@@AAEXH@Z 100b3bd0     Visuals.obj
 0002:0004cbf4       __unwindtable$?DrawHistory@CVisuals@@AAEXH@Z 100b3bf4     Visuals.obj
 0002:0004cc08       __ehfuncinfo$?PenetrationInfo@CVisuals@@AAEXXZ 100b3c08     Visuals.obj
 0002:0004cc30       __unwindtable$?PenetrationInfo@CVisuals@@AAEXXZ 100b3c30     Visuals.obj
 0002:0004cc98       __ehfuncinfo$?TraceGrenade@CVisuals@@AAEXXZ 100b3c98     Visuals.obj
 0002:0004ccc0       __unwindtable$?TraceGrenade@CVisuals@@AAEXXZ 100b3cc0     Visuals.obj
 0002:0004cd58       __ehfuncinfo$?SoundESP@CVisuals@@AAEXXZ 100b3d58     Visuals.obj
 0002:0004cd7c       __unwindtable$?SoundESP@CVisuals@@AAEXXZ 100b3d7c     Visuals.obj
 0002:0004cd84       __ehfuncinfo$?PlayerESP@CVisuals@@AAEXI@Z 100b3d84     Visuals.obj
 0002:0004cda8       __unwindtable$?PlayerESP@CVisuals@@AAEXI@Z 100b3da8     Visuals.obj
 0002:0004cdb8       __ehfuncinfo$?ScreenESP@CVisuals@@AAEXIEEEE@Z 100b3db8     Visuals.obj
 0002:0004cddc       __unwindtable$?ScreenESP@CVisuals@@AAEXIEEEE@Z 100b3ddc     Visuals.obj
 0002:0004cdf0       __ehfuncinfo$?GetAmountOfPlayerVisible@@YAMVVector@@PAUcl_entity_s@@@Z 100b3df0     Visuals.obj
 0002:0004ce18       __unwindtable$?GetAmountOfPlayerVisible@@YAMVVector@@PAUcl_entity_s@@@Z 100b3e18     Visuals.obj
 0002:0004ce90       __ehfuncinfo$?Bomb@CVisuals@@AAEXXZ 100b3e90     Visuals.obj
 0002:0004ceb4       __unwindtable$?Bomb@CVisuals@@AAEXXZ 100b3eb4     Visuals.obj
 0002:0004cecc       __ehfuncinfo$?DrawFake@CVisuals@@AAEXHH@Z 100b3ecc     Visuals.obj
 0002:0004cef0       __unwindtable$?DrawFake@CVisuals@@AAEXHH@Z 100b3ef0     Visuals.obj
 0002:0004cf00       __ehfuncinfo$??0_Locinfo@std@@QAE@PBD@Z 100b3f00     World.obj
 0002:0004cf24       __unwindtable$??0_Locinfo@std@@QAE@PBD@Z 100b3f24     World.obj
 0002:0004cf5c       __ehfuncinfo$??0?$ctype@D@std@@QAE@ABV_Locinfo@1@I@Z 100b3f5c     World.obj
 0002:0004cf80       __unwindtable$??0?$ctype@D@std@@QAE@ABV_Locinfo@1@I@Z 100b3f80     World.obj
 0002:0004cf88       __ehfuncinfo$?_Getcat@?$numpunct@D@std@@SAIPAPBVfacet@locale@2@PBV42@@Z 100b3f88     Pipi_edit.obj
 0002:0004cf88       __ehfuncinfo$?_Getcat@?$ctype@D@std@@SAIPAPBVfacet@locale@2@PBV42@@Z 100b3f88     World.obj
 0002:0004cfac       __unwindtable$?_Getcat@?$numpunct@D@std@@SAIPAPBVfacet@locale@2@PBV42@@Z 100b3fac     Pipi_edit.obj
 0002:0004cfac       __unwindtable$?_Getcat@?$ctype@D@std@@SAIPAPBVfacet@locale@2@PBV42@@Z 100b3fac     World.obj
 0002:0004cfc8       __ehfuncinfo$??0CBaseLocal@@QAE@XZ 100b3fc8     World.obj
 0002:0004cff0       __unwindtable$??0CBaseLocal@@QAE@XZ 100b3ff0     World.obj
 0002:0004d040       __ehfuncinfo$??0CBasePlayer@@QAE@XZ 100b4040     World.obj
 0002:0004d064       __unwindtable$??0CBasePlayer@@QAE@XZ 100b4064     World.obj
 0002:0004d07c       __ehfuncinfo$??0player_extra_info_t@@QAE@XZ 100b407c     World.obj
 0002:0004d0a0       __unwindtable$??0player_extra_info_t@@QAE@XZ 100b40a0     World.obj
 0002:0004d0b8       __ehfuncinfo$?MyVectorTransform@@YAXVVector@@QAY03MPAMHM@Z 100b40b8     World.obj
 0002:0004d0dc       __unwindtable$?MyVectorTransform@@YAXVVector@@QAY03MPAMHM@Z 100b40dc     World.obj
 0002:0004d100       __ehfuncinfo$?GetHitboxes@CWorld@@QAEXPAUcl_entity_s@@@Z 100b4100     World.obj
 0002:0004d128       __unwindtable$?GetHitboxes@CWorld@@QAEXPAUcl_entity_s@@@Z 100b4128     World.obj
 0002:0004d220       __ehfuncinfo$?UpdateLocalPlayer@CWorld@@QAEXMPAUusercmd_s@@@Z 100b4220     World.obj
 0002:0004d244       __unwindtable$?UpdateLocalPlayer@CWorld@@QAEXMPAUusercmd_s@@@Z 100b4244     World.obj
 0002:0004d264       __ehfuncinfo$?UpdateEntities@CWorld@@QAEXXZ 100b4264     World.obj
 0002:0004d288       __unwindtable$?UpdateEntities@CWorld@@QAEXXZ 100b4288     World.obj
 0002:0004d290       __ehfuncinfo$?UpdatePlayers@CWorld@@QAEXXZ 100b4290     World.obj
 0002:0004d2b4       __unwindtable$?UpdatePlayers@CWorld@@QAEXXZ 100b42b4     World.obj
 0002:0004d2c4       __ehfuncinfo$?UpdateVisibility@CWorld@@QAEXH@Z 100b42c4     World.obj
 0002:0004d2e8       __unwindtable$?UpdateVisibility@CWorld@@QAEXH@Z 100b42e8     World.obj
 0002:0004d308       __ehfuncinfo$?UpdateMapInfo@CWorld@@QAEXXZ 100b4308     World.obj
 0002:0004d32c       __unwindtable$?UpdateMapInfo@CWorld@@QAEXXZ 100b432c     World.obj
 0002:0004d344       __ehfuncinfo$?uflow@?$basic_filebuf@DU?$char_traits@D@std@@@std@@MAEHXZ 100b4344     World.obj
 0002:0004d368       __unwindtable$?uflow@?$basic_filebuf@DU?$char_traits@D@std@@@std@@MAEHXZ 100b4368     World.obj
 0002:0004d370       __ehfuncinfo$??0?$basic_ifstream@DU?$char_traits@D@std@@@std@@QAE@PBDHH@Z 100b4370     World.obj
 0002:0004d394       __unwindtable$??0?$basic_ifstream@DU?$char_traits@D@std@@@std@@QAE@PBDHH@Z 100b4394     World.obj
 0002:0004d3ac       __ehfuncinfo$?open@?$basic_filebuf@DU?$char_traits@D@std@@@std@@QAEPAV12@PBDHH@Z 100b43ac     World.obj
 0002:0004d3ac       __ehfuncinfo$?widen@?$basic_ios@DU?$char_traits@D@std@@@std@@QBEDD@Z 100b43ac     World.obj
 0002:0004d3d0       __unwindtable$?open@?$basic_filebuf@DU?$char_traits@D@std@@@std@@QAEPAV12@PBDHH@Z 100b43d0     World.obj
 0002:0004d3d0       __unwindtable$?widen@?$basic_ios@DU?$char_traits@D@std@@@std@@QBEDD@Z 100b43d0     World.obj
 0002:0004d3d8       __ehfuncinfo$??0?$basic_filebuf@DU?$char_traits@D@std@@@std@@QAE@XZ 100b43d8     World.obj
 0002:0004d3fc       __unwindtable$??0?$basic_filebuf@DU?$char_traits@D@std@@@std@@QAE@XZ 100b43fc     World.obj
 0002:0004d404       __ehfuncinfo$??0?$basic_istream@DU?$char_traits@D@std@@@std@@QAE@PAV?$basic_streambuf@DU?$char_traits@D@std@@@1@_N@Z 100b4404     World.obj
 0002:0004d428       __unwindtable$??0?$basic_istream@DU?$char_traits@D@std@@@std@@QAE@PAV?$basic_streambuf@DU?$char_traits@D@std@@@1@_N@Z 100b4428     World.obj
 0002:0004d430       __ehfuncinfo$??$use_facet@V?$num_put@DV?$ostreambuf_iterator@DU?$char_traits@D@std@@@std@@@std@@@std@@YAABV?$num_put@DV?$ostreambuf_iterator@DU?$char_traits@D@std@@@std@@@0@ABVlocale@0@@Z 100b4430     Pipi_edit.obj
 0002:0004d430       __ehfuncinfo$??$use_facet@V?$numpunct@D@std@@@std@@YAABV?$numpunct@D@0@ABVlocale@0@@Z 100b4430     Pipi_edit.obj
 0002:0004d430       __ehfuncinfo$??$use_facet@V?$codecvt@DDU_Mbstatet@@@std@@@std@@YAABV?$codecvt@DDU_Mbstatet@@@0@ABVlocale@0@@Z 100b4430     World.obj
 0002:0004d430       __ehfuncinfo$??$use_facet@V?$ctype@D@std@@@std@@YAABV?$ctype@D@0@ABVlocale@0@@Z 100b4430     World.obj
 0002:0004d454       __unwindtable$??$use_facet@V?$num_put@DV?$ostreambuf_iterator@DU?$char_traits@D@std@@@std@@@std@@@std@@YAABV?$num_put@DV?$ostreambuf_iterator@DU?$char_traits@D@std@@@std@@@0@ABVlocale@0@@Z 100b4454     Pipi_edit.obj
 0002:0004d454       __unwindtable$??$use_facet@V?$numpunct@D@std@@@std@@YAABV?$numpunct@D@0@ABVlocale@0@@Z 100b4454     Pipi_edit.obj
 0002:0004d454       __unwindtable$??$use_facet@V?$codecvt@DDU_Mbstatet@@@std@@@std@@YAABV?$codecvt@DDU_Mbstatet@@@0@ABVlocale@0@@Z 100b4454     World.obj
 0002:0004d454       __unwindtable$??$use_facet@V?$ctype@D@std@@@std@@YAABV?$ctype@D@0@ABVlocale@0@@Z 100b4454     World.obj
 0002:0004d464       __ehfuncinfo$?_Getcat@?$num_put@DV?$ostreambuf_iterator@DU?$char_traits@D@std@@@std@@@std@@SAIPAPBVfacet@locale@2@PBV42@@Z 100b4464     Pipi_edit.obj
 0002:0004d464       __ehfuncinfo$?_Getcat@?$codecvt@DDU_Mbstatet@@@std@@SAIPAPBVfacet@locale@2@PBV42@@Z 100b4464     World.obj
 0002:0004d488       __unwindtable$?_Getcat@?$num_put@DV?$ostreambuf_iterator@DU?$char_traits@D@std@@@std@@@std@@SAIPAPBVfacet@locale@2@PBV42@@Z 100b4488     Pipi_edit.obj
 0002:0004d488       __unwindtable$?_Getcat@?$codecvt@DDU_Mbstatet@@@std@@SAIPAPBVfacet@locale@2@PBV42@@Z 100b4488     World.obj
 0002:0004d4a0       __ehfuncinfo$??0?$codecvt@DDU_Mbstatet@@@std@@QAE@ABV_Locinfo@1@I@Z 100b44a0     World.obj
 0002:0004d4c4       __unwindtable$??0?$codecvt@DDU_Mbstatet@@@std@@QAE@ABV_Locinfo@1@I@Z 100b44c4     World.obj
 0002:0004d4cc       __ehfuncinfo$??$_Construct@V?$istreambuf_iterator@DU?$char_traits@D@std@@@std@@@?$basic_string@DU?$char_traits@D@std@@V?$allocator@D@2@@std@@QAEXV?$istreambuf_iterator@DU?$char_traits@D@std@@@1@V21@Uinput_iterator_tag@1@@Z 100b44cc     World.obj
 0002:0004d4f0       __unwindtable$??$_Construct@V?$istreambuf_iterator@DU?$char_traits@D@std@@@std@@@?$basic_string@DU?$char_traits@D@std@@V?$allocator@D@2@@std@@QAEXV?$istreambuf_iterator@DU?$char_traits@D@std@@@1@V21@Uinput_iterator_tag@1@@Z 100b44f0     World.obj
 0002:0004d4f8       __ehfuncinfo$??0configor_invalid_key@configor@@QAE@ABV?$basic_string@DU?$char_traits@D@std@@V?$allocator@D@2@@std@@@Z 100b44f8     Pipi_edit.obj
 0002:0004d4f8       __ehfuncinfo$??0configor_serialization_error@configor@@QAE@ABV?$basic_string@DU?$char_traits@D@std@@V?$allocator@D@2@@std@@@Z 100b44f8     Pipi_edit.obj
 0002:0004d4f8       __ehfuncinfo$??0configor_type_error@configor@@QAE@ABV?$basic_string@DU?$char_traits@D@std@@V?$allocator@D@2@@std@@@Z 100b44f8     Pipi_edit.obj
 0002:0004d51c       __unwindtable$??0configor_invalid_key@configor@@QAE@ABV?$basic_string@DU?$char_traits@D@std@@V?$allocator@D@2@@std@@@Z 100b451c     Pipi_edit.obj
 0002:0004d51c       __unwindtable$??0configor_serialization_error@configor@@QAE@ABV?$basic_string@DU?$char_traits@D@std@@V?$allocator@D@2@@std@@@Z 100b451c     Pipi_edit.obj
 0002:0004d51c       __unwindtable$??0configor_type_error@configor@@QAE@ABV?$basic_string@DU?$char_traits@D@std@@V?$allocator@D@2@@std@@@Z 100b451c     Pipi_edit.obj
 0002:0004d524       __ehfuncinfo$?writejson@@YA_NV?$basic_config@Ujson_args@configor@@@configor@@@Z 100b4524     Pipi_edit.obj
 0002:0004d548       __unwindtable$?writejson@@YA_NV?$basic_config@Ujson_args@configor@@@configor@@@Z 100b4548     Pipi_edit.obj
 0002:0004d550       __ehfuncinfo$?GetAIdata@@YAXQAH@Z 100b4550     Pipi_edit.obj
 0002:0004d578       __unwindtable$?GetAIdata@@YAXQAH@Z 100b4578     Pipi_edit.obj
 0002:0004d680       __ehfuncinfo$??0?$basic_config@Ujson_args@configor@@@configor@@QAE@ABV?$initializer_list@V?$basic_config@Ujson_args@configor@@@configor@@@std@@W4config_value_type@1@@Z 100b4680     Pipi_edit.obj
 0002:0004d6a4       __unwindtable$??0?$basic_config@Ujson_args@configor@@@configor@@QAE@ABV?$initializer_list@V?$basic_config@Ujson_args@configor@@@configor@@@std@@W4config_value_type@1@@Z 100b46a4     Pipi_edit.obj
 0002:0004d6c4       __ehfuncinfo$?put_string@?$json_serializer@V?$basic_config@Ujson_args@configor@@@configor@@@detail@configor@@UAEXABV?$basic_string@DU?$char_traits@D@std@@V?$allocator@D@2@@std@@@Z 100b46c4     Pipi_edit.obj
 0002:0004d6e8       __unwindtable$?put_string@?$json_serializer@V?$basic_config@Ujson_args@configor@@@configor@@@detail@configor@@UAEXABV?$basic_string@DU?$char_traits@D@std@@V?$allocator@D@2@@std@@@Z 100b46e8     Pipi_edit.obj
 0002:0004d708       __ehfuncinfo$??0?$basic_ofstream@DU?$char_traits@D@std@@@std@@QAE@XZ 100b4708     Pipi_edit.obj
 0002:0004d72c       __unwindtable$??0?$basic_ofstream@DU?$char_traits@D@std@@@std@@QAE@XZ 100b472c     Pipi_edit.obj
 0002:0004d73c       __ehfuncinfo$??0?$fast_basic_ostringstream@D@detail@configor@@QAE@XZ 100b473c     Pipi_edit.obj
 0002:0004d760       __unwindtable$??0?$fast_basic_ostringstream@D@detail@configor@@QAE@XZ 100b4760     Pipi_edit.obj
 0002:0004d780       __ehfuncinfo$?do_put@?$num_put@DV?$ostreambuf_iterator@DU?$char_traits@D@std@@@std@@@std@@MBE?AV?$ostreambuf_iterator@DU?$char_traits@D@std@@@2@V32@AAVios_base@2@DO@Z 100b4780     Pipi_edit.obj
 0002:0004d7a4       __unwindtable$?do_put@?$num_put@DV?$ostreambuf_iterator@DU?$char_traits@D@std@@@std@@@std@@MBE?AV?$ostreambuf_iterator@DU?$char_traits@D@std@@@2@V32@AAVios_base@2@DO@Z 100b47a4     Pipi_edit.obj
 0002:0004d7ac       __ehfuncinfo$?do_put@?$num_put@DV?$ostreambuf_iterator@DU?$char_traits@D@std@@@std@@@std@@MBE?AV?$ostreambuf_iterator@DU?$char_traits@D@std@@@2@V32@AAVios_base@2@DN@Z 100b47ac     Pipi_edit.obj
 0002:0004d7d0       __unwindtable$?do_put@?$num_put@DV?$ostreambuf_iterator@DU?$char_traits@D@std@@@std@@@std@@MBE?AV?$ostreambuf_iterator@DU?$char_traits@D@std@@@2@V32@AAVios_base@2@DN@Z 100b47d0     Pipi_edit.obj
 0002:0004d7d8       __ehfuncinfo$?do_put@?$num_put@DV?$ostreambuf_iterator@DU?$char_traits@D@std@@@std@@@std@@MBE?AV?$ostreambuf_iterator@DU?$char_traits@D@std@@@2@V32@AAVios_base@2@D_N@Z 100b47d8     Pipi_edit.obj
 0002:0004d7fc       __unwindtable$?do_put@?$num_put@DV?$ostreambuf_iterator@DU?$char_traits@D@std@@@std@@@std@@MBE?AV?$ostreambuf_iterator@DU?$char_traits@D@std@@@2@V32@AAVios_base@2@D_N@Z 100b47fc     Pipi_edit.obj
 0002:0004d80c       __ehfuncinfo$??0sentry@?$basic_ostream@DU?$char_traits@D@std@@@std@@QAE@AAV12@@Z 100b480c     Pipi_edit.obj
 0002:0004d830       __unwindtable$??0sentry@?$basic_ostream@DU?$char_traits@D@std@@@std@@QAE@AAV12@@Z 100b4830     Pipi_edit.obj
 0002:0004d838       __ehfuncinfo$?fail@?$json_serializer@V?$basic_config@Ujson_args@configor@@@configor@@@detail@configor@@QAEXABV?$basic_string@DU?$char_traits@D@std@@V?$allocator@D@2@@std@@I@Z 100b4838     Pipi_edit.obj
 0002:0004d85c       __unwindtable$?fail@?$json_serializer@V?$basic_config@Ujson_args@configor@@@configor@@@detail@configor@@QAEXABV?$basic_string@DU?$char_traits@D@std@@V?$allocator@D@2@@std@@I@Z 100b485c     Pipi_edit.obj
 0002:0004d864       __ehfuncinfo$??0?$basic_ostream@DU?$char_traits@D@std@@@std@@QAE@PAV?$basic_streambuf@DU?$char_traits@D@std@@@1@_N@Z 100b4864     Pipi_edit.obj
 0002:0004d888       __unwindtable$??0?$basic_ostream@DU?$char_traits@D@std@@@std@@QAE@PAV?$basic_streambuf@DU?$char_traits@D@std@@@1@_N@Z 100b4888     Pipi_edit.obj
 0002:0004d890       __ehfuncinfo$?_Iput@?$num_put@DV?$ostreambuf_iterator@DU?$char_traits@D@std@@@std@@@std@@ABA?AV?$ostreambuf_iterator@DU?$char_traits@D@std@@@2@V32@AAVios_base@2@DPADI@Z 100b4890     Pipi_edit.obj
 0002:0004d8b4       __unwindtable$?_Iput@?$num_put@DV?$ostreambuf_iterator@DU?$char_traits@D@std@@@std@@@std@@ABA?AV?$ostreambuf_iterator@DU?$char_traits@D@std@@@2@V32@AAVios_base@2@DPADI@Z 100b48b4     Pipi_edit.obj
 0002:0004d8d4       __ehfuncinfo$?_Fput@?$num_put@DV?$ostreambuf_iterator@DU?$char_traits@D@std@@@std@@@std@@ABA?AV?$ostreambuf_iterator@DU?$char_traits@D@std@@@2@V32@AAVios_base@2@DPBDI@Z 100b48d4     Pipi_edit.obj
 0002:0004d8f8       __unwindtable$?_Fput@?$num_put@DV?$ostreambuf_iterator@DU?$char_traits@D@std@@@std@@@std@@ABA?AV?$ostreambuf_iterator@DU?$char_traits@D@std@@@2@V32@AAVios_base@2@DPBDI@Z 100b48f8     Pipi_edit.obj
 0002:0004d918       __ehfuncinfo$?_Reallocate_exactly@?$vector@V?$basic_config@Ujson_args@configor@@@configor@@V?$allocator@V?$basic_config@Ujson_args@configor@@@configor@@@std@@@std@@AAEXI@Z 100b4918     Pipi_edit.obj
 0002:0004d93c       __unwindtable$?_Reallocate_exactly@?$vector@V?$basic_config@Ujson_args@configor@@@configor@@V?$allocator@V?$basic_config@Ujson_args@configor@@@configor@@@std@@@std@@AAEXI@Z 100b493c     Pipi_edit.obj
 0002:0004d94c       __tryblocktable$?_Reallocate_exactly@?$vector@V?$basic_config@Ujson_args@configor@@@configor@@V?$allocator@V?$basic_config@Ujson_args@configor@@@configor@@@std@@@std@@AAEXI@Z 100b494c     Pipi_edit.obj
 0002:0004d960       __catchsym$?_Reallocate_exactly@?$vector@V?$basic_config@Ujson_args@configor@@@configor@@V?$allocator@V?$basic_config@Ujson_args@configor@@@configor@@@std@@@std@@AAEXI@Z$2 100b4960     Pipi_edit.obj
 0002:0004d970       __ehfuncinfo$?at@?$basic_config@Ujson_args@configor@@@configor@@QBEAAV12@I@Z 100b4970     Pipi_edit.obj
 0002:0004d994       __unwindtable$?at@?$basic_config@Ujson_args@configor@@@configor@@QBEAAV12@I@Z 100b4994     Pipi_edit.obj
 0002:0004d99c       __ehfuncinfo$?get@?$basic_istream@DU?$char_traits@D@std@@@std@@QAEHXZ 100b499c     Pipi_edit.obj
 0002:0004d9c0       __unwindtable$?get@?$basic_istream@DU?$char_traits@D@std@@@std@@QAEHXZ 100b49c0     Pipi_edit.obj
 0002:0004d9d8       __tryblocktable$?get@?$basic_istream@DU?$char_traits@D@std@@@std@@QAEHXZ 100b49d8     Pipi_edit.obj
 0002:0004d9ec       __catchsym$?get@?$basic_istream@DU?$char_traits@D@std@@@std@@QAEHXZ$3 100b49ec     Pipi_edit.obj
 0002:0004d9fc       __ehfuncinfo$?flush@?$basic_ostream@DU?$char_traits@D@std@@@std@@QAEAAV12@XZ 100b49fc     Pipi_edit.obj
 0002:0004da20       __unwindtable$?flush@?$basic_ostream@DU?$char_traits@D@std@@@std@@QAEAAV12@XZ 100b4a20     Pipi_edit.obj
 0002:0004da28       __ehfuncinfo$?write@?$basic_ostream@DU?$char_traits@D@std@@@std@@QAEAAV12@PBD_J@Z 100b4a28     Pipi_edit.obj
 0002:0004da4c       __unwindtable$?write@?$basic_ostream@DU?$char_traits@D@std@@@std@@QAEAAV12@PBD_J@Z 100b4a4c     Pipi_edit.obj
 0002:0004da64       __tryblocktable$?write@?$basic_ostream@DU?$char_traits@D@std@@@std@@QAEAAV12@PBD_J@Z 100b4a64     Pipi_edit.obj
 0002:0004da78       __catchsym$?write@?$basic_ostream@DU?$char_traits@D@std@@@std@@QAEAAV12@PBD_J@Z$3 100b4a78     Pipi_edit.obj
 0002:0004da88       __ehfuncinfo$?put@?$basic_ostream@DU?$char_traits@D@std@@@std@@QAEAAV12@D@Z 100b4a88     Pipi_edit.obj
 0002:0004daac       __unwindtable$?put@?$basic_ostream@DU?$char_traits@D@std@@@std@@QAEAAV12@D@Z 100b4aac     Pipi_edit.obj
 0002:0004dac4       __tryblocktable$?put@?$basic_ostream@DU?$char_traits@D@std@@@std@@QAEAAV12@D@Z 100b4ac4     Pipi_edit.obj
 0002:0004dad8       __catchsym$?put@?$basic_ostream@DU?$char_traits@D@std@@@std@@QAEAAV12@D@Z$3 100b4ad8     Pipi_edit.obj
 0002:0004dae8       __ehfuncinfo$??6?$basic_ostream@DU?$char_traits@D@std@@@std@@QAEAAV01@N@Z 100b4ae8     Pipi_edit.obj
 0002:0004db0c       __unwindtable$??6?$basic_ostream@DU?$char_traits@D@std@@@std@@QAEAAV01@N@Z 100b4b0c     Pipi_edit.obj
 0002:0004db2c       __tryblocktable$??6?$basic_ostream@DU?$char_traits@D@std@@@std@@QAEAAV01@N@Z 100b4b2c     Pipi_edit.obj
 0002:0004db40       __catchsym$??6?$basic_ostream@DU?$char_traits@D@std@@@std@@QAEAAV01@N@Z$4 100b4b40     Pipi_edit.obj
 0002:0004db50       __ehfuncinfo$??6?$basic_ostream@DU?$char_traits@D@std@@@std@@QAEAAV01@_J@Z 100b4b50     Pipi_edit.obj
 0002:0004db74       __unwindtable$??6?$basic_ostream@DU?$char_traits@D@std@@@std@@QAEAAV01@_J@Z 100b4b74     Pipi_edit.obj
 0002:0004db94       __tryblocktable$??6?$basic_ostream@DU?$char_traits@D@std@@@std@@QAEAAV01@_J@Z 100b4b94     Pipi_edit.obj
 0002:0004dba8       __catchsym$??6?$basic_ostream@DU?$char_traits@D@std@@@std@@QAEAAV01@_J@Z$4 100b4ba8     Pipi_edit.obj
 0002:0004dbb8       __ehfuncinfo$??6?$basic_ostream@DU?$char_traits@D@std@@@std@@QAEAAV01@I@Z 100b4bb8     Pipi_edit.obj
 0002:0004dbdc       __unwindtable$??6?$basic_ostream@DU?$char_traits@D@std@@@std@@QAEAAV01@I@Z 100b4bdc     Pipi_edit.obj
 0002:0004dbfc       __tryblocktable$??6?$basic_ostream@DU?$char_traits@D@std@@@std@@QAEAAV01@I@Z 100b4bfc     Pipi_edit.obj
 0002:0004dc10       __catchsym$??6?$basic_ostream@DU?$char_traits@D@std@@@std@@QAEAAV01@I@Z$4 100b4c10     Pipi_edit.obj
 0002:0004dc20       __ehfuncinfo$??6?$basic_ostream@DU?$char_traits@D@std@@@std@@QAEAAV01@G@Z 100b4c20     Pipi_edit.obj
 0002:0004dc44       __unwindtable$??6?$basic_ostream@DU?$char_traits@D@std@@@std@@QAEAAV01@G@Z 100b4c44     Pipi_edit.obj
 0002:0004dc64       __tryblocktable$??6?$basic_ostream@DU?$char_traits@D@std@@@std@@QAEAAV01@G@Z 100b4c64     Pipi_edit.obj
 0002:0004dc78       __catchsym$??6?$basic_ostream@DU?$char_traits@D@std@@@std@@QAEAAV01@G@Z$4 100b4c78     Pipi_edit.obj
 0002:0004dc88       __ehfuncinfo$?_Osfx@?$basic_ostream@DU?$char_traits@D@std@@@std@@QAEXXZ 100b4c88     Pipi_edit.obj
 0002:0004dcac       __unwindtable$?_Osfx@?$basic_ostream@DU?$char_traits@D@std@@@std@@QAEXXZ 100b4cac     Pipi_edit.obj
 0002:0004dcbc       __tryblocktable$?_Osfx@?$basic_ostream@DU?$char_traits@D@std@@@std@@QAEXXZ 100b4cbc     Pipi_edit.obj
 0002:0004dcd0       __catchsym$?_Osfx@?$basic_ostream@DU?$char_traits@D@std@@@std@@QAEXXZ$2 100b4cd0     Pipi_edit.obj
 0002:0004dce0       __ehfuncinfo$??0sentry@?$basic_istream@DU?$char_traits@D@std@@@std@@QAE@AAV12@_N@Z 100b4ce0     Pipi_edit.obj
 0002:0004dd04       __unwindtable$??0sentry@?$basic_istream@DU?$char_traits@D@std@@@std@@QAE@AAV12@_N@Z 100b4d04     Pipi_edit.obj
 0002:0004dd0c       __ehfuncinfo$?peek@?$basic_istream@DU?$char_traits@D@std@@@std@@QAEHXZ 100b4d0c     Pipi_edit.obj
 0002:0004dd30       __unwindtable$?peek@?$basic_istream@DU?$char_traits@D@std@@@std@@QAEHXZ 100b4d30     Pipi_edit.obj
 0002:0004dd48       __tryblocktable$?peek@?$basic_istream@DU?$char_traits@D@std@@@std@@QAEHXZ 100b4d48     Pipi_edit.obj
 0002:0004dd5c       __catchsym$?peek@?$basic_istream@DU?$char_traits@D@std@@@std@@QAEHXZ$3 100b4d5c     Pipi_edit.obj
 0002:0004dd6c       __ehfuncinfo$?_Ipfx@?$basic_istream@DU?$char_traits@D@std@@@std@@QAE_N_N@Z 100b4d6c     Pipi_edit.obj
 0002:0004dd90       __unwindtable$?_Ipfx@?$basic_istream@DU?$char_traits@D@std@@@std@@QAE_N_N@Z 100b4d90     Pipi_edit.obj
 0002:0004dda8       __tryblocktable$?_Ipfx@?$basic_istream@DU?$char_traits@D@std@@@std@@QAE_N_N@Z 100b4da8     Pipi_edit.obj
 0002:0004ddbc       __catchsym$?_Ipfx@?$basic_istream@DU?$char_traits@D@std@@@std@@QAE_N_N@Z$3 100b4dbc     Pipi_edit.obj
 0002:0004ddcc       __ehfuncinfo$??$?6U?$char_traits@D@std@@@std@@YAAAV?$basic_ostream@DU?$char_traits@D@std@@@0@AAV10@PBD@Z 100b4dcc     Pipi_edit.obj
 0002:0004ddf0       __unwindtable$??$?6U?$char_traits@D@std@@@std@@YAAAV?$basic_ostream@DU?$char_traits@D@std@@@0@AAV10@PBD@Z 100b4df0     Pipi_edit.obj
 0002:0004de08       __tryblocktable$??$?6U?$char_traits@D@std@@@std@@YAAAV?$basic_ostream@DU?$char_traits@D@std@@@0@AAV10@PBD@Z 100b4e08     Pipi_edit.obj
 0002:0004de1c       __catchsym$??$?6U?$char_traits@D@std@@@std@@YAAAV?$basic_ostream@DU?$char_traits@D@std@@@0@AAV10@PBD@Z$3 100b4e1c     Pipi_edit.obj
 0002:0004de2c       __ehfuncinfo$??$?6U?$char_traits@D@std@@@std@@YAAAV?$basic_ostream@DU?$char_traits@D@std@@@0@AAV10@D@Z 100b4e2c     Pipi_edit.obj
 0002:0004de50       __unwindtable$??$?6U?$char_traits@D@std@@@std@@YAAAV?$basic_ostream@DU?$char_traits@D@std@@@0@AAV10@D@Z 100b4e50     Pipi_edit.obj
 0002:0004de68       __tryblocktable$??$?6U?$char_traits@D@std@@@std@@YAAAV?$basic_ostream@DU?$char_traits@D@std@@@0@AAV10@D@Z 100b4e68     Pipi_edit.obj
 0002:0004de7c       __catchsym$??$?6U?$char_traits@D@std@@@std@@YAAAV?$basic_ostream@DU?$char_traits@D@std@@@0@AAV10@D@Z$3 100b4e7c     Pipi_edit.obj
 0002:0004de8c       __ehfuncinfo$??$?0AAHHX@?$basic_config@Ujson_args@configor@@@configor@@QAE@AAH@Z 100b4e8c     Pipi_edit.obj
 0002:0004de8c       __ehfuncinfo$??$?0AAY04$$CBD$$BY04DX@?$basic_config@Ujson_args@configor@@@configor@@QAE@AAY04$$CBD@Z 100b4e8c     Pipi_edit.obj
 0002:0004de8c       __ehfuncinfo$??$?0AAY07$$CBD$$BY07DX@?$basic_config@Ujson_args@configor@@@configor@@QAE@AAY07$$CBD@Z 100b4e8c     Pipi_edit.obj
 0002:0004de8c       __ehfuncinfo$??$?0V?$basic_string@DU?$char_traits@D@std@@V?$allocator@D@2@@std@@V01@X@?$basic_config@Ujson_args@configor@@@configor@@QAE@$$QAV?$basic_string@DU?$char_traits@D@std@@V?$allocator@D@2@@std@@@Z 100b4e8c     Pipi_edit.obj
 0002:0004deb0       __unwindtable$??$?0AAHHX@?$basic_config@Ujson_args@configor@@@configor@@QAE@AAH@Z 100b4eb0     Pipi_edit.obj
 0002:0004deb0       __unwindtable$??$?0AAY04$$CBD$$BY04DX@?$basic_config@Ujson_args@configor@@@configor@@QAE@AAY04$$CBD@Z 100b4eb0     Pipi_edit.obj
 0002:0004deb0       __unwindtable$??$?0AAY07$$CBD$$BY07DX@?$basic_config@Ujson_args@configor@@@configor@@QAE@AAY07$$CBD@Z 100b4eb0     Pipi_edit.obj
 0002:0004deb0       __unwindtable$??$?0V?$basic_string@DU?$char_traits@D@std@@V?$allocator@D@2@@std@@V01@X@?$basic_config@Ujson_args@configor@@@configor@@QAE@$$QAV?$basic_string@DU?$char_traits@D@std@@V?$allocator@D@2@@std@@@Z 100b4eb0     Pipi_edit.obj
 0002:0004deb8       __ehfuncinfo$??$_Uninitialized_copy@PAV?$basic_config@Ujson_args@configor@@@configor@@V?$allocator@V?$basic_config@Ujson_args@configor@@@configor@@@std@@@std@@YAPAV?$basic_config@Ujson_args@configor@@@configor@@QAV12@0PAV12@AAV?$allocator@V?$basic_config@Ujson_args@configor@@@configor@@@0@@Z 100b4eb8     Pipi_edit.obj
 0002:0004deb8       __ehfuncinfo$??$_Uninitialized_copy@PBV?$basic_config@Ujson_args@configor@@@configor@@V?$allocator@V?$basic_config@Ujson_args@configor@@@configor@@@std@@@std@@YAPAV?$basic_config@Ujson_args@configor@@@configor@@QBV12@0PAV12@AAV?$allocator@V?$basic_config@Ujson_args@configor@@@configor@@@0@@Z 100b4eb8     Pipi_edit.obj
 0002:0004deb8       __ehfuncinfo$??$_Uninitialized_move@PAV?$basic_config@Ujson_args@configor@@@configor@@V?$allocator@V?$basic_config@Ujson_args@configor@@@configor@@@std@@@std@@YAPAV?$basic_config@Ujson_args@configor@@@configor@@QAV12@0PAV12@AAV?$allocator@V?$basic_config@Ujson_args@configor@@@configor@@@0@@Z 100b4eb8     Pipi_edit.obj
 0002:0004dedc       __unwindtable$??$_Uninitialized_copy@PAV?$basic_config@Ujson_args@configor@@@configor@@V?$allocator@V?$basic_config@Ujson_args@configor@@@configor@@@std@@@std@@YAPAV?$basic_config@Ujson_args@configor@@@configor@@QAV12@0PAV12@AAV?$allocator@V?$basic_config@Ujson_args@configor@@@configor@@@0@@Z 100b4edc     Pipi_edit.obj
 0002:0004dedc       __unwindtable$??$_Uninitialized_copy@PBV?$basic_config@Ujson_args@configor@@@configor@@V?$allocator@V?$basic_config@Ujson_args@configor@@@configor@@@std@@@std@@YAPAV?$basic_config@Ujson_args@configor@@@configor@@QBV12@0PAV12@AAV?$allocator@V?$basic_config@Ujson_args@configor@@@configor@@@0@@Z 100b4edc     Pipi_edit.obj
 0002:0004dedc       __unwindtable$??$_Uninitialized_move@PAV?$basic_config@Ujson_args@configor@@@configor@@V?$allocator@V?$basic_config@Ujson_args@configor@@@configor@@@std@@@std@@YAPAV?$basic_config@Ujson_args@configor@@@configor@@QAV12@0PAV12@AAV?$allocator@V?$basic_config@Ujson_args@configor@@@configor@@@0@@Z 100b4edc     Pipi_edit.obj
 0002:0004dee4       __ehfuncinfo$??0?$basic_string@DU?$char_traits@D@std@@V?$allocator@D@2@@std@@QAE@U_String_constructor_concat_tag@1@ABV01@QBDI2I@Z 100b4ee4     Pipi_edit.obj
 0002:0004df08       __unwindtable$??0?$basic_string@DU?$char_traits@D@std@@V?$allocator@D@2@@std@@QAE@U_String_constructor_concat_tag@1@ABV01@QBDI2I@Z 100b4f08     Pipi_edit.obj
 0002:0004df10       __ehfuncinfo$??0?$num_put@DV?$ostreambuf_iterator@DU?$char_traits@D@std@@@std@@@std@@QAE@ABV_Locinfo@1@I@Z 100b4f10     Pipi_edit.obj
 0002:0004df10       __ehfuncinfo$??0?$numpunct@D@std@@QAE@ABV_Locinfo@1@I_N@Z 100b4f10     Pipi_edit.obj
 0002:0004df34       __unwindtable$??0?$num_put@DV?$ostreambuf_iterator@DU?$char_traits@D@std@@@std@@@std@@QAE@ABV_Locinfo@1@I@Z 100b4f34     Pipi_edit.obj
 0002:0004df34       __unwindtable$??0?$numpunct@D@std@@QAE@ABV_Locinfo@1@I_N@Z 100b4f34     Pipi_edit.obj
 0002:0004df3c       __ehfuncinfo$?_Init@?$numpunct@D@std@@IAEXABV_Locinfo@2@_N@Z 100b4f3c     Pipi_edit.obj
 0002:0004df60       __unwindtable$?_Init@?$numpunct@D@std@@IAEXABV_Locinfo@2@_N@Z 100b4f60     Pipi_edit.obj
 0002:0004df68       __ehfuncinfo$??$_Insert_string@DU?$char_traits@D@std@@I@std@@YAAAV?$basic_ostream@DU?$char_traits@D@std@@@0@AAV10@QBDI@Z 100b4f68     Pipi_edit.obj
 0002:0004df8c       __unwindtable$??$_Insert_string@DU?$char_traits@D@std@@I@std@@YAAAV?$basic_ostream@DU?$char_traits@D@std@@@0@AAV10@QBDI@Z 100b4f8c     Pipi_edit.obj
 0002:0004dfa4       __tryblocktable$??$_Insert_string@DU?$char_traits@D@std@@I@std@@YAAAV?$basic_ostream@DU?$char_traits@D@std@@@0@AAV10@QBDI@Z 100b4fa4     Pipi_edit.obj
 0002:0004dfb8       __catchsym$??$_Insert_string@DU?$char_traits@D@std@@I@std@@YAAAV?$basic_ostream@DU?$char_traits@D@std@@@0@AAV10@QBDI@Z$3 100b4fb8     Pipi_edit.obj
 0002:0004dfc8       __ehfuncinfo$??$dump_config@V?$basic_config@Ujson_args@configor@@@configor@@X@configor@@YAXABV?$basic_config@Ujson_args@configor@@@0@AAV?$basic_ostream@DU?$char_traits@D@std@@@std@@ABUargs@?$json_serializer@V?$basic_config@Ujson_args@configor@@@configor@@@detail@0@PAVerror_handler@0@@Z 100b4fc8     Pipi_edit.obj
 0002:0004dfec       __unwindtable$??$dump_config@V?$basic_config@Ujson_args@configor@@@configor@@X@configor@@YAXABV?$basic_config@Ujson_args@configor@@@0@AAV?$basic_ostream@DU?$char_traits@D@std@@@std@@ABUargs@?$json_serializer@V?$basic_config@Ujson_args@configor@@@configor@@@detail@0@PAVerror_handler@0@@Z 100b4fec     Pipi_edit.obj
 0002:0004dff4       __ehfuncinfo$??0?$vector@V?$basic_config@Ujson_args@configor@@@configor@@V?$allocator@V?$basic_config@Ujson_args@configor@@@configor@@@std@@@std@@QAE@ABV01@@Z 100b4ff4     Pipi_edit.obj
 0002:0004e018       __unwindtable$??0?$vector@V?$basic_config@Ujson_args@configor@@@configor@@V?$allocator@V?$basic_config@Ujson_args@configor@@@configor@@@std@@@std@@QAE@ABV01@@Z 100b5018     Pipi_edit.obj
 0002:0004e020       __ehfuncinfo$??0?$json_serializer@V?$basic_config@Ujson_args@configor@@@configor@@@detail@configor@@QAE@ABUargs@012@@Z 100b5020     Pipi_edit.obj
 0002:0004e044       __unwindtable$??0?$json_serializer@V?$basic_config@Ujson_args@configor@@@configor@@@detail@configor@@QAE@ABUargs@012@@Z 100b5044     Pipi_edit.obj
 0002:0004e054       __ehfuncinfo$??$adl_to_config@V?$basic_config@Ujson_args@configor@@@configor@@$$BY04D@detail@configor@@YAXAAV?$basic_config@Ujson_args@configor@@@1@AAY04$$CBD@Z 100b5054     Pipi_edit.obj
 0002:0004e054       __ehfuncinfo$??$adl_to_config@V?$basic_config@Ujson_args@configor@@@configor@@$$BY07D@detail@configor@@YAXAAV?$basic_config@Ujson_args@configor@@@1@AAY07$$CBD@Z 100b5054     Pipi_edit.obj
 0002:0004e078       __unwindtable$??$adl_to_config@V?$basic_config@Ujson_args@configor@@@configor@@$$BY04D@detail@configor@@YAXAAV?$basic_config@Ujson_args@configor@@@1@AAY04$$CBD@Z 100b5078     Pipi_edit.obj
 0002:0004e078       __unwindtable$??$adl_to_config@V?$basic_config@Ujson_args@configor@@@configor@@$$BY07D@detail@configor@@YAXAAV?$basic_config@Ujson_args@configor@@@1@AAY07$$CBD@Z 100b5078     Pipi_edit.obj
 0002:0004e080       __ehfuncinfo$??$dump_config@V?$basic_config@Ujson_args@configor@@@configor@@X@configor@@YAXABV?$basic_config@Ujson_args@configor@@@0@AAV?$basic_ostream@DU?$char_traits@D@std@@@std@@AAV?$basic_serializer@V?$basic_config@Ujson_args@configor@@@configor@@@0@PAVerror_handler@0@@Z 100b5080     Pipi_edit.obj
 0002:0004e0a4       __unwindtable$??$dump_config@V?$basic_config@Ujson_args@configor@@@configor@@X@configor@@YAXABV?$basic_config@Ujson_args@configor@@@0@AAV?$basic_ostream@DU?$char_traits@D@std@@@std@@AAV?$basic_serializer@V?$basic_config@Ujson_args@configor@@@configor@@@0@PAVerror_handler@0@@Z 100b50a4     Pipi_edit.obj
 0002:0004e0b4       __tryblocktable$??$dump_config@V?$basic_config@Ujson_args@configor@@@configor@@X@configor@@YAXABV?$basic_config@Ujson_args@configor@@@0@AAV?$basic_ostream@DU?$char_traits@D@std@@@std@@AAV?$basic_serializer@V?$basic_config@Ujson_args@configor@@@configor@@@0@PAVerror_handler@0@@Z 100b50b4     Pipi_edit.obj
 0002:0004e0c8       __catchsym$??$dump_config@V?$basic_config@Ujson_args@configor@@@configor@@X@configor@@YAXABV?$basic_config@Ujson_args@configor@@@0@AAV?$basic_ostream@DU?$char_traits@D@std@@@std@@AAV?$basic_serializer@V?$basic_config@Ujson_args@configor@@@configor@@@0@PAVerror_handler@0@@Z$3 100b50c8     Pipi_edit.obj
 0002:0004e0d8       __ehfuncinfo$??$?0AAV?$basic_string@DU?$char_traits@D@std@@V?$allocator@D@2@@std@@AAV?$basic_config@Ujson_args@configor@@@configor@@@?$_Tree_temp_node@V?$allocator@U?$_Tree_node@U?$pair@$$CBV?$basic_string@DU?$char_traits@D@std@@V?$allocator@D@2@@std@@V?$basic_config@Ujson_args@configor@@@configor@@@std@@PAX@std@@@std@@@std@@QAE@AAV?$allocator@U?$_Tree_node@U?$pair@$$CBV?$basic_string@DU?$char_traits@D@std@@V?$allocator@D@2@@std@@V?$basic_config@Ujson_args@configor@@@configor@@@std@@PAX@std@@@1@PAU?$_Tree_node@U?$pair@$$CBV?$basic_string@DU?$char_traits@D@std@@V?$allocator@D@2@@std@@V?$basic_config@Ujson_args@configor@@@configor@@@std@@PAX@1@AAV?$basic_string@DU?$char_traits@D@std@@V?$allocator@D@2@@1@AAV?$basic_config@Ujson_args@configor@@@configor@@@Z 100b50d8     Pipi_edit.obj
 0002:0004e0fc       __unwindtable$??$?0AAV?$basic_string@DU?$char_traits@D@std@@V?$allocator@D@2@@std@@AAV?$basic_config@Ujson_args@configor@@@configor@@@?$_Tree_temp_node@V?$allocator@U?$_Tree_node@U?$pair@$$CBV?$basic_string@DU?$char_traits@D@std@@V?$allocator@D@2@@std@@V?$basic_config@Ujson_args@configor@@@configor@@@std@@PAX@std@@@std@@@std@@QAE@AAV?$allocator@U?$_Tree_node@U?$pair@$$CBV?$basic_string@DU?$char_traits@D@std@@V?$allocator@D@2@@std@@V?$basic_config@Ujson_args@configor@@@configor@@@std@@PAX@std@@@1@PAU?$_Tree_node@U?$pair@$$CBV?$basic_string@DU?$char_traits@D@std@@V?$allocator@D@2@@std@@V?$basic_config@Ujson_args@configor@@@configor@@@std@@PAX@1@AAV?$basic_string@DU?$char_traits@D@std@@V?$allocator@D@2@@1@AAV?$basic_config@Ujson_args@configor@@@configor@@@Z 100b50fc     Pipi_edit.obj
 0002:0004e104       __ehfuncinfo$??$?0V?$allocator@U?$_Tree_node@U?$pair@$$CBV?$basic_string@DU?$char_traits@D@std@@V?$allocator@D@2@@std@@V?$basic_config@Ujson_args@configor@@@configor@@@std@@PAX@std@@@std@@@?$_Tree@V?$_Tmap_traits@V?$basic_string@DU?$char_traits@D@std@@V?$allocator@D@2@@std@@V?$basic_config@Ujson_args@configor@@@configor@@U?$less@V?$basic_string@DU?$char_traits@D@std@@V?$allocator@D@2@@std@@@2@V?$allocator@U?$pair@$$CBV?$basic_string@DU?$char_traits@D@std@@V?$allocator@D@2@@std@@V?$basic_config@Ujson_args@configor@@@configor@@@std@@@2@$0A@@std@@@std@@QAE@ABV01@$$QAV?$allocator@U?$_Tree_node@U?$pair@$$CBV?$basic_string@DU?$char_traits@D@std@@V?$allocator@D@2@@std@@V?$basic_config@Ujson_args@configor@@@configor@@@std@@PAX@std@@@1@@Z 100b5104     Pipi_edit.obj
 0002:0004e128       __unwindtable$??$?0V?$allocator@U?$_Tree_node@U?$pair@$$CBV?$basic_string@DU?$char_traits@D@std@@V?$allocator@D@2@@std@@V?$basic_config@Ujson_args@configor@@@configor@@@std@@PAX@std@@@std@@@?$_Tree@V?$_Tmap_traits@V?$basic_string@DU?$char_traits@D@std@@V?$allocator@D@2@@std@@V?$basic_config@Ujson_args@configor@@@configor@@U?$less@V?$basic_string@DU?$char_traits@D@std@@V?$allocator@D@2@@std@@@2@V?$allocator@U?$pair@$$CBV?$basic_string@DU?$char_traits@D@std@@V?$allocator@D@2@@std@@V?$basic_config@Ujson_args@configor@@@configor@@@std@@@2@$0A@@std@@@std@@QAE@ABV01@$$QAV?$allocator@U?$_Tree_node@U?$pair@$$CBV?$basic_string@DU?$char_traits@D@std@@V?$allocator@D@2@@std@@V?$basic_config@Ujson_args@configor@@@configor@@@std@@PAX@std@@@1@@Z 100b5128     Pipi_edit.obj
 0002:0004e130       __ehfuncinfo$??0?$_Tree_temp_node_alloc@V?$allocator@U?$_Tree_node@U?$pair@$$CBV?$basic_string@DU?$char_traits@D@std@@V?$allocator@D@2@@std@@V?$basic_config@Ujson_args@configor@@@configor@@@std@@PAX@std@@@std@@@std@@QAE@AAV?$allocator@U?$_Tree_node@U?$pair@$$CBV?$basic_string@DU?$char_traits@D@std@@V?$allocator@D@2@@std@@V?$basic_config@Ujson_args@configor@@@configor@@@std@@PAX@std@@@1@@Z 100b5130     Pipi_edit.obj
 0002:0004e154       __unwindtable$??0?$_Tree_temp_node_alloc@V?$allocator@U?$_Tree_node@U?$pair@$$CBV?$basic_string@DU?$char_traits@D@std@@V?$allocator@D@2@@std@@V?$basic_config@Ujson_args@configor@@@configor@@@std@@PAX@std@@@std@@@std@@QAE@AAV?$allocator@U?$_Tree_node@U?$pair@$$CBV?$basic_string@DU?$char_traits@D@std@@V?$allocator@D@2@@std@@V?$basic_config@Ujson_args@configor@@@configor@@@std@@PAX@std@@@1@@Z 100b5154     Pipi_edit.obj
 0002:0004e15c       __ehfuncinfo$??4?$basic_config@Ujson_args@configor@@@configor@@QAEAAV01@V01@@Z 100b515c     Pipi_edit.obj
 0002:0004e180       __unwindtable$??4?$basic_config@Ujson_args@configor@@@configor@@QAEAAV01@V01@@Z 100b5180     Pipi_edit.obj
 0002:0004e188       __ehfuncinfo$??$?0AAV?$basic_string@DU?$char_traits@D@std@@V?$allocator@D@2@@std@@AAV?$basic_config@Ujson_args@configor@@@configor@@$0A@@?$pair@$$CBV?$basic_string@DU?$char_traits@D@std@@V?$allocator@D@2@@std@@V?$basic_config@Ujson_args@configor@@@configor@@@std@@QAE@AAV?$basic_string@DU?$char_traits@D@std@@V?$allocator@D@2@@1@AAV?$basic_config@Ujson_args@configor@@@configor@@@Z 100b5188     Pipi_edit.obj
 0002:0004e188       __ehfuncinfo$??0?$pair@$$CBV?$basic_string@DU?$char_traits@D@std@@V?$allocator@D@2@@std@@V?$basic_config@Ujson_args@configor@@@configor@@@std@@QAE@ABU01@@Z 100b5188     Pipi_edit.obj
 0002:0004e1ac       __unwindtable$??$?0AAV?$basic_string@DU?$char_traits@D@std@@V?$allocator@D@2@@std@@AAV?$basic_config@Ujson_args@configor@@@configor@@$0A@@?$pair@$$CBV?$basic_string@DU?$char_traits@D@std@@V?$allocator@D@2@@std@@V?$basic_config@Ujson_args@configor@@@configor@@@std@@QAE@AAV?$basic_string@DU?$char_traits@D@std@@V?$allocator@D@2@@1@AAV?$basic_config@Ujson_args@configor@@@configor@@@Z 100b51ac     Pipi_edit.obj
 0002:0004e1ac       __unwindtable$??0?$pair@$$CBV?$basic_string@DU?$char_traits@D@std@@V?$allocator@D@2@@std@@V?$basic_config@Ujson_args@configor@@@configor@@@std@@QAE@ABU01@@Z 100b51ac     Pipi_edit.obj
 0002:0004e1b4       __ehfuncinfo$??$_Copy_nodes@U_Copy_tag@?$_Tree@V?$_Tmap_traits@V?$basic_string@DU?$char_traits@D@std@@V?$allocator@D@2@@std@@V?$basic_config@Ujson_args@configor@@@configor@@U?$less@V?$basic_string@DU?$char_traits@D@std@@V?$allocator@D@2@@std@@@2@V?$allocator@U?$pair@$$CBV?$basic_string@DU?$char_traits@D@std@@V?$allocator@D@2@@std@@V?$basic_config@Ujson_args@configor@@@configor@@@std@@@2@$0A@@std@@@std@@@?$_Tree@V?$_Tmap_traits@V?$basic_string@DU?$char_traits@D@std@@V?$allocator@D@2@@std@@V?$basic_config@Ujson_args@configor@@@configor@@U?$less@V?$basic_string@DU?$char_traits@D@std@@V?$allocator@D@2@@std@@@2@V?$allocator@U?$pair@$$CBV?$basic_string@DU?$char_traits@D@std@@V?$allocator@D@2@@std@@V?$basic_config@Ujson_args@configor@@@configor@@@std@@@2@$0A@@std@@@std@@IAEPAU?$_Tree_node@U?$pair@$$CBV?$basic_string@DU?$char_traits@D@std@@V?$allocator@D@2@@std@@V?$basic_config@Ujson_args@configor@@@configor@@@std@@PAX@1@PAU21@0U_Copy_tag@01@@Z 100b51b4     Pipi_edit.obj
 0002:0004e1d8       __unwindtable$??$_Copy_nodes@U_Copy_tag@?$_Tree@V?$_Tmap_traits@V?$basic_string@DU?$char_traits@D@std@@V?$allocator@D@2@@std@@V?$basic_config@Ujson_args@configor@@@configor@@U?$less@V?$basic_string@DU?$char_traits@D@std@@V?$allocator@D@2@@std@@@2@V?$allocator@U?$pair@$$CBV?$basic_string@DU?$char_traits@D@std@@V?$allocator@D@2@@std@@V?$basic_config@Ujson_args@configor@@@configor@@@std@@@2@$0A@@std@@@std@@@?$_Tree@V?$_Tmap_traits@V?$basic_string@DU?$char_traits@D@std@@V?$allocator@D@2@@std@@V?$basic_config@Ujson_args@configor@@@configor@@U?$less@V?$basic_string@DU?$char_traits@D@std@@V?$allocator@D@2@@std@@@2@V?$allocator@U?$pair@$$CBV?$basic_string@DU?$char_traits@D@std@@V?$allocator@D@2@@std@@V?$basic_config@Ujson_args@configor@@@configor@@@std@@@2@$0A@@std@@@std@@IAEPAU?$_Tree_node@U?$pair@$$CBV?$basic_string@DU?$char_traits@D@std@@V?$allocator@D@2@@std@@V?$basic_config@Ujson_args@configor@@@configor@@@std@@PAX@1@PAU21@0U_Copy_tag@01@@Z 100b51d8     Pipi_edit.obj
 0002:0004e1e8       __tryblocktable$??$_Copy_nodes@U_Copy_tag@?$_Tree@V?$_Tmap_traits@V?$basic_string@DU?$char_traits@D@std@@V?$allocator@D@2@@std@@V?$basic_config@Ujson_args@configor@@@configor@@U?$less@V?$basic_string@DU?$char_traits@D@std@@V?$allocator@D@2@@std@@@2@V?$allocator@U?$pair@$$CBV?$basic_string@DU?$char_traits@D@std@@V?$allocator@D@2@@std@@V?$basic_config@Ujson_args@configor@@@configor@@@std@@@2@$0A@@std@@@std@@@?$_Tree@V?$_Tmap_traits@V?$basic_string@DU?$char_traits@D@std@@V?$allocator@D@2@@std@@V?$basic_config@Ujson_args@configor@@@configor@@U?$less@V?$basic_string@DU?$char_traits@D@std@@V?$allocator@D@2@@std@@@2@V?$allocator@U?$pair@$$CBV?$basic_string@DU?$char_traits@D@std@@V?$allocator@D@2@@std@@V?$basic_config@Ujson_args@configor@@@configor@@@std@@@2@$0A@@std@@@std@@IAEPAU?$_Tree_node@U?$pair@$$CBV?$basic_string@DU?$char_traits@D@std@@V?$allocator@D@2@@std@@V?$basic_config@Ujson_args@configor@@@configor@@@std@@PAX@1@PAU21@0U_Copy_tag@01@@Z 100b51e8     Pipi_edit.obj
 0002:0004e1fc       __catchsym$??$_Copy_nodes@U_Copy_tag@?$_Tree@V?$_Tmap_traits@V?$basic_string@DU?$char_traits@D@std@@V?$allocator@D@2@@std@@V?$basic_config@Ujson_args@configor@@@configor@@U?$less@V?$basic_string@DU?$char_traits@D@std@@V?$allocator@D@2@@std@@@2@V?$allocator@U?$pair@$$CBV?$basic_string@DU?$char_traits@D@std@@V?$allocator@D@2@@std@@V?$basic_config@Ujson_args@configor@@@configor@@@std@@@2@$0A@@std@@@std@@@?$_Tree@V?$_Tmap_traits@V?$basic_string@DU?$char_traits@D@std@@V?$allocator@D@2@@std@@V?$basic_config@Ujson_args@configor@@@configor@@U?$less@V?$basic_string@DU?$char_traits@D@std@@V?$allocator@D@2@@std@@@2@V?$allocator@U?$pair@$$CBV?$basic_string@DU?$char_traits@D@std@@V?$allocator@D@2@@std@@V?$basic_config@Ujson_args@configor@@@configor@@@std@@@2@$0A@@std@@@std@@IAEPAU?$_Tree_node@U?$pair@$$CBV?$basic_string@DU?$char_traits@D@std@@V?$allocator@D@2@@std@@V?$basic_config@Ujson_args@configor@@@configor@@@std@@PAX@1@PAU21@0U_Copy_tag@01@@Z$2 100b51fc     Pipi_edit.obj
 0002:0004e20c       __ehfuncinfo$??$_Buynode@V?$allocator@U?$_Tree_node@U?$pair@$$CBV?$basic_string@DU?$char_traits@D@std@@V?$allocator@D@2@@std@@V?$basic_config@Ujson_args@configor@@@configor@@@std@@PAX@std@@@std@@AAU?$pair@$$CBV?$basic_string@DU?$char_traits@D@std@@V?$allocator@D@2@@std@@V?$basic_config@Ujson_args@configor@@@configor@@@2@@?$_Tree_node@U?$pair@$$CBV?$basic_string@DU?$char_traits@D@std@@V?$allocator@D@2@@std@@V?$basic_config@Ujson_args@configor@@@configor@@@std@@PAX@std@@SAPAU01@AAV?$allocator@U?$_Tree_node@U?$pair@$$CBV?$basic_string@DU?$char_traits@D@std@@V?$allocator@D@2@@std@@V?$basic_config@Ujson_args@configor@@@configor@@@std@@PAX@std@@@1@PAU01@AAU?$pair@$$CBV?$basic_string@DU?$char_traits@D@std@@V?$allocator@D@2@@std@@V?$basic_config@Ujson_args@configor@@@configor@@@1@@Z 100b520c     Pipi_edit.obj
 0002:0004e230       __unwindtable$??$_Buynode@V?$allocator@U?$_Tree_node@U?$pair@$$CBV?$basic_string@DU?$char_traits@D@std@@V?$allocator@D@2@@std@@V?$basic_config@Ujson_args@configor@@@configor@@@std@@PAX@std@@@std@@AAU?$pair@$$CBV?$basic_string@DU?$char_traits@D@std@@V?$allocator@D@2@@std@@V?$basic_config@Ujson_args@configor@@@configor@@@2@@?$_Tree_node@U?$pair@$$CBV?$basic_string@DU?$char_traits@D@std@@V?$allocator@D@2@@std@@V?$basic_config@Ujson_args@configor@@@configor@@@std@@PAX@std@@SAPAU01@AAV?$allocator@U?$_Tree_node@U?$pair@$$CBV?$basic_string@DU?$char_traits@D@std@@V?$allocator@D@2@@std@@V?$basic_config@Ujson_args@configor@@@configor@@@std@@PAX@std@@@1@PAU01@AAU?$pair@$$CBV?$basic_string@DU?$char_traits@D@std@@V?$allocator@D@2@@std@@V?$basic_config@Ujson_args@configor@@@configor@@@1@@Z 100b5230     Pipi_edit.obj
 0002:0004e238       __ehfuncinfo$?VectorRotate@Vector@@QAEXAAV1@AAVQAngle@@@Z 100b5238     Vector.obj
 0002:0004e25c       __unwindtable$?VectorRotate@Vector@@QAEXAAV1@AAVQAngle@@@Z 100b525c     Vector.obj
 0002:0004e274       __ehfuncinfo$?ToEulerAngles@Vector@@QAE?AVQAngle@@XZ 100b5274     Vector.obj
 0002:0004e298       __unwindtable$?ToEulerAngles@Vector@@QAE?AVQAngle@@XZ 100b5298     Vector.obj
 0002:0004e2a0       __ehfuncinfo$?ToEulerAngles@Vector@@QAE?AVQAngle@@PAV1@@Z 100b52a0     Vector.obj
 0002:0004e2c4       __unwindtable$?ToEulerAngles@Vector@@QAE?AVQAngle@@PAV1@@Z 100b52c4     Vector.obj
 0002:0004e348       __unwindtable$?_Init@locale@std@@CAPAV_Locimp@12@_N@Z 100b5348     libcpmt:locale0.obj
 0002:0004e350       __ehfuncinfo$?_Init@locale@std@@CAPAV_Locimp@12@_N@Z 100b5350     libcpmt:locale0.obj
 0002:0004e374       __unwindtable$??0bad_exception@std@@QAE@XZ 100b5374     libcpmt:excptptr.obj
 0002:0004e374       __unwindtable$??1bad_exception@std@@UAE@XZ 100b5374     libcpmt:excptptr.obj
 0002:0004e37c       __ehfuncinfo$??0bad_exception@std@@QAE@XZ 100b537c     libcpmt:excptptr.obj
 0002:0004e37c       __ehfuncinfo$??1bad_exception@std@@UAE@XZ 100b537c     libcpmt:excptptr.obj
 0002:0004e3a0       __unwindtable$??0bad_exception@std@@QAE@ABV01@@Z 100b53a0     libcpmt:excptptr.obj
 0002:0004e3a8       __ehfuncinfo$??0bad_exception@std@@QAE@ABV01@@Z 100b53a8     libcpmt:excptptr.obj
 0002:0004e3cc       __unwindtable$?__ExceptionPtrCurrentException@@YAXPAX@Z 100b53cc     libcpmt:excptptr.obj
 0002:0004e3d4       __ehfuncinfo$?__ExceptionPtrCurrentException@@YAXPAX@Z 100b53d4     libcpmt:excptptr.obj
 0002:0004e3f8       __unwindtable$??4?$shared_ptr@$$CBU_EXCEPTION_RECORD@@@std@@QAEAAV01@$$QAV01@@Z 100b53f8     libcpmt:excptptr.obj
 0002:0004e400       __ehfuncinfo$??4?$shared_ptr@$$CBU_EXCEPTION_RECORD@@@std@@QAEAAV01@$$QAV01@@Z 100b5400     libcpmt:excptptr.obj
 0002:0004e424       __ehfuncinfo$?_Delete_this@_ExceptionPtr_normal@?A0x22a8a7b5@@EAEXXZ 100b5424     libcpmt:excptptr.obj
 0002:0004e424       __ehfuncinfo$?_Destroy@_ExceptionPtr_normal@?A0x22a8a7b5@@EAEXXZ 100b5424     libcpmt:excptptr.obj
 0002:0004e448       __unwindtable$?_Get@?$_ExceptionPtr_static@Vbad_alloc@std@@@?A0x22a8a7b5@@SA?AV?$shared_ptr@$$CBU_EXCEPTION_RECORD@@@std@@XZ 100b5448     libcpmt:excptptr.obj
 0002:0004e448       __unwindtable$?_Get@?$_ExceptionPtr_static@Vbad_exception@std@@@?A0x22a8a7b5@@SA?AV?$shared_ptr@$$CBU_EXCEPTION_RECORD@@@std@@XZ 100b5448     libcpmt:excptptr.obj
 0002:0004e450       __ehfuncinfo$?_Get@?$_ExceptionPtr_static@Vbad_alloc@std@@@?A0x22a8a7b5@@SA?AV?$shared_ptr@$$CBU_EXCEPTION_RECORD@@@std@@XZ 100b5450     libcpmt:excptptr.obj
 0002:0004e450       __ehfuncinfo$?_Get@?$_ExceptionPtr_static@Vbad_exception@std@@@?A0x22a8a7b5@@SA?AV?$shared_ptr@$$CBU_EXCEPTION_RECORD@@@std@@XZ 100b5450     libcpmt:excptptr.obj
 0002:0004e474       __unwindtable$??1?$_ExceptionPtr_static@Vbad_alloc@std@@@?A0x22a8a7b5@@UAE@XZ 100b5474     libcpmt:excptptr.obj
 0002:0004e47c       __ehfuncinfo$??1?$_ExceptionPtr_static@Vbad_alloc@std@@@?A0x22a8a7b5@@UAE@XZ 100b547c     libcpmt:excptptr.obj
 0002:0004e4a0       __unwindtable$??_G?$_ExceptionPtr_static@Vbad_alloc@std@@@?A0x22a8a7b5@@UAEPAXI@Z 100b54a0     libcpmt:excptptr.obj
 0002:0004e4a8       __ehfuncinfo$??_G?$_ExceptionPtr_static@Vbad_alloc@std@@@?A0x22a8a7b5@@UAEPAXI@Z 100b54a8     libcpmt:excptptr.obj
 0002:0004e4cc       __catchsym$?_Assign_cpp_exception_ptr_from_record@?A0x22a8a7b5@@YAXAAV?$shared_ptr@$$CBU_EXCEPTION_RECORD@@@std@@ABUEHExceptionRecord@@@Z$10 100b54cc     libcpmt:excptptr.obj
 0002:0004e4dc       __catchsym$?_Assign_cpp_exception_ptr_from_record@?A0x22a8a7b5@@YAXAAV?$shared_ptr@$$CBU_EXCEPTION_RECORD@@@std@@ABUEHExceptionRecord@@@Z$9 100b54dc     libcpmt:excptptr.obj
 0002:0004e4ec       __ehfuncinfo$?_Assign_cpp_exception_ptr_from_record@?A0x22a8a7b5@@YAXAAV?$shared_ptr@$$CBU_EXCEPTION_RECORD@@@std@@ABUEHExceptionRecord@@@Z 100b54ec     libcpmt:excptptr.obj
 0002:0004e510       __tryblocktable$?_Assign_cpp_exception_ptr_from_record@?A0x22a8a7b5@@YAXAAV?$shared_ptr@$$CBU_EXCEPTION_RECORD@@@std@@ABUEHExceptionRecord@@@Z 100b5510     libcpmt:excptptr.obj
 0002:0004e538       __unwindtable$?_Assign_cpp_exception_ptr_from_record@?A0x22a8a7b5@@YAXAAV?$shared_ptr@$$CBU_EXCEPTION_RECORD@@@std@@ABUEHExceptionRecord@@@Z 100b5538     libcpmt:excptptr.obj
 0002:0004e580       __unwindtable$??1?$_ExceptionPtr_static@Vbad_exception@std@@@?A0x22a8a7b5@@UAE@XZ 100b5580     libcpmt:excptptr.obj
 0002:0004e588       __ehfuncinfo$??1?$_ExceptionPtr_static@Vbad_exception@std@@@?A0x22a8a7b5@@UAE@XZ 100b5588     libcpmt:excptptr.obj
 0002:0004e5ac       __unwindtable$??_G?$_ExceptionPtr_static@Vbad_exception@std@@@?A0x22a8a7b5@@UAEPAXI@Z 100b55ac     libcpmt:excptptr.obj
 0002:0004e5b4       __ehfuncinfo$??_G?$_ExceptionPtr_static@Vbad_exception@std@@@?A0x22a8a7b5@@UAEPAXI@Z 100b55b4     libcpmt:excptptr.obj
 0002:0004e5d8       __unwindtable$??__E?$_Immortalize_impl@V?$_ExceptionPtr_static@Vbad_exception@std@@@?A0x22a8a7b5@@@?A0x22a8a7b5@@YAXXZ 100b55d8     libcpmt:excptptr.obj
 0002:0004e5f0       __ehfuncinfo$??__E?$_Immortalize_impl@V?$_ExceptionPtr_static@Vbad_exception@std@@@?A0x22a8a7b5@@@?A0x22a8a7b5@@YAXXZ 100b55f0     libcpmt:excptptr.obj
 0002:0004e614       __unwindtable$??__E?$_Immortalize_impl@V?$_ExceptionPtr_static@Vbad_alloc@std@@@?A0x22a8a7b5@@@?A0x22a8a7b5@@YAXXZ 100b5614     libcpmt:excptptr.obj
 0002:0004e62c       __ehfuncinfo$??__E?$_Immortalize_impl@V?$_ExceptionPtr_static@Vbad_alloc@std@@@?A0x22a8a7b5@@@?A0x22a8a7b5@@YAXXZ 100b562c     libcpmt:excptptr.obj
 0002:0004e688       __sehtable$___scrt_is_nonwritable_in_current_image 100b5688     LIBCMT:utility.obj
 0002:0004e6a8       __sehtable$??_M@YGXPAXIIP6EX0@Z@Z 100b56a8     LIBCMT:ehvecdtr.obj
 0002:0004e6c8       __sehtable$?__ArrayUnwind@@YGXPAXIIP6EX0@Z@Z 100b56c8     LIBCMT:ehvecdtr.obj
 0002:0004e6e8       __sehtable$??_L@YGXPAXIIP6EX0@Z1@Z 100b56e8     LIBCMT:ehvecctr.obj
 0002:0004e708       __sehtable$?dllmain_crt_process_attach@@YAHQAUHINSTANCE__@@QAX@Z 100b5708     LIBCMT:dll_dllmain.obj
 0002:0004e728       __sehtable$?dllmain_crt_process_detach@@YAH_N@Z 100b5728     LIBCMT:dll_dllmain.obj
 0002:0004e750       __sehtable$?dllmain_dispatch@@YAHQAUHINSTANCE__@@KQAX@Z 100b5750     LIBCMT:dll_dllmain.obj
 0002:0004e770       __sehtable$___DestructExceptionObject 100b5770     libvcruntime:ehhelpers.obj
 0002:0004e790       __sehtable$?FrameUnwindToState@__FrameHandler3@@SAXPAUEHRegistrationNode@@PAXPBU_s_FuncInfo@@H@Z 100b5790     libvcruntime:frame.obj
 0002:0004e7b8       __sehtable$?CallCatchBlock@@YAPAXPAUEHExceptionRecord@@PAUEHRegistrationNode@@PAU_CONTEXT@@PBU_s_FuncInfo@@PAXHK@Z 100b57b8     libvcruntime:frame.obj
 0002:0004e7e0       __catchsym$?CallUnexpected@@YAXPBU_s_ESTypeList@@@Z$2 100b57e0     libvcruntime:frame.obj
 0002:0004e7f0       __unwindtable$?CallUnexpected@@YAXPBU_s_ESTypeList@@@Z 100b57f0     libvcruntime:frame.obj
 0002:0004e800       __tryblocktable$?CallUnexpected@@YAXPBU_s_ESTypeList@@@Z 100b5800     libvcruntime:frame.obj
 0002:0004e814       __ehfuncinfo$?CallUnexpected@@YAXPBU_s_ESTypeList@@@Z 100b5814     libvcruntime:frame.obj
 0002:0004e838       __sehtable$??$BuildCatchObjectHelperInternal@V__FrameHandler3@@@@YAHPAUEHExceptionRecord@@PAXPBU_s_HandlerType@@PBU_s_CatchableType@@@Z 100b5838     libvcruntime:frame.obj
 0002:0004e858       __sehtable$??$BuildCatchObjectInternal@V__FrameHandler3@@@@YAXPAUEHExceptionRecord@@PAXPBU_s_HandlerType@@PBU_s_CatchableType@@@Z 100b5858     libvcruntime:frame.obj
 0002:0004e874       __unwindtable$?common_exit@@YAXHW4_crt_exit_cleanup_mode@@W4_crt_exit_return_mode@@@Z 100b5874     libucrt:exit.obj
 0002:0004e87c       __ehfuncinfo$?common_exit@@YAXHW4_crt_exit_cleanup_mode@@W4_crt_exit_return_mode@@@Z 100b587c     libucrt:exit.obj
 0002:0004e8a0       __sehtable$??R<lambda_6e4b09c48022b2350581041d5f6b0c4c>@@QBE@XZ 100b58a0     libucrt:exit.obj
 0002:0004e8c0       __sehtable$??$?RV<lambda_03b1d95aef87969028cfba75ccab2455>@@AAV<lambda_6e4b09c48022b2350581041d5f6b0c4c>@@V<lambda_22bdf7517842c4b3e53723af5aa32b9e>@@@?$__crt_seh_guarded_call@X@@QAEX$$QAV<lambda_03b1d95aef87969028cfba75ccab2455>@@AAV<lambda_6e4b09c48022b2350581041d5f6b0c4c>@@$$QAV<lambda_22bdf7517842c4b3e53723af5aa32b9e>@@@Z 100b58c0     libucrt:exit.obj
 0002:0004e8e0       __sehtable$??$?RV<lambda_62491a2101a2aba6cc4a769149c84f1f>@@AAV<lambda_826c27fce7726908515bbc79a5266961>@@V<lambda_4e64bbd54b50a7b070e3ea8d795375b6>@@@?$__crt_seh_guarded_call@H@@QAEH$$QAV<lambda_62491a2101a2aba6cc4a769149c84f1f>@@AAV<lambda_826c27fce7726908515bbc79a5266961>@@$$QAV<lambda_4e64bbd54b50a7b070e3ea8d795375b6>@@@Z 100b58e0     libucrt:output.obj
 0002:0004e900       __sehtable$?_fputc_internal@@YAHHQAU_iobuf@@AAV__crt_cached_ptd_host@@@Z 100b5900     libucrt:fputc.obj
 0002:0004e920       __sehtable$??$?RV<lambda_2866be3712abc81a800a822484c830d8>@@AAV<lambda_39ca0ed439415581b5b15c265174cece>@@V<lambda_2b24c74d71094a6cd0cb82e44167d71b>@@@?$__crt_seh_guarded_call@X@@QAEX$$QAV<lambda_2866be3712abc81a800a822484c830d8>@@AAV<lambda_39ca0ed439415581b5b15c265174cece>@@$$QAV<lambda_2b24c74d71094a6cd0cb82e44167d71b>@@@Z 100b5920     libucrt:fflush.obj
 0002:0004e940       __sehtable$??$?RV<lambda_2cc53f568c5a2bb6f192f930a45d44ea>@@AAV<lambda_ab61a845afdef5b7c387490eaf3616ee>@@V<lambda_c2ffc0b7726aa6be21d5f0026187e748>@@@?$__crt_seh_guarded_call@X@@QAEX$$QAV<lambda_2cc53f568c5a2bb6f192f930a45d44ea>@@AAV<lambda_ab61a845afdef5b7c387490eaf3616ee>@@$$QAV<lambda_c2ffc0b7726aa6be21d5f0026187e748>@@@Z 100b5940     libucrt:fflush.obj
 0002:0004e960       __sehtable$??$?RV<lambda_6d20deecaf4856105ebacbad442d1079>@@AAV<lambda_9a32fed5bf61b6b509b2d3f6003082a1>@@V<lambda_63ea2239ed67c638ddbae41947fdf875>@@@?$__crt_seh_guarded_call@H@@QAEH$$QAV<lambda_6d20deecaf4856105ebacbad442d1079>@@AAV<lambda_9a32fed5bf61b6b509b2d3f6003082a1>@@$$QAV<lambda_63ea2239ed67c638ddbae41947fdf875>@@@Z 100b5960     libucrt:fflush.obj
 0002:0004e980       __sehtable$?_fclose_internal@@YAHQAU_iobuf@@AAV__crt_cached_ptd_host@@@Z 100b5980     libucrt:fclose.obj
 0002:0004e9a0       __sehtable$_fgetc          100b59a0     libucrt:fgetc.obj
 0002:0004e9c0       __sehtable$??$?RV<lambda_76055cf4b68c1f980da8b7496a3ae623>@@AAV<lambda_26974eb511f701c600fccfa2a97a8e1b>@@V<lambda_0062726809bb3c529c0733aa37379daf>@@@?$__crt_seh_guarded_call@I@@QAEI$$QAV<lambda_76055cf4b68c1f980da8b7496a3ae623>@@AAV<lambda_26974eb511f701c600fccfa2a97a8e1b>@@$$QAV<lambda_0062726809bb3c529c0733aa37379daf>@@@Z 100b59c0     libucrt:fwrite.obj
 0002:0004e9e0       __sehtable$??$?RV<lambda_c390c0748f48a7db46f6ce5cc3c796da>@@AAV<lambda_703a5c3f7c88128b7f5f7a8861b0a6e0>@@V<lambda_c16a91f8771b304e2b1164fb4c043437>@@@?$__crt_seh_guarded_call@H@@QAEH$$QAV<lambda_c390c0748f48a7db46f6ce5cc3c796da>@@AAV<lambda_703a5c3f7c88128b7f5f7a8861b0a6e0>@@$$QAV<lambda_c16a91f8771b304e2b1164fb4c043437>@@@Z 100b59e0     libucrt:setvbuf.obj
 0002:0004ea00       __sehtable$_ungetc         100b5a00     libucrt:ungetc.obj
 0002:0004ea20       __sehtable$_fread_s        100b5a20     libucrt:fread.obj
 0002:0004ea40       __sehtable$?common_fseek@@YAHV__crt_stdio_stream@@_JHAAV__crt_cached_ptd_host@@@Z 100b5a40     libucrt:fseek.obj
 0002:0004ea60       __sehtable$??$common_freopen@D@@YAHQAPAU_iobuf@@QBD1V__crt_stdio_stream@@H@Z 100b5a60     libucrt:freopen.obj
 0002:0004ea80       __sehtable$??$?RV<lambda_f5952838e36297a1e2e9d6c748429792>@@AAV<lambda_2116bde18c9e5f34230805ea4a4660ed>@@V<lambda_3c7107de1cc98bf330a3031f42c322a3>@@@?$__crt_seh_guarded_call@PAD@@QAEPAD$$QAV<lambda_f5952838e36297a1e2e9d6c748429792>@@AAV<lambda_2116bde18c9e5f34230805ea4a4660ed>@@$$QAV<lambda_3c7107de1cc98bf330a3031f42c322a3>@@@Z 100b5a80     libucrt:setlocale.obj
 0002:0004eaa0       __sehtable$??$common_fsopen@D@@YAPAU_iobuf@@QBD0H@Z 100b5aa0     libucrt:fopen.obj
 0002:0004eac0       __sehtable$__query_new_handler 100b5ac0     libucrt:new_handler.obj
 0002:0004eadc       __unwindtable$___dcrt_uninitialize_environments_nolock 100b5adc     libucrt:environment_initialization.obj
 0002:0004eaec       __ehfuncinfo$___dcrt_uninitialize_environments_nolock 100b5aec     libucrt:environment_initialization.obj
 0002:0004eb10       __unwindtable$__execute_onexit_table 100b5b10     libucrt:onexit.obj
 0002:0004eb18       __ehfuncinfo$__execute_onexit_table 100b5b18     libucrt:onexit.obj
 0002:0004eb40       __sehtable$??$?RV<lambda_8e746cf0007f6ed984d6f78af1fec997>@@AAV<lambda_22ebabd17bc4fa466a2aca6d8deb888d>@@V<lambda_18ed0c0b38a6dc0daf1e7ac6d6adf05e>@@@?$__crt_seh_guarded_call@H@@QAEH$$QAV<lambda_8e746cf0007f6ed984d6f78af1fec997>@@AAV<lambda_22ebabd17bc4fa466a2aca6d8deb888d>@@$$QAV<lambda_18ed0c0b38a6dc0daf1e7ac6d6adf05e>@@@Z 100b5b40     libucrt:onexit.obj
 0002:0004eb60       __sehtable$??$?RV<lambda_69a2805e680e0e292e8ba93315fe43a8>@@AAV<lambda_f03950bc5685219e0bcd2087efbe011e>@@V<lambda_03fcd07e894ec930e3f35da366ca99d6>@@@?$__crt_seh_guarded_call@H@@QAEH$$QAV<lambda_69a2805e680e0e292e8ba93315fe43a8>@@AAV<lambda_f03950bc5685219e0bcd2087efbe011e>@@$$QAV<lambda_03fcd07e894ec930e3f35da366ca99d6>@@@Z 100b5b60     libucrt:onexit.obj
 0002:0004eb80       __sehtable$_terminate      100b5b80     libucrt:terminate.obj
 0002:0004eba0       __sehtable$??$?RV<lambda_15ade71b0218206bbe3333a0c9b79046>@@AAV<lambda_da44e0f8b0f19ba52fefafb335991732>@@V<lambda_207f2d024fc103971653565357d6cd41>@@@?$__crt_seh_guarded_call@X@@QAEX$$QAV<lambda_15ade71b0218206bbe3333a0c9b79046>@@AAV<lambda_da44e0f8b0f19ba52fefafb335991732>@@$$QAV<lambda_207f2d024fc103971653565357d6cd41>@@@Z 100b5ba0     libucrt:per_thread_data.obj
 0002:0004ebc0       __sehtable$??$?RV<lambda_a7e850c220f1c8d1e6efeecdedd162c6>@@AAV<lambda_46720907175c18b6c9d2717bc0d2d362>@@V<lambda_9048902d66e8d99359bc9897bbb930a8>@@@?$__crt_seh_guarded_call@X@@QAEX$$QAV<lambda_a7e850c220f1c8d1e6efeecdedd162c6>@@AAV<lambda_46720907175c18b6c9d2717bc0d2d362>@@$$QAV<lambda_9048902d66e8d99359bc9897bbb930a8>@@@Z 100b5bc0     libucrt:per_thread_data.obj
 0002:0004ebe0       __sehtable$??$?RV<lambda_38edbb1296d33220d7e4dd0ed76b244a>@@AAV<lambda_5ce1d447e08cb34b2473517608e21441>@@V<lambda_fb385d3da700c9147fc39e65dd577a8c>@@@?$__crt_seh_guarded_call@X@@QAEX$$QAV<lambda_38edbb1296d33220d7e4dd0ed76b244a>@@AAV<lambda_5ce1d447e08cb34b2473517608e21441>@@$$QAV<lambda_fb385d3da700c9147fc39e65dd577a8c>@@@Z 100b5be0     libucrt:per_thread_data.obj
 0002:0004ec00       __sehtable$??$?RV<lambda_6affb1475c98b40b75cdec977db92e3c>@@AAV<lambda_b8d4b9c228a6ecc3f80208dbb4b4a104>@@V<lambda_608742c3c92a14382c1684fc64f96c88>@@@?$__crt_seh_guarded_call@X@@QAEX$$QAV<lambda_6affb1475c98b40b75cdec977db92e3c>@@AAV<lambda_b8d4b9c228a6ecc3f80208dbb4b4a104>@@$$QAV<lambda_608742c3c92a14382c1684fc64f96c88>@@@Z 100b5c00     libucrt:per_thread_data.obj
 0002:0004ec20       __sehtable$??$?RV<lambda_e5124f882df8998aaf41531e079ba474>@@AAV<lambda_3e16ef9562a7dcce91392c22ab16ea36>@@V<lambda_e25ca0880e6ef98be67edffd8c599615>@@@?$__crt_seh_guarded_call@X@@QAEX$$QAV<lambda_e5124f882df8998aaf41531e079ba474>@@AAV<lambda_3e16ef9562a7dcce91392c22ab16ea36>@@$$QAV<lambda_e25ca0880e6ef98be67edffd8c599615>@@@Z 100b5c20     libucrt:wsetlocale.obj
 0002:0004ec40       __sehtable$??$?RV<lambda_4fdada1b837b2abbf20876fac97688ad>@@AAV<lambda_b57350f2640456a0859d250846f69caf>@@V<lambda_eed5e4f92b5b7d55fa22c48c484aaa54>@@@?$__crt_seh_guarded_call@X@@QAEX$$QAV<lambda_4fdada1b837b2abbf20876fac97688ad>@@AAV<lambda_b57350f2640456a0859d250846f69caf>@@$$QAV<lambda_eed5e4f92b5b7d55fa22c48c484aaa54>@@@Z 100b5c40     libucrt:wsetlocale.obj
 0002:0004ec60       __sehtable$??$?RV<lambda_ac03c5d59bd18b09cb88b28331f6bfed>@@AAV<lambda_2a444430fde8c29194d880d93eed5e8f>@@AAV<lambda_02db5278e8aef8b5e4976579d73f5304>@@@?$__crt_seh_guarded_call@X@@QAEX$$QAV<lambda_ac03c5d59bd18b09cb88b28331f6bfed>@@AAV<lambda_2a444430fde8c29194d880d93eed5e8f>@@AAV<lambda_02db5278e8aef8b5e4976579d73f5304>@@@Z 100b5c60     libucrt:wsetlocale.obj
 0002:0004ec80       __sehtable$___acrt_initialize_lowio 100b5c80     libucrt:ioinit.obj
 0002:0004eca0       __sehtable$??$?RV<lambda_6b4b7855443974f2b4b77000ea21c99c>@@AAV<lambda_8f7d3b162ab39427f4fa9995c67a7986>@@V<lambda_cc9a5ba8a5d8428b9634eab82665e5dc>@@@?$__crt_seh_guarded_call@H@@QAEH$$QAV<lambda_6b4b7855443974f2b4b77000ea21c99c>@@AAV<lambda_8f7d3b162ab39427f4fa9995c67a7986>@@$$QAV<lambda_cc9a5ba8a5d8428b9634eab82665e5dc>@@@Z 100b5ca0     libucrt:winapi_thunks.obj
 0002:0004ecc0       __sehtable$__fcloseall     100b5cc0     libucrt:closeall.obj
 0002:0004ece0       __sehtable$??$?RV<lambda_9e9de3de5fa147e2223d7db92bc10aa6>@@AAV<lambda_38ce7e780aa69e748d6df282ebc68efe>@@V<lambda_8ca6da459f0f6780f1cff60fdc3d00e5>@@@?$__crt_seh_guarded_call@H@@QAEH$$QAV<lambda_9e9de3de5fa147e2223d7db92bc10aa6>@@AAV<lambda_38ce7e780aa69e748d6df282ebc68efe>@@$$QAV<lambda_8ca6da459f0f6780f1cff60fdc3d00e5>@@@Z 100b5ce0     libucrt:commit.obj
 0002:0004ed00       __sehtable$__write_internal 100b5d00     libucrt:write.obj
 0002:0004ed20       __sehtable$??$?RV<lambda_d422a76eb4c3bf3ad751449ab71a6ea4>@@AAV<lambda_c9ba49e555ba839a7b07aa3fbecb7617>@@V<lambda_9476263c8ee91a25d21c55370bdb50de>@@@?$__crt_seh_guarded_call@H@@QAEH$$QAV<lambda_d422a76eb4c3bf3ad751449ab71a6ea4>@@AAV<lambda_c9ba49e555ba839a7b07aa3fbecb7617>@@$$QAV<lambda_9476263c8ee91a25d21c55370bdb50de>@@@Z 100b5d20     libucrt:close.obj
 0002:0004ed40       __sehtable$?__acrt_stdio_allocate_stream@@YA?AV__crt_stdio_stream@@XZ 100b5d40     libucrt:stream.obj
 0002:0004ed60       __sehtable$??$common_ftell@_J@@YA_JV__crt_stdio_stream@@AAV__crt_cached_ptd_host@@@Z 100b5d60     libucrt:ftell.obj
 0002:0004ed80       __sehtable$__read          100b5d80     libucrt:read.obj
 0002:0004eda0       __sehtable$??$common_lseek@_J@@YA_JH_JHAAV__crt_cached_ptd_host@@@Z 100b5da0     libucrt:lseek.obj
 0002:0004edc0       __sehtable$__isindst       100b5dc0     libucrt:tzset.obj
 0002:0004ede0       __sehtable$___tzset        100b5de0     libucrt:tzset.obj
 0002:0004ee00       __sehtable$___set_fpsr_sse2 100b5e00     libucrt:fpctrl.obj
 0002:0004ee20       __sehtable$_raise          100b5e20     libucrt:signal.obj
 0002:0004ee40       __sehtable$??$?RV<lambda_cbab9ec6f41b0180b23cc171c22676b0>@@AAV<lambda_44731a7d0e6d81c3e6aa82d741081786>@@V<lambda_4b292cb8dd18144e164572427af410ab>@@@?$__crt_seh_guarded_call@P6AXH@Z@@QAEP6AXH@Z$$QAV<lambda_cbab9ec6f41b0180b23cc171c22676b0>@@AAV<lambda_44731a7d0e6d81c3e6aa82d741081786>@@$$QAV<lambda_4b292cb8dd18144e164572427af410ab>@@@Z 100b5e40     libucrt:signal.obj
 0002:0004ee60       __sehtable$?update_thread_multibyte_data_internal@@YAPAU__crt_multibyte_data@@QAU__acrt_ptd@@QAPAU1@@Z 100b5e60     libucrt:mbctype.obj
 0002:0004ee80       __sehtable$??$?RV<lambda_ceb1ee4838e85a9d631eb091e2fbe199>@@AAV<lambda_ae742caa10f662c28703da3d2ea5e57e>@@V<lambda_cd08b5d6af4937fe54fc07d0c9bf6b37>@@@?$__crt_seh_guarded_call@X@@QAEX$$QAV<lambda_ceb1ee4838e85a9d631eb091e2fbe199>@@AAV<lambda_ae742caa10f662c28703da3d2ea5e57e>@@$$QAV<lambda_cd08b5d6af4937fe54fc07d0c9bf6b37>@@@Z 100b5e80     libucrt:mbctype.obj
 0002:0004eea0       __sehtable$___acrt_update_thread_locale_data 100b5ea0     libucrt:locale_refcounting.obj
 0002:0004eec0       __sehtable$__alloc_osfhnd  100b5ec0     libucrt:osfinfo.obj
 0002:0004eee0       __sehtable$___acrt_lowio_ensure_fh_exists 100b5ee0     libucrt:osfinfo.obj
 0002:0004ef00       __sehtable$??$common_sopen_dispatch@D@@YAHQBDHHHQAHH@Z 100b5f00     libucrt:open.obj
 0002:0004ef20       __sehtable$??$common_getenv_s@_W@@YAHQAIQA_WIQB_W@Z 100b5f20     libucrt:getenv.obj
 0002:0004ef40       __sehtable$__IsNonwritableInCurrentImage 100b5f40     LIBCMT:pesect.obj
 0002:0004f1e0       .edata                     100b61e0     CS1.6 data collector.exp
 0002:0004f208       rgpv                       100b6208     CS1.6 data collector.exp
 0002:0004f20c       rgszName                   100b620c     CS1.6 data collector.exp
 0002:0004f210       rgwOrd                     100b6210     CS1.6 data collector.exp
 0002:0004f212       szName                     100b6212     CS1.6 data collector.exp
 0002:0004f22b       $N00001                    100b622b     CS1.6 data collector.exp
 0002:0004f73a       .idata$6                   100b673a     kernel32:KERNEL32.dll
 0002:0004f7ec       .idata$6                   100b67ec     user32:USER32.dll
 0002:0004f85e       .idata$6                   100b685e     gdi32:GDI32.dll
 0002:0004f87c       .idata$6                   100b687c     shell32:SHELL32.dll
 0002:0004f8b8       .idata$6                   100b68b8     ole32:ole32.dll
 0002:0004f8c2       .idata$6                   100b68c2     oleaut32:OLEAUT32.dll
 0002:0004f9aa       .idata$6                   100b69aa     OpenGL32:OPENGL32.dll
 0003:00000000       $SG62434                   100b7000     detours:detours.obj
 0003:00000010       $SG62437                   100b7010     detours:detours.obj
 0003:00000028       $SG62439                   100b7028     detours:detours.obj
 0003:00000038       $SG62441                   100b7038     detours:detours.obj
 0003:00000048       $SG62443                   100b7048     detours:detours.obj
 0003:00000058       $SG62445                   100b7058     detours:detours.obj
 0003:00000068       $SG62447                   100b7068     detours:detours.obj
 0003:0000007c       $SG62449                   100b707c     detours:detours.obj
 0003:00000090       $SG62451                   100b7090     detours:detours.obj
 0003:0000009c       $SG62487                   100b709c     detours:detours.obj
 0003:000000a0       $SG62605                   100b70a0     detours:detours.obj
 0003:000000a8       ?init@std@@3JA             100b70a8     libcpmt:xlock.obj
 0003:000000f0       ??$_Immortalize_impl@V?$_ExceptionPtr_static@Vbad_exception@std@@@?A0x22a8a7b5@@@?A0x22a8a7b5@@3U?$_Constexpr_excptptr_immortalize_impl@V?$_ExceptionPtr_static@Vbad_exception@std@@@?A0x22a8a7b5@@@1@A 100b70f0     libcpmt:excptptr.obj
 0003:00000158       ??$_Immortalize_impl@V?$_ExceptionPtr_static@Vbad_alloc@std@@@?A0x22a8a7b5@@@?A0x22a8a7b5@@3U?$_Constexpr_excptptr_immortalize_impl@V?$_ExceptionPtr_static@Vbad_alloc@std@@@?A0x22a8a7b5@@@1@A 100b7158     libcpmt:excptptr.obj
 0003:000001c0       ?atcount_cdecl@@3IA        100b71c0     libcpmt:iosptrs.obj
 0003:00000210       ?__vcrt_flsindex@@3KA      100b7210     libvcruntime:per_thread_data.obj
 0003:0000033c       ?errno_no_memory@@3HA      100b733c     libucrt:errno.obj
 0003:00000340       ?doserrno_no_memory@@3KA   100b7340     libucrt:errno.obj
 0003:00000350       ?__acrt_flsindex@@3KA      100b7350     libucrt:per_thread_data.obj
 0003:00000354       __ctype_loc_style          100b7354     libucrt:wsetlocale.obj
 0003:00000560       ?tzstd_program@@3PADA      100b7560     libucrt:timeset.obj
 0003:000005a0       ?tzdst_program@@3PADA      100b75a0     libucrt:timeset.obj
 0003:000005e0       ?w_tzstd_program@@3PA_WA   100b75e0     libucrt:timeset.obj
 0003:00000660       ?w_tzdst_program@@3PA_WA   100b7660     libucrt:timeset.obj
 0003:000006e0       ?tzname_states@@3PAY01PADA 100b76e0     libucrt:timeset.obj
 0003:000006e8       ?w_tzname_states@@3PAY01PA_WA 100b76e8     libucrt:timeset.obj
 0003:000006f0       ?dststart@@3Utransitiondate@?A0x7639d0b4@@A 100b76f0     libucrt:tzset.obj
 0003:000006fc       ?dstend@@3Utransitiondate@?A0x7639d0b4@@A 100b76fc     libucrt:tzset.obj
 0003:00000708       ?__DAZ_ENABLED@?1??__set_fpsr_sse2@@9@9 100b7708     libucrt:fpctrl.obj
 0003:00000930       __mbctypes                 100b7930     libucrt:mbctype.obj
 0003:00000a38       __mbcasemaps               100b7a38     libucrt:mbctype.obj
 0003:00000b38       ?__rgctypeflag@@3PADA      100b7b38     libucrt:mbctype.obj
 0003:00000b40       ?__rgcode_page_info@@3PAUcode_page_info@@A 100b7b40     libucrt:mbctype.obj
 0003:00000c30       ?__dcrt_lowio_console_output_handle@@3PAXA 100b7c30     libucrt:initcon.obj
 0003:00000c40       ?flSpeedSpiralY@?2??LegitAimbot@CAimBot@@AAEXPAUusercmd_s@@@Z@4MA 100b7c40     Aimbot.obj
 0003:00000c44       ?flSpeedSpiralX@?2??LegitAimbot@CAimBot@@AAEXPAUusercmd_s@@@Z@4MA 100b7c44     Aimbot.obj
 0003:000014a8       ?PRECISION@@3NA            100b84a8     Cvars.obj
 0003:000014b0       ?bsendpacket_status@?1??bSendpacket@CUtils@@QAEX_N@Z@4_NA 100b84b0     Utils.obj
 0003:000014b4       ?panel_w@?1??Palette@CMenu@@AAEXHHAAM00@Z@4IA 100b84b4     Menu.obj
 0003:000014b8       ?indent@?1??Palette@CMenu@@AAEXHHAAM00@Z@4IA 100b84b8     Menu.obj
 0003:000014bc       ?panel_h@?1??Palette@CMenu@@AAEXHHAAM00@Z@4IA 100b84bc     Menu.obj
 0003:000014c0       ?w@?1??Checkbox@CMenu@@AAEXHHAA_NPAD@Z@4IA 100b84c0     Menu.obj
 0003:000014c4       ?border@?1??Palette@CMenu@@AAEXHHAAM00@Z@4IA 100b84c4     Menu.obj
 0003:000014c8       ?h@?1??Checkbox@CMenu@@AAEXHHAA_NPAD@Z@4IA 100b84c8     Menu.obj
 0003:000014d4       ?map_changed@?1??UpdateMapInfo@CWorld@@QAEXXZ@4_NA 100b84d4     World.obj
 0003:00001760       ??_R0?AV_ExceptionPtr_normal@?A0x22a8a7b5@@@8 100b8760     libcpmt:excptptr.obj
 0003:00001790       ??_R0?AV?$_ExceptionPtr_static@Vbad_alloc@std@@@?A0x22a8a7b5@@@8 100b8790     libcpmt:excptptr.obj
 0003:000017d8       ??_R0?AV?$_ExceptionPtr_static@Vbad_exception@std@@@?A0x22a8a7b5@@@8 100b87d8     libcpmt:excptptr.obj
 0003:00001d40       ?initlocks@std@@3V_Init_locks@1@A 100b8d40     libcpmt:xlock.obj
 0003:00001d48       ?mtx@std@@3PAU_RTL_CRITICAL_SECTION@@A 100b8d48     libcpmt:xlock.obj
 0003:00001e24       ?classic_locale@std@@3Vlocale@1@A 100b8e24     libcpmt:locale0.obj
 0003:00001e2c       ?_Fac_head@std@@3PAU_Fac_node@1@A 100b8e2c     libcpmt:locale0.obj
 0003:00001e30       ?_Fac_tidy_reg@std@@3U_Fac_tidy_reg_t@1@B 100b8e30     libcpmt:locale0.obj
 0003:00001e34       _global_locale             100b8e34     libcpmt:locale0.obj
 0003:00001e38       ?registered@?1??_Setgloballocale@locale@std@@CAXPAX@Z@4_NA 100b8e38     libcpmt:locale0.obj
 0003:00001e40       ?stdstr@std@@3PAPAVios_base@1@A 100b8e40     libcpmt:ios.obj
 0003:00001e68       ?stdopens@std@@3PADA       100b8e68     libcpmt:ios.obj
 0003:00001e98       ?initlocks@std@@3V_Init_locks@1@A 100b8e98     libcpmt:iosptrs.obj
 0003:00001e99       ?init_atexit@@3U_Init_atexit@@A 100b8e99     libcpmt:iosptrs.obj
 0003:00001e9c       ?atfuns_cdecl@@3PAP6AXXZA  100b8e9c     libcpmt:iosptrs.obj
 0003:00001f3c       ?g_tss_cv@@3U_RTL_CONDITION_VARIABLE@@A 100b8f3c     LIBCMT:thread_safe_statics.obj
 0003:00001f40       ?g_tss_event@@3PAXA        100b8f40     LIBCMT:thread_safe_statics.obj
 0003:00001f44       ?g_tss_mutex@@3U_RTL_CRITICAL_SECTION@@A 100b8f44     LIBCMT:thread_safe_statics.obj
 0003:00001f5c       ?g_sleep_condition_variable_cs@@3P6GHPAU_RTL_CONDITION_VARIABLE@@PAU_RTL_CRITICAL_SECTION@@K@ZA 100b8f5c     LIBCMT:thread_safe_statics.obj
 0003:00001f60       ?g_wake_all_condition_variable@@3P6GXPAU_RTL_CONDITION_VARIABLE@@@ZA 100b8f60     LIBCMT:thread_safe_statics.obj
 0003:00001f6c       ?is_initialized_as_dll@@3_NA 100b8f6c     LIBCMT:utility.obj
 0003:00001f6d       ?module_local_atexit_table_initialized@@3_NA 100b8f6d     LIBCMT:utility.obj
 0003:00001f70       ?module_local_atexit_table@@3U_onexit_table_t@@A 100b8f70     LIBCMT:utility.obj
 0003:00001f7c       ?module_local_at_quick_exit_table@@3U_onexit_table_t@@A 100b8f7c     LIBCMT:utility.obj
 0003:00001f88       _GS_ExceptionRecord        100b8f88     LIBCMT:gs_report.obj
 0003:00001fd8       _GS_ContextRecord          100b8fd8     LIBCMT:gs_report.obj
 0003:000022a4       ?__proc_attached@@3HA      100b92a4     LIBCMT:dll_dllmain.obj
 0003:000022d4       ?__vcrt_startup_thread_ptd@@3U__vcrt_ptd@@A 100b92d4     libvcruntime:per_thread_data.obj
 0003:00002300       _rgValidPages              100b9300     libvcruntime:eh3valid.obj
 0003:00002380       _nValidPages               100b9380     libvcruntime:eh3valid.obj
 0003:00002384       _lModifying                100b9384     libvcruntime:eh3valid.obj
 0003:00002388       ___vcrt_lock_table         100b9388     libvcruntime:locks.obj
 0003:000023a0       ___vcrt_locks_initialized  100b93a0     libvcruntime:locks.obj
 0003:000023cc       ?heap@@3V_HeapManager@@A   100b93cc     libvcruntime:undname.obj
 0003:000023e0       ?module_handles@@3PAPAUHINSTANCE__@@A 100b93e0     libvcruntime:winapi_downlevel.obj
 0003:000023ec       ?function_pointers@@3PAPAXA 100b93ec     libvcruntime:winapi_downlevel.obj
 0003:00002400       ?c_termination_complete@@3JA 100b9400     libucrt:exit.obj
 0003:00002404       ?thread_local_exit_callback_func@@3P6GXPAXK0@ZA 100b9404     libucrt:exit.obj
 0003:0000240c       ?__acrt_invalid_parameter_handler@@3V?$dual_state_global@P6AXPB_W00II@Z@__crt_state_management@@A 100b940c     libucrt:invalid_parameter.obj
 0003:00002428       ?__acrt_lock_table@@3PAU_RTL_CRITICAL_SECTION@@A 100b9428     libucrt:locks.obj
 0003:00002578       ?__acrt_locks_initialized@@3IA 100b9578     libucrt:locks.obj
 0003:0000257c       ?__acrt_new_handler@@3V?$dual_state_global@P6AHI@Z@__crt_state_management@@A 100b957c     libucrt:new_handler.obj
 0003:00002580       ?program_name@?1???$common_configure_argv@D@@YAHW4_crt_argv_mode@@@Z@4PADA 100b9580     libucrt:argv_parsing.obj
 0003:000026b8       ?internal_state@?1??_mbtowc_internal@@9@4U_Mbstatet@@A 100b96b8     libucrt:mbtowc.obj
 0003:000026c0       ?enable_percent_n@@3IA     100b96c0     libucrt:printf_count_output.obj
 0003:000028d8       ?module_handles@@3PAPAUHINSTANCE__@@A 100b98d8     libucrt:winapi_thunks.obj
 0003:00002928       ?encoded_function_pointers@@3PAPAXA 100b9928     libucrt:winapi_thunks.obj
 0003:000029b0       ?static_enum_proc@?1??enum_system_locales_ex_nolock@@YAHQ6GHPA_WKJ@Z@Z@4P6GH0KJ@ZA 100b99b0     libucrt:winapi_thunks.obj
 0003:000029c0       ?_tzname@@3V?$dual_state_global@PAPAD@__crt_state_management@@A 100b99c0     libucrt:timeset.obj
 0003:000029c4       ?w_tzname@@3V?$dual_state_global@PAPA_W@__crt_state_management@@A 100b99c4     libucrt:timeset.obj
 0003:000029c8       ?last_wide_tz@@3PA_WA      100b99c8     libucrt:tzset.obj
 0003:000029d0       ?tz_api_used@@3HA          100b99d0     libucrt:tzset.obj
 0003:000029d4       ?tzset_init_state@@3V?$dual_state_global@J@__crt_state_management@@A 100b99d4     libucrt:tzset.obj
 0003:000029d8       ?tz_info@@3U_TIME_ZONE_INFORMATION@@A 100b99d8     libucrt:tzset.obj
 0003:00002a84       ?ctrlc_action@@3V?$dual_state_global@P6AXH@Z@__crt_state_management@@A 100b9a84     libucrt:signal.obj
 0003:00002a88       ?ctrlbreak_action@@3V?$dual_state_global@P6AXH@Z@__crt_state_management@@A 100b9a88     libucrt:signal.obj
 0003:00002a8c       ?abort_action@@3V?$dual_state_global@P6AXH@Z@__crt_state_management@@A 100b9a8c     libucrt:signal.obj
 0003:00002a90       ?term_action@@3V?$dual_state_global@P6AXH@Z@__crt_state_management@@A 100b9a90     libucrt:signal.obj
 0003:00002aa4       ?fSystemSet@@3HA           100b9aa4     libucrt:mbctype.obj
 0003:00002aa8       ?initialized@?1??__acrt_initialize_multibyte@@9@4_NA 100b9aa8     libucrt:mbctype.obj
 0003:00002ac8       ?user_matherr@@3V?$dual_state_global@P6AHPAU_exception@@@Z@__crt_state_management@@A 100b9ac8     libucrt:matherr.obj
 0003:00002acc       ?__acrt_global_new_mode@@3V?$dual_state_global@J@__crt_state_management@@A 100b9acc     libucrt:new_mode.obj
 0003:00002ad4       __pmatherr_set             100b9ad4     libucrt:libm_error.obj
 0003:00002ad8       ?internal_pst@?1??__mbrtoc32_utf8@__crt_mbstring@@YAIPA_UPBDIPAU_Mbstatet@@AAV__crt_cached_ptd_host@@@Z@4U3@A 100b9ad8     libucrt:mbrtoc32.obj
 0003:00002ae0       ?__acrt_app_type@@3W4_crt_app_type@@A 100b9ae0     libucrt:report_runtime_error.obj
 0003:00002ae8       ?internal_pst@?1??__c16rtomb_utf8@__crt_mbstring@@YAIPAD_SPAU_Mbstatet@@AAV__crt_cached_ptd_host@@@Z@4U3@A 100b9ae8     libucrt:c16rtomb.obj
 0003:0002273c       ?base64_chars@@3V?$basic_string@DU?$char_traits@D@std@@V?$allocator@D@2@@std@@B 100d973c     Main.obj
 0003:00022754       ?counter@@3HA              100d9754     Systems.obj
 0003:00022808       ?gcTextures@@3HA           100d9808     Textures.obj
 0003:0002280c       ?gpBuf@@3PAEA              100d980c     parsemsg.obj
 0003:00022810       ?grgchTextureType@@3PADA   100d9810     Textures.obj
 0003:00022a10       ?grgszTextureName@@3PAY0N@DA 100d9a10     Textures.obj
 0003:00024410       ?giSize@@3HA               100db410     parsemsg.obj
 0003:00024414       ?giBadRead@@3HA            100db414     parsemsg.obj
 0003:00024418       ?giRead@@3HA               100db418     parsemsg.obj
 0003:0002441c       ?dwBlockAttack@?2??LegitAimbot@CAimBot@@AAEXPAUusercmd_s@@@Z@4KA 100db41c     Aimbot.obj
 0003:00024420       ?dwTemporaryBlockTimer@?4??Trigger@CAimBot@@QAEXPAUusercmd_s@@@Z@4KA 100db420     Aimbot.obj
 0003:00024430       ?jitter@?FK@??AntiAim@CMisc@@QAEXPAUusercmd_s@@@Z@4_NA 100db430     Misc.obj
 0003:00024434       ?good@?BN@??FakeLag@CMisc@@QAEXPAUusercmd_s@@@Z@4HA 100db434     Misc.obj
 0003:00024438       ?m_side@?GF@??AntiAim@CMisc@@QAEXPAUusercmd_s@@@Z@4IA 100db438     Misc.obj
 0003:0002443c       ?bFire@?4??AutoPistol@CMisc@@QAEXPAUusercmd_s@@@Z@4_NA 100db43c     Misc.obj
 0003:0002443d       ?jitter@?DP@??AntiAim@CMisc@@QAEXPAUusercmd_s@@@Z@4_NA 100db43d     Misc.obj
 0003:0002443e       ?jitter@?HF@??AntiAim@CMisc@@QAEXPAUusercmd_s@@@Z@4_NA 100db43e     Misc.obj
 0003:0002443f       ?jitter@?CE@??AntiAim@CMisc@@QAEXPAUusercmd_s@@@Z@4_NA 100db43f     Misc.obj
 0003:00024440       ?jitter@?JM@??AntiAim@CMisc@@QAEXPAUusercmd_s@@@Z@4_NA 100db440     Misc.obj
 0003:00024444       ?m_side@?CP@??AntiAim@CMisc@@QAEXPAUusercmd_s@@@Z@4IA 100db444     Misc.obj
 0003:00024448       ?choked@?BN@??FakeLag@CMisc@@QAEXPAUusercmd_s@@@Z@4HA 100db448     Misc.obj
 0003:0002444c       ?jitter@?DE@??FakeLag@CMisc@@QAEXPAUusercmd_s@@@Z@4_NA 100db44c     Misc.obj
 0003:00024450       ?i@?IA@??BunnyHop@CSystems@@QAEXPAUusercmd_s@@@Z@4HA 100db450     Systems.obj
 0003:00024454       ?state@?IA@??BunnyHop@CSystems@@QAEXPAUusercmd_s@@@Z@4HA 100db454     Systems.obj
 0003:00024458       ?NULLTIME@?1??bSendpacket@CUtils@@QAEX_N@Z@4KA 100db458     Utils.obj
 0003:0002445c       ?drag_x@?1??Drag@CMenu@@AAEXXZ@4HA 100db45c     Menu.obj
 0003:00024460       ?m_bCursorState@?1??Run@CMenu@@QAEXXZ@4_NA 100db460     Menu.obj
 0003:00024461       ?m_bMouseCapture@?1??Run@CMenu@@QAEXXZ@4_NA 100db461     Menu.obj
 0003:00024464       ?drag_y@?1??Drag@CMenu@@AAEXXZ@4HA 100db464     Menu.obj
 0003:00024468       ?dwTemporaryBlockTimer@?1??DrawButton@CMenu@@AAE_NHHPAD@Z@4KA 100db468     Menu.obj
 0003:0002446c       ?dwTemporaryBlockTimer@?1??Palette@CMenu@@AAEXHHAAM00@Z@4KA 100db46c     Menu.obj
 0003:00024470       ?dwTemporaryBlockTimer@?1??Run@CMenu@@QAEXXZ@4KA 100db470     Menu.obj
 0003:00024478       ?iBackWeapons@?1??ShotsFiredCounter@@YAXHPAD@Z@4PAIA 100db478     Sounds.obj
 0003:000244fc       ?replaced@?4??Lightmap@CVisuals@@QAEXXZ@4_NA 100db4fc     Visuals.obj
 0003:000244fd       ?init@?1??IconInit@CVisuals@@QAEXXZ@4_NA 100db4fd     Visuals.obj
 0003:00024500       ?old@?1??Crosshair@CVisuals@@AAEXXZ@4PADA 100db500     Visuals.obj
 0003:00024504       ?bTextureTypeInit@?1??PM_InitTextureTypes@@YAXPAUplayermove_s@@@Z@4_NA 100db504     Textures.obj
 0003:00024508       ?iOldWeaponID@?1??ItemPostFrame@@YAXPAUusercmd_s@@@Z@4HA 100db508     Weapons.obj
 0003:00024524       ?$TSS0@?8??PaintTraversePanel@@YGXPAVIPanel@vgui@@_N1@Z@4HA 100db524     Client.obj
 0003:00024528       ?dayn@?8??PaintTraversePanel@@YGXPAVIPanel@vgui@@_N1@Z@4KA 100db528     Client.obj
 0003:0002452c       ?$TSS0@?IF@??AntiAim@CMisc@@QAEXPAUusercmd_s@@@Z@4HA 100db52c     Misc.obj
 0003:00024530       ?$TSS0@?1??NameStealer@CMisc@@QAEXXZ@4HA 100db530     Misc.obj
 0003:00024534       ?timer@?1??NameStealer@CMisc@@QAEXXZ@4KA 100db534     Misc.obj
 0003:00024538       ?timer@?IF@??AntiAim@CMisc@@QAEXPAUusercmd_s@@@Z@4MA 100db538     Misc.obj
 0003:0002453c       ?right_peak@?1??AutoStrafe@CSystems@@QAEXPAUusercmd_s@@M@Z@4MA 100db53c     Systems.obj
 0003:00024540       ?frames_to_waste_on_ground@?CH@??BunnyHop@CSystems@@QAEXPAUusercmd_s@@@Z@4HA 100db540     Systems.obj
 0003:00024544       ?angle_diff@?1??AutoStrafe@CSystems@@QAEXPAUusercmd_s@@M@Z@4MA 100db544     Systems.obj
 0003:00024548       ?doublekey@?CH@??BunnyHop@CSystems@@QAEXPAUusercmd_s@@@Z@4HA 100db548     Systems.obj
 0003:0002454c       ?old_yaw@?1??AutoStrafe@CSystems@@QAEXPAUusercmd_s@@M@Z@4MA 100db54c     Systems.obj
 0003:00024550       ?left_peak@?1??AutoStrafe@CSystems@@QAEXPAUusercmd_s@@M@Z@4MA 100db550     Systems.obj
 0003:00024554       ?frames_per_strafe@?CH@??BunnyHop@CSystems@@QAEXPAUusercmd_s@@@Z@4HA 100db554     Systems.obj
 0003:00024558       ?left_fall@?1??AutoStrafe@CSystems@@QAEXPAUusercmd_s@@M@Z@4HA 100db558     Systems.obj
 0003:0002455c       ?bJumped@?1??AutoStrafe@CSystems@@QAEXPAUusercmd_s@@M@Z@4_NA 100db55c     Systems.obj
 0003:00024560       ?counter@?CH@??BunnyHop@CSystems@@QAEXPAUusercmd_s@@@Z@4HA 100db560     Systems.obj
 0003:00024564       ?right_fall@?1??AutoStrafe@CSystems@@QAEXPAUusercmd_s@@M@Z@4HA 100db564     Systems.obj
 0003:00024568       ?m_iOldTab@?1??Tabs@CMenu@@AAEXXZ@4HA 100db568     Menu.obj
 0003:0002456c       ?$TSS0@?1??Tabs@CMenu@@AAEXXZ@4HA 100db56c     Menu.obj
 0003:00024570       ?fov_old@?1??CustomFOV@CVisuals@@AAEXXZ@4HA 100db570     Visuals.obj
 0003:00024574       ?dwTemporaryBlockTimer@?1??TriggerStatus@@YAXXZ@4KA 100db574     Visuals.obj
 0003:00024578       ?brightness_g@?4??Lightmap@CVisuals@@QAEXXZ@4MA 100db578     Visuals.obj
 0003:0002457c       ?brightness_b@?4??Lightmap@CVisuals@@QAEXXZ@4MA 100db57c     Visuals.obj
 0003:00024580       ?$TSS0@?1??TriggerStatus@@YAXXZ@4HA 100db580     Visuals.obj
 0003:00024584       ?$TSS3@?4??Lightmap@CVisuals@@QAEXXZ@4HA 100db584     Visuals.obj
 0003:00024588       ?brightness@?4??Lightmap@CVisuals@@QAEXXZ@4MA 100db588     Visuals.obj
 0003:0002458c       ?fov@?1??CustomFOV@CVisuals@@AAEXXZ@4HA 100db58c     Visuals.obj
 0003:00024590       ?brightness_r@?4??Lightmap@CVisuals@@QAEXXZ@4MA 100db590     Visuals.obj
 0003:00024594       ?$TSS2@?4??Lightmap@CVisuals@@QAEXXZ@4HA 100db594     Visuals.obj
 0003:00024598       ?$TSS1@?1??TriggerStatus@@YAXXZ@4HA 100db598     Visuals.obj
 0003:0002459c       ?oldAimbot@?1??TriggerStatus@@YAXXZ@4_NA 100db59c     Visuals.obj
 0003:000245a0       ?$TSS2@?1??TriggerStatus@@YAXXZ@4HA 100db5a0     Visuals.obj
 0003:000245a4       ?$TSS1@?4??Lightmap@CVisuals@@QAEXXZ@4HA 100db5a4     Visuals.obj
 0003:000245a8       ?$TSS0@?4??Lightmap@CVisuals@@QAEXXZ@4HA 100db5a8     Visuals.obj
 0003:000245ac       ?old@?1??TriggerStatus@@YAXXZ@4_NA 100db5ac     Visuals.obj
 0003:000245c0       ?string@?1??READ_STRING@@YAPADXZ@4PADA 100db5c0     parsemsg.obj
 0004:00000060       $R000000                   100dc060     * linker generated manifest res *
