 ev0lution

 Timestamp is 4e315603 (Thu Jul 28 20:28:51 2011)

 Preferred load address is 10000000

 Start         Length     Name                   Class
 0001:00000000 00000c50H .text                   CODE
 0001:00000c50 00000350H .text$di                CODE
 0001:00000fa0 0006b940H .text$mn                CODE
 0001:0006c8e0 00002c70H .text$x                 CODE
 0001:0006f550 00000107H .text$yd                CODE
 0002:00000000 00000260H .idata$5                DATA
 0002:00000260 00000004H .00cfg                  DATA
 0002:00000264 00000004H .CRT$XCA                DATA
 0002:00000268 0000000cH .CRT$XCC                DATA
 0002:00000274 00000008H .CRT$XCL                DATA
 0002:0000027c 00000044H .CRT$XCU                DATA
 0002:000002c0 00000004H .CRT$XCZ                DATA
 0002:000002c4 00000004H .CRT$XIA                DATA
 0002:000002c8 00000018H .CRT$XIC                DATA
 0002:000002e0 00000004H .CRT$XIZ                DATA
 0002:000002e4 00000004H .CRT$XLA                DATA
 0002:000002e8 00000004H .CRT$XLZ                DATA
 0002:000002ec 00000004H .CRT$XPA                DATA
 0002:000002f0 00000008H .CRT$XPX                DATA
 0002:000002f8 00000004H .CRT$XPXA               DATA
 0002:000002fc 00000004H .CRT$XPZ                DATA
 0002:00000300 00000004H .CRT$XTA                DATA
 0002:00000304 0000000cH .CRT$XTZ                DATA
 0002:00000308 00000000H .gfids$y                DATA
 0002:00000310 0004b4f0H .rdata                  DATA
 0002:0004b800 00000000H .rdata$CastGuardVftablesA DATA
 0002:0004b800 00000000H .rdata$CastGuardVftablesC DATA
 0002:0004b800 00000018H .rdata$T                DATA
 0002:0004b818 00000f60H .rdata$r                DATA
 0002:0004c778 00000400H .rdata$zzzdbg           DATA
 0002:0004cb78 00000004H .rtc$IAA                DATA
 0002:0004cb7c 00000004H .rtc$IZZ                DATA
 0002:0004cb80 00000004H .rtc$TAA                DATA
 0002:0004cb84 00000004H .rtc$TZZ                DATA
 0002:0004cb88 00000004H .tls                    DATA
 0002:0004cb8c 00000004H .tls$                   DATA
 0002:0004cb90 00000008H .tls$ZZZ                DATA
 0002:0004cb98 00003218H .xdata$x                DATA
 0002:0004fdb0 00000054H .edata                  DATA
 0002:0004fe04 0000008cH .idata$2                DATA
 0002:0004fe90 00000014H .idata$3                DATA
 0002:0004fea4 00000260H .idata$4                DATA
 0002:00050104 00000a52H .idata$6                DATA
 0003:00000000 00001530H .data                   DATA
 0003:00001530 00000238H .data$r                 DATA
 0003:00001768 00000680H .data$rs                DATA
 0003:00001de8 00023098H .bss                    DATA
 0004:00000000 00000060H .rsrc$01                DATA
 0004:00000060 00000180H .rsrc$02                DATA

  Address         Publics by Value              Rva+Base       Lib:Object

 0000:00000000       ___volatile_metadata       00000000     <absolute>
 0000:00000000       ___arm64x_redirection_metadata 00000000     <absolute>
 0000:00000000       ___guard_longjmp_table     00000000     <absolute>
 0000:00000000       ___guard_eh_cont_count     00000000     <absolute>
 0000:00000000       ___arm64x_native_entrypoint 00000000     <absolute>
 0000:00000000       ___safe_se_handler_table   00000000     <absolute>
 0000:00000000       ___guard_fids_count        00000000     <absolute>
 0000:00000000       ___hybrid_code_map_count   00000000     <absolute>
 0000:00000000       ___guard_eh_cont_table     00000000     <absolute>
 0000:00000000       ___x64_code_ranges_to_entry_points 00000000     <absolute>
 0000:00000000       ___guard_iat_count         00000000     <absolute>
 0000:00000000       __except_list              00000000     <absolute>
 0000:00000000       ___x64_code_ranges_to_entry_points_count 00000000     <absolute>
 0000:00000000       ___arm64x_extra_rfe_table  00000000     <absolute>
 0000:00000000       ___hybrid_code_map         00000000     <absolute>
 0000:00000000       ___guard_iat_table         00000000     <absolute>
 0000:00000000       ___arm64x_extra_rfe_table_size 00000000     <absolute>
 0000:00000000       ___safe_se_handler_count   00000000     <absolute>
 0000:00000000       ___guard_longjmp_count     00000000     <absolute>
 0000:00000000       ___guard_check_icall_a64n_fptr 00000000     <absolute>
 0000:00000000       ___arm64x_redirection_metadata_count 00000000     <absolute>
 0000:00000000       ___hybrid_auxiliary_iat    00000000     <absolute>
 0000:00000000       ___dynamic_value_reloc_table 00000000     <absolute>
 0000:00000000       ___AbsoluteZero            00000000     <absolute>
 0000:00000000       ___enclave_config          00000000     <absolute>
 0000:00000000       ___guard_fids_table        00000000     <absolute>
 0000:00000000       ___hybrid_auxiliary_iat_copy 00000000     <absolute>
 0000:0000002c       __tls_array                0000002c     <absolute>
 0000:00000100       ___guard_flags             00000100     <absolute>
 0000:00000000       ___ImageBase               10000000     <linker-defined>
 0001:00000000       ??0CDetourEnableWriteOnCodePage@@QAE@PAEJ@Z 10001000 f i detours:detours.obj
 0001:00000080       ??1CDetourEnableWriteOnCodePage@@QAE@XZ 10001080 f i detours:detours.obj
 0001:000000f0       _DetourFunction@8          100010f0 f   detours:detours.obj
 0001:000003e0       ?SetPermission@CDetourEnableWriteOnCodePage@@QAEHK@Z 100013e0 f i detours:detours.obj
 0001:00000420       ?IsValid@CDetourEnableWriteOnCodePage@@QAEHXZ 10001420 f i detours:detours.obj
 0001:000004c0       ?DetourGenJmp@@YAPAEPAE00@Z 100014c0 f i detours:detours.obj
 0001:00000500       ?DetourGenBreak@@YAPAEPAE@Z 10001500 f i detours:detours.obj
 0001:00000520       _DetourGetFinalCode@8      10001520 f   detours:detours.obj
 0001:00000590       _DetourCopyInstruction@12  10001590 f   detours:disasm.obj
 0001:000005c0       ??0CDetourDis@@QAE@PAPAEPAJ@Z 100015c0 f   detours:disasm.obj
 0001:00000640       ?Set16BitOperand@CDetourDis@@IAEXXZ 10001640 f   detours:disasm.obj
 0001:00000660       ?Set32BitOperand@CDetourDis@@IAEXXZ 10001660 f   detours:disasm.obj
 0001:00000680       ?Set16BitAddress@CDetourDis@@IAEXXZ 10001680 f   detours:disasm.obj
 0001:000006a0       ?CopyInstruction@CDetourDis@@QAEPAEPAE0@Z 100016a0 f   detours:disasm.obj
 0001:00000700       ?CopyBytes@CDetourDis@@IAEPAEPBUCOPYENTRY@1@PAE1@Z 10001700 f   detours:disasm.obj
 0001:000008e0       ?CopyBytesPrefix@CDetourDis@@IAEPAEPBUCOPYENTRY@1@PAE1@Z 100018e0 f   detours:disasm.obj
 0001:00000930       ?AdjustTarget@CDetourDis@@IAEPAEPAE0JJ@Z 10001930 f   detours:disasm.obj
 0001:00000a10       ?Invalid@CDetourDis@@IAEPAEPBUCOPYENTRY@1@PAE1@Z 10001a10 f   detours:disasm.obj
 0001:00000a30       ?Copy0F@CDetourDis@@IAEPAEPBUCOPYENTRY@1@PAE1@Z 10001a30 f   detours:disasm.obj
 0001:00000a80       ?Copy66@CDetourDis@@IAEPAEPBUCOPYENTRY@1@PAE1@Z 10001a80 f   detours:disasm.obj
 0001:00000ab0       ?Copy67@CDetourDis@@IAEPAEPBUCOPYENTRY@1@PAE1@Z 10001ab0 f   detours:disasm.obj
 0001:00000ae0       ?CopyF6@CDetourDis@@IAEPAEPBUCOPYENTRY@1@PAE1@Z 10001ae0 f   detours:disasm.obj
 0001:00000b40       ?CopyF7@CDetourDis@@IAEPAEPBUCOPYENTRY@1@PAE1@Z 10001b40 f   detours:disasm.obj
 0001:00000ba0       ?CopyFF@CDetourDis@@IAEPAEPBUCOPYENTRY@1@PAE1@Z 10001ba0 f   detours:disasm.obj
 0001:00000fa0       ??0Vector@@QAE@XZ          10001fa0 f i Client.obj
 0001:00000fa0       ??0QAngle@@QAE@XZ          10001fa0 f i Aimbot.obj
 0001:00000fd0       ??0Vector@@QAE@MMM@Z       10001fd0 f i Client.obj
 0001:00000fd0       ??0QAngle@@QAE@MMM@Z       10001fd0 f i Aimbot.obj
 0001:00001010       ??4Vector@@QAEAAV0@ABV0@@Z 10002010 f i Client.obj
 0001:00001010       ??4QAngle@@QAEAAV0@ABV0@@Z 10002010 f i Aimbot.obj
 0001:00001010       ??0Vector@@QAE@ABV0@@Z     10002010 f i Client.obj
 0001:00001050       ?_Lock@?$basic_streambuf@DU?$char_traits@D@std@@@std@@UAEXXZ 10002050 f i World.obj
 0001:00001050       ??1error_category@std@@UAE@XZ 10002050 f i Menu.obj
 0001:00001050       ??1QAngle@@QAE@XZ          10002050 f i Aimbot.obj
 0001:00001050       ?_Orphan_all@_Container_base12@std@@QAEXXZ 10002050 f i Aimbot.obj
 0001:00001050       ?_Release@_Fake_proxy_ptr_impl@std@@QAEXXZ 10002050 f i Cvars.obj
 0001:00001050       ?_Unlock@?$basic_streambuf@DU?$char_traits@D@std@@@std@@UAEXXZ 10002050 f i World.obj
 0001:00001050       ??1_Bxty@?$_String_val@U?$_Simple_types@D@std@@@std@@QAE@XZ 10002050 f i Cvars.obj
 0001:00001050       ?_Orphan_all@_Container_base0@std@@QAEXXZ 10002050 f i Cvars.obj
 0001:00001050       ?Init@CFunctions@@QAEXXZ   10002050 f i Cvars.obj
 0001:00001050       ??1Vector@@QAE@XZ          10002050 f i Client.obj
 0001:00001060       ?_Get_first@?$_Compressed_pair@V?$allocator@VVector@@@std@@V?$_Deque_val@U?$_Deque_simple_types@VVector@@@std@@@2@$00@std@@QAEAAV?$allocator@VVector@@@2@XZ 10002060 f i Visuals.obj
 0001:00001060       ?_Get_data@?$deque@IV?$allocator@I@std@@@std@@AAEAAV?$_Deque_val@U?$_Deque_simple_types@I@std@@@2@XZ 10002060 f i Aimbot.obj
 0001:00001060       ?_Get_data@?$deque@VVector@@V?$allocator@VVector@@@std@@@std@@AAEAAV?$_Deque_val@U?$_Deque_simple_types@VVector@@@std@@@2@XZ 10002060 f i Visuals.obj
 0001:00001060       ?raw_value@?$basic_config@Ujson_args@configor@@@configor@@QBEABU?$config_value@V?$basic_config@Ujson_args@configor@@@configor@@@detail@2@XZ 10002060 f i Pipi_edit.obj
 0001:00001060       ?_Get_first@?$_Compressed_pair@V?$allocator@D@std@@V?$_String_val@U?$_Simple_types@D@std@@@2@$00@std@@QAEAAV?$allocator@D@2@XZ 10002060 f i Cvars.obj
 0001:00001060       ?_Get_first@?$_Compressed_pair@V?$allocator@Umy_sound_t@@@std@@V?$_Deque_val@U?$_Deque_simple_types@Umy_sound_t@@@std@@@2@$00@std@@QBEABV?$allocator@Umy_sound_t@@@2@XZ 10002060 f i Sounds.obj
 0001:00001060       ?_Get_data@?$deque@IV?$allocator@I@std@@@std@@ABEABV?$_Deque_val@U?$_Deque_simple_types@I@std@@@2@XZ 10002060 f i Aimbot.obj
 0001:00001060       ??0?$allocator@V?$vector@V?$basic_config@Ujson_args@configor@@@configor@@V?$allocator@V?$basic_config@Ujson_args@configor@@@configor@@@std@@@std@@@std@@QAE@XZ 10002060 f i Pipi_edit.obj
 0001:00001060       ??0?$allocator@U?$_Tree_node@U?$pair@$$CBV?$basic_string@DU?$char_traits@D@std@@V?$allocator@D@2@@std@@V?$basic_config@Ujson_args@configor@@@configor@@@std@@PAX@std@@@std@@QAE@XZ 10002060 f i Pipi_edit.obj
 0001:00001060       ?_Get_data@?$deque@VVector@@V?$allocator@VVector@@@std@@@std@@ABEABV?$_Deque_val@U?$_Deque_simple_types@VVector@@@std@@@2@XZ 10002060 f i Visuals.obj
 0001:00001060       ?_Get_first@?$_Compressed_pair@V?$allocator@I@std@@V?$_Deque_val@U?$_Deque_simple_types@I@std@@@2@$00@std@@QBEABV?$allocator@I@2@XZ 10002060 f i Aimbot.obj
 0001:00001060       ??0?$allocator@D@std@@QAE@XZ 10002060 f i Cvars.obj
 0001:00001060       ??0?$allocator@Umy_sound_t@@@std@@QAE@XZ 10002060 f i Sounds.obj
 0001:00001060       ?_Get_data@?$deque@Umy_sound_t@@V?$allocator@Umy_sound_t@@@std@@@std@@AAEAAV?$_Deque_val@U?$_Deque_simple_types@Umy_sound_t@@@std@@@2@XZ 10002060 f i Sounds.obj
 0001:00001060       ??0?$allocator@V?$map@V?$basic_string@DU?$char_traits@D@std@@V?$allocator@D@2@@std@@V?$basic_config@Ujson_args@configor@@@configor@@U?$less@V?$basic_string@DU?$char_traits@D@std@@V?$allocator@D@2@@std@@@2@V?$allocator@U?$pair@$$CBV?$basic_string@DU?$char_traits@D@std@@V?$allocator@D@2@@std@@V?$basic_config@Ujson_args@configor@@@configor@@@std@@@2@@std@@@std@@QAE@XZ 10002060 f i Pipi_edit.obj
 0001:00001060       ?_Get_first@?$_Compressed_pair@U?$default_delete@V_Facet_base@std@@@std@@PAV_Facet_base@2@$00@std@@QAEAAU?$default_delete@V_Facet_base@std@@@2@XZ 10002060 f i World.obj
 0001:00001060       ?_Get_first@?$_Compressed_pair@U?$less@V?$basic_string@DU?$char_traits@D@std@@V?$allocator@D@2@@std@@@std@@V?$_Compressed_pair@V?$allocator@U?$_Tree_node@U?$pair@$$CBV?$basic_string@DU?$char_traits@D@std@@V?$allocator@D@2@@std@@V?$basic_config@Ujson_args@configor@@@configor@@@std@@PAX@std@@@std@@V?$_Tree_val@U?$_Tree_simple_types@U?$pair@$$CBV?$basic_string@DU?$char_traits@D@std@@V?$allocator@D@2@@std@@V?$basic_config@Ujson_args@configor@@@configor@@@std@@@std@@@2@$00@2@$00@std@@QBEABU?$less@V?$basic_string@DU?$char_traits@D@std@@V?$allocator@D@2@@std@@@2@XZ 10002060 f i Pipi_edit.obj
 0001:00001060       ?_Get_first@?$_Compressed_pair@V?$allocator@VVector@@@std@@V?$_Deque_val@U?$_Deque_simple_types@VVector@@@std@@@2@$00@std@@QBEABV?$allocator@VVector@@@2@XZ 10002060 f i Visuals.obj
 0001:00001060       ??0?$allocator@V?$basic_string@DU?$char_traits@D@std@@V?$allocator@D@2@@std@@@std@@QAE@XZ 10002060 f i Pipi_edit.obj
 0001:00001060       ??BQAngle@@QAEPAMXZ        10002060 f i Aimbot.obj
 0001:00001060       ??BVector@@QAEPAMXZ        10002060 f i Client.obj
 0001:00001060       ?_Get_first@?$_Compressed_pair@V?$allocator@D@std@@V?$_String_val@U?$_Simple_types@D@std@@@2@$00@std@@QBEABV?$allocator@D@2@XZ 10002060 f i Cvars.obj
 0001:00001060       ?_Get_data@?$deque@Umy_sound_t@@V?$allocator@Umy_sound_t@@@std@@@std@@ABEABV?$_Deque_val@U?$_Deque_simple_types@Umy_sound_t@@@std@@@2@XZ 10002060 f i Sounds.obj
 0001:00001060       ??0?$allocator@V?$basic_config@Ujson_args@configor@@@configor@@@std@@QAE@XZ 10002060 f i Pipi_edit.obj
 0001:00001060       ?_Get_first@?$_Compressed_pair@V?$allocator@Umy_sound_t@@@std@@V?$_Deque_val@U?$_Deque_simple_types@Umy_sound_t@@@std@@@2@$00@std@@QAEAAV?$allocator@Umy_sound_t@@@2@XZ 10002060 f i Sounds.obj
 0001:00001060       ?_Get_first@?$_Compressed_pair@V?$allocator@U?$_Tree_node@U?$pair@$$CBV?$basic_string@DU?$char_traits@D@std@@V?$allocator@D@2@@std@@V?$basic_config@Ujson_args@configor@@@configor@@@std@@PAX@std@@@std@@V?$_Tree_val@U?$_Tree_simple_types@U?$pair@$$CBV?$basic_string@DU?$char_traits@D@std@@V?$allocator@D@2@@std@@V?$basic_config@Ujson_args@configor@@@configor@@@std@@@std@@@2@$00@std@@QAEAAV?$allocator@U?$_Tree_node@U?$pair@$$CBV?$basic_string@DU?$char_traits@D@std@@V?$allocator@D@2@@std@@V?$basic_config@Ujson_args@configor@@@configor@@@std@@PAX@std@@@2@XZ 10002060 f i Pipi_edit.obj
 0001:00001060       ??D?$ostreambuf_iterator@DU?$char_traits@D@std@@@std@@QAEAAV01@XZ 10002060 f i Pipi_edit.obj
 0001:00001060       ?_Get_first@?$_Compressed_pair@V?$allocator@V?$basic_config@Ujson_args@configor@@@configor@@@std@@V?$_Vector_val@U?$_Simple_types@V?$basic_config@Ujson_args@configor@@@configor@@@std@@@2@$00@std@@QBEABV?$allocator@V?$basic_config@Ujson_args@configor@@@configor@@@2@XZ 10002060 f i Pipi_edit.obj
 0001:00001060       ??E?$ostreambuf_iterator@DU?$char_traits@D@std@@@std@@QAEAAV01@XZ 10002060 f i Pipi_edit.obj
 0001:00001060       ??0?$allocator@I@std@@QAE@XZ 10002060 f i Aimbot.obj
 0001:00001060       ??0?$allocator@VVector@@@std@@QAE@XZ 10002060 f i Visuals.obj
 0001:00001060       ?_Get_first@?$_Compressed_pair@V?$allocator@U?$_Tree_node@U?$pair@$$CBV?$basic_string@DU?$char_traits@D@std@@V?$allocator@D@2@@std@@V?$basic_config@Ujson_args@configor@@@configor@@@std@@PAX@std@@@std@@V?$_Tree_val@U?$_Tree_simple_types@U?$pair@$$CBV?$basic_string@DU?$char_traits@D@std@@V?$allocator@D@2@@std@@V?$basic_config@Ujson_args@configor@@@configor@@@std@@@std@@@2@$00@std@@QBEABV?$allocator@U?$_Tree_node@U?$pair@$$CBV?$basic_string@DU?$char_traits@D@std@@V?$allocator@D@2@@std@@V?$basic_config@Ujson_args@configor@@@configor@@@std@@PAX@std@@@2@XZ 10002060 f i Pipi_edit.obj
 0001:00001060       ?_Get_first@?$_Compressed_pair@V?$allocator@V?$basic_config@Ujson_args@configor@@@configor@@@std@@V?$_Vector_val@U?$_Simple_types@V?$basic_config@Ujson_args@configor@@@configor@@@std@@@2@$00@std@@QAEAAV?$allocator@V?$basic_config@Ujson_args@configor@@@configor@@@2@XZ 10002060 f i Pipi_edit.obj
 0001:00001060       ?_Get_first@?$_Compressed_pair@V?$allocator@I@std@@V?$_Deque_val@U?$_Deque_simple_types@I@std@@@2@$00@std@@QAEAAV?$allocator@I@2@XZ 10002060 f i Aimbot.obj
 0001:00001070       ??4Vector@@QAEAAV0@PAM@Z   10002070 f i Client.obj
 0001:00001070       ??4QAngle@@QAEAAV0@PAM@Z   10002070 f i Aimbot.obj
 0001:000010f0       ??AVector@@QBEAAMH@Z       100020f0 f i Client.obj
 0001:000010f0       ??AQAngle@@QBEAAMH@Z       100020f0 f i Aimbot.obj
 0001:00001120       ??HVector@@QBE?AV0@ABV0@@Z 10002120 f i Client.obj
 0001:00001190       ??DVector@@QBE?AV0@M@Z     10002190 f i Client.obj
 0001:00001200       ?AntiSnapshot@@YAXXZ       10002200 f   Client.obj
 0001:00001210       ?AntiScreenshot@@YAXXZ     10002210 f   Client.obj
 0001:00001220       ?AntiScreen@@YAXXZ         10002220 f   Client.obj
 0001:00001290       ?PaintTraversePanel@@YGXPAVIPanel@vgui@@_N1@Z 10002290 f   Client.obj
 0001:00001510       ?CL_CreateMove@@YAXMPAUusercmd_s@@H@Z 10002510 f   Client.obj
 0001:00001880       ??0pmtrace_s@@QAE@XZ       10002880 f i Client.obj
 0001:000018f0       ??0pmplane_t@@QAE@XZ       100028f0 f i Client.obj
 0001:000018f0       ??0my_sound_t@@QAE@XZ      100028f0 f i Sounds.obj
 0001:000018f0       ??0CBomb@@QAE@XZ           100028f0 f i World.obj
 0001:00001910       ??1pmtrace_s@@QAE@XZ       10002910 f i Client.obj
 0001:00001940       ??1?$_String_val@U?$_Simple_types@D@std@@@std@@QAE@XZ 10002940 f i Cvars.obj
 0001:00001940       ??1_Iostream_error_category2@std@@UAE@XZ 10002940 f i World.obj
 0001:00001940       ??1my_sound_t@@QAE@XZ      10002940 f i Sounds.obj
 0001:00001940       ??1_Generic_error_category@std@@UAE@XZ 10002940 f i Menu.obj
 0001:00001940       ??1CBomb@@QAE@XZ           10002940 f i World.obj
 0001:00001940       ??1_System_error_category@std@@UAE@XZ 10002940 f i Menu.obj
 0001:00001940       ??1pmplane_t@@QAE@XZ       10002940 f i Client.obj
 0001:00001960       ?HUD_PostRunCmd@@YAXPAUlocal_state_s@@0PAUusercmd_s@@HNI@Z 10002960 f   Client.obj
 0001:000019c0       ?V_CalcRefdef@@YAXPAUref_params_s@@@Z 100029c0 f   Client.obj
 0001:00001a50       ?HUD_Frame@@YAXN@Z         10002a50 f   Client.obj
 0001:00001aa0       ?HUD_Frame_init@@YAXN@Z    10002aa0 f   Client.obj
 0001:00001c30       ?CL_IsThirdPerson@@YAHXZ   10002c30 f   Client.obj
 0001:00001c80       ?HUD_PlayerMoveInit@@YAXPAUplayermove_s@@@Z 10002c80 f   Client.obj
 0001:00001ca0       ?StudioCheckBBox@@YAHXZ    10002ca0 f   Client.obj
 0001:00001cb0       ?StudioSetRemapColors@@YAXHH@Z 10002cb0 f   Client.obj
 0001:00001ce0       ?pfnDrawUnicodeCharacter@@YAHHHFHHHK@Z 10002ce0 f   Client.obj
 0001:00001d40       ?HUD_AddEntity@@YAHHPAUcl_entity_s@@PBD@Z 10002d40 f   Client.obj
 0001:000026d0       ?HookUserMessages@@YAXXZ   100036d0 f   Client.obj
 0001:00002790       ?HUD_GetHullBounds@@YAHHPAM0@Z 10003790 f   Client.obj
 0001:000027c0       ?CL_Move@@YAXXZ            100037c0 f   Client.obj
 0001:000027e0       ?HUD_ProcessPlayerState@@YAXPAUentity_state_s@@PBU1@@Z 100037e0 f   Client.obj
 0001:000028b0       ?HookClient@@YAXXZ         100038b0 f   Client.obj
 0001:000029d0       ??2@YAPAXIPAX@Z            100039d0 f i Aimbot.obj
 0001:000029e0       ?fpclassify@@YAHM@Z        100039e0 f i Aimbot.obj
 0001:00002a00       _acosf                     10003a00 f i Aimbot.obj
 0001:00002a20       _sqrtf                     10003a20 f i Aimbot.obj
 0001:00002a40       ?acos@@YAMM@Z              10003a40 f i Aimbot.obj
 0001:00002a60       ?sqrt@@YAMM@Z              10003a60 f i Aimbot.obj
 0001:00002a80       ??0exception@std@@QAE@QBDH@Z 10003a80 f i Aimbot.obj
 0001:00002ab0       ??0exception@std@@QAE@ABV01@@Z 10003ab0 f i Aimbot.obj
 0001:00002af0       ??1exception@std@@UAE@XZ   10003af0 f i Aimbot.obj
 0001:00002b20       ?what@exception@std@@UBEPBDXZ 10003b20 f i Aimbot.obj
 0001:00002b50       ??_Eexception@std@@UAEPAXI@Z 10003b50 f i * CIL library *:* CIL module *
 0001:00002b50       ??_Gexception@std@@UAEPAXI@Z 10003b50 f i Aimbot.obj
 0001:00002b80       ??0bad_alloc@std@@AAE@QBD@Z 10003b80 f i Aimbot.obj
 0001:00002bb0       ??_Gbad_cast@std@@UAEPAXI@Z 10003bb0 f i World.obj
 0001:00002bb0       ??_Elogic_error@std@@UAEPAXI@Z 10003bb0 f i * CIL library *:* CIL module *
 0001:00002bb0       ??_Glogic_error@std@@UAEPAXI@Z 10003bb0 f i Pipi_edit.obj
 0001:00002bb0       ??_Gruntime_error@std@@UAEPAXI@Z 10003bb0 f i Menu.obj
 0001:00002bb0       ??_Ebad_cast@std@@UAEPAXI@Z 10003bb0 f i * CIL library *:* CIL module *
 0001:00002bb0       ??_Ebad_alloc@std@@UAEPAXI@Z 10003bb0 f i * CIL library *:* CIL module *
 0001:00002bb0       ??_Gbad_alloc@std@@UAEPAXI@Z 10003bb0 f i Aimbot.obj
 0001:00002bb0       ??_Eruntime_error@std@@UAEPAXI@Z 10003bb0 f i * CIL library *:* CIL module *
 0001:00002be0       ??1logic_error@std@@UAE@XZ 10003be0 f i Pipi_edit.obj
 0001:00002be0       ??1bad_alloc@std@@UAE@XZ   10003be0 f i Aimbot.obj
 0001:00002be0       ??1bad_cast@std@@UAE@XZ    10003be0 f i World.obj
 0001:00002be0       ??1runtime_error@std@@UAE@XZ 10003be0 f i Menu.obj
 0001:00002c00       ??0bad_array_new_length@std@@QAE@XZ 10003c00 f i Aimbot.obj
 0001:00002c30       ??_Gout_of_range@std@@UAEPAXI@Z 10003c30 f i Pipi_edit.obj
 0001:00002c30       ??_Econfigor_exception@configor@@UAEPAXI@Z 10003c30 f i * CIL library *:* CIL module *
 0001:00002c30       ??_Eout_of_range@std@@UAEPAXI@Z 10003c30 f i * CIL library *:* CIL module *
 0001:00002c30       ??_Gbad_array_new_length@std@@UAEPAXI@Z 10003c30 f i Aimbot.obj
 0001:00002c30       ??_Gconfigor_exception@configor@@UAEPAXI@Z 10003c30 f i Pipi_edit.obj
 0001:00002c30       ??_Ebad_array_new_length@std@@UAEPAXI@Z 10003c30 f i * CIL library *:* CIL module *
 0001:00002c60       ??1out_of_range@std@@UAE@XZ 10003c60 f i Pipi_edit.obj
 0001:00002c60       ??1configor_exception@configor@@UAE@XZ 10003c60 f i Pipi_edit.obj
 0001:00002c60       ??1bad_array_new_length@std@@UAE@XZ 10003c60 f i Aimbot.obj
 0001:00002c60       ??1_System_error@std@@UAE@XZ 10003c60 f i Menu.obj
 0001:00002c80       ?_Throw_bad_array_new_length@std@@YAXXZ 10003c80 f i Aimbot.obj
 0001:00002ca0       ??0bad_array_new_length@std@@QAE@ABV01@@Z 10003ca0 f i Aimbot.obj
 0001:00002cd0       ??0bad_alloc@std@@QAE@ABV01@@Z 10003cd0 f i Aimbot.obj
 0001:00002d00       ?max@?$numeric_limits@H@std@@SAHXZ 10003d00 f i Aimbot.obj
 0001:00002d10       ?_Allocate@_Default_allocate_traits@std@@SAPAXI@Z 10003d10 f i Aimbot.obj
 0001:00002d30       ?_Adjust_manually_vector_aligned@std@@YAXAAPAXAAI@Z 10003d30 f i Aimbot.obj
 0001:00002da0       ??0?$_Alloc_construct_ptr@V?$allocator@U?$_Tree_node@U?$pair@$$CBV?$basic_string@DU?$char_traits@D@std@@V?$allocator@D@2@@std@@V?$basic_config@Ujson_args@configor@@@configor@@@std@@PAX@std@@@std@@@std@@QAE@AAV?$allocator@U?$_Tree_node@U?$pair@$$CBV?$basic_string@DU?$char_traits@D@std@@V?$allocator@D@2@@std@@V?$basic_config@Ujson_args@configor@@@configor@@@std@@PAX@std@@@1@@Z 10003da0 f i Pipi_edit.obj
 0001:00002da0       ??0_Container_proxy@std@@QAE@PAU_Container_base12@1@@Z 10003da0 f i Aimbot.obj
 0001:00002dd0       ??0Vector@@QAE@PAM@Z       10003dd0 f i Aimbot.obj
 0001:00002dd0       ?Init@QAngle@@QAEAAV1@PAM@Z 10003dd0 f i NoSpread.obj
 0001:00002dd0       ??0QAngle@@QAE@PAM@Z       10003dd0 f i Aimbot.obj
 0001:00002df0       ?IsZero@Vector@@QBE_NXZ    10003df0 f i Aimbot.obj
 0001:00002e50       ?IsZero2D@Vector@@QAE_NXZ  10003e50 f i Aimbot.obj
 0001:00002ea0       ?Dot@Vector@@QAEMABV1@@Z   10003ea0 f i Aimbot.obj
 0001:00002ef0       ?Length@Vector@@QAEMXZ     10003ef0 f i Aimbot.obj
 0001:00002f20       ?LengthSqr@Vector@@QAEMXZ  10003f20 f i Aimbot.obj
 0001:00002f70       ?Normalize@Vector@@QAEMXZ  10003f70 f i Aimbot.obj
 0001:00002ff0       ?AngleBetween@Vector@@QAEMAAV1@@Z 10003ff0 f i Aimbot.obj
 0001:00003060       ??YVector@@QAEAAV0@ABV0@@Z 10004060 f i Aimbot.obj
 0001:000030c0       ??_0Vector@@QAEAAV0@M@Z    100040c0 f i Aimbot.obj
 0001:00003120       ??GVector@@QBE?AV0@ABV0@@Z 10004120 f i Aimbot.obj
 0001:00003190       ??0QAngle@@QAE@AAV0@@Z     10004190 f i Aimbot.obj
 0001:000031b0       ?Normalize@QAngle@@QAEAAV1@XZ 100041b0 f i Aimbot.obj
 0001:00003250       ??YQAngle@@QAEAAV0@PAM@Z   10004250 f i Aimbot.obj
 0001:000032c0       ??HQAngle@@QBE?AV0@PAM@Z   100042c0 f i Aimbot.obj
 0001:000033a0       ??GQAngle@@QBE?AV0@ABV0@@Z 100043a0 f i Aimbot.obj
 0001:00003470       ?SmoothAimAngles@@YAXVQAngle@@0AAV1@M_NMM@Z 10004470 f   Aimbot.obj
 0001:00003670       ?Run@CAimBot@@QAEXPAUusercmd_s@@@Z 10004670 f   Aimbot.obj
 0001:000036b0       ?Trigger@CAimBot@@QAEXPAUusercmd_s@@@Z 100046b0 f   Aimbot.obj
 0001:00003d50       ?__autoclassinit2@?$_Deque_unchecked_iterator@V?$_Deque_val@U?$_Deque_simple_types@Umy_sound_t@@@std@@@std@@@std@@QAEXI@Z 10004d50 f i Visuals.obj
 0001:00003d50       ?__autoclassinit2@locale@std@@QAEXI@Z 10004d50 f i World.obj
 0001:00003d50       ?__autoclassinit2@?$basic_istream@DU?$char_traits@D@std@@@std@@QAEXI@Z 10004d50 f i Pipi_edit.obj
 0001:00003d50       ?__autoclassinit2@?$json_serializer@V?$basic_config@Ujson_args@configor@@@configor@@@detail@configor@@QAEXI@Z 10004d50 f i Pipi_edit.obj
 0001:00003d50       ?__autoclassinit2@?$deque@Umy_sound_t@@V?$allocator@Umy_sound_t@@@std@@@std@@QAEXI@Z 10004d50 f i Sounds.obj
 0001:00003d50       ?__autoclassinit2@?$deque@IV?$allocator@I@std@@@std@@QAEXI@Z 10004d50 f i Aimbot.obj
 0001:00003d50       ?__autoclassinit2@?$_Uninitialized_backout_al@V?$allocator@V?$basic_config@Ujson_args@configor@@@configor@@@std@@@std@@QAEXI@Z 10004d50 f i Pipi_edit.obj
 0001:00003d50       ?__autoclassinit2@?$fast_string_istreambuf@D@detail@configor@@QAEXI@Z 10004d50 f i Pipi_edit.obj
 0001:00003d50       ?__autoclassinit2@?$basic_ifstream@DU?$char_traits@D@std@@@std@@QAEXI@Z 10004d50 f i World.obj
 0001:00003d50       ?__autoclassinit2@?$_Deque_unchecked_iterator@V?$_Deque_val@U?$_Deque_simple_types@I@std@@@std@@@std@@QAEXI@Z 10004d50 f i Aimbot.obj
 0001:00003d50       ?__autoclassinit2@CCvars@@QAEXI@Z 10004d50 f i Cvars.obj
 0001:00003d50       ?__autoclassinit2@?$numpunct@D@std@@QAEXI@Z 10004d50 f i Pipi_edit.obj
 0001:00003d50       ?__autoclassinit2@?$_Deque_unchecked_iterator@V?$_Deque_val@U?$_Deque_simple_types@VVector@@@std@@@std@@@std@@QAEXI@Z 10004d50 f i Visuals.obj
 0001:00003d50       ?__autoclassinit2@?$basic_ofstream@DU?$char_traits@D@std@@@std@@QAEXI@Z 10004d50 f i Pipi_edit.obj
 0001:00003d50       ?__autoclassinit2@?$fast_basic_ostringstream@D@detail@configor@@QAEXI@Z 10004d50 f i Pipi_edit.obj
 0001:00003d50       ?__autoclassinit2@?$_Tree_const_iterator@V?$_Tree_val@U?$_Tree_simple_types@U?$pair@$$CBV?$basic_string@DU?$char_traits@D@std@@V?$allocator@D@2@@std@@V?$basic_config@Ujson_args@configor@@@configor@@@std@@@std@@@std@@@std@@QAEXI@Z 10004d50 f i Pipi_edit.obj
 0001:00003d50       ?__autoclassinit2@exception_ptr@std@@QAEXI@Z 10004d50 f i Pipi_edit.obj
 0001:00003d50       ?__autoclassinit2@?$unique_ptr@V_Facet_base@std@@U?$default_delete@V_Facet_base@std@@@2@@std@@QAEXI@Z 10004d50 f i World.obj
 0001:00003d70       ?LegitAimbot@CAimBot@@AAEXPAUusercmd_s@@@Z 10004d70 f   Aimbot.obj
 0001:00005140       ?RageAimbot@CAimBot@@AAEXPAUusercmd_s@@@Z 10006140 f   Aimbot.obj
 0001:00005aa0       ??E?$_Deque_unchecked_iterator@V?$_Deque_val@U?$_Deque_simple_types@Umy_sound_t@@@std@@@std@@@std@@QAEAAV01@XZ 10006aa0 f i Visuals.obj
 0001:00005aa0       ??E?$_Deque_unchecked_iterator@V?$_Deque_val@U?$_Deque_simple_types@I@std@@@std@@@std@@QAEAAV01@XZ 10006aa0 f i Aimbot.obj
 0001:00005ac0       ??D?$_Deque_unchecked_iterator@V?$_Deque_val@U?$_Deque_simple_types@I@std@@@std@@@std@@QBEAAIXZ 10006ac0 f i Aimbot.obj
 0001:00005ae0       ??9?$_Deque_unchecked_const_iterator@V?$_Deque_val@U?$_Deque_simple_types@Umy_sound_t@@@std@@@std@@@std@@QBE_NABV01@@Z 10006ae0 f i Visuals.obj
 0001:00005ae0       ??9?$_Deque_unchecked_const_iterator@V?$_Deque_val@U?$_Deque_simple_types@I@std@@@std@@@std@@QBE_NABV01@@Z 10006ae0 f i Aimbot.obj
 0001:00005b20       ?push_back@?$deque@IV?$allocator@I@std@@@std@@QAEXABI@Z 10006b20 f i Aimbot.obj
 0001:00005b50       ?push_front@?$deque@IV?$allocator@I@std@@@std@@QAEXABI@Z 10006b50 f i Aimbot.obj
 0001:00005b70       ??$emplace_front@ABI@?$deque@IV?$allocator@I@std@@@std@@QAE?A_TABI@Z 10006b70 f i Aimbot.obj
 0001:00005ce0       ??A?$deque@IV?$allocator@I@std@@@std@@QAEAAII@Z 10006ce0 f i Aimbot.obj
 0001:00005d20       ?empty@?$deque@Umy_sound_t@@V?$allocator@Umy_sound_t@@@std@@@std@@QBE_NXZ 10006d20 f i Sounds.obj
 0001:00005d20       ?empty@?$deque@IV?$allocator@I@std@@@std@@QBE_NXZ 10006d20 f i Aimbot.obj
 0001:00005d20       ?empty@?$deque@VVector@@V?$allocator@VVector@@@std@@@std@@QBE_NXZ 10006d20 f i Visuals.obj
 0001:00005d50       ?size@?$deque@IV?$allocator@I@std@@@std@@QBEIXZ 10006d50 f i Aimbot.obj
 0001:00005d50       ?size@?$deque@VVector@@V?$allocator@VVector@@@std@@@std@@QBEIXZ 10006d50 f i Visuals.obj
 0001:00005d50       ?size@?$deque@Umy_sound_t@@V?$allocator@Umy_sound_t@@@std@@@std@@QBEIXZ 10006d50 f i Visuals.obj
 0001:00005d70       ?_Unchecked_end@?$deque@Umy_sound_t@@V?$allocator@Umy_sound_t@@@std@@@std@@QAE?AV?$_Deque_unchecked_iterator@V?$_Deque_val@U?$_Deque_simple_types@Umy_sound_t@@@std@@@std@@@2@XZ 10006d70 f i Visuals.obj
 0001:00005d70       ?_Unchecked_end@?$deque@IV?$allocator@I@std@@@std@@QAE?AV?$_Deque_unchecked_iterator@V?$_Deque_val@U?$_Deque_simple_types@I@std@@@std@@@2@XZ 10006d70 f i Aimbot.obj
 0001:00005dc0       ?_Unchecked_begin@?$deque@IV?$allocator@I@std@@@std@@QAE?AV?$_Deque_unchecked_iterator@V?$_Deque_val@U?$_Deque_simple_types@I@std@@@std@@@2@XZ 10006dc0 f i Aimbot.obj
 0001:00005dc0       ?_Unchecked_begin@?$deque@VVector@@V?$allocator@VVector@@@std@@@std@@QAE?AV?$_Deque_unchecked_iterator@V?$_Deque_val@U?$_Deque_simple_types@VVector@@@std@@@std@@@2@XZ 10006dc0 f i Visuals.obj
 0001:00005dc0       ?_Unchecked_begin@?$deque@Umy_sound_t@@V?$allocator@Umy_sound_t@@@std@@@std@@QAE?AV?$_Deque_unchecked_iterator@V?$_Deque_val@U?$_Deque_simple_types@Umy_sound_t@@@std@@@std@@@2@XZ 10006dc0 f i Visuals.obj
 0001:00005e00       ??1?$deque@IV?$allocator@I@std@@@std@@QAE@XZ 10006e00 f i Aimbot.obj
 0001:00005e70       ?push_back@?$deque@IV?$allocator@I@std@@@std@@QAEX$$QAI@Z 10006e70 f i Aimbot.obj
 0001:00005ea0       ??0?$deque@Umy_sound_t@@V?$allocator@Umy_sound_t@@@std@@@std@@QAE@XZ 10006ea0 f i Sounds.obj
 0001:00005ea0       ??0?$deque@VVector@@V?$allocator@VVector@@@std@@@std@@QAE@XZ 10006ea0 f i Visuals.obj
 0001:00005ea0       ??0?$deque@IV?$allocator@I@std@@@std@@QAE@XZ 10006ea0 f i Aimbot.obj
 0001:00005ee0       ??0?$_Deque_unchecked_iterator@V?$_Deque_val@U?$_Deque_simple_types@Umy_sound_t@@@std@@@std@@@std@@QAE@IPBU_Container_base12@1@@Z 10006ee0 f i Visuals.obj
 0001:00005ee0       ??0?$_Deque_unchecked_iterator@V?$_Deque_val@U?$_Deque_simple_types@I@std@@@std@@@std@@QAE@IPBU_Container_base12@1@@Z 10006ee0 f i Aimbot.obj
 0001:00005ee0       ??0?$_Deque_unchecked_iterator@V?$_Deque_val@U?$_Deque_simple_types@VVector@@@std@@@std@@@std@@QAE@IPBU_Container_base12@1@@Z 10006ee0 f i Visuals.obj
 0001:00005f00       ??H?$_Deque_unchecked_iterator@V?$_Deque_val@U?$_Deque_simple_types@VVector@@@std@@@std@@@std@@QBE?AV01@H@Z 10006f00 f i Visuals.obj
 0001:00005f00       ??H?$_Deque_unchecked_iterator@V?$_Deque_val@U?$_Deque_simple_types@I@std@@@std@@@std@@QBE?AV01@H@Z 10006f00 f i Aimbot.obj
 0001:00005f60       ??8?$_Deque_unchecked_const_iterator@V?$_Deque_val@U?$_Deque_simple_types@I@std@@@std@@@std@@QBE_NABV01@@Z 10006f60 f i Aimbot.obj
 0001:00005f60       ??8?$_Deque_unchecked_const_iterator@V?$_Deque_val@U?$_Deque_simple_types@Umy_sound_t@@@std@@@std@@@std@@QBE_NABV01@@Z 10006f60 f i Visuals.obj
 0001:00005f60       ??8error_category@std@@QBE_NABV01@@Z 10006f60 f i Menu.obj
 0001:00005f90       ??E?$_Deque_unchecked_const_iterator@V?$_Deque_val@U?$_Deque_simple_types@Umy_sound_t@@@std@@@std@@@std@@QAEAAV01@XZ 10006f90 f i Visuals.obj
 0001:00005f90       ??E?$_Deque_unchecked_const_iterator@V?$_Deque_val@U?$_Deque_simple_types@I@std@@@std@@@std@@QAEAAV01@XZ 10006f90 f i Aimbot.obj
 0001:00005fb0       ??D?$_Deque_unchecked_const_iterator@V?$_Deque_val@U?$_Deque_simple_types@I@std@@@std@@@std@@QBEABIXZ 10006fb0 f i Aimbot.obj
 0001:00006000       ??0?$_Deque_unchecked_const_iterator@V?$_Deque_val@U?$_Deque_simple_types@Umy_sound_t@@@std@@@std@@@std@@QAE@IPBU_Container_base12@1@@Z 10007000 f i Visuals.obj
 0001:00006000       ??0?$_Deque_unchecked_const_iterator@V?$_Deque_val@U?$_Deque_simple_types@VVector@@@std@@@std@@@std@@QAE@IPBU_Container_base12@1@@Z 10007000 f i Visuals.obj
 0001:00006000       ??0?$_Deque_unchecked_const_iterator@V?$_Deque_val@U?$_Deque_simple_types@I@std@@@std@@@std@@QAE@IPBU_Container_base12@1@@Z 10007000 f i Aimbot.obj
 0001:00006030       ?_Mysize@?$deque@IV?$allocator@I@std@@@std@@AAEAAIXZ 10007030 f i Aimbot.obj
 0001:00006030       ?_Mysize@?$deque@Umy_sound_t@@V?$allocator@Umy_sound_t@@@std@@@std@@ABEABIXZ 10007030 f i Sounds.obj
 0001:00006030       ?_Mysize@?$deque@VVector@@V?$allocator@VVector@@@std@@@std@@AAEAAIXZ 10007030 f i Visuals.obj
 0001:00006030       ?_Mysize@?$deque@VVector@@V?$allocator@VVector@@@std@@@std@@ABEABIXZ 10007030 f i Visuals.obj
 0001:00006030       ?_Mysize@?$deque@IV?$allocator@I@std@@@std@@ABEABIXZ 10007030 f i Aimbot.obj
 0001:00006030       ?_Mysize@?$deque@Umy_sound_t@@V?$allocator@Umy_sound_t@@@std@@@std@@AAEAAIXZ 10007030 f i Sounds.obj
 0001:00006050       ?_Myoff@?$deque@VVector@@V?$allocator@VVector@@@std@@@std@@AAEAAIXZ 10007050 f i Visuals.obj
 0001:00006050       ?_Myoff@?$deque@IV?$allocator@I@std@@@std@@AAEAAIXZ 10007050 f i Aimbot.obj
 0001:00006050       ?_Myoff@?$deque@Umy_sound_t@@V?$allocator@Umy_sound_t@@@std@@@std@@AAEAAIXZ 10007050 f i Sounds.obj
 0001:00006070       ?_Mapsize@?$deque@IV?$allocator@I@std@@@std@@AAEAAIXZ 10007070 f i Aimbot.obj
 0001:00006070       ?_Mapsize@?$deque@Umy_sound_t@@V?$allocator@Umy_sound_t@@@std@@@std@@AAEAAIXZ 10007070 f i Sounds.obj
 0001:00006070       ?_Mapsize@?$deque@VVector@@V?$allocator@VVector@@@std@@@std@@AAEAAIXZ 10007070 f i Visuals.obj
 0001:00006090       ?_Map@?$deque@Umy_sound_t@@V?$allocator@Umy_sound_t@@@std@@@std@@AAEAAPAPAUmy_sound_t@@XZ 10007090 f i Sounds.obj
 0001:00006090       ?_Map@?$deque@IV?$allocator@I@std@@@std@@AAEAAPAPAIXZ 10007090 f i Aimbot.obj
 0001:00006090       ?_Map@?$deque@VVector@@V?$allocator@VVector@@@std@@@std@@AAEAAPAPAVVector@@XZ 10007090 f i Visuals.obj
 0001:000060b0       ?_Getal@?$deque@VVector@@V?$allocator@VVector@@@std@@@std@@AAEAAV?$allocator@VVector@@@2@XZ 100070b0 f i Visuals.obj
 0001:000060b0       ?_Getal@?$deque@VVector@@V?$allocator@VVector@@@std@@@std@@ABEABV?$allocator@VVector@@@2@XZ 100070b0 f i Visuals.obj
 0001:000060b0       ?_Getal@?$deque@Umy_sound_t@@V?$allocator@Umy_sound_t@@@std@@@std@@ABEABV?$allocator@Umy_sound_t@@@2@XZ 100070b0 f i Sounds.obj
 0001:000060b0       ?_Getal@?$_Tree@V?$_Tmap_traits@V?$basic_string@DU?$char_traits@D@std@@V?$allocator@D@2@@std@@V?$basic_config@Ujson_args@configor@@@configor@@U?$less@V?$basic_string@DU?$char_traits@D@std@@V?$allocator@D@2@@std@@@2@V?$allocator@U?$pair@$$CBV?$basic_string@DU?$char_traits@D@std@@V?$allocator@D@2@@std@@V?$basic_config@Ujson_args@configor@@@configor@@@std@@@2@$0A@@std@@@std@@IBEABV?$allocator@U?$_Tree_node@U?$pair@$$CBV?$basic_string@DU?$char_traits@D@std@@V?$allocator@D@2@@std@@V?$basic_config@Ujson_args@configor@@@configor@@@std@@PAX@std@@@2@XZ 100070b0 f i Pipi_edit.obj
 0001:000060b0       ?_Getal@?$basic_string@DU?$char_traits@D@std@@V?$allocator@D@2@@std@@ABEABV?$allocator@D@2@XZ 100070b0 f i Cvars.obj
 0001:000060b0       ?_Getal@?$_Tree@V?$_Tmap_traits@V?$basic_string@DU?$char_traits@D@std@@V?$allocator@D@2@@std@@V?$basic_config@Ujson_args@configor@@@configor@@U?$less@V?$basic_string@DU?$char_traits@D@std@@V?$allocator@D@2@@std@@@2@V?$allocator@U?$pair@$$CBV?$basic_string@DU?$char_traits@D@std@@V?$allocator@D@2@@std@@V?$basic_config@Ujson_args@configor@@@configor@@@std@@@2@$0A@@std@@@std@@IAEAAV?$allocator@U?$_Tree_node@U?$pair@$$CBV?$basic_string@DU?$char_traits@D@std@@V?$allocator@D@2@@std@@V?$basic_config@Ujson_args@configor@@@configor@@@std@@PAX@std@@@2@XZ 100070b0 f i Pipi_edit.obj
 0001:000060b0       ?_Getcomp@?$_Tree@V?$_Tmap_traits@V?$basic_string@DU?$char_traits@D@std@@V?$allocator@D@2@@std@@V?$basic_config@Ujson_args@configor@@@configor@@U?$less@V?$basic_string@DU?$char_traits@D@std@@V?$allocator@D@2@@std@@@2@V?$allocator@U?$pair@$$CBV?$basic_string@DU?$char_traits@D@std@@V?$allocator@D@2@@std@@V?$basic_config@Ujson_args@configor@@@configor@@@std@@@2@$0A@@std@@@std@@IBEABU?$less@V?$basic_string@DU?$char_traits@D@std@@V?$allocator@D@2@@std@@@2@XZ 100070b0 f i Pipi_edit.obj
 0001:000060b0       ?_Getal@?$deque@Umy_sound_t@@V?$allocator@Umy_sound_t@@@std@@@std@@AAEAAV?$allocator@Umy_sound_t@@@2@XZ 100070b0 f i Sounds.obj
 0001:000060b0       ?_Getal@?$deque@IV?$allocator@I@std@@@std@@AAEAAV?$allocator@I@2@XZ 100070b0 f i Aimbot.obj
 0001:000060b0       ?_Getal@?$basic_string@DU?$char_traits@D@std@@V?$allocator@D@2@@std@@AAEAAV?$allocator@D@2@XZ 100070b0 f i Cvars.obj
 0001:000060b0       ?_Getal@?$vector@V?$basic_config@Ujson_args@configor@@@configor@@V?$allocator@V?$basic_config@Ujson_args@configor@@@configor@@@std@@@std@@ABEABV?$allocator@V?$basic_config@Ujson_args@configor@@@configor@@@2@XZ 100070b0 f i Pipi_edit.obj
 0001:000060b0       ?_Getal@?$vector@V?$basic_config@Ujson_args@configor@@@configor@@V?$allocator@V?$basic_config@Ujson_args@configor@@@configor@@@std@@@std@@AAEAAV?$allocator@V?$basic_config@Ujson_args@configor@@@configor@@@2@XZ 100070b0 f i Pipi_edit.obj
 0001:000060b0       ?_Getal@?$deque@IV?$allocator@I@std@@@std@@ABEABV?$allocator@I@2@XZ 100070b0 f i Aimbot.obj
 0001:000060d0       ?_Orphan_all@?$deque@VVector@@V?$allocator@VVector@@@std@@@std@@AAEXXZ 100070d0 f i Visuals.obj
 0001:000060d0       ?_Orphan_all@?$deque@IV?$allocator@I@std@@@std@@AAEXXZ 100070d0 f i Aimbot.obj
 0001:000060d0       ?_Orphan_all@?$deque@Umy_sound_t@@V?$allocator@Umy_sound_t@@@std@@@std@@AAEXXZ 100070d0 f i Sounds.obj
 0001:000060f0       ?_Getblock@?$deque@IV?$allocator@I@std@@@std@@ABEII@Z 100070f0 f i Aimbot.obj
 0001:00006110       ?_Tidy@?$deque@IV?$allocator@I@std@@@std@@AAEXXZ 10007110 f i Aimbot.obj
 0001:00006240       ?_Growmap@?$deque@IV?$allocator@I@std@@@std@@AAEXI@Z 10007240 f i Aimbot.obj
 0001:000064a0       ?allocate@?$allocator@PAUmy_sound_t@@@std@@QAEPAPAUmy_sound_t@@I@Z 100074a0 f i Sounds.obj
 0001:000064a0       ?allocate@?$allocator@PAI@std@@QAEPAPAII@Z 100074a0 f i Aimbot.obj
 0001:000064a0       ?allocate@?$allocator@I@std@@QAEPAII@Z 100074a0 f i Aimbot.obj
 0001:000064a0       ?allocate@?$allocator@PAVVector@@@std@@QAEPAPAVVector@@I@Z 100074a0 f i Visuals.obj
 0001:000064d0       ??Y?$_Deque_unchecked_iterator@V?$_Deque_val@U?$_Deque_simple_types@I@std@@@std@@@std@@QAEAAV01@H@Z 100074d0 f i Aimbot.obj
 0001:000064d0       ??Y?$_Deque_unchecked_iterator@V?$_Deque_val@U?$_Deque_simple_types@VVector@@@std@@@std@@@std@@QAEAAV01@H@Z 100074d0 f i Visuals.obj
 0001:000064f0       ?_Xlen@?$deque@VVector@@V?$allocator@VVector@@@std@@@std@@ABEXXZ 100074f0 f i Visuals.obj
 0001:000064f0       ?_Xlen@?$deque@IV?$allocator@I@std@@@std@@ABEXXZ 100074f0 f i Aimbot.obj
 0001:000064f0       ?_Xlen@?$deque@Umy_sound_t@@V?$allocator@Umy_sound_t@@@std@@@std@@ABEXXZ 100074f0 f i Sounds.obj
 0001:00006510       ?pop_back@?$deque@IV?$allocator@I@std@@@std@@QAEXXZ 10007510 f i Aimbot.obj
 0001:000065f0       ?max_size@?$deque@IV?$allocator@I@std@@@std@@QBEIXZ 100075f0 f i Aimbot.obj
 0001:00006630       ?_Getblock@?$_Deque_val@U?$_Deque_simple_types@I@std@@@std@@QBEII@Z 10007630 f i Aimbot.obj
 0001:00006650       ?deallocate@?$allocator@I@std@@QAEXQAII@Z 10007650 f i Aimbot.obj
 0001:00006650       ?deallocate@?$allocator@PAUmy_sound_t@@@std@@QAEXQAPAUmy_sound_t@@I@Z 10007650 f i Sounds.obj
 0001:00006650       ?deallocate@?$allocator@PAVVector@@@std@@QAEXQAPAVVector@@I@Z 10007650 f i Visuals.obj
 0001:00006650       ?deallocate@?$allocator@PAI@std@@QAEXQAPAII@Z 10007650 f i Aimbot.obj
 0001:00006670       ??Y?$_Deque_unchecked_const_iterator@V?$_Deque_val@U?$_Deque_simple_types@I@std@@@std@@@std@@QAEAAV01@H@Z 10007670 f i Aimbot.obj
 0001:00006670       ??Y?$_Deque_unchecked_const_iterator@V?$_Deque_val@U?$_Deque_simple_types@VVector@@@std@@@std@@@std@@QAEAAV01@H@Z 10007670 f i Visuals.obj
 0001:00006690       ?max_size@?$_Default_allocator_traits@V?$allocator@I@std@@@std@@SAIABV?$allocator@I@2@@Z 10007690 f i Aimbot.obj
 0001:000066a0       ??$isnan@M@@YA_NM@Z        100076a0 f i Aimbot.obj
 0001:000066e0       ??$_Emplace_back_internal@I@?$deque@IV?$allocator@I@std@@@std@@AAEX$$QAI@Z 100076e0 f i Aimbot.obj
 0001:000066e0       ??$_Emplace_back_internal@ABI@?$deque@IV?$allocator@I@std@@@std@@AAEXABI@Z 100076e0 f i Aimbot.obj
 0001:00006830       ??$forward@U_One_then_variadic_args_t@std@@@std@@YA$$QAU_One_then_variadic_args_t@0@AAU10@@Z 10007830 f i Pipi_edit.obj
 0001:00006830       ??$addressof@PAUmy_sound_t@@@std@@YAPAPAUmy_sound_t@@AAPAU1@@Z 10007830 f i Sounds.obj
 0001:00006830       ??$addressof@U?$pair@$$CBV?$basic_string@DU?$char_traits@D@std@@V?$allocator@D@2@@std@@V?$basic_config@Ujson_args@configor@@@configor@@@std@@@std@@YAPAU?$pair@$$CBV?$basic_string@DU?$char_traits@D@std@@V?$allocator@D@2@@std@@V?$basic_config@Ujson_args@configor@@@configor@@@0@AAU10@@Z 10007830 f i Pipi_edit.obj
 0001:00006830       ??$move@AAI@std@@YA$$QAIAAI@Z 10007830 f i Aimbot.obj
 0001:00006830       ??$forward@AAV?$basic_config@Ujson_args@configor@@@configor@@@std@@YAAAV?$basic_config@Ujson_args@configor@@@configor@@AAV12@@Z 10007830 f i Pipi_edit.obj
 0001:00006830       ??$forward@PAPAUmy_sound_t@@@std@@YA$$QAPAPAUmy_sound_t@@AAPAPAU1@@Z 10007830 f i Sounds.obj
 0001:00006830       ??$move@AAV?$basic_string@DU?$char_traits@D@std@@V?$allocator@D@2@@std@@@std@@YA$$QAV?$basic_string@DU?$char_traits@D@std@@V?$allocator@D@2@@0@AAV10@@Z 10007830 f i Pipi_edit.obj
 0001:00006830       ??$move@AAU?$config_value@V?$basic_config@Ujson_args@configor@@@configor@@@detail@configor@@@std@@YA$$QAU?$config_value@V?$basic_config@Ujson_args@configor@@@configor@@@detail@configor@@AAU123@@Z 10007830 f i Pipi_edit.obj
 0001:00006830       ??$forward@ABU?$less@V?$basic_string@DU?$char_traits@D@std@@V?$allocator@D@2@@std@@@std@@@std@@YAABU?$less@V?$basic_string@DU?$char_traits@D@std@@V?$allocator@D@2@@std@@@0@ABU10@@Z 10007830 f i Pipi_edit.obj
 0001:00006830       ??$move@AAT<unnamed-type-data>@?$config_value@V?$basic_config@Ujson_args@configor@@@configor@@@detail@configor@@@std@@YA$$QAT<unnamed-type-data>@?$config_value@V?$basic_config@Ujson_args@configor@@@configor@@@detail@configor@@AAT1234@@Z 10007830 f i Pipi_edit.obj
 0001:00006830       ??$addressof@PAD@std@@YAPAPADAAPAD@Z 10007830 f i Cvars.obj
 0001:00006830       ??$forward@AAPAUmy_sound_t@@@std@@YAAAPAUmy_sound_t@@AAPAU1@@Z 10007830 f i Sounds.obj
 0001:00006830       ??$_Voidify_iter@PAV?$basic_config@Ujson_args@configor@@@configor@@@std@@YAPAXPAV?$basic_config@Ujson_args@configor@@@configor@@@Z 10007830 f i Pipi_edit.obj
 0001:00006830       ??$_Voidify_iter@PAPAUmy_sound_t@@@std@@YAPAXPAPAUmy_sound_t@@@Z 10007830 f i Sounds.obj
 0001:00006830       ??$addressof@$$CBV?$_Tree_val@U?$_Tree_simple_types@U?$pair@$$CBV?$basic_string@DU?$char_traits@D@std@@V?$allocator@D@2@@std@@V?$basic_config@Ujson_args@configor@@@configor@@@std@@@std@@@std@@@std@@YAPBV?$_Tree_val@U?$_Tree_simple_types@U?$pair@$$CBV?$basic_string@DU?$char_traits@D@std@@V?$allocator@D@2@@std@@V?$basic_config@Ujson_args@configor@@@configor@@@std@@@std@@@0@ABV10@@Z 10007830 f i Pipi_edit.obj
 0001:00006830       ??$forward@AAPAD@std@@YAAAPADAAPAD@Z 10007830 f i Menu.obj
 0001:00006830       ??$forward@AB_N@std@@YAAB_NAB_N@Z 10007830 f i Pipi_edit.obj
 0001:00006830       ??$addressof@U_Container_proxy@std@@@std@@YAPAU_Container_proxy@0@AAU10@@Z 10007830 f i Aimbot.obj
 0001:00006830       ??$_Voidify_iter@PAVVector@@@std@@YAPAXPAVVector@@@Z 10007830 f i Visuals.obj
 0001:00006830       ??$addressof@V?$_Deque_val@U?$_Deque_simple_types@Umy_sound_t@@@std@@@std@@@std@@YAPAV?$_Deque_val@U?$_Deque_simple_types@Umy_sound_t@@@std@@@0@AAV10@@Z 10007830 f i Visuals.obj
 0001:00006830       ??$forward@V?$basic_string@DU?$char_traits@D@std@@V?$allocator@D@2@@std@@@std@@YA$$QAV?$basic_string@DU?$char_traits@D@std@@V?$allocator@D@2@@0@AAV10@@Z 10007830 f i Pipi_edit.obj
 0001:00006830       ??$_Voidify_iter@PAI@std@@YAPAXPAI@Z 10007830 f i Aimbot.obj
 0001:00006830       ??$addressof@V?$_Tree_val@U?$_Tree_simple_types@U?$pair@$$CBV?$basic_string@DU?$char_traits@D@std@@V?$allocator@D@2@@std@@V?$basic_config@Ujson_args@configor@@@configor@@@std@@@std@@@std@@@std@@YAPAV?$_Tree_val@U?$_Tree_simple_types@U?$pair@$$CBV?$basic_string@DU?$char_traits@D@std@@V?$allocator@D@2@@std@@V?$basic_config@Ujson_args@configor@@@configor@@@std@@@std@@@0@AAV10@@Z 10007830 f i Pipi_edit.obj
 0001:00006830       ??$_Unfancy@I@std@@YAPAIPAI@Z 10007830 f i Aimbot.obj
 0001:00006830       ??$forward@U_Zero_then_variadic_args_t@std@@@std@@YA$$QAU_Zero_then_variadic_args_t@0@AAU10@@Z 10007830 f i Pipi_edit.obj
 0001:00006830       ??$_Voidify_iter@PAPAD@std@@YAPAXPAPAD@Z 10007830 f i Cvars.obj
 0001:00006830       ??$forward@AAPAU?$_Tree_node@U?$pair@$$CBV?$basic_string@DU?$char_traits@D@std@@V?$allocator@D@2@@std@@V?$basic_config@Ujson_args@configor@@@configor@@@std@@PAX@std@@@std@@YAAAPAU?$_Tree_node@U?$pair@$$CBV?$basic_string@DU?$char_traits@D@std@@V?$allocator@D@2@@std@@V?$basic_config@Ujson_args@configor@@@configor@@@std@@PAX@0@AAPAU10@@Z 10007830 f i Pipi_edit.obj
 0001:00006830       ??$forward@AAY04$$CBD@std@@YAAAY04$$CBDAAY04$$CBD@Z 10007830 f i Pipi_edit.obj
 0001:00006830       ??$forward@V?$allocator@D@std@@@std@@YA$$QAV?$allocator@D@0@AAV10@@Z 10007830 f i Menu.obj
 0001:00006830       ??$forward@AAV?$map@V?$basic_string@DU?$char_traits@D@std@@V?$allocator@D@2@@std@@V?$basic_config@Ujson_args@configor@@@configor@@U?$less@V?$basic_string@DU?$char_traits@D@std@@V?$allocator@D@2@@std@@@2@V?$allocator@U?$pair@$$CBV?$basic_string@DU?$char_traits@D@std@@V?$allocator@D@2@@std@@V?$basic_config@Ujson_args@configor@@@configor@@@std@@@2@@std@@@std@@YAAAV?$map@V?$basic_string@DU?$char_traits@D@std@@V?$allocator@D@2@@std@@V?$basic_config@Ujson_args@configor@@@configor@@U?$less@V?$basic_string@DU?$char_traits@D@std@@V?$allocator@D@2@@std@@@2@V?$allocator@U?$pair@$$CBV?$basic_string@DU?$char_traits@D@std@@V?$allocator@D@2@@std@@V?$basic_config@Ujson_args@configor@@@configor@@@std@@@2@@0@AAV10@@Z 10007830 f i Pipi_edit.obj
 0001:00006830       ??$forward@PAPAI@std@@YA$$QAPAPAIAAPAPAI@Z 10007830 f i Aimbot.obj
 0001:00006830       ??$forward@ABUmy_sound_t@@@std@@YAABUmy_sound_t@@ABU1@@Z 10007830 f i Sounds.obj
 0001:00006830       ??$forward@V?$allocator@U?$_Tree_node@U?$pair@$$CBV?$basic_string@DU?$char_traits@D@std@@V?$allocator@D@2@@std@@V?$basic_config@Ujson_args@configor@@@configor@@@std@@PAX@std@@@std@@@std@@YA$$QAV?$allocator@U?$_Tree_node@U?$pair@$$CBV?$basic_string@DU?$char_traits@D@std@@V?$allocator@D@2@@std@@V?$basic_config@Ujson_args@configor@@@configor@@@std@@PAX@std@@@0@AAV10@@Z 10007830 f i Pipi_edit.obj
 0001:00006830       ??$_Unfancy@V?$basic_config@Ujson_args@configor@@@configor@@@std@@YAPAV?$basic_config@Ujson_args@configor@@@configor@@PAV12@@Z 10007830 f i Pipi_edit.obj
 0001:00006830       ??$forward@ABV?$basic_config@Ujson_args@configor@@@configor@@@std@@YAABV?$basic_config@Ujson_args@configor@@@configor@@ABV12@@Z 10007830 f i Pipi_edit.obj
 0001:00006830       ??$addressof@V?$_Deque_val@U?$_Deque_simple_types@I@std@@@std@@@std@@YAPAV?$_Deque_val@U?$_Deque_simple_types@I@std@@@0@AAV10@@Z 10007830 f i Aimbot.obj
 0001:00006830       ??$_Voidify_iter@PAU?$pair@$$CBV?$basic_string@DU?$char_traits@D@std@@V?$allocator@D@2@@std@@V?$basic_config@Ujson_args@configor@@@configor@@@std@@@std@@YAPAXPAU?$pair@$$CBV?$basic_string@DU?$char_traits@D@std@@V?$allocator@D@2@@std@@V?$basic_config@Ujson_args@configor@@@configor@@@0@@Z 10007830 f i Pipi_edit.obj
 0001:00006830       ??$forward@ABQAU?$_Tree_node@U?$pair@$$CBV?$basic_string@DU?$char_traits@D@std@@V?$allocator@D@2@@std@@V?$basic_config@Ujson_args@configor@@@configor@@@std@@PAX@std@@@std@@YAABQAU?$_Tree_node@U?$pair@$$CBV?$basic_string@DU?$char_traits@D@std@@V?$allocator@D@2@@std@@V?$basic_config@Ujson_args@configor@@@configor@@@std@@PAX@0@ABQAU10@@Z 10007830 f i Pipi_edit.obj
 0001:00006830       ??$_Unfancy@U_Container_proxy@std@@@std@@YAPAU_Container_proxy@0@PAU10@@Z 10007830 f i Aimbot.obj
 0001:00006830       ?select_on_container_copy_construction@?$_Default_allocator_traits@V?$allocator@D@std@@@std@@SA?AV?$allocator@D@2@ABV32@@Z 10007830 f i Menu.obj
 0001:00006830       ??$forward@AAPAI@std@@YAAAPAIAAPAI@Z 10007830 f i Aimbot.obj
 0001:00006830       ??$move@AAH@std@@YA$$QAHAAH@Z 10007830 f i Drawing.obj
 0001:00006830       ??$addressof@$$CBU?$pair@$$CBV?$basic_string@DU?$char_traits@D@std@@V?$allocator@D@2@@std@@V?$basic_config@Ujson_args@configor@@@configor@@@std@@@std@@YAPBU?$pair@$$CBV?$basic_string@DU?$char_traits@D@std@@V?$allocator@D@2@@std@@V?$basic_config@Ujson_args@configor@@@configor@@@0@ABU10@@Z 10007830 f i Pipi_edit.obj
 0001:00006830       ??$addressof@$$CBV?$_String_val@U?$_Simple_types@D@std@@@std@@@std@@YAPBV?$_String_val@U?$_Simple_types@D@std@@@0@ABV10@@Z 10007830 f i Menu.obj
 0001:00006830       ??$_Unfancy@VVector@@@std@@YAPAVVector@@PAV1@@Z 10007830 f i Visuals.obj
 0001:00006830       ??$_Get_unwrapped@AAV?$istreambuf_iterator@DU?$char_traits@D@std@@@std@@@std@@YA?A_TAAV?$istreambuf_iterator@DU?$char_traits@D@std@@@0@@Z 10007830 f i World.obj
 0001:00006830       ??$forward@AAY07$$CBD@std@@YAAAY07$$CBDAAY07$$CBD@Z 10007830 f i Pipi_edit.obj
 0001:00006830       ??$_Voidify_iter@PAPAI@std@@YAPAXPAPAI@Z 10007830 f i Aimbot.obj
 0001:00006830       ??$forward@U?$less@V?$basic_string@DU?$char_traits@D@std@@V?$allocator@D@2@@std@@@std@@@std@@YA$$QAU?$less@V?$basic_string@DU?$char_traits@D@std@@V?$allocator@D@2@@std@@@0@AAU10@@Z 10007830 f i Pipi_edit.obj
 0001:00006830       ??$forward@AAPAV_Facet_base@std@@@std@@YAAAPAV_Facet_base@0@AAPAV10@@Z 10007830 f i World.obj
 0001:00006830       ??$_Voidify_iter@PAPAU?$_Tree_node@U?$pair@$$CBV?$basic_string@DU?$char_traits@D@std@@V?$allocator@D@2@@std@@V?$basic_config@Ujson_args@configor@@@configor@@@std@@PAX@std@@@std@@YAPAXPAPAU?$_Tree_node@U?$pair@$$CBV?$basic_string@DU?$char_traits@D@std@@V?$allocator@D@2@@std@@V?$basic_config@Ujson_args@configor@@@configor@@@std@@PAX@0@@Z 10007830 f i Pipi_edit.obj
 0001:00006830       ??$forward@V?$_Tree_iterator@V?$_Tree_val@U?$_Tree_simple_types@U?$pair@$$CBV?$basic_string@DU?$char_traits@D@std@@V?$allocator@D@2@@std@@V?$basic_config@Ujson_args@configor@@@configor@@@std@@@std@@@std@@@std@@@std@@YA$$QAV?$_Tree_iterator@V?$_Tree_val@U?$_Tree_simple_types@U?$pair@$$CBV?$basic_string@DU?$char_traits@D@std@@V?$allocator@D@2@@std@@V?$basic_config@Ujson_args@configor@@@configor@@@std@@@std@@@std@@@0@AAV10@@Z 10007830 f i Pipi_edit.obj
 0001:00006830       ??$addressof@V?$_String_val@U?$_Simple_types@D@std@@@std@@@std@@YAPAV?$_String_val@U?$_Simple_types@D@std@@@0@AAV10@@Z 10007830 f i Menu.obj
 0001:00006830       ??$_Unfancy@Umy_sound_t@@@std@@YAPAUmy_sound_t@@PAU1@@Z 10007830 f i Sounds.obj
 0001:00006830       ??$addressof@$$CBV?$codecvt@DDU_Mbstatet@@@std@@@std@@YAPBV?$codecvt@DDU_Mbstatet@@@0@ABV10@@Z 10007830 f i World.obj
 0001:00006830       ??$forward@AAV?$vector@V?$basic_config@Ujson_args@configor@@@configor@@V?$allocator@V?$basic_config@Ujson_args@configor@@@configor@@@std@@@std@@@std@@YAAAV?$vector@V?$basic_config@Ujson_args@configor@@@configor@@V?$allocator@V?$basic_config@Ujson_args@configor@@@configor@@@std@@@0@AAV10@@Z 10007830 f i Pipi_edit.obj
 0001:00006830       ??$_Voidify_iter@PAUmy_sound_t@@@std@@YAPAXPAUmy_sound_t@@@Z 10007830 f i Sounds.obj
 0001:00006830       ??$forward@_N@std@@YA$$QA_NAA_N@Z 10007830 f i Pipi_edit.obj
 0001:00006830       ??$forward@AAH@std@@YAAAHAAH@Z 10007830 f i Pipi_edit.obj
 0001:00006830       ??$addressof@PAVVector@@@std@@YAPAPAVVector@@AAPAV1@@Z 10007830 f i Visuals.obj
 0001:00006830       ??$forward@AAPAVVector@@@std@@YAAAPAVVector@@AAPAV1@@Z 10007830 f i Visuals.obj
 0001:00006830       ??$_Voidify_iter@PAV?$map@V?$basic_string@DU?$char_traits@D@std@@V?$allocator@D@2@@std@@V?$basic_config@Ujson_args@configor@@@configor@@U?$less@V?$basic_string@DU?$char_traits@D@std@@V?$allocator@D@2@@std@@@2@V?$allocator@U?$pair@$$CBV?$basic_string@DU?$char_traits@D@std@@V?$allocator@D@2@@std@@V?$basic_config@Ujson_args@configor@@@configor@@@std@@@2@@std@@@std@@YAPAXPAV?$map@V?$basic_string@DU?$char_traits@D@std@@V?$allocator@D@2@@std@@V?$basic_config@Ujson_args@configor@@@configor@@U?$less@V?$basic_string@DU?$char_traits@D@std@@V?$allocator@D@2@@std@@@2@V?$allocator@U?$pair@$$CBV?$basic_string@DU?$char_traits@D@std@@V?$allocator@D@2@@std@@V?$basic_config@Ujson_args@configor@@@configor@@@std@@@2@@0@@Z 10007830 f i Pipi_edit.obj
 0001:00006830       ??$forward@AAV?$basic_string@DU?$char_traits@D@std@@V?$allocator@D@2@@std@@@std@@YAAAV?$basic_string@DU?$char_traits@D@std@@V?$allocator@D@2@@0@AAV10@@Z 10007830 f i Pipi_edit.obj
 0001:00006830       ??$_Voidify_iter@PAPAVVector@@@std@@YAPAXPAPAVVector@@@Z 10007830 f i Visuals.obj
 0001:00006830       ??$addressof@V?$basic_filebuf@DU?$char_traits@D@std@@@std@@@std@@YAPAV?$basic_filebuf@DU?$char_traits@D@std@@@0@AAV10@@Z 10007830 f i World.obj
 0001:00006830       ??$move@AAW4config_value_type@configor@@@std@@YA$$QAW4config_value_type@configor@@AAW412@@Z 10007830 f i Pipi_edit.obj
 0001:00006830       ??$forward@PAU?$_Tree_node@U?$pair@$$CBV?$basic_string@DU?$char_traits@D@std@@V?$allocator@D@2@@std@@V?$basic_config@Ujson_args@configor@@@configor@@@std@@PAX@std@@@std@@YA$$QAPAU?$_Tree_node@U?$pair@$$CBV?$basic_string@DU?$char_traits@D@std@@V?$allocator@D@2@@std@@V?$basic_config@Ujson_args@configor@@@configor@@@std@@PAX@0@AAPAU10@@Z 10007830 f i Pipi_edit.obj
 0001:00006830       ?select_on_container_copy_construction@?$_Default_allocator_traits@V?$allocator@U?$_Tree_node@U?$pair@$$CBV?$basic_string@DU?$char_traits@D@std@@V?$allocator@D@2@@std@@V?$basic_config@Ujson_args@configor@@@configor@@@std@@PAX@std@@@std@@@std@@SA?AV?$allocator@U?$_Tree_node@U?$pair@$$CBV?$basic_string@DU?$char_traits@D@std@@V?$allocator@D@2@@std@@V?$basic_config@Ujson_args@configor@@@configor@@@std@@PAX@std@@@2@ABV32@@Z 10007830 f i Pipi_edit.obj
 0001:00006830       ?_Extract@?$_In_place_key_extract_map@V?$basic_string@DU?$char_traits@D@std@@V?$allocator@D@2@@std@@V12@V?$basic_config@Ujson_args@configor@@@configor@@@std@@SAABV?$basic_string@DU?$char_traits@D@std@@V?$allocator@D@2@@2@ABV32@ABV?$basic_config@Ujson_args@configor@@@configor@@@Z 10007830 f i Pipi_edit.obj
 0001:00006830       ??$forward@ABV?$basic_string@DU?$char_traits@D@std@@V?$allocator@D@2@@std@@@std@@YAABV?$basic_string@DU?$char_traits@D@std@@V?$allocator@D@2@@0@ABV10@@Z 10007830 f i Pipi_edit.obj
 0001:00006830       ??$addressof@PAU?$_Tree_node@U?$pair@$$CBV?$basic_string@DU?$char_traits@D@std@@V?$allocator@D@2@@std@@V?$basic_config@Ujson_args@configor@@@configor@@@std@@PAX@std@@@std@@YAPAPAU?$_Tree_node@U?$pair@$$CBV?$basic_string@DU?$char_traits@D@std@@V?$allocator@D@2@@std@@V?$basic_config@Ujson_args@configor@@@configor@@@std@@PAX@0@AAPAU10@@Z 10007830 f i Pipi_edit.obj
 0001:00006830       ??$forward@AAU?$pair@$$CBV?$basic_string@DU?$char_traits@D@std@@V?$allocator@D@2@@std@@V?$basic_config@Ujson_args@configor@@@configor@@@std@@@std@@YAAAU?$pair@$$CBV?$basic_string@DU?$char_traits@D@std@@V?$allocator@D@2@@std@@V?$basic_config@Ujson_args@configor@@@configor@@@0@AAU10@@Z 10007830 f i Pipi_edit.obj
 0001:00006830       ??$forward@ABV?$allocator@D@std@@@std@@YAABV?$allocator@D@0@ABV10@@Z 10007830 f i World.obj
 0001:00006830       ??$_Voidify_iter@PAV?$basic_string@DU?$char_traits@D@std@@V?$allocator@D@2@@std@@@std@@YAPAXPAV?$basic_string@DU?$char_traits@D@std@@V?$allocator@D@2@@0@@Z 10007830 f i Pipi_edit.obj
 0001:00006830       ??$forward@ABQAD@std@@YAABQADABQAD@Z 10007830 f i Cvars.obj
 0001:00006830       ??$addressof@V?$_Deque_val@U?$_Deque_simple_types@VVector@@@std@@@std@@@std@@YAPAV?$_Deque_val@U?$_Deque_simple_types@VVector@@@std@@@0@AAV10@@Z 10007830 f i Visuals.obj
 0001:00006830       ??$_Voidify_iter@PAU_Container_proxy@std@@@std@@YAPAXPAU_Container_proxy@0@@Z 10007830 f i Aimbot.obj
 0001:00006830       ??$_Voidify_iter@PAV?$vector@V?$basic_config@Ujson_args@configor@@@configor@@V?$allocator@V?$basic_config@Ujson_args@configor@@@configor@@@std@@@std@@@std@@YAPAXPAV?$vector@V?$basic_config@Ujson_args@configor@@@configor@@V?$allocator@V?$basic_config@Ujson_args@configor@@@configor@@@std@@@0@@Z 10007830 f i Pipi_edit.obj
 0001:00006830       ??$_Kfn@$$CBV?$basic_string@DU?$char_traits@D@std@@V?$allocator@D@2@@std@@V?$basic_config@Ujson_args@configor@@@configor@@@?$_Tmap_traits@V?$basic_string@DU?$char_traits@D@std@@V?$allocator@D@2@@std@@V?$basic_config@Ujson_args@configor@@@configor@@U?$less@V?$basic_string@DU?$char_traits@D@std@@V?$allocator@D@2@@std@@@2@V?$allocator@U?$pair@$$CBV?$basic_string@DU?$char_traits@D@std@@V?$allocator@D@2@@std@@V?$basic_config@Ujson_args@configor@@@configor@@@std@@@2@$0A@@std@@SAABV?$basic_string@DU?$char_traits@D@std@@V?$allocator@D@2@@1@ABU?$pair@$$CBV?$basic_string@DU?$char_traits@D@std@@V?$allocator@D@2@@std@@V?$basic_config@Ujson_args@configor@@@configor@@@1@@Z 10007830 f i Pipi_edit.obj
 0001:00006830       ??$_Unfancy@D@std@@YAPADPAD@Z 10007830 f i Cvars.obj
 0001:00006830       ??$_Convert_size@I@std@@YAII@Z 10007830 f i Cvars.obj
 0001:00006830       ??$move@AAV?$allocator@D@std@@@std@@YA$$QAV?$allocator@D@0@AAV10@@Z 10007830 f i Menu.obj
 0001:00006830       ??$addressof@PAI@std@@YAPAPAIAAPAI@Z 10007830 f i Aimbot.obj
 0001:00006830       ??$forward@ABI@std@@YAABIABI@Z 10007830 f i Aimbot.obj
 0001:00006830       ??$forward@V?$allocator@V?$basic_config@Ujson_args@configor@@@configor@@@std@@@std@@YA$$QAV?$allocator@V?$basic_config@Ujson_args@configor@@@configor@@@0@AAV10@@Z 10007830 f i Pipi_edit.obj
 0001:00006830       ??$forward@I@std@@YA$$QAIAAI@Z 10007830 f i Aimbot.obj
 0001:00006830       ??$forward@PAU_Container_base12@std@@@std@@YA$$QAPAU_Container_base12@0@AAPAU10@@Z 10007830 f i Aimbot.obj
 0001:00006830       ??$forward@ABVVector@@@std@@YAABVVector@@ABV1@@Z 10007830 f i Visuals.obj
 0001:00006830       ??$forward@PAPAVVector@@@std@@YA$$QAPAPAVVector@@AAPAPAV1@@Z 10007830 f i Visuals.obj
 0001:00006830       ??$addressof@V?$basic_string@DU?$char_traits@D@std@@V?$allocator@D@2@@std@@@std@@YAPAV?$basic_string@DU?$char_traits@D@std@@V?$allocator@D@2@@0@AAV10@@Z 10007830 f i Pipi_edit.obj
 0001:00006830       ??$move@AAV?$basic_config@Ujson_args@configor@@@configor@@@std@@YA$$QAV?$basic_config@Ujson_args@configor@@@configor@@AAV12@@Z 10007830 f i Pipi_edit.obj
 0001:00006830       ?select_on_container_copy_construction@?$_Default_allocator_traits@V?$allocator@V?$basic_config@Ujson_args@configor@@@configor@@@std@@@std@@SA?AV?$allocator@V?$basic_config@Ujson_args@configor@@@configor@@@2@ABV32@@Z 10007830 f i Pipi_edit.obj
 0001:00006830       ??$forward@V?$basic_config@Ujson_args@configor@@@configor@@@std@@YA$$QAV?$basic_config@Ujson_args@configor@@@configor@@AAV12@@Z 10007830 f i Pipi_edit.obj
 0001:00006840       ??$construct@IABI@?$_Default_allocator_traits@V?$allocator@I@std@@@std@@SAXAAV?$allocator@I@1@QAIABI@Z 10007840 f i Aimbot.obj
 0001:00006840       ??$construct@II@?$_Default_allocator_traits@V?$allocator@I@std@@@std@@SAXAAV?$allocator@I@1@QAI$$QAI@Z 10007840 f i Aimbot.obj
 0001:00006880       ??$?0I@?$allocator@PAI@std@@QAE@ABV?$allocator@I@1@@Z 10007880 f i Aimbot.obj
 0001:00006880       ??$?0VVector@@@?$allocator@U_Container_proxy@std@@@std@@QAE@ABV?$allocator@VVector@@@1@@Z 10007880 f i Visuals.obj
 0001:00006880       ??$?0VVector@@@?$allocator@PAVVector@@@std@@QAE@ABV?$allocator@VVector@@@1@@Z 10007880 f i Visuals.obj
 0001:00006880       ??$?0Umy_sound_t@@@?$allocator@PAUmy_sound_t@@@std@@QAE@ABV?$allocator@Umy_sound_t@@@1@@Z 10007880 f i Sounds.obj
 0001:00006880       ??$?0I@?$allocator@U_Container_proxy@std@@@std@@QAE@ABV?$allocator@I@1@@Z 10007880 f i Aimbot.obj
 0001:00006880       ??$?0Umy_sound_t@@@?$allocator@U_Container_proxy@std@@@std@@QAE@ABV?$allocator@Umy_sound_t@@@1@@Z 10007880 f i Sounds.obj
 0001:00006890       ??$exchange@PAV_Facet_base@std@@$$T@std@@YAPAV_Facet_base@0@AAPAV10@$$QA$$T@Z 10007890 f i World.obj
 0001:00006890       ??$exchange@PAU?$_Tree_node@U?$pair@$$CBV?$basic_string@DU?$char_traits@D@std@@V?$allocator@D@2@@std@@V?$basic_config@Ujson_args@configor@@@configor@@@std@@PAX@std@@$$T@std@@YAPAU?$_Tree_node@U?$pair@$$CBV?$basic_string@DU?$char_traits@D@std@@V?$allocator@D@2@@std@@V?$basic_config@Ujson_args@configor@@@configor@@@std@@PAX@0@AAPAU10@$$QA$$T@Z 10007890 f i Pipi_edit.obj
 0001:00006890       ??$exchange@PAU?$_Tree_node@U?$pair@$$CBV?$basic_string@DU?$char_traits@D@std@@V?$allocator@D@2@@std@@V?$basic_config@Ujson_args@configor@@@configor@@@std@@PAX@std@@AAPAU12@@std@@YAPAU?$_Tree_node@U?$pair@$$CBV?$basic_string@DU?$char_traits@D@std@@V?$allocator@D@2@@std@@V?$basic_config@Ujson_args@configor@@@configor@@@std@@PAX@0@AAPAU10@0@Z 10007890 f i Pipi_edit.obj
 0001:00006890       ??$exchange@PAU_Container_proxy@std@@$$T@std@@YAPAU_Container_proxy@0@AAPAU10@$$QA$$T@Z 10007890 f i Aimbot.obj
 0001:000068b0       ??$_Delete_plain_internal@V?$allocator@U_Container_proxy@std@@@std@@@std@@YAXAAV?$allocator@U_Container_proxy@std@@@0@QAU_Container_proxy@0@@Z 100078b0 f i Aimbot.obj
 0001:000068d0       ??$?0$$V@?$_Compressed_pair@V?$allocator@I@std@@V?$_Deque_val@U?$_Deque_simple_types@I@std@@@2@$00@std@@QAE@U_Zero_then_variadic_args_t@1@@Z 100078d0 f i Aimbot.obj
 0001:000068d0       ??$?0$$V@?$_Compressed_pair@V?$allocator@Umy_sound_t@@@std@@V?$_Deque_val@U?$_Deque_simple_types@Umy_sound_t@@@std@@@2@$00@std@@QAE@U_Zero_then_variadic_args_t@1@@Z 100078d0 f i Sounds.obj
 0001:000068d0       ??$?0$$V@?$_Compressed_pair@V?$allocator@VVector@@@std@@V?$_Deque_val@U?$_Deque_simple_types@VVector@@@std@@@2@$00@std@@QAE@U_Zero_then_variadic_args_t@1@@Z 100078d0 f i Visuals.obj
 0001:000068f0       ??$_Alloc_proxy@V?$allocator@U_Container_proxy@std@@@std@@@_Container_base12@std@@QAEX$$QAV?$allocator@U_Container_proxy@std@@@1@@Z 100078f0 f i Aimbot.obj
 0001:00006940       ??$_Adl_verify_range@PBDPBD@std@@YAXABQBD0@Z 10007940 f i World.obj
 0001:00006940       ??$_Adl_verify_range@PAPAUmy_sound_t@@PAPAU1@@std@@YAXABQAPAUmy_sound_t@@0@Z 10007940 f i Sounds.obj
 0001:00006940       ??$_Destroy_range@PAPAUmy_sound_t@@PAPAU1@@std@@YAXPAPAUmy_sound_t@@QAPAU1@@Z 10007940 f i Sounds.obj
 0001:00006940       ??$_Destroy_in_place@PAVVector@@@std@@YAXAAPAVVector@@@Z 10007940 f i Visuals.obj
 0001:00006940       ??$_Destroy_in_place@PAI@std@@YAXAAPAI@Z 10007940 f i Aimbot.obj
 0001:00006940       ??$_Adl_verify_range@V?$istreambuf_iterator@DU?$char_traits@D@std@@@std@@V12@@std@@YAXABV?$istreambuf_iterator@DU?$char_traits@D@std@@@0@0@Z 10007940 f i World.obj
 0001:00006940       ??$_Adl_verify_range@PAPAVVector@@PAPAV1@@std@@YAXABQAPAVVector@@0@Z 10007940 f i Visuals.obj
 0001:00006940       ??$_Destroy_in_place@PAD@std@@YAXAAPAD@Z 10007940 f i Cvars.obj
 0001:00006940       ??$_Adl_verify_range@PAPAIPAPAI@std@@YAXABQAPAI0@Z 10007940 f i Aimbot.obj
 0001:00006940       ??$_Destroy_range@PAPAIPAPAI@std@@YAXPAPAIQAPAI@Z 10007940 f i Aimbot.obj
 0001:00006940       ??$_Adl_verify_range@PADPBD@std@@YAXABQADABQBD@Z 10007940 f i World.obj
 0001:00006940       ??$_Destroy_in_place@PAU?$_Tree_node@U?$pair@$$CBV?$basic_string@DU?$char_traits@D@std@@V?$allocator@D@2@@std@@V?$basic_config@Ujson_args@configor@@@configor@@@std@@PAX@std@@@std@@YAXAAPAU?$_Tree_node@U?$pair@$$CBV?$basic_string@DU?$char_traits@D@std@@V?$allocator@D@2@@std@@V?$basic_config@Ujson_args@configor@@@configor@@@std@@PAX@0@@Z 10007940 f i Pipi_edit.obj
 0001:00006940       ??$destroy@I@?$_Default_allocator_traits@V?$allocator@I@std@@@std@@SAXAAV?$allocator@I@1@QAI@Z 10007940 f i Aimbot.obj
 0001:00006940       ??$_Destroy_range@PAPAVVector@@PAPAV1@@std@@YAXPAPAVVector@@QAPAV1@@Z 10007940 f i Visuals.obj
 0001:00006940       ??$_Adl_verify_range@PBV?$basic_config@Ujson_args@configor@@@configor@@PBV12@@std@@YAXABQBV?$basic_config@Ujson_args@configor@@@configor@@0@Z 10007940 f i Pipi_edit.obj
 0001:00006940       ??$_Destroy_in_place@PAUmy_sound_t@@@std@@YAXAAPAUmy_sound_t@@@Z 10007940 f i Sounds.obj
 0001:00006950       ??$uninitialized_copy@PAPAUmy_sound_t@@PAPAU1@@std@@YAPAPAUmy_sound_t@@QAPAU1@0PAPAU1@@Z 10007950 f i Sounds.obj
 0001:00006950       ??$uninitialized_copy@PAPAIPAPAI@std@@YAPAPAIQAPAI0PAPAI@Z 10007950 f i Aimbot.obj
 0001:00006950       ??$uninitialized_copy@PAPAVVector@@PAPAV1@@std@@YAPAPAVVector@@QAPAV1@0PAPAV1@@Z 10007950 f i Visuals.obj
 0001:000069f0       ??$_To_address@PAPAI@std@@YA?A_PABQAPAI@Z 100079f0 f i Aimbot.obj
 0001:000069f0       ??$_Get_unwrapped_n@AAPAPAVVector@@H@std@@YA?A_TAAPAPAVVector@@H@Z 100079f0 f i Visuals.obj
 0001:000069f0       ??$_Get_unwrapped@ABQAPAI@std@@YA?A_TABQAPAI@Z 100079f0 f i Aimbot.obj
 0001:000069f0       ??$_To_address@PAPAVVector@@@std@@YA?A_PABQAPAVVector@@@Z 100079f0 f i Visuals.obj
 0001:000069f0       ??$_Get_unwrapped@ABQAPAVVector@@@std@@YA?A_TABQAPAVVector@@@Z 100079f0 f i Visuals.obj
 0001:000069f0       ??$_Get_unwrapped@ABQAV?$basic_config@Ujson_args@configor@@@configor@@@std@@YA?A_TABQAV?$basic_config@Ujson_args@configor@@@configor@@@Z 100079f0 f i Pipi_edit.obj
 0001:000069f0       ??$_To_address@PAPAUmy_sound_t@@@std@@YA?A_PABQAPAUmy_sound_t@@@Z 100079f0 f i Sounds.obj
 0001:000069f0       ??$_Get_unwrapped@AAPBV?$basic_config@Ujson_args@configor@@@configor@@@std@@YA?A_TAAPBV?$basic_config@Ujson_args@configor@@@configor@@@Z 100079f0 f i Pipi_edit.obj
 0001:000069f0       ??$_Get_unwrapped_n@AAPAPAUmy_sound_t@@H@std@@YA?A_TAAPAPAUmy_sound_t@@H@Z 100079f0 f i Sounds.obj
 0001:000069f0       ??$_Get_unwrapped@ABQAPAUmy_sound_t@@@std@@YA?A_TABQAPAUmy_sound_t@@@Z 100079f0 f i Sounds.obj
 0001:000069f0       ??$_Get_unwrapped@ABQBV?$basic_config@Ujson_args@configor@@@configor@@@std@@YA?A_TABQBV?$basic_config@Ujson_args@configor@@@configor@@@Z 100079f0 f i Pipi_edit.obj
 0001:000069f0       ??$_Get_unwrapped_n@AAPAPAIH@std@@YA?A_TAAPAPAIH@Z 100079f0 f i Aimbot.obj
 0001:00006a00       ??$_Idl_distance@PAPAIPAPAI@std@@YA?A_PABQAPAI0@Z 10007a00 f i Aimbot.obj
 0001:00006a00       ??$_Idl_distance@PAPAUmy_sound_t@@PAPAU1@@std@@YA?A_PABQAPAUmy_sound_t@@0@Z 10007a00 f i Sounds.obj
 0001:00006a00       ??$_Idl_distance@PAPAVVector@@PAPAV1@@std@@YA?A_PABQAPAVVector@@0@Z 10007a00 f i Visuals.obj
 0001:00006a20       ??$_Uninitialized_value_construct_n_unchecked1@PAPAVVector@@I@std@@YAPAPAVVector@@PAPAV1@I@Z 10007a20 f i Visuals.obj
 0001:00006a20       ??$_Uninitialized_value_construct_n_unchecked1@PAPAII@std@@YAPAPAIPAPAII@Z 10007a20 f i Aimbot.obj
 0001:00006a20       ??$_Uninitialized_value_construct_n_unchecked1@PAPAUmy_sound_t@@I@std@@YAPAPAUmy_sound_t@@PAPAU1@I@Z 10007a20 f i Sounds.obj
 0001:00006a40       ??$_Get_size_of_n@$03@std@@YAII@Z 10007a40 f i Aimbot.obj
 0001:00006a70       ??$_Allocate@$07U_Default_allocate_traits@std@@$0A@@std@@YAPAXI@Z 10007a70 f i Aimbot.obj
 0001:00006ab0       ??$min@I@std@@YAABIABI0@Z  10007ab0 f i Aimbot.obj
 0001:00006ae0       ??$_Deallocate@$07$0A@@std@@YAXPAXI@Z 10007ae0 f i Aimbot.obj
 0001:00006b40       ?allocate@?$allocator@U_Container_proxy@std@@@std@@QAEPAU_Container_proxy@2@I@Z 10007b40 f i Aimbot.obj
 0001:00006b70       ??0?$_Deque_val@U?$_Deque_simple_types@I@std@@@std@@QAE@XZ 10007b70 f i Aimbot.obj
 0001:00006b70       ??0?$_Deque_val@U?$_Deque_simple_types@VVector@@@std@@@std@@QAE@XZ 10007b70 f i Visuals.obj
 0001:00006b70       ??0?$_Deque_val@U?$_Deque_simple_types@Umy_sound_t@@@std@@@std@@QAE@XZ 10007b70 f i Sounds.obj
 0001:00006bb0       ??0_Container_base12@std@@QAE@XZ 10007bb0 f i Aimbot.obj
 0001:00006bb0       ??0_Bxty@?$_String_val@U?$_Simple_types@D@std@@@std@@QAE@XZ 10007bb0 f i Cvars.obj
 0001:00006bd0       ??$_Deallocate_plain@V?$allocator@U_Container_proxy@std@@@std@@@std@@YAXAAV?$allocator@U_Container_proxy@std@@@0@QAU_Container_proxy@0@@Z 10007bd0 f i Aimbot.obj
 0001:00006c20       ??$_Construct_in_place@U_Container_proxy@std@@PAU_Container_base12@2@@std@@YAXAAU_Container_proxy@0@$$QAPAU_Container_base12@0@@Z 10007c20 f i Aimbot.obj
 0001:00006c70       ??$_Uninitialized_copy_unchecked@PAPAIPAPAI@std@@YAPAPAIPAPAIQAPAI0@Z 10007c70 f i Aimbot.obj
 0001:00006c70       ??$_Uninitialized_copy_unchecked@PAPAUmy_sound_t@@PAPAU1@@std@@YAPAPAUmy_sound_t@@PAPAU1@QAPAU1@0@Z 10007c70 f i Sounds.obj
 0001:00006c70       ??$_Uninitialized_copy_unchecked@PAPAVVector@@PAPAV1@@std@@YAPAPAVVector@@PAPAV1@QAPAV1@0@Z 10007c70 f i Visuals.obj
 0001:00006d20       ??$_Seek_wrapped@PAPAIPAPAI@std@@YAXAAPAPAI$$QAPAPAI@Z 10007d20 f i Aimbot.obj
 0001:00006d20       ??$_Seek_wrapped@PAPAVVector@@PAPAV1@@std@@YAXAAPAPAVVector@@$$QAPAPAV1@@Z 10007d20 f i Visuals.obj
 0001:00006d20       ??$_Seek_wrapped@PAPAUmy_sound_t@@PAPAU1@@std@@YAXAAPAPAUmy_sound_t@@$$QAPAPAU1@@Z 10007d20 f i Sounds.obj
 0001:00006d40       ??$_Zero_range@PAPAVVector@@@std@@YAPAPAVVector@@QAPAV1@0@Z 10007d40 f i Visuals.obj
 0001:00006d40       ??$_Zero_range@PAPAUmy_sound_t@@@std@@YAPAPAUmy_sound_t@@QAPAU1@0@Z 10007d40 f i Sounds.obj
 0001:00006d40       ??$_Zero_range@PAPAI@std@@YAPAPAIQAPAI0@Z 10007d40 f i Aimbot.obj
 0001:00006d80       ??$_Allocate_manually_vector_aligned@U_Default_allocate_traits@std@@@std@@YAPAXI@Z 10007d80 f i Aimbot.obj
 0001:00006df0       ??$_Get_size_of_n@$07@std@@YAII@Z 10007df0 f i Aimbot.obj
 0001:00006e20       ?_Release@?$_Uninitialized_backout@PAPAUmy_sound_t@@@std@@QAEPAPAUmy_sound_t@@XZ 10007e20 f i Sounds.obj
 0001:00006e20       ?_Release@?$_Uninitialized_backout_al@V?$allocator@V?$basic_config@Ujson_args@configor@@@configor@@@std@@@std@@QAEPAV?$basic_config@Ujson_args@configor@@@configor@@XZ 10007e20 f i Pipi_edit.obj
 0001:00006e20       ?_Release@?$_Uninitialized_backout@PAPAVVector@@@std@@QAEPAPAVVector@@XZ 10007e20 f i Visuals.obj
 0001:00006e20       ?_Release@?$_Uninitialized_backout@PAPAI@std@@QAEPAPAIXZ 10007e20 f i Aimbot.obj
 0001:00006e40       ??1?$_Uninitialized_backout@PAPAUmy_sound_t@@@std@@QAE@XZ 10007e40 f i Sounds.obj
 0001:00006e40       ??1?$_Uninitialized_backout@PAPAI@std@@QAE@XZ 10007e40 f i Aimbot.obj
 0001:00006e40       ??1?$_Uninitialized_backout@PAPAVVector@@@std@@QAE@XZ 10007e40 f i Visuals.obj
 0001:00006e60       ??0?$_Uninitialized_backout@PAPAVVector@@@std@@QAE@PAPAVVector@@@Z 10007e60 f i Visuals.obj
 0001:00006e60       ??0?$_Uninitialized_backout@PAPAI@std@@QAE@PAPAI@Z 10007e60 f i Aimbot.obj
 0001:00006e60       ??0?$_Uninitialized_backout@PAPAUmy_sound_t@@@std@@QAE@PAPAUmy_sound_t@@@Z 10007e60 f i Sounds.obj
 0001:00006e90       ?deallocate@?$_Default_allocator_traits@V?$allocator@V?$map@V?$basic_string@DU?$char_traits@D@std@@V?$allocator@D@2@@std@@V?$basic_config@Ujson_args@configor@@@configor@@U?$less@V?$basic_string@DU?$char_traits@D@std@@V?$allocator@D@2@@std@@@2@V?$allocator@U?$pair@$$CBV?$basic_string@DU?$char_traits@D@std@@V?$allocator@D@2@@std@@V?$basic_config@Ujson_args@configor@@@configor@@@std@@@2@@std@@@std@@@std@@SAXAAV?$allocator@V?$map@V?$basic_string@DU?$char_traits@D@std@@V?$allocator@D@2@@std@@V?$basic_config@Ujson_args@configor@@@configor@@U?$less@V?$basic_string@DU?$char_traits@D@std@@V?$allocator@D@2@@std@@@2@V?$allocator@U?$pair@$$CBV?$basic_string@DU?$char_traits@D@std@@V?$allocator@D@2@@std@@V?$basic_config@Ujson_args@configor@@@configor@@@std@@@2@@std@@@2@QAV?$map@V?$basic_string@DU?$char_traits@D@std@@V?$allocator@D@2@@std@@V?$basic_config@Ujson_args@configor@@@configor@@U?$less@V?$basic_string@DU?$char_traits@D@std@@V?$allocator@D@2@@std@@@2@V?$allocator@U?$pair@$$CBV?$basic_string@DU?$char_traits@D@std@@V?$allocator@D@2@@std@@V?$basic_config@Ujson_args@configor@@@configor@@@std@@@2@@2@I@Z 10007e90 f i Pipi_edit.obj
 0001:00006e90       ?deallocate@?$_Default_allocator_traits@V?$allocator@U_Container_proxy@std@@@std@@@std@@SAXAAV?$allocator@U_Container_proxy@std@@@2@QAU_Container_proxy@2@I@Z 10007e90 f i Aimbot.obj
 0001:00006eb0       ??$_Copy_memmove@PAPAIPAPAI@std@@YAPAPAIPAPAI00@Z 10007eb0 f i Aimbot.obj
 0001:00006eb0       ??$_Copy_memmove@PAPAUmy_sound_t@@PAPAU1@@std@@YAPAPAUmy_sound_t@@PAPAU1@00@Z 10007eb0 f i Sounds.obj
 0001:00006eb0       ??$_Copy_memmove@PAPAVVector@@PAPAV1@@std@@YAPAPAVVector@@PAPAV1@00@Z 10007eb0 f i Visuals.obj
 0001:00006f20       ??$_Emplace_back@AAPAVVector@@@?$_Uninitialized_backout@PAPAVVector@@@std@@QAEXAAPAVVector@@@Z 10007f20 f i Visuals.obj
 0001:00006f20       ??$_Emplace_back@AAPAI@?$_Uninitialized_backout@PAPAI@std@@QAEXAAPAI@Z 10007f20 f i Aimbot.obj
 0001:00006f20       ??$_Emplace_back@AAPAUmy_sound_t@@@?$_Uninitialized_backout@PAPAUmy_sound_t@@@std@@QAEXAAPAUmy_sound_t@@@Z 10007f20 f i Sounds.obj
 0001:00006f60       ??$_Construct_in_place@PAVVector@@AAPAV1@@std@@YAXAAPAVVector@@0@Z 10007f60 f i Visuals.obj
 0001:00006f60       ??$_Construct_in_place@PADABQAD@std@@YAXAAPADABQAD@Z 10007f60 f i Cvars.obj
 0001:00006f60       ??$_Construct_in_place@PAUmy_sound_t@@AAPAU1@@std@@YAXAAPAUmy_sound_t@@0@Z 10007f60 f i Sounds.obj
 0001:00006f60       ??$_Construct_in_place@PADAAPAD@std@@YAXAAPAD0@Z 10007f60 f i Menu.obj
 0001:00006f60       ??$_Construct_in_place@PAU?$_Tree_node@U?$pair@$$CBV?$basic_string@DU?$char_traits@D@std@@V?$allocator@D@2@@std@@V?$basic_config@Ujson_args@configor@@@configor@@@std@@PAX@std@@AAPAU12@@std@@YAXAAPAU?$_Tree_node@U?$pair@$$CBV?$basic_string@DU?$char_traits@D@std@@V?$allocator@D@2@@std@@V?$basic_config@Ujson_args@configor@@@configor@@@std@@PAX@0@0@Z 10007f60 f i Pipi_edit.obj
 0001:00006f60       ??$_Construct_in_place@PAU?$_Tree_node@U?$pair@$$CBV?$basic_string@DU?$char_traits@D@std@@V?$allocator@D@2@@std@@V?$basic_config@Ujson_args@configor@@@configor@@@std@@PAX@std@@ABQAU12@@std@@YAXAAPAU?$_Tree_node@U?$pair@$$CBV?$basic_string@DU?$char_traits@D@std@@V?$allocator@D@2@@std@@V?$basic_config@Ujson_args@configor@@@configor@@@std@@PAX@0@ABQAU10@@Z 10007f60 f i Pipi_edit.obj
 0001:00006f60       ??$_Construct_in_place@PAIAAPAI@std@@YAXAAPAI0@Z 10007f60 f i Aimbot.obj
 0001:00006fa0       ?fpclassify@@YAHN@Z        10007fa0 f i Cvars.obj
 0001:00006fc0       ??0_Fake_proxy_ptr_impl@std@@QAE@ABU_Fake_allocator@1@ABU_Container_base0@1@@Z 10007fc0 f i Cvars.obj
 0001:00006fd0       ?_Xlen_string@std@@YAXXZ   10007fd0 f i Cvars.obj
 0001:00006fe0       ??0CCvars@@QAE@XZ          10007fe0 f i Cvars.obj
 0001:00007000       ?Init@CCvars@@QAEXXZ       10008000 f   Cvars.obj
 0001:000077e0       ?dtoa@@YAPADPADN@Z         100087e0 f   Cvars.obj
 0001:00007b90       ?SaveCvars@CFunctions@@QAEXXZ 10008b90 f   Cvars.obj
 0001:0000a140       ?LoadCvars@CFunctions@@QAEXXZ 1000b140 f   Cvars.obj
 0001:0000c670       ?c_str@?$basic_string@DU?$char_traits@D@std@@V?$allocator@D@2@@std@@QBEPBDXZ 1000d670 f i Cvars.obj
 0001:0000c670       ?data@?$basic_string@DU?$char_traits@D@std@@V?$allocator@D@2@@std@@QBEPBDXZ 1000d670 f i World.obj
 0001:0000c690       ?append@?$basic_string@DU?$char_traits@D@std@@V?$allocator@D@2@@std@@QAEAAV12@QBD@Z 1000d690 f i Cvars.obj
 0001:0000c6c0       ??1?$basic_string@DU?$char_traits@D@std@@V?$allocator@D@2@@std@@QAE@XZ 1000d6c0 f i Cvars.obj
 0001:0000c6e0       ??0?$basic_string@DU?$char_traits@D@std@@V?$allocator@D@2@@std@@QAE@QBD@Z 1000d6e0 f i Cvars.obj
 0001:0000c780       ??1?$_Compressed_pair@V?$allocator@D@std@@V?$_String_val@U?$_Simple_types@D@std@@@2@$00@std@@QAE@XZ 1000d780 f i Cvars.obj
 0001:0000c7a0       ?_Tidy_deallocate@?$basic_string@DU?$char_traits@D@std@@V?$allocator@D@2@@std@@AAEXXZ 1000d7a0 f i Cvars.obj
 0001:0000c860       ?_Tidy_init@?$basic_string@DU?$char_traits@D@std@@V?$allocator@D@2@@std@@AAEXXZ 1000d860 f i Cvars.obj
 0001:0000c8b0       ?assign@?$basic_string@DU?$char_traits@D@std@@V?$allocator@D@2@@std@@QAEAAV12@QBD@Z 1000d8b0 f i Cvars.obj
 0001:0000c8e0       ?assign@?$basic_string@DU?$char_traits@D@std@@V?$allocator@D@2@@std@@QAEAAV12@QBDI@Z 1000d8e0 f i Cvars.obj
 0001:0000c960       ??R<lambda_9366063389c5f42a00a5088cf24e69de>@@QBE@QADIQBD@Z 1000d960 f i Cvars.obj
 0001:0000c9a0       ?append@?$basic_string@DU?$char_traits@D@std@@V?$allocator@D@2@@std@@QAEAAV12@QBDI@Z 1000d9a0 f i Cvars.obj
 0001:0000ca40       ??R<lambda_ab246b20b9526e2ef7792587e4298a77>@@QBE@QADQBDI1I@Z 1000da40 f i Cvars.obj
 0001:0000caa0       ?_Myptr@?$_String_val@U?$_Simple_types@D@std@@@std@@QBEPBDXZ 1000daa0 f i Cvars.obj
 0001:0000caa0       ?_Myptr@?$_String_val@U?$_Simple_types@D@std@@@std@@QAEPADXZ 1000daa0 f i Cvars.obj
 0001:0000cae0       ?length@?$_Narrow_char_traits@DH@std@@SAIQBD@Z 1000dae0 f i Cvars.obj
 0001:0000cb20       ??$max@I@std@@YAABIABI0@Z  1000db20 f i Cvars.obj
 0001:0000cb50       ?max_size@?$basic_string@DU?$char_traits@D@std@@V?$allocator@D@2@@std@@QBEIXZ 1000db50 f i Cvars.obj
 0001:0000cbd0       ?_Large_string_engaged@?$_String_val@U?$_Simple_types@D@std@@@std@@QBE_NXZ 1000dbd0 f i Cvars.obj
 0001:0000cc00       ?allocate@?$allocator@D@std@@QAEPADI@Z 1000dc00 f i Cvars.obj
 0001:0000cc30       ?deallocate@?$allocator@D@std@@QAEXQADI@Z 1000dc30 f i Cvars.obj
 0001:0000cc50       ?assign@?$_Narrow_char_traits@DH@std@@SAXAADABD@Z 1000dc50 f i Cvars.obj
 0001:0000cc60       ?move@?$_Char_traits@DH@std@@SAPADQADQBDI@Z 1000dc60 f i Cvars.obj
 0001:0000cc60       ?copy@?$_Char_traits@DH@std@@SAPADQADQBDI@Z 1000dc60 f i Cvars.obj
 0001:0000cc80       ?eof@?$_Narrow_char_traits@DH@std@@SAHXZ 1000dc80 f i World.obj
 0001:0000cc80       ?max_size@?$_Default_allocator_traits@V?$allocator@D@std@@@std@@SAIABV?$allocator@D@2@@Z 1000dc80 f i Cvars.obj
 0001:0000cc90       ??$isnan@N@@YA_NN@Z        1000dc90 f i Cvars.obj
 0001:0000ccd0       ??$isinf@N@@YA_NN@Z        1000dcd0 f i Cvars.obj
 0001:0000cd10       ??$pow@NH$0A@@@YANNH@Z     1000dd10 f i Cvars.obj
 0001:0000cd40       ??$?0$$V@?$_Compressed_pair@V?$allocator@D@std@@V?$_String_val@U?$_Simple_types@D@std@@@2@$00@std@@QAE@U_Zero_then_variadic_args_t@1@@Z 1000dd40 f i Cvars.obj
 0001:0000cd60       ??$_Reallocate_for@V<lambda_9366063389c5f42a00a5088cf24e69de>@@PBD@?$basic_string@DU?$char_traits@D@std@@V?$allocator@D@2@@std@@AAEAAV01@IV<lambda_9366063389c5f42a00a5088cf24e69de>@@PBD@Z 1000dd60 f i Cvars.obj
 0001:0000ce50       ??$_Reallocate_grow_by@V<lambda_ab246b20b9526e2ef7792587e4298a77>@@PBDI@?$basic_string@DU?$char_traits@D@std@@V?$allocator@D@2@@std@@AAEAAV01@IV<lambda_ab246b20b9526e2ef7792587e4298a77>@@PBDI@Z 1000de50 f i Cvars.obj
 0001:0000cf90       ??$_Get_size_of_n@$00@std@@YAII@Z 1000df90 f i Cvars.obj
 0001:0000cfa0       ?_Calculate_growth@?$basic_string@DU?$char_traits@D@std@@V?$allocator@D@2@@std@@ABEII@Z 1000dfa0 f i Cvars.obj
 0001:0000cfd0       ??0?$_String_val@U?$_Simple_types@D@std@@@std@@QAE@XZ 1000dfd0 f i Cvars.obj
 0001:0000d000       ?_Calculate_growth@?$basic_string@DU?$char_traits@D@std@@V?$allocator@D@2@@std@@CAIIII@Z 1000e000 f i Cvars.obj
 0001:0000d070       _cosf                      1000e070 f i Drawing.obj
 0001:0000d090       _sinf                      1000e090 f i Drawing.obj
 0001:0000d0b0       ___local_stdio_printf_options 1000e0b0 f i Drawing.obj
 0001:0000d0c0       __vsnprintf_l              1000e0c0 f i Drawing.obj
 0001:0000d110       __vsnprintf                1000e110 f i Drawing.obj
 0001:0000d130       ?SetupFonts@CDrawing@@QAEXXZ 1000e130 f   Drawing.obj
 0001:0000d1e0       ?DrawCircle@CDrawing@@QAEXQAMMMHHHH@Z 1000e1e0 f   Drawing.obj
 0001:0000d390       ?DrawPlayerBox@CDrawing@@QAEXHHHHHHHH@Z 1000e390 f   Drawing.obj
 0001:0000d4d0       ?DrawTexture@CDrawing@@QAEXHHHHHHHHH@Z 1000e4d0 f   Drawing.obj
 0001:0000d540       ?DrawRect@CDrawing@@QAEXHHHHHHHH@Z 1000e540 f   Drawing.obj
 0001:0000d600       ?DrawOutlinedRect@CDrawing@@QAEXHHHHHHHH@Z 1000e600 f   Drawing.obj
 0001:0000d6c0       ?DrawLine@CDrawing@@QAEXHHHHHHHH@Z 1000e6c0 f   Drawing.obj
 0001:0000d720       ?FillArea@CDrawing@@QAEXHHHHHHHH@Z 1000e720 f   Drawing.obj
 0001:0000d7f0       ?DrawBox@CDrawing@@QAEXHHHHHHHH@Z 1000e7f0 f   Drawing.obj
 0001:0000d850       ?DrawString@CDrawing@@QAAXKHHHHHHKPBDZZ 1000e850 f   Drawing.obj
 0001:0000da00       ?DrawStringACP@CDrawing@@QAAXKHHHHHHKPBDZZ 1000ea00 f   Drawing.obj
 0001:0000dbb0       ?Box@CDrawing@@QAEXHHHHHHHHH@Z 1000ebb0 f   Drawing.obj
 0001:0000dc80       ?BoxOutline@CDrawing@@QAEXMMMMMEEEE@Z 1000ec80 f   Drawing.obj
 0001:0000dd90       ?DrawCoalBox@CDrawing@@QAEXHHHHHHHHH@Z 1000ed90 f   Drawing.obj
 0001:0000df40       ?DrawOutlineCoalBox@CDrawing@@QAEXHHHHHEEEE@Z 1000ef40 f   Drawing.obj
 0001:0000e110       ?BoxCorner@CDrawing@@QAEXHHHHHEEEE@Z 1000f110 f   Drawing.obj
 0001:0000e340       ?BoxCornerOutline@CDrawing@@QAEXHHHHHEEEE@Z 1000f340 f   Drawing.obj
 0001:0000e440       ?DrawCrosshair@CDrawing@@QAEXHHHHHH@Z 1000f440 f   Drawing.obj
 0001:0000e670       ?DrawDot@CDrawing@@QAEXHHHHHH@Z 1000f670 f   Drawing.obj
 0001:0000e6e0       ??$swap@H$0A@@std@@YAXAAH0@Z 1000f6e0 f i Drawing.obj
 0001:0000e6e0       ??$swap@W4config_value_type@configor@@$0A@@std@@YAXAAW4config_value_type@configor@@0@Z 1000f6e0 f i Pipi_edit.obj
 0001:0000e740       ?strstr@@YAPADQADQBD@Z     1000f740 f i Misc.obj
 0001:0000e760       _fmodf                     1000f760 f i Misc.obj
 0001:0000e7a0       ?cos@@YAMM@Z               1000f7a0 f i Misc.obj
 0001:0000e7c0       ?fmod@@YAMMM@Z             1000f7c0 f i Misc.obj
 0001:0000e7f0       ?sin@@YAMM@Z               1000f7f0 f i Misc.obj
 0001:0000e810       ?Distance@Vector@@QAEMAAV1@@Z 1000f810 f i Misc.obj
 0001:0000e890       ?FastZoom@CMisc@@QAEXPAUusercmd_s@@@Z 1000f890 f   Misc.obj
 0001:0000e900       ?FakeLag@CMisc@@QAEXPAUusercmd_s@@@Z 1000f900 f   Misc.obj
 0001:0000ec70       ?FakeEdge@CMisc@@QAE_NAAM@Z 1000fc70 f   Misc.obj
 0001:0000eea0       ?AntiAim@CMisc@@QAEXPAUusercmd_s@@@Z 1000fea0 f   Misc.obj
 0001:0000f9d0       ?AutoPistol@CMisc@@QAEXPAUusercmd_s@@@Z 100109d0 f   Misc.obj
 0001:0000fa60       ?AutoReload@CMisc@@QAEXPAUusercmd_s@@@Z 10010a60 f   Misc.obj
 0001:0000fac0       ?imbue@?$basic_streambuf@DU?$char_traits@D@std@@@std@@MAEXABVlocale@2@@Z 10010ac0 f   World.obj
 0001:0000fac0       ?ThirdPerson@CMisc@@QAEXPAUref_params_s@@@Z 10010ac0 f   Misc.obj
 0001:0000fac0       ?_Init@?$codecvt@DDU_Mbstatet@@@std@@IAEXABV_Locinfo@2@@Z 10010ac0 f   World.obj
 0001:0000fac0       ?_Swap_proxy_and_iterators@_Container_base0@std@@QAEXAAU12@@Z 10010ac0 f   Menu.obj
 0001:0000fac0       ?_Adopt@_Iterator_base0@std@@QAEXPBX@Z 10010ac0 f   Pipi_edit.obj
 0001:0000fac0       ?_Alloc_proxy@_Container_base0@std@@QAEXABU_Fake_allocator@2@@Z 10010ac0 f   Menu.obj
 0001:0000fac0       ?_Orphan_ptr@?$_Tree_val@U?$_Tree_simple_types@U?$pair@$$CBV?$basic_string@DU?$char_traits@D@std@@V?$allocator@D@2@@std@@V?$basic_config@Ujson_args@configor@@@configor@@@std@@@std@@@std@@QAEXQAU?$_Tree_node@U?$pair@$$CBV?$basic_string@DU?$char_traits@D@std@@V?$allocator@D@2@@std@@V?$basic_config@Ujson_args@configor@@@configor@@@std@@PAX@2@@Z 10010ac0 f   Pipi_edit.obj
 0001:0000fac0       ?_Init@?$num_put@DV?$ostreambuf_iterator@DU?$char_traits@D@std@@@std@@@std@@IAEXABV_Locinfo@2@@Z 10010ac0 f   Pipi_edit.obj
 0001:0000fad0       ?change_name@@YAXPAD@Z     10010ad0 f   Misc.obj
 0001:000100b0       ?NameStealer@CMisc@@QAEXXZ 100110b0 f   Misc.obj
 0001:00010340       ??$strcpy_s@$0BAA@@@YAHAAY0BAA@DPBD@Z 10011340 f i Misc.obj
 0001:00010360       ??$strcat_s@$0BAA@@@YAHAAY0BAA@DPBD@Z 10011360 f i Misc.obj
 0001:00010380       ??$strcpy_s@$0CA@@@YAHAAY0CA@DPBD@Z 10011380 f i Misc.obj
 0001:000103a0       ?Redraw@CNoFlash@@QAEXXZ   100113a0 f   NoFlash.obj
 0001:00010550       ??ZVector@@QAEAAV0@ABV0@@Z 10011550 f i NoRecoil.obj
 0001:000105b0       ?V_CalcRefdef@CNoRecoil@@QAEXPAUref_params_s@@@Z 100115b0 f   NoRecoil.obj
 0001:00010760       ?CL_CreateMove@CNoRecoil@@QAEXPAUusercmd_s@@@Z 10011760 f   NoRecoil.obj
 0001:000107c0       ?DrawRecoil@CNoRecoil@@QAEXXZ 100117c0 f   NoRecoil.obj
 0001:00010940       _atan2f                    10011940 f i NoSpread.obj
 0001:00010980       _fabsl                     10011980 f i Pipi_edit.obj
 0001:00010980       ?abs@@YANN@Z               10011980 f i NoSpread.obj
 0001:000109a0       ?atan2@@YAMMM@Z            100119a0 f i NoSpread.obj
 0001:000109d0       ??D@YA?AVVector@@MABV0@@Z  100119d0 f i NoSpread.obj
 0001:00010a10       ?U_Random@@YAIXZ           10011a10 f   NoSpread.obj
 0001:00010a50       ?U_Srand@@YAXI@Z           10011a50 f   NoSpread.obj
 0001:00010a70       ?UTIL_SharedRandomFloat@@YAMIMM@Z 10011a70 f   NoSpread.obj
 0001:00010b10       ?GetSpreadXY@CNoSpread@@QAEXIHPAM_N@Z 10011b10 f   NoSpread.obj
 0001:00010d00       ?GetSpreadOffset@CNoSpread@@QAEXIHPAM0@Z 10011d00 f   NoSpread.obj
 0001:000122b0       ?CL_CreateMove@CNoSpread@@QAEXPAUusercmd_s@@@Z 100132b0 f   NoSpread.obj
 0001:000123d0       ?DrawSpread@CNoSpread@@QAEXXZ 100133d0 f   NoSpread.obj
 0001:00012730       ?V_CalcRefdef@CNoSpread@@QAEXPAUref_params_s@@@Z 10013730 f   NoSpread.obj
 0001:00012830       ?Dot2D@Vector@@QAEMABV1@@Z 10013830 f i Systems.obj
 0001:00012870       ?Length2D@Vector@@QAEMXZ   10013870 f i Systems.obj
 0001:000128a0       ?LengthSqr2D@Vector@@QAEMXZ 100138a0 f i Systems.obj
 0001:000128e0       ?SimulateKey@@YAXGH@Z      100138e0 f i Systems.obj
 0001:00012940       ?isGoodJump@@YA_NXZ        10013940 f   Systems.obj
 0001:00012c80       ?isBadJump@@YA_NXZ         10013c80 f   Systems.obj
 0001:00012ef0       ?asdfg@@YA_NH@Z            10013ef0 f   Systems.obj
 0001:00013230       ?KnifeBot@CSystems@@QAEXPAUusercmd_s@@@Z 10014230 f   Systems.obj
 0001:000135b0       ?SimulateMouse@CSystems@@QAEXH@Z 100145b0 f   Systems.obj
 0001:00013640       ?BunnyHop@CSystems@@QAEXPAUusercmd_s@@@Z 10014640 f   Systems.obj
 0001:00014350       ?AutoStrafe@CSystems@@QAEXPAUusercmd_s@@M@Z 10015350 f   Systems.obj
 0001:00014680       _fabsf                     10015680 f i Utils.obj
 0001:000146a0       _powf                      100156a0 f i Utils.obj
 0001:000146d0       ?fabs@@YAMM@Z              100156d0 f i Utils.obj
 0001:000146f0       ?pow@@YAMMM@Z              100156f0 f i Utils.obj
 0001:00014720       ?round@@YAMM@Z             10015720 f i Utils.obj
 0001:00014740       ??0CUtils@@QAE@XZ          10015740 f i Utils.obj
 0001:000147e0       ??1CUtils@@QAE@XZ          100157e0 f i Utils.obj
 0001:00014830       ?GetTextureInfo@CUtils@@QAE_NUCImageTexture@@AAI11@Z 10015830 f   Utils.obj
 0001:00014880       ?bSendpacket@CUtils@@QAEX_N@Z 10015880 f   Utils.obj
 0001:000148e0       ?bCalcScreen@CUtils@@QAE_NPAM0@Z 100158e0 f   Utils.obj
 0001:00014a20       ?bFileExists@CUtils@@QAE_NPBD@Z 10015a20 f   Utils.obj
 0001:00014a60       ?cIniWrite@CUtils@@QAEXPAD000@Z 10015a60 f   Utils.obj
 0001:00014a90       ?cIniRead@CUtils@@QAEPADPAD000@Z 10015a90 f   Utils.obj
 0001:00014af0       ?szDirFile@CUtils@@QAEPADPBD@Z 10015af0 f   Utils.obj
 0001:00014bc0       ?IsPlayer@CUtils@@QAE_NPAUcl_entity_s@@@Z 10015bc0 f   Utils.obj
 0001:00014c00       ?IsEntityAlive@CUtils@@QAE_NPAUcl_entity_s@@@Z 10015c00 f   Utils.obj
 0001:00014c80       ?IsPlayerUpdated@CUtils@@QAE_NPAUcl_entity_s@@@Z 10015c80 f   Utils.obj
 0001:00014d80       ?IsPlayerAlive@CUtils@@QAE_NPAUcl_entity_s@@@Z 10015d80 f   Utils.obj
 0001:00014de0       ?IsLocalAlive@CUtils@@QAE_NPAUcl_entity_s@@@Z 10015de0 f   Utils.obj
 0001:00014ea0       ?UTIL_TextureHit@@YAXVVector@@00HAAUpmtrace_s@@@Z 10015ea0 f   Utils.obj
 0001:000151e0       ?FireBullets@CUtils@@QAEHVVector@@0MHHHM@Z 100161e0 f   Utils.obj
 0001:00015d10       ?bPathFree@CUtils@@QAE_NPAM0@Z 10016d10 f   Utils.obj
 0001:00015dd0       ?VectorAngles@CUtils@@QAEXPBMPAM@Z 10016dd0 f   Utils.obj
 0001:00016130       ?FixMoveStart@CUtils@@QAEXPAUusercmd_s@@@Z 10017130 f   Utils.obj
 0001:00016250       ?FixMoveEnd@CUtils@@QAEXPAUusercmd_s@@@Z 10017250 f   Utils.obj
 0001:00016700       ?MakeAngle@CUtils@@QAEX_NPAMPAUusercmd_s@@@Z 10017700 f   Utils.obj
 0001:00016820       ?StringReplace@CUtils@@QAEXPADPBD1@Z 10017820 f   Utils.obj
 0001:00016920       ?IsBoxIntersectingRay@CUtils@@QAE_NABVVector@@000@Z 10017920 f   Utils.obj
 0001:00016ae0       ?GetFirstNonSolidPoint@CUtils@@QAEXABVVector@@0AAV2@@Z 10017ae0 f   Utils.obj
 0001:00016dc0       ?NormalizeAngles@@YAXPAM@Z 10017dc0 f   Utils.obj
 0001:00016ec0       ?IsFreezePeriod@@YA_NXZ    10017ec0 f   Utils.obj
 0001:00016ee0       ??0exception@std@@QAE@QBD@Z 10017ee0 f i Menu.obj
 0001:00016f40       ??0runtime_error@std@@QAE@ABV?$basic_string@DU?$char_traits@D@std@@V?$allocator@D@2@@1@@Z 10017f40 f i Menu.obj
 0001:00016f70       ??0runtime_error@std@@QAE@ABV01@@Z 10017f70 f i Menu.obj
 0001:00016fa0       ??0?$initializer_list@V?$basic_config@Ujson_args@configor@@@configor@@@std@@QAE@PBV?$basic_config@Ujson_args@configor@@@configor@@0@Z 10017fa0 f i Pipi_edit.obj
 0001:00016fa0       ??0error_condition@std@@QAE@HABVerror_category@1@@Z 10017fa0 f i Menu.obj
 0001:00016fa0       ??0error_code@std@@QAE@HABVerror_category@1@@Z 10017fa0 f i Menu.obj
 0001:00016fa0       ??0?$initializer_list@D@std@@QAE@PBD0@Z 10017fa0 f i Pipi_edit.obj
 0001:00016fd0       ?begin@?$initializer_list@D@std@@QBEPBDXZ 10017fd0 f i Pipi_edit.obj
 0001:00016fd0       ?type@?$basic_config@Ujson_args@configor@@@configor@@QBE?AW4config_value_type@2@XZ 10017fd0 f i Pipi_edit.obj
 0001:00016fd0       ?value@error_condition@std@@QBEHXZ 10017fd0 f i Menu.obj
 0001:00016fd0       ?value@error_code@std@@QBEHXZ 10017fd0 f i Menu.obj
 0001:00016fd0       ?begin@?$initializer_list@V?$basic_config@Ujson_args@configor@@@configor@@@std@@QBEPBV?$basic_config@Ujson_args@configor@@@configor@@XZ 10017fd0 f i Pipi_edit.obj
 0001:00016fe0       ?end@?$initializer_list@V?$basic_config@Ujson_args@configor@@@configor@@@std@@QBEPBV?$basic_config@Ujson_args@configor@@@configor@@XZ 10017fe0 f i Pipi_edit.obj
 0001:00016fe0       ?category@error_code@std@@QBEABVerror_category@2@XZ 10017fe0 f i Menu.obj
 0001:00016fe0       ?category@error_condition@std@@QBEABVerror_category@2@XZ 10017fe0 f i Menu.obj
 0001:00017000       ?message@error_code@std@@QBE?AV?$basic_string@DU?$char_traits@D@std@@V?$allocator@D@2@@2@XZ 10018000 f i Menu.obj
 0001:00017050       ??8std@@YA_NABVerror_condition@0@0@Z 10018050 f i Menu.obj
 0001:000170b0       ?default_error_condition@error_category@std@@UBE?AVerror_condition@2@H@Z 100180b0 f i Menu.obj
 0001:000170d0       ?equivalent@error_category@std@@UBE_NHABVerror_condition@2@@Z 100180d0 f i Menu.obj
 0001:00017110       ?equivalent@error_category@std@@UBE_NABVerror_code@2@H@Z 10018110 f i Menu.obj
 0001:00017160       ?_Makestr@_System_error@std@@CA?AV?$basic_string@DU?$char_traits@D@std@@V?$allocator@D@2@@2@Verror_code@2@V32@@Z 10018160 f i Menu.obj
 0001:00017220       ??0_System_error@std@@IAE@Verror_code@1@ABV?$basic_string@DU?$char_traits@D@std@@V?$allocator@D@2@@1@@Z 10018220 f i Menu.obj
 0001:000172d0       ??_E_System_error@std@@UAEPAXI@Z 100182d0 f i * CIL library *:* CIL module *
 0001:000172d0       ??_G_System_error@std@@UAEPAXI@Z 100182d0 f i Menu.obj
 0001:00017300       ??0system_error@std@@QAE@Verror_code@1@PBD@Z 10018300 f i Menu.obj
 0001:00017380       ??_Gsystem_error@std@@UAEPAXI@Z 10018380 f i Menu.obj
 0001:00017380       ??_Esystem_error@std@@UAEPAXI@Z 10018380 f i * CIL library *:* CIL module *
 0001:000173b0       ??1configor_invalid_key@configor@@UAE@XZ 100183b0 f i Pipi_edit.obj
 0001:000173b0       ??1configor_serialization_error@configor@@UAE@XZ 100183b0 f i Pipi_edit.obj
 0001:000173b0       ??1configor_type_error@configor@@UAE@XZ 100183b0 f i Pipi_edit.obj
 0001:000173b0       ??1system_error@std@@UAE@XZ 100183b0 f i Menu.obj
 0001:000173d0       ??0system_error@std@@QAE@ABV01@@Z 100183d0 f i Menu.obj
 0001:00017400       ??0_System_error@std@@QAE@ABV01@@Z 10018400 f i Menu.obj
 0001:00017440       ??0_System_error_message@std@@QAE@K@Z 10018440 f i Menu.obj
 0001:00017470       ??1_System_error_message@std@@QAE@XZ 10018470 f i Menu.obj
 0001:00017490       ?name@_Generic_error_category@std@@UBEPBDXZ 10018490 f i Menu.obj
 0001:000174a0       ?message@_Generic_error_category@std@@UBE?AV?$basic_string@DU?$char_traits@D@std@@V?$allocator@D@2@@2@H@Z 100184a0 f i Menu.obj
 0001:000174e0       ??_E_System_error_category@std@@UAEPAXI@Z 100184e0 f i * CIL library *:* CIL module *
 0001:000174e0       ??_G_System_error_category@std@@UAEPAXI@Z 100184e0 f i Menu.obj
 0001:000174e0       ??_E_Generic_error_category@std@@UAEPAXI@Z 100184e0 f i * CIL library *:* CIL module *
 0001:000174e0       ??_E_Iostream_error_category2@std@@UAEPAXI@Z 100184e0 f i * CIL library *:* CIL module *
 0001:000174e0       ??_G_Generic_error_category@std@@UAEPAXI@Z 100184e0 f i Menu.obj
 0001:000174e0       ??_G_Iostream_error_category2@std@@UAEPAXI@Z 100184e0 f i World.obj
 0001:00017510       ?name@_System_error_category@std@@UBEPBDXZ 10018510 f i Menu.obj
 0001:00017520       ?message@_System_error_category@std@@UBE?AV?$basic_string@DU?$char_traits@D@std@@V?$allocator@D@2@@2@H@Z 10018520 f i Menu.obj
 0001:00017600       ?default_error_condition@_System_error_category@std@@UBE?AVerror_condition@2@H@Z 10018600 f i Menu.obj
 0001:00017690       ?generic_category@std@@YAABVerror_category@1@XZ 10018690 f i Menu.obj
 0001:000176a0       ?system_category@std@@YAABVerror_category@1@XZ 100186a0 f i Menu.obj
 0001:000176b0       ?VirtualKeyCodeToString@@YA?AV?$basic_string@DU?$char_traits@D@std@@V?$allocator@D@2@@std@@E@Z 100186b0 f   Menu.obj
 0001:00017850       ?Init@CMenu@@AAEXXZ        10018850 f   Menu.obj
 0001:00017910       ?Run@CMenu@@QAEXXZ         10018910 f   Menu.obj
 0001:00017d80       ?Tabs@CMenu@@AAEXXZ        10018d80 f   Menu.obj
 0001:0001c360       ?DrawButton@CMenu@@AAE_NHHPAD@Z 1001d360 f   Menu.obj
 0001:0001c610       ?Palette@CMenu@@AAEXHHAAM00@Z 1001d610 f   Menu.obj
 0001:0001cae0       ?ListBox@CMenu@@AAEXHHHPADAAMPAPADH_N@Z 1001dae0 f   Menu.obj
 0001:0001d330       ?SliderInPallete@CMenu@@AAEXHHMMAAMPAD_N12@Z 1001e330 f   Menu.obj
 0001:0001d870       ?KeyBind@CMenu@@AAEXHHAAH@Z 1001e870 f   Menu.obj
 0001:0001db30       ?Slider@CMenu@@AAEXHHMMAAMPAD_N12@Z 1001eb30 f   Menu.obj
 0001:0001e080       ?Drag@CMenu@@AAEXXZ        1001f080 f   Menu.obj
 0001:0001e290       ?Checkbox@CMenu@@AAEXHHAA_NPAD@Z 1001f290 f   Menu.obj
 0001:0001e4b0       ?DrawBox@CMenu@@AAEXHHHH@Z 1001f4b0 f   Menu.obj
 0001:0001e560       ?empty@?$basic_string@DU?$char_traits@D@std@@V?$allocator@D@2@@std@@QBE_NXZ 1001f560 f i Menu.obj
 0001:0001e590       ?append@?$basic_string@DU?$char_traits@D@std@@V?$allocator@D@2@@std@@QAEAAV12@ABV12@@Z 1001f590 f i Menu.obj
 0001:0001e5c0       ??0?$basic_string@DU?$char_traits@D@std@@V?$allocator@D@2@@std@@QAE@$$QAV01@@Z 1001f5c0 f i Menu.obj
 0001:0001e610       ??0?$basic_string@DU?$char_traits@D@std@@V?$allocator@D@2@@std@@QAE@QBDI@Z 1001f610 f i Menu.obj
 0001:0001e6b0       ??0?$basic_string@DU?$char_traits@D@std@@V?$allocator@D@2@@std@@QAE@ABV01@@Z 1001f6b0 f i Menu.obj
 0001:0001e760       ?size@?$basic_string@DU?$char_traits@D@std@@V?$allocator@D@2@@std@@QBEIXZ 1001f760 f i Menu.obj
 0001:0001e780       ?_Construct_lv_contents@?$basic_string@DU?$char_traits@D@std@@V?$allocator@D@2@@std@@AAEXABV12@@Z 1001f780 f i Menu.obj
 0001:0001e8a0       ?_Take_contents@?$basic_string@DU?$char_traits@D@std@@V?$allocator@D@2@@std@@AAEXAAV12@@Z 1001f8a0 f i Menu.obj
 0001:0001e980       ?_Swap_proxy_and_iterators@?$basic_string@DU?$char_traits@D@std@@V?$allocator@D@2@@std@@AAEXAAV12@@Z 1001f980 f i Menu.obj
 0001:0001e9a0       ?_Memcpy_val_from@?$basic_string@DU?$char_traits@D@std@@V?$allocator@D@2@@std@@AAEXABV12@@Z 1001f9a0 f i Menu.obj
 0001:0001ea00       ??$_Immortalize_memcpy_image@V_Generic_error_category@std@@@std@@YAABV_Generic_error_category@0@XZ 1001fa00 f i Menu.obj
 0001:0001ea10       ??$_Immortalize_memcpy_image@V_System_error_category@std@@@std@@YAABV_System_error_category@0@XZ 1001fa10 f i Menu.obj
 0001:0001ea20       ??$?0ABV?$allocator@D@std@@$$V@?$_Compressed_pair@V?$allocator@D@std@@V?$_String_val@U?$_Simple_types@D@std@@@2@$00@std@@QAE@U_One_then_variadic_args_t@1@ABV?$allocator@D@1@@Z 1001fa20 f i World.obj
 0001:0001ea20       ??$?0V?$allocator@D@std@@$$V@?$_Compressed_pair@V?$allocator@D@std@@V?$_String_val@U?$_Simple_types@D@std@@@2@$00@std@@QAE@U_One_then_variadic_args_t@1@$$QAV?$allocator@D@1@@Z 1001fa20 f i Menu.obj
 0001:0001ea50       ?ShotsFiredCounter@@YAXHPAD@Z 1001fa50 f   Sounds.obj
 0001:0001f790       ?PreS_DynamicSound@@YAXHKPADPAMMMHH@Z 10020790 f   Sounds.obj
 0001:0001faf0       ?push_back@?$deque@Umy_sound_t@@V?$allocator@Umy_sound_t@@@std@@@std@@QAEXABUmy_sound_t@@@Z 10020af0 f i Sounds.obj
 0001:0001fb20       ??1?$deque@Umy_sound_t@@V?$allocator@Umy_sound_t@@@std@@@std@@QAE@XZ 10020b20 f i Sounds.obj
 0001:0001fb90       ?_Tidy@?$deque@Umy_sound_t@@V?$allocator@Umy_sound_t@@@std@@@std@@AAEXXZ 10020b90 f i Sounds.obj
 0001:0001fcc0       ?pop_back@?$deque@Umy_sound_t@@V?$allocator@Umy_sound_t@@@std@@@std@@QAEXXZ 10020cc0 f i Sounds.obj
 0001:0001fda0       ?deallocate@?$allocator@Umy_sound_t@@@std@@QAEXQAUmy_sound_t@@I@Z 10020da0 f i Sounds.obj
 0001:0001fdc0       ?_Getblock@?$deque@VVector@@V?$allocator@VVector@@@std@@@std@@ABEII@Z 10020dc0 f i Visuals.obj
 0001:0001fdc0       ?_Getblock@?$deque@Umy_sound_t@@V?$allocator@Umy_sound_t@@@std@@@std@@ABEII@Z 10020dc0 f i Sounds.obj
 0001:0001fde0       ?_Getblock@?$_Deque_val@U?$_Deque_simple_types@Umy_sound_t@@@std@@@std@@QBEII@Z 10020de0 f i Sounds.obj
 0001:0001fde0       ?_Getblock@?$_Deque_val@U?$_Deque_simple_types@VVector@@@std@@@std@@QBEII@Z 10020de0 f i Visuals.obj
 0001:0001fe00       ??$_Emplace_back_internal@ABUmy_sound_t@@@?$deque@Umy_sound_t@@V?$allocator@Umy_sound_t@@@std@@@std@@AAEXABUmy_sound_t@@@Z 10020e00 f i Sounds.obj
 0001:0001ff40       ??$destroy@Umy_sound_t@@@?$_Default_allocator_traits@V?$allocator@Umy_sound_t@@@std@@@std@@SAXAAV?$allocator@Umy_sound_t@@@1@QAUmy_sound_t@@@Z 10020f40 f i Sounds.obj
 0001:0001ff50       ??_Gmy_sound_t@@QAEPAXI@Z  10020f50 f i Sounds.obj
 0001:0001ff80       ?_Growmap@?$deque@Umy_sound_t@@V?$allocator@Umy_sound_t@@@std@@@std@@AAEXI@Z 10020f80 f i Sounds.obj
 0001:000201e0       ?allocate@?$allocator@Umy_sound_t@@@std@@QAEPAUmy_sound_t@@I@Z 100211e0 f i Sounds.obj
 0001:00020210       ?max_size@?$deque@Umy_sound_t@@V?$allocator@Umy_sound_t@@@std@@@std@@QBEIXZ 10021210 f i Sounds.obj
 0001:00020250       ?max_size@?$_Default_allocator_traits@V?$allocator@Umy_sound_t@@@std@@@std@@SAIABV?$allocator@Umy_sound_t@@@2@@Z 10021250 f i Sounds.obj
 0001:00020260       ??$construct@Umy_sound_t@@ABU1@@?$_Default_allocator_traits@V?$allocator@Umy_sound_t@@@std@@@std@@SAXAAV?$allocator@Umy_sound_t@@@1@QAUmy_sound_t@@ABU3@@Z 10021260 f i Sounds.obj
 0001:000202a0       ??$_Get_size_of_n@$0BI@@std@@YAII@Z 100212a0 f i Sounds.obj
 0001:000202d0       ??0my_sound_t@@QAE@ABU0@@Z 100212d0 f i Sounds.obj
 0001:00020310       _tanf                      10021310 f i Visuals.obj
 0001:00020330       __vfprintf_l               10021330 f i Visuals.obj
 0001:00020360       _printf                    10021360 f i Visuals.obj
 0001:000203a0       ?Normalize2D@Vector@@QAEMXZ 100213a0 f i Visuals.obj
 0001:00020410       ??9Vector@@QBE_NABV0@@Z    10021410 f i Visuals.obj
 0001:00020470       ??0grenadetracer_t@@QAE@XZ 10021470 f i Visuals.obj
 0001:00020490       ??1grenadetracer_t@@QAE@XZ 10021490 f i Visuals.obj
 0001:000204b0       ?IconInit@CVisuals@@QAEXXZ 100214b0 f   Visuals.obj
 0001:00021300       ?DrawHistory@CVisuals@@AAEXH@Z 10022300 f   Visuals.obj
 0001:00021a40       ?TriggerStatus@@YAXXZ      10022a40 f   Visuals.obj
 0001:00021c20       ?Run@CVisuals@@QAEXXZ      10022c20 f   Visuals.obj
 0001:00021e80       ?DrawAimBotFOV@CVisuals@@AAEXXZ 10022e80 f   Visuals.obj
 0001:00022080       ?RemoveScope@CVisuals@@AAEXXZ 10023080 f   Visuals.obj
 0001:00022100       ?CustomFOV@CVisuals@@AAEXXZ 10023100 f   Visuals.obj
 0001:000221a0       ?PenetrationInfo@CVisuals@@AAEXXZ 100231a0 f   Visuals.obj
 0001:00022650       ?Crosshair@CVisuals@@AAEXXZ 10023650 f   Visuals.obj
 0001:00022860       ?TraceGrenade@CVisuals@@AAEXXZ 10023860 f   Visuals.obj
 0001:000231c0       ?SoundESP@CVisuals@@AAEXXZ 100241c0 f   Visuals.obj
 0001:00023530       ?PlayerESP@CVisuals@@AAEXI@Z 10024530 f   Visuals.obj
 0001:00025a50       ?Debug@CVisuals@@AAEXXZ    10026a50 f   Visuals.obj
 0001:00025cf0       ?FindPoint@@YAXPAMHHH@Z    10026cf0 f   Visuals.obj
 0001:00025e20       ?WorldToScreen@@YA_NPAM0AA_N@Z 10026e20 f   Visuals.obj
 0001:00025fb0       ?ScreenESP@CVisuals@@AAEXIEEEE@Z 10026fb0 f   Visuals.obj
 0001:000261e0       ?UTIL_EntityInSphere@@YA_NPAUcl_entity_s@@VVector@@M@Z 100271e0 f   Visuals.obj
 0001:00026320       ?GetAmountOfPlayerVisible@@YAMVVector@@PAUcl_entity_s@@@Z 10027320 f   Visuals.obj
 0001:000269b0       ?Bomb@CVisuals@@AAEXXZ     100279b0 f   Visuals.obj
 0001:00026c90       ?Lightmap@CVisuals@@QAEXXZ 10027c90 f   Visuals.obj
 0001:00026ef0       ?DrawFake@CVisuals@@AAEXHH@Z 10027ef0 f   Visuals.obj
 0001:00027370       ?DrawEntities@CVisuals@@AAEXXZ 10028370 f   Visuals.obj
 0001:00028080       ??D?$_Deque_unchecked_iterator@V?$_Deque_val@U?$_Deque_simple_types@Umy_sound_t@@@std@@@std@@@std@@QBEAAUmy_sound_t@@XZ 10029080 f i Visuals.obj
 0001:000280a0       ?pop_front@?$deque@Umy_sound_t@@V?$allocator@Umy_sound_t@@@std@@@std@@QAEXXZ 100290a0 f i Visuals.obj
 0001:00028180       ?front@?$deque@Umy_sound_t@@V?$allocator@Umy_sound_t@@@std@@@std@@QAEAAUmy_sound_t@@XZ 10029180 f i Visuals.obj
 0001:000281a0       ?clear@?$deque@VVector@@V?$allocator@VVector@@@std@@@std@@QAEXXZ 100291a0 f i Visuals.obj
 0001:000281c0       ?push_back@?$deque@VVector@@V?$allocator@VVector@@@std@@@std@@QAEXABVVector@@@Z 100291c0 f i Visuals.obj
 0001:000281f0       ??A?$deque@VVector@@V?$allocator@VVector@@@std@@@std@@QAEAAVVector@@I@Z 100291f0 f i Visuals.obj
 0001:00028230       ??1?$deque@VVector@@V?$allocator@VVector@@@std@@@std@@QAE@XZ 10029230 f i Visuals.obj
 0001:000282a0       ??D?$_Deque_unchecked_iterator@V?$_Deque_val@U?$_Deque_simple_types@VVector@@@std@@@std@@@std@@QBEAAVVector@@XZ 100292a0 f i Visuals.obj
 0001:000282c0       ??D?$_Deque_unchecked_const_iterator@V?$_Deque_val@U?$_Deque_simple_types@Umy_sound_t@@@std@@@std@@@std@@QBEABUmy_sound_t@@XZ 100292c0 f i Visuals.obj
 0001:00028310       ?_Tidy@?$deque@VVector@@V?$allocator@VVector@@@std@@@std@@AAEXXZ 10029310 f i Visuals.obj
 0001:00028440       ??D?$_Deque_unchecked_const_iterator@V?$_Deque_val@U?$_Deque_simple_types@VVector@@@std@@@std@@@std@@QBEABVVector@@XZ 10029440 f i Visuals.obj
 0001:00028490       ?pop_back@?$deque@VVector@@V?$allocator@VVector@@@std@@@std@@QAEXXZ 10029490 f i Visuals.obj
 0001:00028570       ?deallocate@?$allocator@VVector@@@std@@QAEXQAVVector@@I@Z 10029570 f i Visuals.obj
 0001:00028590       ??$pow@MH$0A@@@YANMH@Z     10029590 f i Visuals.obj
 0001:000285c0       ??$_Emplace_back_internal@ABVVector@@@?$deque@VVector@@V?$allocator@VVector@@@std@@@std@@AAEXABVVector@@@Z 100295c0 f i Visuals.obj
 0001:00028700       ??$destroy@VVector@@@?$_Default_allocator_traits@V?$allocator@VVector@@@std@@@std@@SAXAAV?$allocator@VVector@@@1@QAVVector@@@Z 10029700 f i Visuals.obj
 0001:00028710       ??_GVector@@QAEPAXI@Z      10029710 f i Visuals.obj
 0001:00028740       ?_Growmap@?$deque@VVector@@V?$allocator@VVector@@@std@@@std@@AAEXI@Z 10029740 f i Visuals.obj
 0001:000289a0       ?allocate@?$allocator@VVector@@@std@@QAEPAVVector@@I@Z 100299a0 f i Visuals.obj
 0001:000289d0       ?max_size@?$deque@VVector@@V?$allocator@VVector@@@std@@@std@@QBEIXZ 100299d0 f i Visuals.obj
 0001:00028a10       ?max_size@?$_Default_allocator_traits@V?$allocator@VVector@@@std@@@std@@SAIABV?$allocator@VVector@@@2@@Z 10029a10 f i Visuals.obj
 0001:00028a20       ??$construct@VVector@@ABV1@@?$_Default_allocator_traits@V?$allocator@VVector@@@std@@@std@@SAXAAV?$allocator@VVector@@@1@QAVVector@@ABV3@@Z 10029a20 f i Visuals.obj
 0001:00028a60       ??$_Get_size_of_n@$0M@@std@@YAII@Z 10029a60 f i Visuals.obj
 0001:00028a90       ?PM_FindTextureType@@YADPAD@Z 10029a90 f   Textures.obj
 0001:00028b20       ?GetTextureType@@YADPAUpmtrace_s@@PAM1@Z 10029b20 f   Textures.obj
 0001:00028c70       ?PM_SwapTextures@@YAXHH@Z  10029c70 f   Textures.obj
 0001:00028d80       ?PM_SortTextures@@YAXXZ    10029d80 f   Textures.obj
 0001:00028e00       ?PM_InitTextureTypes@@YAXPAUplayermove_s@@@Z 10029e00 f   Textures.obj
 0001:000291c0       ?ResetAccuracy@@YAXXZ      1002a1c0 f   Weapons.obj
 0001:000292d0       ?UpdateWeaponData@@YAXXZ   1002a2d0 f   Weapons.obj
 0001:0002abb0       ?Reload@@YAXXZ             1002bbb0 f   Weapons.obj
 0001:0002abc0       ?Simulate@@YAXAAM0@Z       1002bbc0 f   Weapons.obj
 0001:0002c2f0       ?PrimaryAttack@@YAXXZ      1002d2f0 f   Weapons.obj
 0001:0002cda0       ?ItemPostFrame@@YAXPAUusercmd_s@@@Z 1002dda0 f   Weapons.obj
 0001:0002ced0       ?ItemPreFrame@@YAXPAUlocal_state_s@@0PAUusercmd_s@@HNI@Z 1002ded0 f   Weapons.obj
 0001:0002d000       ?IsCurWeaponSilenced@@YA_NXZ 1002e000 f   Weapons.obj
 0001:0002d040       ?IsCurWeaponInBurst@@YA_NXZ 1002e040 f   Weapons.obj
 0001:0002d080       ?CurPenetration@@YAHXZ     1002e080 f   Weapons.obj
 0001:0002d090       ?CurBulletType@@YAHXZ      1002e090 f   Weapons.obj
 0001:0002d0a0       ?CurDistance@@YAMXZ        1002e0a0 f   Weapons.obj
 0001:0002d0b0       ?CurWallPierce@@YAMXZ      1002e0b0 f   Weapons.obj
 0001:0002d0e0       ?CurDamage@@YAHXZ          1002e0e0 f   Weapons.obj
 0001:0002d130       ?IsCurWeaponKnife@@YA_NXZ  1002e130 f   Weapons.obj
 0001:0002d150       ?IsCurWeaponSniper@@YA_NXZ 1002e150 f   Weapons.obj
 0001:0002d1b0       ?IsCurWeaponPistol@@YA_NXZ 1002e1b0 f   Weapons.obj
 0001:0002d210       ?IsCurWeaponGun@@YA_NXZ    1002e210 f   Weapons.obj
 0001:0002d240       ?IsCurWeaponNonAttack@@YA_NXZ 1002e240 f   Weapons.obj
 0001:0002d270       ?IsCurWeaponNade@@YA_NXZ   1002e270 f   Weapons.obj
 0001:0002d2a0       ?CanAttack@@YA_NXZ         1002e2a0 f   Weapons.obj
 0001:0002d2e0       __vsprintf_l               1002e2e0 f i World.obj
 0001:0002d300       _sprintf                   1002e300 f i World.obj
 0001:0002d340       ?make_error_code@std@@YA?AVerror_code@1@W4io_errc@1@@Z 1002e340 f i World.obj
 0001:0002d360       ?name@_Iostream_error_category2@std@@UBEPBDXZ 1002e360 f i World.obj
 0001:0002d370       ?message@_Iostream_error_category2@std@@UBE?AV?$basic_string@DU?$char_traits@D@std@@V?$allocator@D@2@@2@H@Z 1002e370 f i World.obj
 0001:0002d3e0       ?iostream_category@std@@YAABVerror_category@1@XZ 1002e3e0 f i World.obj
 0001:0002d3f0       ??0bad_cast@std@@QAE@XZ    1002e3f0 f i World.obj
 0001:0002d420       ?_Throw_bad_cast@std@@YAXXZ 1002e420 f i World.obj
 0001:0002d440       ??0bad_cast@std@@QAE@ABV01@@Z 1002e440 f i World.obj
 0001:0002d470       ??1_Facet_base@std@@UAE@XZ 1002e470 f i World.obj
 0001:0002d490       ??_E_Facet_base@std@@UAEPAXI@Z 1002e490 f i * CIL library *:* CIL module *
 0001:0002d490       ??_G_Facet_base@std@@UAEPAXI@Z 1002e490 f i World.obj
 0001:0002d4c0       ??0_Locinfo@std@@QAE@PBD@Z 1002e4c0 f i World.obj
 0001:0002d590       ??1_Locinfo@std@@QAE@XZ    1002e590 f i World.obj
 0001:0002d620       ?_Getctype@_Locinfo@std@@QBE?AU_Ctypevec@@XZ 1002e620 f i World.obj
 0001:0002d670       ??0<lambda_59a2c67489030a4876926c40fd567950>@@QAE@QAV?$basic_config@Ujson_args@configor@@@configor@@@Z 1002e670 f i Pipi_edit.obj
 0001:0002d670       ??0id@locale@std@@QAE@I@Z  1002e670 f i World.obj
 0001:0002d690       ??Bid@locale@std@@QAEIXZ   1002e690 f i World.obj
 0001:0002d700       ?_Incref@facet@locale@std@@UAEXXZ 1002e700 f i World.obj
 0001:0002d720       ?_Decref@facet@locale@std@@UAEPAV_Facet_base@3@XZ 1002e720 f i World.obj
 0001:0002d750       ??0facet@locale@std@@IAE@I@Z 1002e750 f i World.obj
 0001:0002d780       ??1facet@locale@std@@MAE@XZ 1002e780 f i World.obj
 0001:0002d7a0       ??0locale@std@@QAE@ABV01@@Z 1002e7a0 f i World.obj
 0001:0002d7d0       ??0locale@std@@QAE@XZ      1002e7d0 f i World.obj
 0001:0002d820       ??1locale@std@@QAE@XZ      1002e820 f i World.obj
 0001:0002d870       ?c_str@locale@std@@QBEPBDXZ 1002e870 f i World.obj
 0001:0002d8b0       ?_Getfacet@locale@std@@QBEPBVfacet@12@I@Z 1002e8b0 f i World.obj
 0001:0002d930       ??_Efacet@locale@std@@MAEPAXI@Z 1002e930 f i * CIL library *:* CIL module *
 0001:0002d930       ??_Gfacet@locale@std@@MAEPAXI@Z 1002e930 f i World.obj
 0001:0002d960       ??0_Facet_base@std@@QAE@XZ 1002e960 f i World.obj
 0001:0002d980       ??0codecvt_base@std@@QAE@I@Z 1002e980 f i World.obj
 0001:0002d9b0       ?decimal_point@?$numpunct@D@std@@QBEDXZ 1002e9b0 f i Pipi_edit.obj
 0001:0002d9b0       ?always_noconv@codecvt_base@std@@QBE_NXZ 1002e9b0 f i World.obj
 0001:0002d9d0       ??1codecvt_base@std@@UAE@XZ 1002e9d0 f i World.obj
 0001:0002d9f0       ?do_always_noconv@codecvt_base@std@@MBE_NXZ 1002e9f0 f i World.obj
 0001:0002da00       ?do_max_length@codecvt_base@std@@MBEHXZ 1002ea00 f i World.obj
 0001:0002da00       ?do_encoding@codecvt_base@std@@MBEHXZ 1002ea00 f i World.obj
 0001:0002da10       ??_Ecodecvt_base@std@@UAEPAXI@Z 1002ea10 f i * CIL library *:* CIL module *
 0001:0002da10       ??_Gcodecvt_base@std@@UAEPAXI@Z 1002ea10 f i World.obj
 0001:0002da40       ??0ctype_base@std@@QAE@I@Z 1002ea40 f i World.obj
 0001:0002da70       ??1ctype_base@std@@UAE@XZ  1002ea70 f i World.obj
 0001:0002da90       ??_Gctype_base@std@@UAEPAXI@Z 1002ea90 f i World.obj
 0001:0002da90       ??_Ectype_base@std@@UAEPAXI@Z 1002ea90 f i * CIL library *:* CIL module *
 0001:0002dac0       ?widen@?$ctype@D@std@@QBEDD@Z 1002eac0 f i World.obj
 0001:0002dae0       ??0?$ctype@D@std@@QAE@ABV_Locinfo@1@I@Z 1002eae0 f i World.obj
 0001:0002db50       ?_Getcat@?$ctype@D@std@@SAIPAPBVfacet@locale@2@PBV42@@Z 1002eb50 f i World.obj
 0001:0002dc40       ??1?$ctype@D@std@@MAE@XZ   1002ec40 f i World.obj
 0001:0002dc70       ?_Init@?$ctype@D@std@@IAEXABV_Locinfo@2@@Z 1002ec70 f i World.obj
 0001:0002dcb0       ?_Tidy@?$ctype@D@std@@IAEXXZ 1002ecb0 f i World.obj
 0001:0002dd10       ?do_tolower@?$ctype@D@std@@MBEDD@Z 1002ed10 f i World.obj
 0001:0002dd40       ?do_tolower@?$ctype@D@std@@MBEPBDPADPBD@Z 1002ed40 f i World.obj
 0001:0002dd90       ?do_toupper@?$ctype@D@std@@MBEDD@Z 1002ed90 f i World.obj
 0001:0002ddc0       ?do_toupper@?$ctype@D@std@@MBEPBDPADPBD@Z 1002edc0 f i World.obj
 0001:0002de10       ?do_widen@?$ctype@D@std@@MBEDD@Z 1002ee10 f i World.obj
 0001:0002de20       ?do_widen@?$ctype@D@std@@MBEPBDPBD0PAD@Z 1002ee20 f i World.obj
 0001:0002de60       ?do_narrow@?$ctype@D@std@@MBEDDD@Z 1002ee60 f i World.obj
 0001:0002de70       ?do_narrow@?$ctype@D@std@@MBEPBDPBD0DPAD@Z 1002ee70 f i World.obj
 0001:0002deb0       ??_G?$ctype@D@std@@MAEPAXI@Z 1002eeb0 f i World.obj
 0001:0002deb0       ??_E?$ctype@D@std@@MAEPAXI@Z 1002eeb0 f i * CIL library *:* CIL module *
 0001:0002dee0       ??0failure@ios_base@std@@QAE@PBDABVerror_code@2@@Z 1002eee0 f i World.obj
 0001:0002df10       ?clear@ios_base@std@@QAEXH_N@Z 1002ef10 f i World.obj
 0001:0002dfb0       ?clear@ios_base@std@@QAEXH@Z 1002efb0 f i World.obj
 0001:0002dfd0       ?rdstate@ios_base@std@@QBEHXZ 1002efd0 f i World.obj
 0001:0002dff0       ?getloc@ios_base@std@@QBE?AVlocale@2@XZ 1002eff0 f i World.obj
 0001:0002e030       ??1ios_base@std@@UAE@XZ    1002f030 f i World.obj
 0001:0002e080       ??0ios_base@std@@IAE@XZ    1002f080 f i World.obj
 0001:0002e0c0       ?_Init@ios_base@std@@IAEXXZ 1002f0c0 f i World.obj
 0001:0002e170       ??_Gfailure@ios_base@std@@UAEPAXI@Z 1002f170 f i World.obj
 0001:0002e170       ??_Efailure@ios_base@std@@UAEPAXI@Z 1002f170 f i * CIL library *:* CIL module *
 0001:0002e1a0       ??1failure@ios_base@std@@UAE@XZ 1002f1a0 f i World.obj
 0001:0002e1c0       ??0failure@ios_base@std@@QAE@ABV012@@Z 1002f1c0 f i World.obj
 0001:0002e1f0       ??_Gios_base@std@@UAEPAXI@Z 1002f1f0 f i World.obj
 0001:0002e1f0       ??_Eios_base@std@@UAEPAXI@Z 1002f1f0 f i * CIL library *:* CIL module *
 0001:0002e220       ??$_Fgetc@D@std@@YA_NAADPAU_iobuf@@@Z 1002f220 f i World.obj
 0001:0002e250       ??$_Fputc@D@std@@YA_NDPAU_iobuf@@@Z 1002f250 f i World.obj
 0001:0002e290       ??$_Ungetc@D@std@@YA_NABDPAU_iobuf@@@Z 1002f290 f i World.obj
 0001:0002e2d0       ??0CBaseLocal@@QAE@XZ      1002f2d0 f i World.obj
 0001:0002e3d0       ??1CBaseLocal@@QAE@XZ      1002f3d0 f i World.obj
 0001:0002e470       ??0CBasePlayer@@QAE@XZ     1002f470 f i World.obj
 0001:0002e4f0       ??1CBasePlayer@@QAE@XZ     1002f4f0 f i World.obj
 0001:0002e530       ??0CBaseEntity@@QAE@XZ     1002f530 f i World.obj
 0001:0002e550       ??1CBaseEntity@@QAE@XZ     1002f550 f i World.obj
 0001:0002e570       ??0player_extra_info_t@@QAE@XZ 1002f570 f i World.obj
 0001:0002e640       ??1player_extra_info_t@@QAE@XZ 1002f640 f i World.obj
 0001:0002e6f0       ?MyVectorTransform@@YAXVVector@@QAY03MPAMHM@Z 1002f6f0 f   World.obj
 0001:0002e880       ?GetHitboxes@CWorld@@QAEXPAUcl_entity_s@@@Z 1002f880 f   World.obj
 0001:0002f910       ?UpdateLocalPlayer@CWorld@@QAEXMPAUusercmd_s@@@Z 10030910 f   World.obj
 0001:0002fde0       ?UpdateEntities@CWorld@@QAEXXZ 10030de0 f   World.obj
 0001:00030420       ?UpdatePlayers@CWorld@@QAEXXZ 10031420 f   World.obj
 0001:00030a10       ?UpdateVisibility@CWorld@@QAEXH@Z 10031a10 f   World.obj
 0001:000316b0       ?ClearLocalPlayer@CWorld@@QAEXXZ 100326b0 f   World.obj
 0001:000316d0       ?ClearPlayers@CWorld@@QAEXXZ 100326d0 f   World.obj
 0001:00031720       ?ClearEntities@CWorld@@QAEXXZ 10032720 f   World.obj
 0001:00031750       ?ClearMapInfo@CWorld@@QAEXXZ 10032750 f   World.obj
 0001:00031770       ?Reset@CWorld@@QAEXXZ      10032770 f   World.obj
 0001:000317a0       ?Update@CWorld@@QAEXMPAUusercmd_s@@@Z 100327a0 f   World.obj
 0001:000317e0       ?UpdateMapInfo@CWorld@@QAEXXZ 100327e0 f   World.obj
 0001:00031be0       ??_D?$basic_ifstream@DU?$char_traits@D@std@@@std@@QAEXXZ 10032be0 f i World.obj
 0001:00031c10       ??0?$istreambuf_iterator@DU?$char_traits@D@std@@@std@@QAE@AAV?$basic_istream@DU?$char_traits@D@std@@@1@@Z 10032c10 f i World.obj
 0001:00031c90       ??0?$istreambuf_iterator@DU?$char_traits@D@std@@@std@@QAE@XZ 10032c90 f i World.obj
 0001:00031cc0       ?imbue@?$basic_filebuf@DU?$char_traits@D@std@@@std@@MAEXABVlocale@2@@Z 10032cc0 f i World.obj
 0001:00031cf0       ?sync@?$basic_filebuf@DU?$char_traits@D@std@@@std@@MAEHXZ 10032cf0 f i World.obj
 0001:00031d60       ?setbuf@?$basic_filebuf@DU?$char_traits@D@std@@@std@@MAEPAV?$basic_streambuf@DU?$char_traits@D@std@@@2@PAD_J@Z 10032d60 f i World.obj
 0001:00031de0       ?seekpos@?$basic_filebuf@DU?$char_traits@D@std@@@std@@MAE?AV?$fpos@U_Mbstatet@@@2@V32@H@Z 10032de0 f i World.obj
 0001:00031ea0       ?seekoff@?$basic_filebuf@DU?$char_traits@D@std@@@std@@MAE?AV?$fpos@U_Mbstatet@@@2@_JHH@Z 10032ea0 f i World.obj
 0001:00031f90       ?xsputn@?$basic_filebuf@DU?$char_traits@D@std@@@std@@MAE_JPBD_J@Z 10032f90 f i World.obj
 0001:000320b0       ?xsgetn@?$basic_filebuf@DU?$char_traits@D@std@@@std@@MAE_JPAD_J@Z 100330b0 f i World.obj
 0001:00032230       ?uflow@?$basic_filebuf@DU?$char_traits@D@std@@@std@@MAEHXZ 10033230 f i World.obj
 0001:000324a0       ?underflow@?$basic_filebuf@DU?$char_traits@D@std@@@std@@MAEHXZ 100334a0 f i World.obj
 0001:00032550       ?pbackfail@?$basic_filebuf@DU?$char_traits@D@std@@@std@@MAEHH@Z 10033550 f i World.obj
 0001:000326a0       ?overflow@?$basic_filebuf@DU?$char_traits@D@std@@@std@@MAEHH@Z 100336a0 f i World.obj
 0001:00032880       ?to_char_type@?$_Narrow_char_traits@DH@std@@SADABH@Z 10033880 f i World.obj
 0001:00032890       ?_Unlock@?$basic_filebuf@DU?$char_traits@D@std@@@std@@UAEXXZ 10033890 f i World.obj
 0001:000328c0       ?_Lock@?$basic_filebuf@DU?$char_traits@D@std@@@std@@UAEXXZ 100338c0 f i World.obj
 0001:000328f0       ??1?$basic_filebuf@DU?$char_traits@D@std@@@std@@UAE@XZ 100338f0 f i World.obj
 0001:00032960       ?sync@?$basic_streambuf@DU?$char_traits@D@std@@@std@@MAEHXZ 10033960 f i World.obj
 0001:00032970       ?setbuf@?$basic_streambuf@DU?$char_traits@D@std@@@std@@MAEPAV12@PAD_J@Z 10033970 f i World.obj
 0001:00032980       ?seekpos@?$basic_streambuf@DU?$char_traits@D@std@@@std@@MAE?AV?$fpos@U_Mbstatet@@@2@V32@H@Z 10033980 f i World.obj
 0001:000329a0       ?seekoff@?$basic_streambuf@DU?$char_traits@D@std@@@std@@MAE?AV?$fpos@U_Mbstatet@@@2@_JHH@Z 100339a0 f i World.obj
 0001:000329c0       ?xsputn@?$basic_streambuf@DU?$char_traits@D@std@@@std@@MAE_JPBD_J@Z 100339c0 f i World.obj
 0001:00032ae0       ?xsgetn@?$basic_streambuf@DU?$char_traits@D@std@@@std@@MAE_JPAD_J@Z 10033ae0 f i World.obj
 0001:00032c10       ?uflow@?$basic_streambuf@DU?$char_traits@D@std@@@std@@MAEHXZ 10033c10 f i World.obj
 0001:00032c70       ?underflow@?$basic_streambuf@DU?$char_traits@D@std@@@std@@MAEHXZ 10033c70 f i World.obj
 0001:00032c80       ?showmanyc@?$basic_streambuf@DU?$char_traits@D@std@@@std@@MAE_JXZ 10033c80 f i World.obj
 0001:00032c90       ?pbackfail@?$basic_streambuf@DU?$char_traits@D@std@@@std@@MAEHH@Z 10033c90 f i World.obj
 0001:00032c90       ?overflow@?$basic_streambuf@DU?$char_traits@D@std@@@std@@MAEHH@Z 10033c90 f i World.obj
 0001:00032cb0       ??1?$basic_streambuf@DU?$char_traits@D@std@@@std@@UAE@XZ 10033cb0 f i World.obj
 0001:00032cf0       ??1?$basic_ifstream@DU?$char_traits@D@std@@@std@@UAE@XZ 10033cf0 f i World.obj
 0001:00032d50       ??0?$basic_ifstream@DU?$char_traits@D@std@@@std@@QAE@PBDHH@Z 10033d50 f i World.obj
 0001:00032e60       ??1?$basic_istream@DU?$char_traits@D@std@@@std@@UAE@XZ 10033e60 f i World.obj
 0001:00032ea0       ??1?$basic_ios@DU?$char_traits@D@std@@@std@@UAE@XZ 10033ea0 f i World.obj
 0001:00032ec0       ??1?$_Yarn@_W@std@@QAE@XZ  10033ec0 f i World.obj
 0001:00032ec0       ??1?$_Yarn@D@std@@QAE@XZ   10033ec0 f i World.obj
 0001:00032ee0       ??0?$_Yarn@_W@std@@QAE@XZ  10033ee0 f i World.obj
 0001:00032f00       ?c_str@?$_Yarn@D@std@@QBEPBDXZ 10033f00 f i World.obj
 0001:00032f30       ??0?$_Yarn@D@std@@QAE@XZ   10033f30 f i World.obj
 0001:00032f50       ?substr@?$basic_string@DU?$char_traits@D@std@@V?$allocator@D@2@@std@@QBE?AV12@II@Z 10033f50 f i World.obj
 0001:00032fa0       ?find@?$basic_string@DU?$char_traits@D@std@@V?$allocator@D@2@@std@@QBEIQBDI@Z 10033fa0 f i World.obj
 0001:00032fe0       ??0?$basic_string@DU?$char_traits@D@std@@V?$allocator@D@2@@std@@QAE@XZ 10033fe0 f i World.obj
 0001:00033020       ??_G?$basic_filebuf@DU?$char_traits@D@std@@@std@@UAEPAXI@Z 10034020 f i World.obj
 0001:00033020       ??_E?$basic_filebuf@DU?$char_traits@D@std@@@std@@UAEPAXI@Z 10034020 f i * CIL library *:* CIL module *
 0001:00033050       ??_E?$basic_streambuf@DU?$char_traits@D@std@@@std@@UAEPAXI@Z 10034050 f i * CIL library *:* CIL module *
 0001:00033050       ??_G?$basic_streambuf@DU?$char_traits@D@std@@@std@@UAEPAXI@Z 10034050 f i World.obj
 0001:00033080       ??_Glocale@std@@QAEPAXI@Z  10034080 f i World.obj
 0001:000330b0       ??_G?$basic_ifstream@DU?$char_traits@D@std@@@std@@UAEPAXI@Z 100340b0 f i World.obj
 0001:000330b0       ??_E?$basic_ifstream@DU?$char_traits@D@std@@@std@@UAEPAXI@Z 100340b0 f i * CIL library *:* CIL module *
 0001:000330f0       ??_E?$basic_istream@DU?$char_traits@D@std@@@std@@UAEPAXI@Z 100340f0 f i * CIL library *:* CIL module *
 0001:000330f0       ??_G?$basic_istream@DU?$char_traits@D@std@@@std@@UAEPAXI@Z 100340f0 f i World.obj
 0001:00033130       ??_G?$basic_ios@DU?$char_traits@D@std@@@std@@UAEPAXI@Z 10034130 f i World.obj
 0001:00033130       ??_E?$basic_ios@DU?$char_traits@D@std@@@std@@UAEPAXI@Z 10034130 f i * CIL library *:* CIL module *
 0001:00033160       ??_D?$basic_istream@DU?$char_traits@D@std@@@std@@QAEXXZ 10034160 f i World.obj
 0001:00033190       ?do_length@?$codecvt@DDU_Mbstatet@@@std@@MBEHAAU_Mbstatet@@PBD1I@Z 10034190 f i World.obj
 0001:000331f0       ?do_unshift@?$codecvt@DDU_Mbstatet@@@std@@MBEHAAU_Mbstatet@@PAD1AAPAD@Z 100341f0 f i World.obj
 0001:00033210       ?do_in@?$codecvt@DDU_Mbstatet@@@std@@MBEHAAU_Mbstatet@@PBD1AAPBDPAD3AAPAD@Z 10034210 f i World.obj
 0001:00033210       ?do_out@?$codecvt@DDU_Mbstatet@@@std@@MBEHAAU_Mbstatet@@PBD1AAPBDPAD3AAPAD@Z 10034210 f i World.obj
 0001:00033240       ?do_always_noconv@?$codecvt@DDU_Mbstatet@@@std@@MBE_NXZ 10034240 f i World.obj
 0001:00033250       ??1?$codecvt@DDU_Mbstatet@@@std@@MAE@XZ 10034250 f i World.obj
 0001:00033270       ?out@?$codecvt@DDU_Mbstatet@@@std@@QBEHAAU_Mbstatet@@PBD1AAPBDPAD3AAPAD@Z 10034270 f i World.obj
 0001:000332b0       ?in@?$codecvt@DDU_Mbstatet@@@std@@QBEHAAU_Mbstatet@@PBD1AAPBDPAD3AAPAD@Z 100342b0 f i World.obj
 0001:000332f0       ??B?$fpos@U_Mbstatet@@@std@@QBE_JXZ 100342f0 f i World.obj
 0001:00033320       ?state@?$fpos@U_Mbstatet@@@std@@QBE?AU_Mbstatet@@XZ 10034320 f i World.obj
 0001:00033350       ??0?$fpos@U_Mbstatet@@@std@@QAE@U_Mbstatet@@_J@Z 10034350 f i World.obj
 0001:00033390       ??0?$fpos@U_Mbstatet@@@std@@QAE@_J@Z 10034390 f i World.obj
 0001:000333d0       ?_Set_back@?$basic_filebuf@DU?$char_traits@D@std@@@std@@AAEXXZ 100343d0 f i World.obj
 0001:00033430       ?_Reset_back@?$basic_filebuf@DU?$char_traits@D@std@@@std@@AAEXXZ 10034430 f i World.obj
 0001:00033470       ?_Initcvt@?$basic_filebuf@DU?$char_traits@D@std@@@std@@IAEXABV?$codecvt@DDU_Mbstatet@@@2@@Z 10034470 f i World.obj
 0001:000334c0       ?_Endwrite@?$basic_filebuf@DU?$char_traits@D@std@@@std@@IAE_NXZ 100344c0 f i World.obj
 0001:000335e0       ?_Init@?$basic_filebuf@DU?$char_traits@D@std@@@std@@IAEXPAU_iobuf@@W4_Initfl@12@@Z 100345e0 f i World.obj
 0001:000336c0       ?close@?$basic_filebuf@DU?$char_traits@D@std@@@std@@QAEPAV12@XZ 100346c0 f i World.obj
 0001:00033730       ?open@?$basic_filebuf@DU?$char_traits@D@std@@@std@@QAEPAV12@PBDHH@Z 10034730 f i World.obj
 0001:000337f0       ??0?$basic_filebuf@DU?$char_traits@D@std@@@std@@QAE@XZ 100347f0 f i World.obj
 0001:00033860       ?_Pnavail@?$basic_streambuf@DU?$char_traits@D@std@@@std@@IBE_JXZ 10034860 f i World.obj
 0001:00033890       ?_Pninc@?$basic_streambuf@DU?$char_traits@D@std@@@std@@IAEPADXZ 10034890 f i World.obj
 0001:000338e0       ?pbump@?$basic_streambuf@DU?$char_traits@D@std@@@std@@IAEXH@Z 100348e0 f i World.obj
 0001:00033920       ?_Gnavail@?$basic_streambuf@DU?$char_traits@D@std@@@std@@IBE_JXZ 10034920 f i World.obj
 0001:00033950       ?_Gninc@?$basic_streambuf@DU?$char_traits@D@std@@@std@@IAEPADXZ 10034950 f i World.obj
 0001:000339a0       ?_Gndec@?$basic_streambuf@DU?$char_traits@D@std@@@std@@IAEPADXZ 100349a0 f i World.obj
 0001:000339e0       ?epptr@?$basic_streambuf@DU?$char_traits@D@std@@@std@@IBEPADXZ 100349e0 f i World.obj
 0001:00033a00       ?gbump@?$basic_streambuf@DU?$char_traits@D@std@@@std@@IAEXH@Z 10034a00 f i World.obj
 0001:00033a40       ?egptr@?$basic_streambuf@DU?$char_traits@D@std@@@std@@IBEPADXZ 10034a40 f i World.obj
 0001:00033a60       ?pptr@?$basic_streambuf@DU?$char_traits@D@std@@@std@@IBEPADXZ 10034a60 f i World.obj
 0001:00033a80       ?gptr@?$basic_streambuf@DU?$char_traits@D@std@@@std@@IBEPADXZ 10034a80 f i World.obj
 0001:00033aa0       ?eback@?$basic_streambuf@DU?$char_traits@D@std@@@std@@IBEPADXZ 10034aa0 f i World.obj
 0001:00033ac0       ??0?$basic_istream@DU?$char_traits@D@std@@@std@@QAE@PAV?$basic_streambuf@DU?$char_traits@D@std@@@1@_N@Z 10034ac0 f i World.obj
 0001:00033b90       ??0?$basic_ios@DU?$char_traits@D@std@@@std@@IAE@XZ 10034b90 f i World.obj
 0001:00033bb0       ?rdbuf@?$basic_ios@DU?$char_traits@D@std@@@std@@QBEPAV?$basic_streambuf@DU?$char_traits@D@std@@@2@XZ 10034bb0 f i World.obj
 0001:00033bd0       ?setstate@?$basic_ios@DU?$char_traits@D@std@@@std@@QAEXH_N@Z 10034bd0 f i World.obj
 0001:00033c00       ?_Tidy@?$_Yarn@_W@std@@AAEXXZ 10034c00 f i World.obj
 0001:00033c00       ?_Tidy@?$_Yarn@D@std@@AAEXXZ 10034c00 f i World.obj
 0001:00033c30       ?get_allocator@?$basic_string@DU?$char_traits@D@std@@V?$allocator@D@2@@std@@QBE?AV?$allocator@D@2@XZ 10034c30 f i World.obj
 0001:00033c30       ?key_comp@?$_Tree@V?$_Tmap_traits@V?$basic_string@DU?$char_traits@D@std@@V?$allocator@D@2@@std@@V?$basic_config@Ujson_args@configor@@@configor@@U?$less@V?$basic_string@DU?$char_traits@D@std@@V?$allocator@D@2@@std@@@2@V?$allocator@U?$pair@$$CBV?$basic_string@DU?$char_traits@D@std@@V?$allocator@D@2@@std@@V?$basic_config@Ujson_args@configor@@@configor@@@std@@@2@$0A@@std@@@std@@QBE?AU?$less@V?$basic_string@DU?$char_traits@D@std@@V?$allocator@D@2@@std@@@2@XZ 10034c30 f i Pipi_edit.obj
 0001:00033c50       ?front@?$basic_string@DU?$char_traits@D@std@@V?$allocator@D@2@@std@@QAEAADXZ 10034c50 f i World.obj
 0001:00033c70       ?push_back@?$basic_string@DU?$char_traits@D@std@@V?$allocator@D@2@@std@@QAEXD@Z 10034c70 f i World.obj
 0001:00033d00       ??R<lambda_15711c68e099a15a58f4d77303cb286d>@@QBE@QADQBDID@Z 10034d00 f i World.obj
 0001:00033d60       ?erase@?$basic_string@DU?$char_traits@D@std@@V?$allocator@D@2@@std@@QAEAAV12@II@Z 10034d60 f i World.obj
 0001:00033d90       ??0?$basic_string@DU?$char_traits@D@std@@V?$allocator@D@2@@std@@QAE@ABV01@IIABV?$allocator@D@1@@Z 10034d90 f i World.obj
 0001:00033e40       ?not_eof@?$_Narrow_char_traits@DH@std@@SAHABH@Z 10034e40 f i World.obj
 0001:00033e90       ?eq_int_type@?$_Narrow_char_traits@DH@std@@SA_NABH0@Z 10034e90 f i World.obj
 0001:00033ec0       ?to_int_type@?$_Narrow_char_traits@DH@std@@SAHABD@Z 10034ec0 f i World.obj
 0001:00033ed0       ??_E?$codecvt@DDU_Mbstatet@@@std@@MAEPAXI@Z 10034ed0 f i * CIL library *:* CIL module *
 0001:00033ed0       ??_G?$codecvt@DDU_Mbstatet@@@std@@MAEPAXI@Z 10034ed0 f i World.obj
 0001:00033f00       ?unshift@?$codecvt@DDU_Mbstatet@@@std@@QBEHAAU_Mbstatet@@PAD1AAPAD@Z 10034f00 f i World.obj
 0001:00033f30       ?_Init@?$basic_streambuf@DU?$char_traits@D@std@@@std@@IAEXPAPAD0PAH001@Z 10034f30 f i World.obj
 0001:00033f80       ?_Init@?$basic_streambuf@DU?$char_traits@D@std@@@std@@IAEXXZ 10034f80 f i World.obj
 0001:00033ff0       ?setg@?$basic_streambuf@DU?$char_traits@D@std@@@std@@IAEXPAD00@Z 10034ff0 f i World.obj
 0001:00034030       ?getloc@?$basic_streambuf@DU?$char_traits@D@std@@@std@@QBE?AVlocale@2@XZ 10035030 f i World.obj
 0001:00034070       ??0?$basic_streambuf@DU?$char_traits@D@std@@@std@@IAE@XZ 10035070 f i World.obj
 0001:000340d0       ?init@?$basic_ios@DU?$char_traits@D@std@@@std@@IAEXPAV?$basic_streambuf@DU?$char_traits@D@std@@@2@_N@Z 100350d0 f i World.obj
 0001:00034140       ?clear@?$basic_ios@DU?$char_traits@D@std@@@std@@QAEXH_N@Z 10035140 f i World.obj
 0001:00034180       ?_Erase_noexcept@?$basic_string@DU?$char_traits@D@std@@V?$allocator@D@2@@std@@AAEAAV12@II@Z 10035180 f i World.obj
 0001:00034200       ?assign@?$basic_string@DU?$char_traits@D@std@@V?$allocator@D@2@@std@@QAEAAV12@ABV12@II@Z 10035200 f i World.obj
 0001:00034250       ?_Check_offset@?$_String_val@U?$_Simple_types@D@std@@@std@@QBEXI@Z 10035250 f i World.obj
 0001:00034270       ?setp@?$basic_streambuf@DU?$char_traits@D@std@@@std@@IAEXPAD0@Z 10035270 f i World.obj
 0001:000342b0       ?widen@?$basic_ios@DU?$char_traits@D@std@@@std@@QBEDD@Z 100352b0 f i World.obj
 0001:00034340       ?_Clamp_suffix_size@?$_String_val@U?$_Simple_types@D@std@@@std@@QBEIII@Z 10035340 f i World.obj
 0001:00034370       ?_Xran@?$_String_val@U?$_Simple_types@D@std@@@std@@SAXXZ 10035370 f i World.obj
 0001:00034380       ??$_Immortalize_memcpy_image@V_Iostream_error_category2@std@@@std@@YAABV_Iostream_error_category2@0@XZ 10035380 f i World.obj
 0001:00034390       ??$min@H@std@@YAABHABH0@Z  10035390 f i World.obj
 0001:000343c0       ??$use_facet@V?$ctype@D@std@@@std@@YAABV?$ctype@D@0@ABVlocale@0@@Z 100353c0 f i World.obj
 0001:000344e0       ??$?0V?$istreambuf_iterator@DU?$char_traits@D@std@@@std@@$0A@@?$basic_string@DU?$char_traits@D@std@@V?$allocator@D@2@@std@@QAE@V?$istreambuf_iterator@DU?$char_traits@D@std@@@1@0ABV?$allocator@D@1@@Z 100354e0 f i World.obj
 0001:000345c0       ??$use_facet@V?$codecvt@DDU_Mbstatet@@@std@@@std@@YAABV?$codecvt@DDU_Mbstatet@@@0@ABVlocale@0@@Z 100355c0 f i World.obj
 0001:000346e0       ??$_Traits_find@U?$char_traits@D@std@@@std@@YAIQBDII0I@Z 100356e0 f i World.obj
 0001:00034780       ??$_Reallocate_grow_by@V<lambda_15711c68e099a15a58f4d77303cb286d>@@D@?$basic_string@DU?$char_traits@D@std@@V?$allocator@D@2@@std@@AAEAAV01@IV<lambda_15711c68e099a15a58f4d77303cb286d>@@D@Z 10035780 f i World.obj
 0001:000348b0       ?release@?$unique_ptr@V_Facet_base@std@@U?$default_delete@V_Facet_base@std@@@2@@std@@QAEPAV_Facet_base@2@XZ 100358b0 f i World.obj
 0001:000348e0       ??1?$unique_ptr@V_Facet_base@std@@U?$default_delete@V_Facet_base@std@@@2@@std@@QAE@XZ 100358e0 f i World.obj
 0001:00034910       ?_Getcat@?$codecvt@DDU_Mbstatet@@@std@@SAIPAPBVfacet@locale@2@PBV42@@Z 10035910 f i World.obj
 0001:00034a00       ?find@?$_Narrow_char_traits@DH@std@@SAPBDQBDIABD@Z 10035a00 f i World.obj
 0001:00034a30       ?compare@?$_Narrow_char_traits@DH@std@@SAHQBD0I@Z 10035a30 f i World.obj
 0001:00034a60       ??R?$default_delete@V_Facet_base@std@@@std@@QBEXPAV_Facet_base@1@@Z 10035a60 f i World.obj
 0001:00034aa0       ??0?$codecvt@DDU_Mbstatet@@@std@@QAE@ABV_Locinfo@1@I@Z 10035aa0 f i World.obj
 0001:00034b10       ??$?0U?$default_delete@V_Facet_base@std@@@std@@$0A@@?$unique_ptr@V_Facet_base@std@@U?$default_delete@V_Facet_base@std@@@2@@std@@QAE@PAV_Facet_base@1@@Z 10035b10 f i World.obj
 0001:00034b40       ??$_Construct@V?$istreambuf_iterator@DU?$char_traits@D@std@@@std@@@?$basic_string@DU?$char_traits@D@std@@V?$allocator@D@2@@std@@QAEXV?$istreambuf_iterator@DU?$char_traits@D@std@@@1@V21@Uinput_iterator_tag@1@@Z 10035b40 f i World.obj
 0001:00034be0       ??1?$_Tidy_deallocate_guard@V?$basic_string@DU?$char_traits@D@std@@V?$allocator@D@2@@std@@@std@@QAE@XZ 10035be0 f i World.obj
 0001:00034c00       ??E?$istreambuf_iterator@DU?$char_traits@D@std@@@std@@QAEAAV01@XZ 10035c00 f i World.obj
 0001:00034c20       ??D?$istreambuf_iterator@DU?$char_traits@D@std@@@std@@QBEDXZ 10035c20 f i World.obj
 0001:00034c50       ?_Peek@?$istreambuf_iterator@DU?$char_traits@D@std@@@std@@ABEDXZ 10035c50 f i World.obj
 0001:00034cd0       ?_Inc@?$istreambuf_iterator@DU?$char_traits@D@std@@@std@@AAEXXZ 10035cd0 f i World.obj
 0001:00034d30       ?sgetc@?$basic_streambuf@DU?$char_traits@D@std@@@std@@QAEHXZ 10035d30 f i World.obj
 0001:00034d90       ?sbumpc@?$basic_streambuf@DU?$char_traits@D@std@@@std@@QAEHXZ 10035d90 f i World.obj
 0001:00034df0       ??$?0AAPAV_Facet_base@std@@@?$_Compressed_pair@U?$default_delete@V_Facet_base@std@@@std@@PAV_Facet_base@2@$00@std@@QAE@U_Zero_then_variadic_args_t@1@AAPAV_Facet_base@1@@Z 10035df0 f i World.obj
 0001:00034e20       ??$?9DU?$char_traits@D@std@@@std@@YA_NABV?$istreambuf_iterator@DU?$char_traits@D@std@@@0@0@Z 10035e20 f i World.obj
 0001:00034e60       ??$?8DU?$char_traits@D@std@@@std@@YA_NABV?$istreambuf_iterator@DU?$char_traits@D@std@@@0@0@Z 10035e60 f i World.obj
 0001:00034e80       ?equal@?$istreambuf_iterator@DU?$char_traits@D@std@@@std@@QBE_NABV12@@Z 10035e80 f i World.obj
 0001:00034ee8       ??_E?$basic_ifstream@DU?$char_traits@D@std@@@std@@$4PPPPPPPM@A@AEPAXI@Z 10035ee8 f i World.obj
 0001:00034ef0       ??_E?$basic_istream@DU?$char_traits@D@std@@@std@@$4PPPPPPPM@A@AEPAXI@Z 10035ef0 f i World.obj
 0001:00034f00       ?CommandByName@@YAPAUcmd_s@@PAD@Z 10035f00 f   Hook.obj
 0001:00034fa0       ?UserMsgByName@@YAPAU_UserMsg@@PAD@Z 10035fa0 f   Hook.obj
 0001:00035040       ?HookUserMsg@@YAP6AHPBDHPAX@ZPADP6AH0H1@Z@Z 10036040 f   Hook.obj
 0001:000350a0       ?HookTable@VHookTable@@QAE_NK@Z 100360a0 f   Hook.obj
 0001:00035170       ?HookIndex@VHookTable@@QAEXKPAX@Z 10036170 f   Hook.obj
 0001:00035190       ?UnHook@VHookTable@@QAEXXZ 10036190 f   Hook.obj
 0001:000351b0       ?ReHook@VHookTable@@QAEXXZ 100361b0 f   Hook.obj
 0001:000351d0       ?startDebugWindow@@YAXXZ   100361d0 f   Main.obj
 0001:000352d0       ?Hooked_WndProc@@YGJPAUHWND__@@IIJ@Z 100362d0 f   Main.obj
 0001:000353a0       ?Hook@@YGKPAX@Z            100363a0 f   Main.obj
 0001:000356e0       _DllMain@12                100366e0 f   Main.obj
 0001:00035870       ??A?$basic_string@DU?$char_traits@D@std@@V?$allocator@D@2@@std@@QAEAADI@Z 10036870 f i Main.obj
 0001:00035870       ??A?$basic_string@DU?$char_traits@D@std@@V?$allocator@D@2@@std@@QBEABDI@Z 10036870 f i Main.obj
 0001:00035890       ?Error@COffsets@@QAEXPAD@Z 10036890 f   Offsets.obj
 0001:000358c0       ?FindSpeed@COffsets@@QAEKXZ 100368c0 f   Offsets.obj
 0001:00035950       ?CL_Move@COffsets@@QAEKXZ  10036950 f   Offsets.obj
 0001:00035a10       ?GlobalTime@COffsets@@QAEXXZ 10036a10 f   Offsets.obj
 0001:00035aa0       ?FindStudioModelRenderer@COffsets@@QAEPAXXZ 10036aa0 f   Offsets.obj
 0001:00035b10       ?PreS_DynamicSound@COffsets@@QAEKXZ 10036b10 f   Offsets.obj
 0001:00035bd0       ?FindUserMsgBase@COffsets@@QAEPAU_UserMsg@@XZ 10036bd0 f   Offsets.obj
 0001:00035c90       ?FindPlayerMove@COffsets@@QAEPAXXZ 10036c90 f   Offsets.obj
 0001:00035d10       ?FindEngine@COffsets@@QAEPAXXZ 10036d10 f   Offsets.obj
 0001:00035de0       ?FindStudio@COffsets@@QAEPAXXZ 10036de0 f   Offsets.obj
 0001:00035e60       ?FindClient@COffsets@@QAEPAXXZ 10036e60 f   Offsets.obj
 0001:00035ee0       ?FindHardware@COffsets@@QAE_NXZ 10036ee0 f   Offsets.obj
 0001:00035f70       ?Absolute@COffsets@@QAEKK@Z 10036f70 f   Offsets.obj
 0001:00035f90       ?FarProc@COffsets@@QAEKKKK@Z 10036f90 f   Offsets.obj
 0001:00035fd0       ?FindReference@COffsets@@QAEKKKK@Z 10036fd0 f   Offsets.obj
 0001:00036030       ?FindPush@COffsets@@QAEKKKPAD@Z 10037030 f   Offsets.obj
 0001:000360b0       ?GetModuleSize@COffsets@@QAEKK@Z 100370b0 f   Offsets.obj
 0001:000360d0       ?FindModuleByName@COffsets@@QAE_NPBDPAUModule@@@Z 100370d0 f   Offsets.obj
 0001:00036150       ?EnablePageWrite@COffsets@@QAE_NKK@Z 10037150 f   Offsets.obj
 0001:00036190       ?RestorePageProtection@COffsets@@QAE_NKK@Z 10037190 f   Offsets.obj
 0001:000361f0       ?FindPattern@COffsets@@QAEKPAD0KKK@Z 100371f0 f   Offsets.obj
 0001:000362d0       ?FindPattern@COffsets@@QAEKPADKKK@Z 100372d0 f   Offsets.obj
 0001:000363a0       ?Hooked_glBegin@@YGXI@Z    100373a0 f   OpenGL.obj
 0001:000364b0       ?Hooked_glVertex3fv@@YGXPAM@Z 100374b0 f   OpenGL.obj
 0001:00036530       ?Hooked_glColor4f@@YGXMMMM@Z 10037530 f   OpenGL.obj
 0001:00036620       ?Hooked_wglSwapBuffers@@YGHPAUHDC__@@@Z 10037620 f   OpenGL.obj
 0001:00036830       ?Hooked_glClear@@YGXI@Z    10037830 f   OpenGL.obj
 0001:00036880       ?Hooked_glViewport@@YGXHHHH@Z 10037880 f   OpenGL.obj
 0001:000368e0       ?HookOpenGL@@YAXXZ         100378e0 f   OpenGL.obj
 0001:000369b0       _frexpl                    100379b0 f i Pipi_edit.obj
 0001:000369d0       __vsprintf_s_l             100379d0 f i Pipi_edit.obj
 0001:00036a20       _sprintf_s                 10037a20 f i Pipi_edit.obj
 0001:00036a60       ??0exception_ptr@std@@QAE@XZ 10037a60 f i Pipi_edit.obj
 0001:00036a80       ??1exception_ptr@std@@QAE@XZ 10037a80 f i Pipi_edit.obj
 0001:00036aa0       ??0exception_ptr@std@@QAE@ABV01@@Z 10037aa0 f i Pipi_edit.obj
 0001:00036ac0       ?_Current_exception@exception_ptr@std@@SA?AV12@XZ 10037ac0 f i Pipi_edit.obj
 0001:00036b20       ?current_exception@std@@YA?AVexception_ptr@1@XZ 10037b20 f i Pipi_edit.obj
 0001:00036b40       ??0logic_error@std@@QAE@PBD@Z 10037b40 f i Pipi_edit.obj
 0001:00036b70       ??0out_of_range@std@@QAE@PBD@Z 10037b70 f i Pipi_edit.obj
 0001:00036bc0       ?_Getcvt@_Locinfo@std@@QBE?AU_Cvtvec@@XZ 10037bc0 f i Pipi_edit.obj
 0001:00036c00       ?_Getlconv@_Locinfo@std@@QBEPBUlconv@@XZ 10037c00 f i Pipi_edit.obj
 0001:00036c10       ?_Getfalse@_Locinfo@std@@QBEPBDXZ 10037c10 f i Pipi_edit.obj
 0001:00036c20       ?_Gettrue@_Locinfo@std@@QBEPBDXZ 10037c20 f i Pipi_edit.obj
 0001:00036c30       ?is@?$ctype@D@std@@QBE_NFD@Z 10037c30 f i Pipi_edit.obj
 0001:00036c70       ?widen@?$ctype@D@std@@QBEPBDPBD0PAD@Z 10037c70 f i Pipi_edit.obj
 0001:00036ca0       ?good@ios_base@std@@QBE_NXZ 10037ca0 f i Pipi_edit.obj
 0001:00036cd0       ?eof@ios_base@std@@QBE_NXZ 10037cd0 f i Pipi_edit.obj
 0001:00036d00       ?flags@ios_base@std@@QBEHXZ 10037d00 f i Pipi_edit.obj
 0001:00036d20       ?setf@ios_base@std@@QAEHH@Z 10037d20 f i Pipi_edit.obj
 0001:00036d50       ?setf@ios_base@std@@QAEHHH@Z 10037d50 f i Pipi_edit.obj
 0001:00036d90       ?unsetf@ios_base@std@@QAEXH@Z 10037d90 f i Pipi_edit.obj
 0001:00036db0       ?precision@ios_base@std@@QBE_JXZ 10037db0 f i Pipi_edit.obj
 0001:00036dd0       ?width@ios_base@std@@QBE_JXZ 10037dd0 f i Pipi_edit.obj
 0001:00036df0       ?width@ios_base@std@@QAE_J_J@Z 10037df0 f i Pipi_edit.obj
 0001:00036e30       ?dec@std@@YAAAVios_base@1@AAV21@@Z 10037e30 f i Pipi_edit.obj
 0001:00036e50       ?hex@std@@YAAAVios_base@1@AAV21@@Z 10037e50 f i Pipi_edit.obj
 0001:00036e70       ?noshowbase@std@@YAAAVios_base@1@AAV21@@Z 10037e70 f i Pipi_edit.obj
 0001:00036e90       ?nouppercase@std@@YAAAVios_base@1@AAV21@@Z 10037e90 f i Pipi_edit.obj
 0001:00036eb0       ?right@std@@YAAAVios_base@1@AAV21@@Z 10037eb0 f i Pipi_edit.obj
 0001:00036ed0       ?uppercase@std@@YAAAVios_base@1@AAV21@@Z 10037ed0 f i Pipi_edit.obj
 0001:00036ef0       ?encode_surrogates@unicode@encoding@configor@@YAXIAAI0@Z 10037ef0 f i Pipi_edit.obj
 0001:00036f30       ?_Throw_tree_length_error@std@@YAXXZ 10037f30 f i Pipi_edit.obj
 0001:00036f40       ??0configor_exception@configor@@QAE@ABV?$basic_string@DU?$char_traits@D@std@@V?$allocator@D@2@@std@@@Z 10037f40 f i Pipi_edit.obj
 0001:00036f70       ??0configor_type_error@configor@@QAE@ABV?$basic_string@DU?$char_traits@D@std@@V?$allocator@D@2@@std@@@Z 10037f70 f i Pipi_edit.obj
 0001:00037000       ??_Gconfigor_type_error@configor@@UAEPAXI@Z 10038000 f i Pipi_edit.obj
 0001:00037000       ??_Gconfigor_invalid_key@configor@@UAEPAXI@Z 10038000 f i Pipi_edit.obj
 0001:00037000       ??_Econfigor_invalid_key@configor@@UAEPAXI@Z 10038000 f i * CIL library *:* CIL module *
 0001:00037000       ??_Econfigor_type_error@configor@@UAEPAXI@Z 10038000 f i * CIL library *:* CIL module *
 0001:00037000       ??_Gconfigor_serialization_error@configor@@UAEPAXI@Z 10038000 f i Pipi_edit.obj
 0001:00037000       ??_Econfigor_serialization_error@configor@@UAEPAXI@Z 10038000 f i * CIL library *:* CIL module *
 0001:00037030       ??0configor_invalid_key@configor@@QAE@ABV?$basic_string@DU?$char_traits@D@std@@V?$allocator@D@2@@std@@@Z 10038030 f i Pipi_edit.obj
 0001:000370c0       ??0configor_serialization_error@configor@@QAE@ABV?$basic_string@DU?$char_traits@D@std@@V?$allocator@D@2@@std@@@Z 100380c0 f i Pipi_edit.obj
 0001:00037150       ??_D?$fast_basic_ostringstream@D@detail@configor@@QAEXXZ 10038150 f i Pipi_edit.obj
 0001:00037180       ??1?$fast_basic_ostringstream@D@detail@configor@@UAE@XZ 10038180 f i Pipi_edit.obj
 0001:000371b0       ??1?$fast_string_ostreambuf@D@detail@configor@@UAE@XZ 100381b0 f i Pipi_edit.obj
 0001:000371b0       ??1?$fast_string_istreambuf@D@detail@configor@@UAE@XZ 100381b0 f i Pipi_edit.obj
 0001:000371d0       ??0configor_exception@configor@@QAE@ABV01@@Z 100381d0 f i Pipi_edit.obj
 0001:00037200       ??_D?$basic_ofstream@DU?$char_traits@D@std@@@std@@QAEXXZ 10038200 f i Pipi_edit.obj
 0001:00037230       ?writejson@@YA_NV?$basic_config@Ujson_args@configor@@@configor@@@Z 10038230 f   Pipi_edit.obj
 0001:000372c0       ??1?$basic_config@Ujson_args@configor@@@configor@@QAE@XZ 100382c0 f i Pipi_edit.obj
 0001:000372e0       ?__saveBitmap@@YA_NPBDPAUHBITMAP__@@PAUHPALETTE__@@@Z 100382e0 f   Pipi_edit.obj
 0001:00037480       ?screenCapture@@YA_NHHHHPBD@Z 10038480 f   Pipi_edit.obj
 0001:00037560       ?GetCurrentTimerMS@@YAXPAD@Z 10038560 f   Pipi_edit.obj
 0001:00037620       ?GetAIdata@@YAXQAH@Z       10038620 f   Pipi_edit.obj
 0001:00037a90       ?@@YAXXZ     10038a90 f   Pipi_edit.obj
 0001:00037ad0       ?hotkey_thread@@YGKPAX@Z   10038ad0 f   Pipi_edit.obj
 0001:00037b50       ??1?$config_value@V?$basic_config@Ujson_args@configor@@@configor@@@detail@configor@@QAE@XZ 10038b50 f i Pipi_edit.obj
 0001:00037ba0       ??0?$basic_config@Ujson_args@configor@@@configor@@QAE@ABV?$initializer_list@V?$basic_config@Ujson_args@configor@@@configor@@@std@@W4config_value_type@1@@Z 10038ba0 f i Pipi_edit.obj
 0001:00037d40       ??R<lambda_e76e69f9a7ae70d577c8760de63108b9>@@QBE@ABV?$basic_config@Ujson_args@configor@@@configor@@@Z 10038d40 f i Pipi_edit.obj
 0001:00037da0       ??R<lambda_59a2c67489030a4876926c40fd567950>@@QBE@ABV?$basic_config@Ujson_args@configor@@@configor@@@Z 10038da0 f i Pipi_edit.obj
 0001:00037de0       ??0?$basic_config@Ujson_args@configor@@@configor@@QAE@ABV01@@Z 10038de0 f i Pipi_edit.obj
 0001:00037e00       ?put_string@?$json_serializer@V?$basic_config@Ujson_args@configor@@@configor@@@detail@configor@@UAEXABV?$basic_string@DU?$char_traits@D@std@@V?$allocator@D@2@@std@@@Z 10038e00 f i Pipi_edit.obj
 0001:00038300       ?put_float@?$json_serializer@V?$basic_config@Ujson_args@configor@@@configor@@@detail@configor@@UAEXN@Z 10039300 f i Pipi_edit.obj
 0001:00038340       ?put_integer@?$json_serializer@V?$basic_config@Ujson_args@configor@@@configor@@@detail@configor@@UAEX_J@Z 10039340 f i Pipi_edit.obj
 0001:00038380       ?next@?$json_serializer@V?$basic_config@Ujson_args@configor@@@configor@@@detail@configor@@UAEXW4token_type@3@@Z 10039380 f i Pipi_edit.obj
 0001:00038660       ?target@?$json_serializer@V?$basic_config@Ujson_args@configor@@@configor@@@detail@configor@@UAEXAAV?$basic_ostream@DU?$char_traits@D@std@@@std@@@Z 10039660 f i Pipi_edit.obj
 0001:000386a0       ?close@?$basic_ofstream@DU?$char_traits@D@std@@@std@@QAEXXZ 100396a0 f i Pipi_edit.obj
 0001:000386d0       ?open@?$basic_ofstream@DU?$char_traits@D@std@@@std@@QAEXPBDHH@Z 100396d0 f i Pipi_edit.obj
 0001:00038730       ??1?$basic_ofstream@DU?$char_traits@D@std@@@std@@UAE@XZ 10039730 f i Pipi_edit.obj
 0001:00038790       ??0?$basic_ofstream@DU?$char_traits@D@std@@@std@@QAE@XZ 10039790 f i Pipi_edit.obj
 0001:00038860       ?xsputn@?$fast_string_ostreambuf@D@detail@configor@@MAE_JPBD_J@Z 10039860 f i Pipi_edit.obj
 0001:00038890       ?overflow@?$fast_string_ostreambuf@D@detail@configor@@MAEHH@Z 10039890 f i Pipi_edit.obj
 0001:000388d0       ?str@?$fast_basic_ostringstream@D@detail@configor@@QBEABV?$basic_string@DU?$char_traits@D@std@@V?$allocator@D@2@@std@@XZ 100398d0 f i Pipi_edit.obj
 0001:000388f0       ??0?$fast_basic_ostringstream@D@detail@configor@@QAE@XZ 100398f0 f i Pipi_edit.obj
 0001:000389f0       ??1?$basic_ostream@DU?$char_traits@D@std@@@std@@UAE@XZ 100399f0 f i Pipi_edit.obj
 0001:00038a30       ?compare@?$basic_string@DU?$char_traits@D@std@@V?$allocator@D@2@@std@@QBEHABV12@@Z 10039a30 f i Pipi_edit.obj
 0001:00038a70       ??0?$basic_string@DU?$char_traits@D@std@@V?$allocator@D@2@@std@@QAE@ID@Z 10039a70 f i Pipi_edit.obj
 0001:00038b10       ??0configor_type_error@configor@@QAE@ABV01@@Z 10039b10 f i Pipi_edit.obj
 0001:00038b40       ??_E?$basic_ofstream@DU?$char_traits@D@std@@@std@@UAEPAXI@Z 10039b40 f i * CIL library *:* CIL module *
 0001:00038b40       ??_G?$basic_ofstream@DU?$char_traits@D@std@@@std@@UAEPAXI@Z 10039b40 f i Pipi_edit.obj
 0001:00038b80       ??_G?$fast_basic_ostringstream@D@detail@configor@@UAEPAXI@Z 10039b80 f i Pipi_edit.obj
 0001:00038b80       ??_E?$fast_basic_ostringstream@D@detail@configor@@UAEPAXI@Z 10039b80 f i * CIL library *:* CIL module *
 0001:00038bc0       ??_G?$basic_ostream@DU?$char_traits@D@std@@@std@@UAEPAXI@Z 10039bc0 f i Pipi_edit.obj
 0001:00038bc0       ??_E?$basic_ostream@DU?$char_traits@D@std@@@std@@UAEPAXI@Z 10039bc0 f i * CIL library *:* CIL module *
 0001:00038c00       ??_D?$basic_ostream@DU?$char_traits@D@std@@@std@@QAEXXZ 10039c00 f i Pipi_edit.obj
 0001:00038c30       ?failed@?$ostreambuf_iterator@DU?$char_traits@D@std@@@std@@QBE_NXZ 10039c30 f i Pipi_edit.obj
 0001:00038c40       ??0?$ostreambuf_iterator@DU?$char_traits@D@std@@@std@@QAE@PAV?$basic_streambuf@DU?$char_traits@D@std@@@1@@Z 10039c40 f i Pipi_edit.obj
 0001:00038c60       ?do_put@?$num_put@DV?$ostreambuf_iterator@DU?$char_traits@D@std@@@std@@@std@@MBE?AV?$ostreambuf_iterator@DU?$char_traits@D@std@@@2@V32@AAVios_base@2@DPBX@Z 10039c60 f i Pipi_edit.obj
 0001:00038cd0       ?do_put@?$num_put@DV?$ostreambuf_iterator@DU?$char_traits@D@std@@@std@@@std@@MBE?AV?$ostreambuf_iterator@DU?$char_traits@D@std@@@2@V32@AAVios_base@2@DO@Z 10039cd0 f i Pipi_edit.obj
 0001:00038ec0       ?do_put@?$num_put@DV?$ostreambuf_iterator@DU?$char_traits@D@std@@@std@@@std@@MBE?AV?$ostreambuf_iterator@DU?$char_traits@D@std@@@2@V32@AAVios_base@2@DN@Z 10039ec0 f i Pipi_edit.obj
 0001:000390a0       ?do_put@?$num_put@DV?$ostreambuf_iterator@DU?$char_traits@D@std@@@std@@@std@@MBE?AV?$ostreambuf_iterator@DU?$char_traits@D@std@@@2@V32@AAVios_base@2@D_K@Z 1003a0a0 f i Pipi_edit.obj
 0001:00039130       ?do_put@?$num_put@DV?$ostreambuf_iterator@DU?$char_traits@D@std@@@std@@@std@@MBE?AV?$ostreambuf_iterator@DU?$char_traits@D@std@@@2@V32@AAVios_base@2@D_J@Z 1003a130 f i Pipi_edit.obj
 0001:000391c0       ?do_put@?$num_put@DV?$ostreambuf_iterator@DU?$char_traits@D@std@@@std@@@std@@MBE?AV?$ostreambuf_iterator@DU?$char_traits@D@std@@@2@V32@AAVios_base@2@DK@Z 1003a1c0 f i Pipi_edit.obj
 0001:00039240       ?do_put@?$num_put@DV?$ostreambuf_iterator@DU?$char_traits@D@std@@@std@@@std@@MBE?AV?$ostreambuf_iterator@DU?$char_traits@D@std@@@2@V32@AAVios_base@2@DJ@Z 1003a240 f i Pipi_edit.obj
 0001:000392c0       ?do_put@?$num_put@DV?$ostreambuf_iterator@DU?$char_traits@D@std@@@std@@@std@@MBE?AV?$ostreambuf_iterator@DU?$char_traits@D@std@@@2@V32@AAVios_base@2@D_N@Z 1003a2c0 f i Pipi_edit.obj
 0001:00039500       ??1?$num_put@DV?$ostreambuf_iterator@DU?$char_traits@D@std@@@std@@@std@@MAE@XZ 1003a500 f i Pipi_edit.obj
 0001:00039520       ??Bsentry@?$basic_ostream@DU?$char_traits@D@std@@@std@@QBE_NXZ 1003a520 f i Pipi_edit.obj
 0001:00039520       ??Bsentry@?$basic_istream@DU?$char_traits@D@std@@@std@@QBE_NXZ 1003a520 f i Pipi_edit.obj
 0001:00039540       ??1sentry@?$basic_ostream@DU?$char_traits@D@std@@@std@@QAE@XZ 1003a540 f i Pipi_edit.obj
 0001:000395c0       ??0sentry@?$basic_ostream@DU?$char_traits@D@std@@@std@@QAE@AAV12@@Z 1003a5c0 f i Pipi_edit.obj
 0001:00039680       ??6detail@configor@@YAAAV?$basic_ostream@DU?$char_traits@D@std@@@std@@AAV23@ABU?$serializable_integer@_J@01@@Z 1003a680 f i Pipi_edit.obj
 0001:000396a0       ??6detail@configor@@YAAAV?$basic_ostream@DU?$char_traits@D@std@@@std@@AAV23@ABU?$serializable_float@N@01@@Z 1003a6a0 f i Pipi_edit.obj
 0001:00039730       ??6detail@configor@@YAAAV?$basic_ostream@DU?$char_traits@D@std@@@std@@AAV23@ABU?$serializable_hex@I@01@@Z 1003a730 f i Pipi_edit.obj
 0001:000397d0       ??6detail@configor@@YAAAV?$basic_ostream@DU?$char_traits@D@std@@@std@@AAV23@ABU?$serializable_hex@G@01@@Z 1003a7d0 f i Pipi_edit.obj
 0001:00039870       ?decode@?$auto_utf@D@encoding@configor@@SA_NAAV?$basic_istream@DU?$char_traits@D@std@@@std@@AAI@Z 1003a870 f i Pipi_edit.obj
 0001:00039890       ?encode@?$auto_utf@D@encoding@configor@@SAXAAV?$basic_ostream@DU?$char_traits@D@std@@@std@@I@Z 1003a890 f i Pipi_edit.obj
 0001:000398b0       ?xsgetn@?$fast_string_istreambuf@D@detail@configor@@MAE_JPAD_J@Z 1003a8b0 f i Pipi_edit.obj
 0001:000398f0       ?uflow@?$fast_string_istreambuf@D@detail@configor@@MAEHXZ 1003a8f0 f i Pipi_edit.obj
 0001:00039920       ?underflow@?$fast_string_istreambuf@D@detail@configor@@MAEHXZ 1003a920 f i Pipi_edit.obj
 0001:00039960       ??0?$fast_string_istreambuf@D@detail@configor@@QAE@ABV?$basic_string@DU?$char_traits@D@std@@V?$allocator@D@2@@std@@@Z 1003a960 f i Pipi_edit.obj
 0001:000399a0       ??A?$vector@V?$basic_config@Ujson_args@configor@@@configor@@V?$allocator@V?$basic_config@Ujson_args@configor@@@configor@@@std@@@std@@QAEAAV?$basic_config@Ujson_args@configor@@@configor@@I@Z 1003a9a0 f i Pipi_edit.obj
 0001:000399c0       ?reserve@?$vector@V?$basic_config@Ujson_args@configor@@@configor@@V?$allocator@V?$basic_config@Ujson_args@configor@@@configor@@@std@@@std@@QAEXI@Z 1003a9c0 f i Pipi_edit.obj
 0001:00039a00       ?size@?$initializer_list@V?$basic_config@Ujson_args@configor@@@configor@@@std@@QBEIXZ 1003aa00 f i Pipi_edit.obj
 0001:00039a20       ??4?$config_value@V?$basic_config@Ujson_args@configor@@@configor@@@detail@configor@@QAEAAU012@$$QAU012@@Z 1003aa20 f i Pipi_edit.obj
 0001:00039a80       ?clear@?$config_value@V?$basic_config@Ujson_args@configor@@@configor@@@detail@configor@@QAEXXZ 1003aa80 f i Pipi_edit.obj
 0001:00039ae0       ??0?$config_value@V?$basic_config@Ujson_args@configor@@@configor@@@detail@configor@@QAE@ABU012@@Z 1003aae0 f i Pipi_edit.obj
 0001:00039bc0       ??0?$config_value@V?$basic_config@Ujson_args@configor@@@configor@@@detail@configor@@QAE@W4config_value_type@2@@Z 1003abc0 f i Pipi_edit.obj
 0001:00039c60       ??0?$config_value@V?$basic_config@Ujson_args@configor@@@configor@@@detail@configor@@QAE@XZ 1003ac60 f i Pipi_edit.obj
 0001:00039c90       ??A?$basic_config@Ujson_args@configor@@@configor@@QBEAAV01@I@Z 1003ac90 f i Pipi_edit.obj
 0001:00039cb0       ?size@?$basic_config@Ujson_args@configor@@@configor@@QBEIXZ 1003acb0 f i Pipi_edit.obj
 0001:00039d00       ?is_string@?$basic_config@Ujson_args@configor@@@configor@@QBE_NXZ 1003ad00 f i Pipi_edit.obj
 0001:00039d30       ?is_array@?$basic_config@Ujson_args@configor@@@configor@@QBE_NXZ 1003ad30 f i Pipi_edit.obj
 0001:00039d60       ?fail@?$json_serializer@V?$basic_config@Ujson_args@configor@@@configor@@@detail@configor@@QAEXABV?$basic_string@DU?$char_traits@D@std@@V?$allocator@D@2@@std@@I@Z 1003ad60 f i Pipi_edit.obj
 0001:00039e60       ?output_newline@?$json_serializer@V?$basic_config@Ujson_args@configor@@@configor@@@detail@configor@@QAEXXZ 1003ae60 f i Pipi_edit.obj
 0001:00039e90       ?output_indent@?$json_serializer@V?$basic_config@Ujson_args@configor@@@configor@@@detail@configor@@QAEXI@Z 1003ae90 f i Pipi_edit.obj
 0001:00039ed0       ?output@?$json_serializer@V?$basic_config@Ujson_args@configor@@@configor@@@detail@configor@@QAEXV?$initializer_list@D@std@@@Z 1003aed0 f i Pipi_edit.obj
 0001:00039f00       ?output@?$json_serializer@V?$basic_config@Ujson_args@configor@@@configor@@@detail@configor@@QAEXD@Z 1003af00 f i Pipi_edit.obj
 0001:00039f20       ??0?$fast_string_ostreambuf@D@detail@configor@@QAE@AAV?$basic_string@DU?$char_traits@D@std@@V?$allocator@D@2@@std@@@Z 1003af20 f i Pipi_edit.obj
 0001:00039f50       ??0?$basic_ostream@DU?$char_traits@D@std@@@std@@QAE@PAV?$basic_streambuf@DU?$char_traits@D@std@@@1@_N@Z 1003af50 f i Pipi_edit.obj
 0001:0003a010       ?fill@?$basic_ios@DU?$char_traits@D@std@@@std@@QBEDXZ 1003b010 f i Pipi_edit.obj
 0001:0003a030       ?rdbuf@?$basic_ios@DU?$char_traits@D@std@@@std@@QAEPAV?$basic_streambuf@DU?$char_traits@D@std@@@2@PAV32@@Z 1003b030 f i Pipi_edit.obj
 0001:0003a060       ?assign@?$basic_string@DU?$char_traits@D@std@@V?$allocator@D@2@@std@@QAEAAV12@ID@Z 1003b060 f i Pipi_edit.obj
 0001:0003a0e0       ??R<lambda_c6753c90be971fc9cc00b4f35f237a75>@@QBE@QADID@Z 1003b0e0 f i Pipi_edit.obj
 0001:0003a120       ??_E?$num_put@DV?$ostreambuf_iterator@DU?$char_traits@D@std@@@std@@@std@@MAEPAXI@Z 1003b120 f i * CIL library *:* CIL module *
 0001:0003a120       ??_G?$num_put@DV?$ostreambuf_iterator@DU?$char_traits@D@std@@@std@@@std@@MAEPAXI@Z 1003b120 f i Pipi_edit.obj
 0001:0003a150       ??_E?$fast_string_istreambuf@D@detail@configor@@UAEPAXI@Z 1003b150 f i * CIL library *:* CIL module *
 0001:0003a150       ??_G?$fast_string_istreambuf@D@detail@configor@@UAEPAXI@Z 1003b150 f i Pipi_edit.obj
 0001:0003a180       ??0configor_serialization_error@configor@@QAE@ABV01@@Z 1003b180 f i Pipi_edit.obj
 0001:0003a1b0       ??_E?$fast_string_ostreambuf@D@detail@configor@@UAEPAXI@Z 1003b1b0 f i * CIL library *:* CIL module *
 0001:0003a1b0       ??_G?$fast_string_ostreambuf@D@detail@configor@@UAEPAXI@Z 1003b1b0 f i Pipi_edit.obj
 0001:0003a1e0       ?do_truename@?$numpunct@D@std@@MBE?AV?$basic_string@DU?$char_traits@D@std@@V?$allocator@D@2@@2@XZ 1003b1e0 f i Pipi_edit.obj
 0001:0003a220       ?do_falsename@?$numpunct@D@std@@MBE?AV?$basic_string@DU?$char_traits@D@std@@V?$allocator@D@2@@2@XZ 1003b220 f i Pipi_edit.obj
 0001:0003a260       ?do_grouping@?$numpunct@D@std@@MBE?AV?$basic_string@DU?$char_traits@D@std@@V?$allocator@D@2@@2@XZ 1003b260 f i Pipi_edit.obj
 0001:0003a2a0       ?do_thousands_sep@?$numpunct@D@std@@MBEDXZ 1003b2a0 f i Pipi_edit.obj
 0001:0003a2c0       ?do_decimal_point@?$numpunct@D@std@@MBEDXZ 1003b2c0 f i Pipi_edit.obj
 0001:0003a2e0       ??1?$numpunct@D@std@@MAE@XZ 1003b2e0 f i Pipi_edit.obj
 0001:0003a310       ?truename@?$numpunct@D@std@@QBE?AV?$basic_string@DU?$char_traits@D@std@@V?$allocator@D@2@@2@XZ 1003b310 f i Pipi_edit.obj
 0001:0003a350       ?falsename@?$numpunct@D@std@@QBE?AV?$basic_string@DU?$char_traits@D@std@@V?$allocator@D@2@@2@XZ 1003b350 f i Pipi_edit.obj
 0001:0003a390       ?_Rep@?$num_put@DV?$ostreambuf_iterator@DU?$char_traits@D@std@@@std@@@std@@ABA?AV?$ostreambuf_iterator@DU?$char_traits@D@std@@@2@V32@DI@Z 1003b390 f i Pipi_edit.obj
 0001:0003a3e0       ?_Put@?$num_put@DV?$ostreambuf_iterator@DU?$char_traits@D@std@@@std@@@std@@ABA?AV?$ostreambuf_iterator@DU?$char_traits@D@std@@@2@V32@PBDI@Z 1003b3e0 f i Pipi_edit.obj
 0001:0003a430       ?_Iput@?$num_put@DV?$ostreambuf_iterator@DU?$char_traits@D@std@@@std@@@std@@ABA?AV?$ostreambuf_iterator@DU?$char_traits@D@std@@@2@V32@AAVios_base@2@DPADI@Z 1003b430 f i Pipi_edit.obj
 0001:0003a850       ?_Ifmt@?$num_put@DV?$ostreambuf_iterator@DU?$char_traits@D@std@@@std@@@std@@ABAPADPADPBDH@Z 1003b850 f i Pipi_edit.obj
 0001:0003a970       ?_Fput@?$num_put@DV?$ostreambuf_iterator@DU?$char_traits@D@std@@@std@@@std@@ABA?AV?$ostreambuf_iterator@DU?$char_traits@D@std@@@2@V32@AAVios_base@2@DPBDI@Z 1003b970 f i Pipi_edit.obj
 0001:0003ae50       ?_Ffmt@?$num_put@DV?$ostreambuf_iterator@DU?$char_traits@D@std@@@std@@@std@@ABAPADPADDH@Z 1003be50 f i Pipi_edit.obj
 0001:0003af70       ??1_Sentry_base@?$basic_ostream@DU?$char_traits@D@std@@@std@@QAE@XZ 1003bf70 f i Pipi_edit.obj
 0001:0003af70       ??1_Sentry_base@?$basic_istream@DU?$char_traits@D@std@@@std@@QAE@XZ 1003bf70 f i Pipi_edit.obj
 0001:0003afe0       ??0_Sentry_base@?$basic_ostream@DU?$char_traits@D@std@@@std@@QAE@AAV12@@Z 1003bfe0 f i Pipi_edit.obj
 0001:0003afe0       ??0_Sentry_base@?$basic_istream@DU?$char_traits@D@std@@@std@@QAE@AAV12@@Z 1003bfe0 f i Pipi_edit.obj
 0001:0003b030       ?decode@?$auto_utf@D@encoding@configor@@CA_NAAV?$basic_istream@DU?$char_traits@D@std@@@std@@AAIU?$integral_constant@H$00@5@@Z 1003c030 f i Pipi_edit.obj
 0001:0003b050       ?encode@?$auto_utf@D@encoding@configor@@CAXAAV?$basic_ostream@DU?$char_traits@D@std@@@std@@IU?$integral_constant@H$00@5@@Z 1003c050 f i Pipi_edit.obj
 0001:0003b070       ?_Xlength@?$vector@V?$basic_config@Ujson_args@configor@@@configor@@V?$allocator@V?$basic_config@Ujson_args@configor@@@configor@@@std@@@std@@CAXXZ 1003c070 f i Pipi_edit.obj
 0001:0003b080       ?capacity@?$vector@V?$basic_config@Ujson_args@configor@@@configor@@V?$allocator@V?$basic_config@Ujson_args@configor@@@configor@@@std@@@std@@QBEIXZ 1003c080 f i Pipi_edit.obj
 0001:0003b0b0       ?max_size@?$vector@V?$basic_config@Ujson_args@configor@@@configor@@V?$allocator@V?$basic_config@Ujson_args@configor@@@configor@@@std@@@std@@QBEIXZ 1003c0b0 f i Pipi_edit.obj
 0001:0003b0f0       ?size@?$vector@V?$basic_config@Ujson_args@configor@@@configor@@V?$allocator@V?$basic_config@Ujson_args@configor@@@configor@@@std@@@std@@QBEIXZ 1003c0f0 f i Pipi_edit.obj
 0001:0003b120       ?_Reallocate_exactly@?$vector@V?$basic_config@Ujson_args@configor@@@configor@@V?$allocator@V?$basic_config@Ujson_args@configor@@@configor@@@std@@@std@@AAEXI@Z 1003c120 f i Pipi_edit.obj
 0001:0003b210       ?size@?$_Tree@V?$_Tmap_traits@V?$basic_string@DU?$char_traits@D@std@@V?$allocator@D@2@@std@@V?$basic_config@Ujson_args@configor@@@configor@@U?$less@V?$basic_string@DU?$char_traits@D@std@@V?$allocator@D@2@@std@@@2@V?$allocator@U?$pair@$$CBV?$basic_string@DU?$char_traits@D@std@@V?$allocator@D@2@@std@@V?$basic_config@Ujson_args@configor@@@configor@@@std@@@2@$0A@@std@@@std@@QBEIXZ 1003c210 f i Pipi_edit.obj
 0001:0003b230       ?at@?$basic_config@Ujson_args@configor@@@configor@@QBEAAV12@I@Z 1003c230 f i Pipi_edit.obj
 0001:0003b2f0       ??6detail@configor@@YAAAV?$basic_ostream@DU?$char_traits@D@std@@@std@@AAV23@ABV?$indent@V?$basic_string@DU?$char_traits@D@std@@V?$allocator@D@2@@std@@@01@@Z 1003c2f0 f i Pipi_edit.obj
 0001:0003b330       ??D?$indent@V?$basic_string@DU?$char_traits@D@std@@V?$allocator@D@2@@std@@@detail@configor@@QAEAAV012@I@Z 1003c330 f i Pipi_edit.obj
 0001:0003b390       ?get@?$basic_istream@DU?$char_traits@D@std@@@std@@QAEHXZ 1003c390 f i Pipi_edit.obj
 0001:0003b510       ?flush@?$basic_ostream@DU?$char_traits@D@std@@@std@@QAEAAV12@XZ 1003c510 f i Pipi_edit.obj
 0001:0003b5d0       ?write@?$basic_ostream@DU?$char_traits@D@std@@@std@@QAEAAV12@PBD_J@Z 1003c5d0 f i Pipi_edit.obj
 0001:0003b720       ?put@?$basic_ostream@DU?$char_traits@D@std@@@std@@QAEAAV12@D@Z 1003c720 f i Pipi_edit.obj
 0001:0003b860       ??6?$basic_ostream@DU?$char_traits@D@std@@@std@@QAEAAV01@N@Z 1003c860 f i Pipi_edit.obj
 0001:0003ba00       ??6?$basic_ostream@DU?$char_traits@D@std@@@std@@QAEAAV01@_J@Z 1003ca00 f i Pipi_edit.obj
 0001:0003bba0       ??6?$basic_ostream@DU?$char_traits@D@std@@@std@@QAEAAV01@I@Z 1003cba0 f i Pipi_edit.obj
 0001:0003bd30       ??6?$basic_ostream@DU?$char_traits@D@std@@@std@@QAEAAV01@G@Z 1003cd30 f i Pipi_edit.obj
 0001:0003bed0       ??6?$basic_ostream@DU?$char_traits@D@std@@@std@@QAEAAV01@P6AAAVios_base@1@AAV21@@Z@Z 1003ced0 f i Pipi_edit.obj
 0001:0003bf00       ?_Osfx@?$basic_ostream@DU?$char_traits@D@std@@@std@@QAEXXZ 1003cf00 f i Pipi_edit.obj
 0001:0003bfe0       ?tie@?$basic_ios@DU?$char_traits@D@std@@@std@@QBEPAV?$basic_ostream@DU?$char_traits@D@std@@@2@XZ 1003cfe0 f i Pipi_edit.obj
 0001:0003c000       ?size@?$initializer_list@D@std@@QBEIXZ 1003d000 f i Pipi_edit.obj
 0001:0003c020       ?copy@?$basic_string@DU?$char_traits@D@std@@V?$allocator@D@2@@std@@QBEIQADII@Z 1003d020 f i Pipi_edit.obj
 0001:0003c070       ?resize@?$basic_string@DU?$char_traits@D@std@@V?$allocator@D@2@@std@@QAEXID@Z 1003d070 f i Pipi_edit.obj
 0001:0003c0c0       ?assign@?$basic_string@DU?$char_traits@D@std@@V?$allocator@D@2@@std@@QAEAAV12@$$QAV12@@Z 1003d0c0 f i Pipi_edit.obj
 0001:0003c0f0       ?assign@?$_Narrow_char_traits@DH@std@@SAPADQADID@Z 1003d0f0 f i Pipi_edit.obj
 0001:0003c110       ??_E?$numpunct@D@std@@MAEPAXI@Z 1003d110 f i * CIL library *:* CIL module *
 0001:0003c110       ??_G?$numpunct@D@std@@MAEPAXI@Z 1003d110 f i Pipi_edit.obj
 0001:0003c140       ??0configor_invalid_key@configor@@QAE@ABV01@@Z 1003d140 f i Pipi_edit.obj
 0001:0003c170       ??0out_of_range@std@@QAE@ABV01@@Z 1003d170 f i Pipi_edit.obj
 0001:0003c1a0       ??0logic_error@std@@QAE@ABV01@@Z 1003d1a0 f i Pipi_edit.obj
 0001:0003c1d0       ??1sentry@?$basic_istream@DU?$char_traits@D@std@@@std@@QAE@XZ 1003d1d0 f i Pipi_edit.obj
 0001:0003c1f0       ??0sentry@?$basic_istream@DU?$char_traits@D@std@@@std@@QAE@AAV12@_N@Z 1003d1f0 f i Pipi_edit.obj
 0001:0003c260       ?decode@?$utf8@D@encoding@configor@@SA_NAAV?$basic_istream@DU?$char_traits@D@std@@@std@@AAI@Z 1003d260 f i Pipi_edit.obj
 0001:0003c3e0       ?encode@?$utf8@D@encoding@configor@@SAXAAV?$basic_ostream@DU?$char_traits@D@std@@@std@@I@Z 1003d3e0 f i Pipi_edit.obj
 0001:0003c500       ?_Tidy@?$numpunct@D@std@@AAEXXZ 1003d500 f i Pipi_edit.obj
 0001:0003c540       ?grouping@?$numpunct@D@std@@QBE?AV?$basic_string@DU?$char_traits@D@std@@V?$allocator@D@2@@2@XZ 1003d540 f i Pipi_edit.obj
 0001:0003c580       ?thousands_sep@?$numpunct@D@std@@QBEDXZ 1003d580 f i Pipi_edit.obj
 0001:0003c5a0       ??4?$ostreambuf_iterator@DU?$char_traits@D@std@@@std@@QAEAAV01@D@Z 1003d5a0 f i Pipi_edit.obj
 0001:0003c600       ?put@?$num_put@DV?$ostreambuf_iterator@DU?$char_traits@D@std@@@std@@@std@@QBE?AV?$ostreambuf_iterator@DU?$char_traits@D@std@@@2@V32@AAVios_base@2@DN@Z 1003d600 f i Pipi_edit.obj
 0001:0003c640       ?put@?$num_put@DV?$ostreambuf_iterator@DU?$char_traits@D@std@@@std@@@std@@QBE?AV?$ostreambuf_iterator@DU?$char_traits@D@std@@@2@V32@AAVios_base@2@D_J@Z 1003d640 f i Pipi_edit.obj
 0001:0003c680       ?put@?$num_put@DV?$ostreambuf_iterator@DU?$char_traits@D@std@@@std@@@std@@QBE?AV?$ostreambuf_iterator@DU?$char_traits@D@std@@@2@V32@AAVios_base@2@DK@Z 1003d680 f i Pipi_edit.obj
 0001:0003c6c0       ?_Change_array@?$vector@V?$basic_config@Ujson_args@configor@@@configor@@V?$allocator@V?$basic_config@Ujson_args@configor@@@configor@@@std@@@std@@AAEXQAV?$basic_config@Ujson_args@configor@@@configor@@II@Z 1003d6c0 f i Pipi_edit.obj
 0001:0003c760       ?_Umove_if_noexcept@?$vector@V?$basic_config@Ujson_args@configor@@@configor@@V?$allocator@V?$basic_config@Ujson_args@configor@@@configor@@@std@@@std@@AAEXPAV?$basic_config@Ujson_args@configor@@@configor@@00@Z 1003d760 f i Pipi_edit.obj
 0001:0003c790       ?max_size@?$_Default_allocator_traits@V?$allocator@V?$basic_config@Ujson_args@configor@@@configor@@@std@@@std@@SAIABV?$allocator@V?$basic_config@Ujson_args@configor@@@configor@@@2@@Z 1003d790 f i Pipi_edit.obj
 0001:0003c7a0       ?allocate@?$allocator@V?$basic_config@Ujson_args@configor@@@configor@@@std@@QAEPAV?$basic_config@Ujson_args@configor@@@configor@@I@Z 1003d7a0 f i Pipi_edit.obj
 0001:0003c7d0       ?deallocate@?$allocator@V?$basic_config@Ujson_args@configor@@@configor@@@std@@QAEXQAV?$basic_config@Ujson_args@configor@@@configor@@I@Z 1003d7d0 f i Pipi_edit.obj
 0001:0003c7f0       ?_Get_scary@?$_Tree@V?$_Tmap_traits@V?$basic_string@DU?$char_traits@D@std@@V?$allocator@D@2@@std@@V?$basic_config@Ujson_args@configor@@@configor@@U?$less@V?$basic_string@DU?$char_traits@D@std@@V?$allocator@D@2@@std@@@2@V?$allocator@U?$pair@$$CBV?$basic_string@DU?$char_traits@D@std@@V?$allocator@D@2@@std@@V?$basic_config@Ujson_args@configor@@@configor@@@std@@@2@$0A@@std@@@std@@IBEPBV?$_Tree_val@U?$_Tree_simple_types@U?$pair@$$CBV?$basic_string@DU?$char_traits@D@std@@V?$allocator@D@2@@std@@V?$basic_config@Ujson_args@configor@@@configor@@@std@@@std@@@2@XZ 1003d7f0 f i Pipi_edit.obj
 0001:0003c7f0       ?_Get_scary@?$_Tree@V?$_Tmap_traits@V?$basic_string@DU?$char_traits@D@std@@V?$allocator@D@2@@std@@V?$basic_config@Ujson_args@configor@@@configor@@U?$less@V?$basic_string@DU?$char_traits@D@std@@V?$allocator@D@2@@std@@@2@V?$allocator@U?$pair@$$CBV?$basic_string@DU?$char_traits@D@std@@V?$allocator@D@2@@std@@V?$basic_config@Ujson_args@configor@@@configor@@@std@@@2@$0A@@std@@@std@@IAEPAV?$_Tree_val@U?$_Tree_simple_types@U?$pair@$$CBV?$basic_string@DU?$char_traits@D@std@@V?$allocator@D@2@@std@@V?$basic_config@Ujson_args@configor@@@configor@@@std@@@std@@@2@XZ 1003d7f0 f i Pipi_edit.obj
 0001:0003c810       ?sputn@?$basic_streambuf@DU?$char_traits@D@std@@@std@@QAE_JPBD_J@Z 1003d810 f i Pipi_edit.obj
 0001:0003c840       ?sputc@?$basic_streambuf@DU?$char_traits@D@std@@@std@@QAEHD@Z 1003d840 f i Pipi_edit.obj
 0001:0003c8b0       ?pubsync@?$basic_streambuf@DU?$char_traits@D@std@@@std@@QAEHXZ 1003d8b0 f i Pipi_edit.obj
 0001:0003c8d0       ?_Eos@?$basic_string@DU?$char_traits@D@std@@V?$allocator@D@2@@std@@AAEXI@Z 1003d8d0 f i Pipi_edit.obj
 0001:0003c910       ?insert@?$basic_string@DU?$char_traits@D@std@@V?$allocator@D@2@@std@@QAEAAV12@IID@Z 1003d910 f i Pipi_edit.obj
 0001:0003c9c0       ??R<lambda_6607a66f2a10a1261ff9db96cba1015b>@@QBE@QADQBDIIID@Z 1003d9c0 f i Pipi_edit.obj
 0001:0003ca20       ?append@?$basic_string@DU?$char_traits@D@std@@V?$allocator@D@2@@std@@QAEAAV12@ID@Z 1003da20 f i Pipi_edit.obj
 0001:0003cac0       ??R<lambda_c1b8c41cb4019640539cfd828748c4d4>@@QBE@QADQBDIID@Z 1003dac0 f i Pipi_edit.obj
 0001:0003cb20       ??4?$basic_string@DU?$char_traits@D@std@@V?$allocator@D@2@@std@@QAEAAV01@$$QAV01@@Z 1003db20 f i Pipi_edit.obj
 0001:0003cb60       ??A?$array@I$05@std@@QBEABII@Z 1003db60 f i Pipi_edit.obj
 0001:0003cb80       ??A?$array@E$0BAA@@std@@QBEABEI@Z 1003db80 f i Pipi_edit.obj
 0001:0003cba0       ?_Destroy@?$vector@V?$basic_config@Ujson_args@configor@@@configor@@V?$allocator@V?$basic_config@Ujson_args@configor@@@configor@@@std@@@std@@AAEXPAV?$basic_config@Ujson_args@configor@@@configor@@0@Z 1003dba0 f i Pipi_edit.obj
 0001:0003cbd0       ?_Umove_if_noexcept1@?$vector@V?$basic_config@Ujson_args@configor@@@configor@@V?$allocator@V?$basic_config@Ujson_args@configor@@@configor@@@std@@@std@@AAEXPAV?$basic_config@Ujson_args@configor@@@configor@@00U?$integral_constant@_N$00@2@@Z 1003dbd0 f i Pipi_edit.obj
 0001:0003cc00       ?peek@?$basic_istream@DU?$char_traits@D@std@@@std@@QAEHXZ 1003dc00 f i Pipi_edit.obj
 0001:0003cd50       ?_Ipfx@?$basic_istream@DU?$char_traits@D@std@@@std@@QAE_N_N@Z 1003dd50 f i Pipi_edit.obj
 0001:0003cf60       ?_Move_assign@?$basic_string@DU?$char_traits@D@std@@V?$allocator@D@2@@std@@AAEXAAV12@U_Equal_allocators@2@@Z 1003df60 f i Pipi_edit.obj
 0001:0003cfa0       ?snextc@?$basic_streambuf@DU?$char_traits@D@std@@@std@@QAEHXZ 1003dfa0 f i Pipi_edit.obj
 0001:0003d030       ?_Gnpreinc@?$basic_streambuf@DU?$char_traits@D@std@@@std@@IAEPADXZ 1003e030 f i Pipi_edit.obj
 0001:0003d070       ??$?HDU?$char_traits@D@std@@V?$allocator@D@1@@std@@YA?AV?$basic_string@DU?$char_traits@D@std@@V?$allocator@D@2@@0@QBDABV10@@Z 1003e070 f i Pipi_edit.obj
 0001:0003d100       ??$?HDU?$char_traits@D@std@@V?$allocator@D@1@@std@@YA?AV?$basic_string@DU?$char_traits@D@std@@V?$allocator@D@2@@0@QBD$$QAV10@@Z 1003e100 f i Pipi_edit.obj
 0001:0003d140       ??$?6U?$char_traits@D@std@@@std@@YAAAV?$basic_ostream@DU?$char_traits@D@std@@@0@AAV10@PBD@Z 1003e140 f i Pipi_edit.obj
 0001:0003d470       ??$?6DU?$char_traits@D@std@@V?$allocator@D@1@@std@@YAAAV?$basic_ostream@DU?$char_traits@D@std@@@0@AAV10@ABV?$basic_string@DU?$char_traits@D@std@@V?$allocator@D@2@@0@@Z 1003e470 f i Pipi_edit.obj
 0001:0003d4a0       ??$?6U?$char_traits@D@std@@@std@@YAAAV?$basic_ostream@DU?$char_traits@D@std@@@0@AAV10@D@Z 1003e4a0 f i Pipi_edit.obj
 0001:0003d790       ??$?6V?$basic_config@Ujson_args@configor@@@configor@@X@configor@@YAAAV?$basic_ostream@DU?$char_traits@D@std@@@std@@AAV12@ABV?$basic_config@Ujson_args@configor@@@0@@Z 1003e790 f i Pipi_edit.obj
 0001:0003d830       ??$?0AAY07$$CBD$$BY07DX@?$basic_config@Ujson_args@configor@@@configor@@QAE@AAY07$$CBD@Z 1003e830 f i Pipi_edit.obj
 0001:0003d830       ??$?0AAY04$$CBD$$BY04DX@?$basic_config@Ujson_args@configor@@@configor@@QAE@AAY04$$CBD@Z 1003e830 f i Pipi_edit.obj
 0001:0003d8a0       ??$?0V?$basic_string@DU?$char_traits@D@std@@V?$allocator@D@2@@std@@V01@X@?$basic_config@Ujson_args@configor@@@configor@@QAE@$$QAV?$basic_string@DU?$char_traits@D@std@@V?$allocator@D@2@@std@@@Z 1003e8a0 f i Pipi_edit.obj
 0001:0003d910       ??$?0AAHHX@?$basic_config@Ujson_args@configor@@@configor@@QAE@AAH@Z 1003e910 f i Pipi_edit.obj
 0001:0003d980       ??$all_of@PBV?$basic_config@Ujson_args@configor@@@configor@@V<lambda_e76e69f9a7ae70d577c8760de63108b9>@@@std@@YA_NPBV?$basic_config@Ujson_args@configor@@@configor@@0V<lambda_e76e69f9a7ae70d577c8760de63108b9>@@@Z 1003e980 f i Pipi_edit.obj
 0001:0003d9f0       ??$emplace@AAV?$basic_string@DU?$char_traits@D@std@@V?$allocator@D@2@@std@@AAV?$basic_config@Ujson_args@configor@@@configor@@@?$_Tree@V?$_Tmap_traits@V?$basic_string@DU?$char_traits@D@std@@V?$allocator@D@2@@std@@V?$basic_config@Ujson_args@configor@@@configor@@U?$less@V?$basic_string@DU?$char_traits@D@std@@V?$allocator@D@2@@std@@@2@V?$allocator@U?$pair@$$CBV?$basic_string@DU?$char_traits@D@std@@V?$allocator@D@2@@std@@V?$basic_config@Ujson_args@configor@@@configor@@@std@@@2@$0A@@std@@@std@@QAE?AU?$pair@V?$_Tree_iterator@V?$_Tree_val@U?$_Tree_simple_types@U?$pair@$$CBV?$basic_string@DU?$char_traits@D@std@@V?$allocator@D@2@@std@@V?$basic_config@Ujson_args@configor@@@configor@@@std@@@std@@@std@@@std@@_N@1@AAV?$basic_string@DU?$char_traits@D@std@@V?$allocator@D@2@@1@AAV?$basic_config@Ujson_args@configor@@@configor@@@Z 1003e9f0 f i Pipi_edit.obj
 0001:0003da60       ??$for_each@PBV?$basic_config@Ujson_args@configor@@@configor@@V<lambda_59a2c67489030a4876926c40fd567950>@@@std@@YA?AV<lambda_59a2c67489030a4876926c40fd567950>@@PBV?$basic_config@Ujson_args@configor@@@configor@@0V1@@Z 1003ea60 f i Pipi_edit.obj
 0001:0003dad0       ??$assign@PBV?$basic_config@Ujson_args@configor@@@configor@@$0A@@?$vector@V?$basic_config@Ujson_args@configor@@@configor@@V?$allocator@V?$basic_config@Ujson_args@configor@@@configor@@@std@@@std@@QAEXPBV?$basic_config@Ujson_args@configor@@@configor@@0@Z 1003ead0 f i Pipi_edit.obj
 0001:0003dbc0       ??$use_facet@V?$num_put@DV?$ostreambuf_iterator@DU?$char_traits@D@std@@@std@@@std@@@std@@YAABV?$num_put@DV?$ostreambuf_iterator@DU?$char_traits@D@std@@@std@@@0@ABVlocale@0@@Z 1003ebc0 f i Pipi_edit.obj
 0001:0003dce0       ??$_Traits_compare@U?$char_traits@D@std@@@std@@YAHQBDI0I@Z 1003ece0 f i Pipi_edit.obj
 0001:0003dd40       ??$_Float_put_desired_precision@N@std@@YAH_JH@Z 1003ed40 f i Pipi_edit.obj
 0001:0003dd40       ??$_Float_put_desired_precision@O@std@@YAH_JH@Z 1003ed40 f i Pipi_edit.obj
 0001:0003ddd0       ??$use_facet@V?$numpunct@D@std@@@std@@YAABV?$numpunct@D@0@ABVlocale@0@@Z 1003edd0 f i Pipi_edit.obj
 0001:0003def0       ??$setfill@D@std@@YA?AU?$_Fillobj@D@0@D@Z 1003eef0 f i Pipi_edit.obj
 0001:0003df10       ??$?6DU?$char_traits@D@std@@D@std@@YAAAV?$basic_ostream@DU?$char_traits@D@std@@@0@AAV10@ABU?$_Fillobj@D@0@@Z 1003ef10 f i Pipi_edit.obj
 0001:0003df30       ??$?6DU?$char_traits@D@std@@_J@std@@YAAAV?$basic_ostream@DU?$char_traits@D@std@@@0@AAV10@ABU?$_Smanip@_J@0@@Z 1003ef30 f i Pipi_edit.obj
 0001:0003df60       ??$destroy@V?$map@V?$basic_string@DU?$char_traits@D@std@@V?$allocator@D@2@@std@@V?$basic_config@Ujson_args@configor@@@configor@@U?$less@V?$basic_string@DU?$char_traits@D@std@@V?$allocator@D@2@@std@@@2@V?$allocator@U?$pair@$$CBV?$basic_string@DU?$char_traits@D@std@@V?$allocator@D@2@@std@@V?$basic_config@Ujson_args@configor@@@configor@@@std@@@2@@std@@@?$config_value@V?$basic_config@Ujson_args@configor@@@configor@@@detail@configor@@QAEXPAV?$map@V?$basic_string@DU?$char_traits@D@std@@V?$allocator@D@2@@std@@V?$basic_config@Ujson_args@configor@@@configor@@U?$less@V?$basic_string@DU?$char_traits@D@std@@V?$allocator@D@2@@std@@@2@V?$allocator@U?$pair@$$CBV?$basic_string@DU?$char_traits@D@std@@V?$allocator@D@2@@std@@V?$basic_config@Ujson_args@configor@@@configor@@@std@@@2@@std@@@Z 1003ef60 f i Pipi_edit.obj
 0001:0003dfb0       ??$destroy@V?$vector@V?$basic_config@Ujson_args@configor@@@configor@@V?$allocator@V?$basic_config@Ujson_args@configor@@@configor@@@std@@@std@@@?$config_value@V?$basic_config@Ujson_args@configor@@@configor@@@detail@configor@@QAEXPAV?$vector@V?$basic_config@Ujson_args@configor@@@configor@@V?$allocator@V?$basic_config@Ujson_args@configor@@@configor@@@std@@@std@@@Z 1003efb0 f i Pipi_edit.obj
 0001:0003e000       ??$destroy@V?$basic_string@DU?$char_traits@D@std@@V?$allocator@D@2@@std@@@?$config_value@V?$basic_config@Ujson_args@configor@@@configor@@@detail@configor@@QAEXPAV?$basic_string@DU?$char_traits@D@std@@V?$allocator@D@2@@std@@@Z 1003f000 f i Pipi_edit.obj
 0001:0003e050       ??$create@V?$map@V?$basic_string@DU?$char_traits@D@std@@V?$allocator@D@2@@std@@V?$basic_config@Ujson_args@configor@@@configor@@U?$less@V?$basic_string@DU?$char_traits@D@std@@V?$allocator@D@2@@std@@@2@V?$allocator@U?$pair@$$CBV?$basic_string@DU?$char_traits@D@std@@V?$allocator@D@2@@std@@V?$basic_config@Ujson_args@configor@@@configor@@@std@@@2@@std@@AAV12@@?$config_value@V?$basic_config@Ujson_args@configor@@@configor@@@detail@configor@@QAEPAV?$map@V?$basic_string@DU?$char_traits@D@std@@V?$allocator@D@2@@std@@V?$basic_config@Ujson_args@configor@@@configor@@U?$less@V?$basic_string@DU?$char_traits@D@std@@V?$allocator@D@2@@std@@@2@V?$allocator@U?$pair@$$CBV?$basic_string@DU?$char_traits@D@std@@V?$allocator@D@2@@std@@V?$basic_config@Ujson_args@configor@@@configor@@@std@@@2@@std@@AAV34@@Z 1003f050 f i Pipi_edit.obj
 0001:0003e0b0       ??$create@V?$vector@V?$basic_config@Ujson_args@configor@@@configor@@V?$allocator@V?$basic_config@Ujson_args@configor@@@configor@@@std@@@std@@AAV12@@?$config_value@V?$basic_config@Ujson_args@configor@@@configor@@@detail@configor@@QAEPAV?$vector@V?$basic_config@Ujson_args@configor@@@configor@@V?$allocator@V?$basic_config@Ujson_args@configor@@@configor@@@std@@@std@@AAV34@@Z 1003f0b0 f i Pipi_edit.obj
 0001:0003e110       ??$create@V?$basic_string@DU?$char_traits@D@std@@V?$allocator@D@2@@std@@ABV12@@?$config_value@V?$basic_config@Ujson_args@configor@@@configor@@@detail@configor@@QAEPAV?$basic_string@DU?$char_traits@D@std@@V?$allocator@D@2@@std@@ABV34@@Z 1003f110 f i Pipi_edit.obj
 0001:0003e110       ??$create@V?$basic_string@DU?$char_traits@D@std@@V?$allocator@D@2@@std@@AAV12@@?$config_value@V?$basic_config@Ujson_args@configor@@@configor@@@detail@configor@@QAEPAV?$basic_string@DU?$char_traits@D@std@@V?$allocator@D@2@@std@@AAV34@@Z 1003f110 f i Pipi_edit.obj
 0001:0003e170       ??$create@V?$map@V?$basic_string@DU?$char_traits@D@std@@V?$allocator@D@2@@std@@V?$basic_config@Ujson_args@configor@@@configor@@U?$less@V?$basic_string@DU?$char_traits@D@std@@V?$allocator@D@2@@std@@@2@V?$allocator@U?$pair@$$CBV?$basic_string@DU?$char_traits@D@std@@V?$allocator@D@2@@std@@V?$basic_config@Ujson_args@configor@@@configor@@@std@@@2@@std@@$$V@?$config_value@V?$basic_config@Ujson_args@configor@@@configor@@@detail@configor@@QAEPAV?$map@V?$basic_string@DU?$char_traits@D@std@@V?$allocator@D@2@@std@@V?$basic_config@Ujson_args@configor@@@configor@@U?$less@V?$basic_string@DU?$char_traits@D@std@@V?$allocator@D@2@@std@@@2@V?$allocator@U?$pair@$$CBV?$basic_string@DU?$char_traits@D@std@@V?$allocator@D@2@@std@@V?$basic_config@Ujson_args@configor@@@configor@@@std@@@2@@std@@XZ 1003f170 f i Pipi_edit.obj
 0001:0003e1c0       ??$create@V?$vector@V?$basic_config@Ujson_args@configor@@@configor@@V?$allocator@V?$basic_config@Ujson_args@configor@@@configor@@@std@@@std@@$$V@?$config_value@V?$basic_config@Ujson_args@configor@@@configor@@@detail@configor@@QAEPAV?$vector@V?$basic_config@Ujson_args@configor@@@configor@@V?$allocator@V?$basic_config@Ujson_args@configor@@@configor@@@std@@@std@@XZ 1003f1c0 f i Pipi_edit.obj
 0001:0003e210       ??$create@V?$basic_string@DU?$char_traits@D@std@@V?$allocator@D@2@@std@@$$V@?$config_value@V?$basic_config@Ujson_args@configor@@@configor@@@detail@configor@@QAEPAV?$basic_string@DU?$char_traits@D@std@@V?$allocator@D@2@@std@@XZ 1003f210 f i Pipi_edit.obj
 0001:0003e260       ??$_Reallocate_for@V<lambda_c6753c90be971fc9cc00b4f35f237a75>@@D@?$basic_string@DU?$char_traits@D@std@@V?$allocator@D@2@@std@@AAEAAV01@IV<lambda_c6753c90be971fc9cc00b4f35f237a75>@@D@Z 1003f260 f i Pipi_edit.obj
 0001:0003e350       ??$_Get_size_of_n@$0BA@@std@@YAII@Z 1003f350 f i Pipi_edit.obj
 0001:0003e380       ??$_Reallocate_grow_by@V<lambda_6607a66f2a10a1261ff9db96cba1015b>@@IID@?$basic_string@DU?$char_traits@D@std@@V?$allocator@D@2@@std@@AAEAAV01@IV<lambda_6607a66f2a10a1261ff9db96cba1015b>@@IID@Z 1003f380 f i Pipi_edit.obj
 0001:0003e4c0       ??$_Reallocate_grow_by@V<lambda_c1b8c41cb4019640539cfd828748c4d4>@@ID@?$basic_string@DU?$char_traits@D@std@@V?$allocator@D@2@@std@@AAEAAV01@IV<lambda_c1b8c41cb4019640539cfd828748c4d4>@@ID@Z 1003f4c0 f i Pipi_edit.obj
 0001:0003e600       ??$_Destroy_range@V?$allocator@V?$basic_config@Ujson_args@configor@@@configor@@@std@@@std@@YAXPAV?$basic_config@Ujson_args@configor@@@configor@@QAV12@AAV?$allocator@V?$basic_config@Ujson_args@configor@@@configor@@@0@@Z 1003f600 f i Pipi_edit.obj
 0001:0003e670       ??$_Uninitialized_move@PAV?$basic_config@Ujson_args@configor@@@configor@@V?$allocator@V?$basic_config@Ujson_args@configor@@@configor@@@std@@@std@@YAPAV?$basic_config@Ujson_args@configor@@@configor@@QAV12@0PAV12@AAV?$allocator@V?$basic_config@Ujson_args@configor@@@configor@@@0@@Z 1003f670 f i Pipi_edit.obj
 0001:0003e740       ??$_Pocma@V?$allocator@D@std@@@std@@YAXAAV?$allocator@D@0@0@Z 1003f740 f i Pipi_edit.obj
 0001:0003e760       ??0args@?$json_serializer@V?$basic_config@Ujson_args@configor@@@configor@@@detail@configor@@QAE@XZ 1003f760 f i Pipi_edit.obj
 0001:0003e790       ??0?$_Tree_iterator@V?$_Tree_val@U?$_Tree_simple_types@U?$pair@$$CBV?$basic_string@DU?$char_traits@D@std@@V?$allocator@D@2@@std@@V?$basic_config@Ujson_args@configor@@@configor@@@std@@@std@@@std@@@std@@QAE@PAU?$_Tree_node@U?$pair@$$CBV?$basic_string@DU?$char_traits@D@std@@V?$allocator@D@2@@std@@V?$basic_config@Ujson_args@configor@@@configor@@@std@@PAX@1@PBV?$_Tree_val@U?$_Tree_simple_types@U?$pair@$$CBV?$basic_string@DU?$char_traits@D@std@@V?$allocator@D@2@@std@@V?$basic_config@Ujson_args@configor@@@configor@@@std@@@std@@@1@@Z 1003f790 f i Pipi_edit.obj
 0001:0003e7b0       ??0?$_Tree_const_iterator@V?$_Tree_val@U?$_Tree_simple_types@U?$pair@$$CBV?$basic_string@DU?$char_traits@D@std@@V?$allocator@D@2@@std@@V?$basic_config@Ujson_args@configor@@@configor@@@std@@@std@@@std@@@std@@QAE@PAU?$_Tree_node@U?$pair@$$CBV?$basic_string@DU?$char_traits@D@std@@V?$allocator@D@2@@std@@V?$basic_config@Ujson_args@configor@@@configor@@@std@@PAX@1@PBV?$_Tree_val@U?$_Tree_simple_types@U?$pair@$$CBV?$basic_string@DU?$char_traits@D@std@@V?$allocator@D@2@@std@@V?$basic_config@Ujson_args@configor@@@configor@@@std@@@std@@@1@@Z 1003f7b0 f i Pipi_edit.obj
 0001:0003e7d0       ??1?$_Uninitialized_backout_al@V?$allocator@V?$basic_config@Ujson_args@configor@@@configor@@@std@@@std@@QAE@XZ 1003f7d0 f i Pipi_edit.obj
 0001:0003e800       ??0?$_Uninitialized_backout_al@V?$allocator@V?$basic_config@Ujson_args@configor@@@configor@@@std@@@std@@QAE@PAV?$basic_config@Ujson_args@configor@@@configor@@AAV?$allocator@V?$basic_config@Ujson_args@configor@@@configor@@@1@@Z 1003f800 f i Pipi_edit.obj
 0001:0003e830       ?deallocate@?$_Default_allocator_traits@V?$allocator@V?$basic_string@DU?$char_traits@D@std@@V?$allocator@D@2@@std@@@std@@@std@@SAXAAV?$allocator@V?$basic_string@DU?$char_traits@D@std@@V?$allocator@D@2@@std@@@2@QAV?$basic_string@DU?$char_traits@D@std@@V?$allocator@D@2@@2@I@Z 1003f830 f i Pipi_edit.obj
 0001:0003e850       ?allocate@?$_Default_allocator_traits@V?$allocator@V?$basic_string@DU?$char_traits@D@std@@V?$allocator@D@2@@std@@@std@@@std@@SAPAV?$basic_string@DU?$char_traits@D@std@@V?$allocator@D@2@@2@AAV?$allocator@V?$basic_string@DU?$char_traits@D@std@@V?$allocator@D@2@@std@@@2@I@Z 1003f850 f i Pipi_edit.obj
 0001:0003e870       ?deallocate@?$_Default_allocator_traits@V?$allocator@V?$vector@V?$basic_config@Ujson_args@configor@@@configor@@V?$allocator@V?$basic_config@Ujson_args@configor@@@configor@@@std@@@std@@@std@@@std@@SAXAAV?$allocator@V?$vector@V?$basic_config@Ujson_args@configor@@@configor@@V?$allocator@V?$basic_config@Ujson_args@configor@@@configor@@@std@@@std@@@2@QAV?$vector@V?$basic_config@Ujson_args@configor@@@configor@@V?$allocator@V?$basic_config@Ujson_args@configor@@@configor@@@std@@@2@I@Z 1003f870 f i Pipi_edit.obj
 0001:0003e890       ?allocate@?$_Default_allocator_traits@V?$allocator@V?$vector@V?$basic_config@Ujson_args@configor@@@configor@@V?$allocator@V?$basic_config@Ujson_args@configor@@@configor@@@std@@@std@@@std@@@std@@SAPAV?$vector@V?$basic_config@Ujson_args@configor@@@configor@@V?$allocator@V?$basic_config@Ujson_args@configor@@@configor@@@std@@@2@AAV?$allocator@V?$vector@V?$basic_config@Ujson_args@configor@@@configor@@V?$allocator@V?$basic_config@Ujson_args@configor@@@configor@@@std@@@std@@@2@I@Z 1003f890 f i Pipi_edit.obj
 0001:0003e8b0       ?allocate@?$_Default_allocator_traits@V?$allocator@V?$map@V?$basic_string@DU?$char_traits@D@std@@V?$allocator@D@2@@std@@V?$basic_config@Ujson_args@configor@@@configor@@U?$less@V?$basic_string@DU?$char_traits@D@std@@V?$allocator@D@2@@std@@@2@V?$allocator@U?$pair@$$CBV?$basic_string@DU?$char_traits@D@std@@V?$allocator@D@2@@std@@V?$basic_config@Ujson_args@configor@@@configor@@@std@@@2@@std@@@std@@@std@@SAPAV?$map@V?$basic_string@DU?$char_traits@D@std@@V?$allocator@D@2@@std@@V?$basic_config@Ujson_args@configor@@@configor@@U?$less@V?$basic_string@DU?$char_traits@D@std@@V?$allocator@D@2@@std@@@2@V?$allocator@U?$pair@$$CBV?$basic_string@DU?$char_traits@D@std@@V?$allocator@D@2@@std@@V?$basic_config@Ujson_args@configor@@@configor@@@std@@@2@@2@AAV?$allocator@V?$map@V?$basic_string@DU?$char_traits@D@std@@V?$allocator@D@2@@std@@V?$basic_config@Ujson_args@configor@@@configor@@U?$less@V?$basic_string@DU?$char_traits@D@std@@V?$allocator@D@2@@std@@@2@V?$allocator@U?$pair@$$CBV?$basic_string@DU?$char_traits@D@std@@V?$allocator@D@2@@std@@V?$basic_config@Ujson_args@configor@@@configor@@@std@@@2@@std@@@2@I@Z 1003f8b0 f i Pipi_edit.obj
 0001:0003e8d0       ??0?$_Fillobj@D@std@@QAE@D@Z 1003f8d0 f i Pipi_edit.obj
 0001:0003e8f0       ?_Getcat@?$numpunct@D@std@@SAIPAPBVfacet@locale@2@PBV42@@Z 1003f8f0 f i Pipi_edit.obj
 0001:0003e9e0       ?_Getcat@?$num_put@DV?$ostreambuf_iterator@DU?$char_traits@D@std@@@std@@@std@@SAIPAPBVfacet@locale@2@PBV42@@Z 1003f9e0 f i Pipi_edit.obj
 0001:0003ead0       ??0?$_Tree_unchecked_const_iterator@V?$_Tree_val@U?$_Tree_simple_types@U?$pair@$$CBV?$basic_string@DU?$char_traits@D@std@@V?$allocator@D@2@@std@@V?$basic_config@Ujson_args@configor@@@configor@@@std@@@std@@@std@@U_Iterator_base0@2@@std@@QAE@PAU?$_Tree_node@U?$pair@$$CBV?$basic_string@DU?$char_traits@D@std@@V?$allocator@D@2@@std@@V?$basic_config@Ujson_args@configor@@@configor@@@std@@PAX@1@PBV?$_Tree_val@U?$_Tree_simple_types@U?$pair@$$CBV?$basic_string@DU?$char_traits@D@std@@V?$allocator@D@2@@std@@V?$basic_config@Ujson_args@configor@@@configor@@@std@@@std@@@1@@Z 1003fad0 f i Pipi_edit.obj
 0001:0003eb00       ?fill@?$basic_ios@DU?$char_traits@D@std@@@std@@QAEDD@Z 1003fb00 f i Pipi_edit.obj
 0001:0003eb30       ?insert@?$basic_string@DU?$char_traits@D@std@@V?$allocator@D@2@@std@@QAEAAV12@IQBD@Z 1003fb30 f i Pipi_edit.obj
 0001:0003eb70       ??0?$basic_string@DU?$char_traits@D@std@@V?$allocator@D@2@@std@@QAE@U_String_constructor_concat_tag@1@ABV01@QBDI2I@Z 1003fb70 f i Pipi_edit.obj
 0001:0003ed10       ??0?$numpunct@D@std@@QAE@ABV_Locinfo@1@I_N@Z 1003fd10 f i Pipi_edit.obj
 0001:0003ed80       ??0?$num_put@DV?$ostreambuf_iterator@DU?$char_traits@D@std@@@std@@@std@@QAE@ABV_Locinfo@1@I@Z 1003fd80 f i Pipi_edit.obj
 0001:0003edf0       ?insert@?$basic_string@DU?$char_traits@D@std@@V?$allocator@D@2@@std@@QAEAAV12@IQBDI@Z 1003fdf0 f i Pipi_edit.obj
 0001:0003ef10       ??R<lambda_4d79bb85f269e6e8002a4599002d832c>@@QBE@QADQBDII1I@Z 1003ff10 f i Pipi_edit.obj
 0001:0003ef70       ?_Init@?$numpunct@D@std@@IAEXABV_Locinfo@2@_N@Z 1003ff70 f i Pipi_edit.obj
 0001:0003f0e0       ??1?$_Tidy_guard@V?$numpunct@D@std@@@std@@QAE@XZ 100400e0 f i Pipi_edit.obj
 0001:0003f100       ??$to_config@V?$basic_config@Ujson_args@configor@@@configor@@$$BY04DX@?$config_bind@$$BY04D@configor@@SAXAAV?$basic_config@Ujson_args@configor@@@1@AAY04$$CBD@Z 10040100 f i Pipi_edit.obj
 0001:0003f100       ??$to_config@V?$basic_config@Ujson_args@configor@@@configor@@$$BY07DX@?$config_bind@$$BY07D@configor@@SAXAAV?$basic_config@Ujson_args@configor@@@1@AAY07$$CBD@Z 10040100 f i Pipi_edit.obj
 0001:0003f120       ??$to_config@V?$basic_config@Ujson_args@configor@@@configor@@V?$basic_string@DU?$char_traits@D@std@@V?$allocator@D@2@@std@@X@?$config_bind@V?$basic_string@DU?$char_traits@D@std@@V?$allocator@D@2@@std@@@configor@@SAXAAV?$basic_config@Ujson_args@configor@@@1@ABV?$basic_string@DU?$char_traits@D@std@@V?$allocator@D@2@@std@@@Z 10040120 f i Pipi_edit.obj
 0001:0003f140       ??$to_config@V?$basic_config@Ujson_args@configor@@@configor@@HX@?$config_bind@H@configor@@SAXAAV?$basic_config@Ujson_args@configor@@@1@ABH@Z 10040140 f i Pipi_edit.obj
 0001:0003f160       ??$_Insert_string@DU?$char_traits@D@std@@I@std@@YAAAV?$basic_ostream@DU?$char_traits@D@std@@@0@AAV10@QBDI@Z 10040160 f i Pipi_edit.obj
 0001:0003f430       ??$dump_config@V?$basic_config@Ujson_args@configor@@@configor@@X@configor@@YAXABV?$basic_config@Ujson_args@configor@@@0@AAV?$basic_ostream@DU?$char_traits@D@std@@@std@@ABUargs@?$json_serializer@V?$basic_config@Ujson_args@configor@@@configor@@@detail@0@PAVerror_handler@0@@Z 10040430 f i Pipi_edit.obj
 0001:0003f4d0       ??$_Emplace@AAV?$basic_string@DU?$char_traits@D@std@@V?$allocator@D@2@@std@@AAV?$basic_config@Ujson_args@configor@@@configor@@@?$_Tree@V?$_Tmap_traits@V?$basic_string@DU?$char_traits@D@std@@V?$allocator@D@2@@std@@V?$basic_config@Ujson_args@configor@@@configor@@U?$less@V?$basic_string@DU?$char_traits@D@std@@V?$allocator@D@2@@std@@@2@V?$allocator@U?$pair@$$CBV?$basic_string@DU?$char_traits@D@std@@V?$allocator@D@2@@std@@V?$basic_config@Ujson_args@configor@@@configor@@@std@@@2@$0A@@std@@@std@@IAE?AU?$pair@PAU?$_Tree_node@U?$pair@$$CBV?$basic_string@DU?$char_traits@D@std@@V?$allocator@D@2@@std@@V?$basic_config@Ujson_args@configor@@@configor@@@std@@PAX@std@@_N@1@AAV?$basic_string@DU?$char_traits@D@std@@V?$allocator@D@2@@1@AAV?$basic_config@Ujson_args@configor@@@configor@@@Z 100404d0 f i Pipi_edit.obj
 0001:0003f5e0       ??$?0V?$_Tree_iterator@V?$_Tree_val@U?$_Tree_simple_types@U?$pair@$$CBV?$basic_string@DU?$char_traits@D@std@@V?$allocator@D@2@@std@@V?$basic_config@Ujson_args@configor@@@configor@@@std@@@std@@@std@@@std@@AB_N$0A@@?$pair@V?$_Tree_iterator@V?$_Tree_val@U?$_Tree_simple_types@U?$pair@$$CBV?$basic_string@DU?$char_traits@D@std@@V?$allocator@D@2@@std@@V?$basic_config@Ujson_args@configor@@@configor@@@std@@@std@@@std@@@std@@_N@std@@QAE@$$QAV?$_Tree_iterator@V?$_Tree_val@U?$_Tree_simple_types@U?$pair@$$CBV?$basic_string@DU?$char_traits@D@std@@V?$allocator@D@2@@std@@V?$basic_config@Ujson_args@configor@@@configor@@@std@@@std@@@std@@@1@AB_N@Z 100405e0 f i Pipi_edit.obj
 0001:0003f620       ??$_Assign_range@PBV?$basic_config@Ujson_args@configor@@@configor@@@?$vector@V?$basic_config@Ujson_args@configor@@@configor@@V?$allocator@V?$basic_config@Ujson_args@configor@@@configor@@@std@@@std@@AAEXPBV?$basic_config@Ujson_args@configor@@@configor@@0Uforward_iterator_tag@1@@Z 10040620 f i Pipi_edit.obj
 0001:0003f740       ??$destroy@V?$map@V?$basic_string@DU?$char_traits@D@std@@V?$allocator@D@2@@std@@V?$basic_config@Ujson_args@configor@@@configor@@U?$less@V?$basic_string@DU?$char_traits@D@std@@V?$allocator@D@2@@std@@@2@V?$allocator@U?$pair@$$CBV?$basic_string@DU?$char_traits@D@std@@V?$allocator@D@2@@std@@V?$basic_config@Ujson_args@configor@@@configor@@@std@@@2@@std@@@?$_Default_allocator_traits@V?$allocator@V?$map@V?$basic_string@DU?$char_traits@D@std@@V?$allocator@D@2@@std@@V?$basic_config@Ujson_args@configor@@@configor@@U?$less@V?$basic_string@DU?$char_traits@D@std@@V?$allocator@D@2@@std@@@2@V?$allocator@U?$pair@$$CBV?$basic_string@DU?$char_traits@D@std@@V?$allocator@D@2@@std@@V?$basic_config@Ujson_args@configor@@@configor@@@std@@@2@@std@@@std@@@std@@SAXAAV?$allocator@V?$map@V?$basic_string@DU?$char_traits@D@std@@V?$allocator@D@2@@std@@V?$basic_config@Ujson_args@configor@@@configor@@U?$less@V?$basic_string@DU?$char_traits@D@std@@V?$allocator@D@2@@std@@@2@V?$allocator@U?$pair@$$CBV?$basic_string@DU?$char_traits@D@std@@V?$allocator@D@2@@std@@V?$basic_config@Ujson_args@configor@@@configor@@@std@@@2@@std@@@1@QAV?$map@V?$basic_string@DU?$char_traits@D@std@@V?$allocator@D@2@@std@@V?$basic_config@Ujson_args@configor@@@configor@@U?$less@V?$basic_string@DU?$char_traits@D@std@@V?$allocator@D@2@@std@@@2@V?$allocator@U?$pair@$$CBV?$basic_string@DU?$char_traits@D@std@@V?$allocator@D@2@@std@@V?$basic_config@Ujson_args@configor@@@configor@@@std@@@2@@1@@Z 10040740 f i Pipi_edit.obj
 0001:0003f750       ??$destroy@V?$vector@V?$basic_config@Ujson_args@configor@@@configor@@V?$allocator@V?$basic_config@Ujson_args@configor@@@configor@@@std@@@std@@@?$_Default_allocator_traits@V?$allocator@V?$vector@V?$basic_config@Ujson_args@configor@@@configor@@V?$allocator@V?$basic_config@Ujson_args@configor@@@configor@@@std@@@std@@@std@@@std@@SAXAAV?$allocator@V?$vector@V?$basic_config@Ujson_args@configor@@@configor@@V?$allocator@V?$basic_config@Ujson_args@configor@@@configor@@@std@@@std@@@1@QAV?$vector@V?$basic_config@Ujson_args@configor@@@configor@@V?$allocator@V?$basic_config@Ujson_args@configor@@@configor@@@std@@@1@@Z 10040750 f i Pipi_edit.obj
 0001:0003f760       ??$destroy@V?$basic_string@DU?$char_traits@D@std@@V?$allocator@D@2@@std@@@?$_Default_allocator_traits@V?$allocator@V?$basic_string@DU?$char_traits@D@std@@V?$allocator@D@2@@std@@@std@@@std@@SAXAAV?$allocator@V?$basic_string@DU?$char_traits@D@std@@V?$allocator@D@2@@std@@@1@QAV?$basic_string@DU?$char_traits@D@std@@V?$allocator@D@2@@1@@Z 10040760 f i Pipi_edit.obj
 0001:0003f770       ??$construct@V?$map@V?$basic_string@DU?$char_traits@D@std@@V?$allocator@D@2@@std@@V?$basic_config@Ujson_args@configor@@@configor@@U?$less@V?$basic_string@DU?$char_traits@D@std@@V?$allocator@D@2@@std@@@2@V?$allocator@U?$pair@$$CBV?$basic_string@DU?$char_traits@D@std@@V?$allocator@D@2@@std@@V?$basic_config@Ujson_args@configor@@@configor@@@std@@@2@@std@@AAV12@@?$_Default_allocator_traits@V?$allocator@V?$map@V?$basic_string@DU?$char_traits@D@std@@V?$allocator@D@2@@std@@V?$basic_config@Ujson_args@configor@@@configor@@U?$less@V?$basic_string@DU?$char_traits@D@std@@V?$allocator@D@2@@std@@@2@V?$allocator@U?$pair@$$CBV?$basic_string@DU?$char_traits@D@std@@V?$allocator@D@2@@std@@V?$basic_config@Ujson_args@configor@@@configor@@@std@@@2@@std@@@std@@@std@@SAXAAV?$allocator@V?$map@V?$basic_string@DU?$char_traits@D@std@@V?$allocator@D@2@@std@@V?$basic_config@Ujson_args@configor@@@configor@@U?$less@V?$basic_string@DU?$char_traits@D@std@@V?$allocator@D@2@@std@@@2@V?$allocator@U?$pair@$$CBV?$basic_string@DU?$char_traits@D@std@@V?$allocator@D@2@@std@@V?$basic_config@Ujson_args@configor@@@configor@@@std@@@2@@std@@@1@QAV?$map@V?$basic_string@DU?$char_traits@D@std@@V?$allocator@D@2@@std@@V?$basic_config@Ujson_args@configor@@@configor@@U?$less@V?$basic_string@DU?$char_traits@D@std@@V?$allocator@D@2@@std@@@2@V?$allocator@U?$pair@$$CBV?$basic_string@DU?$char_traits@D@std@@V?$allocator@D@2@@std@@V?$basic_config@Ujson_args@configor@@@configor@@@std@@@2@@1@AAV31@@Z 10040770 f i Pipi_edit.obj
 0001:0003f7b0       ??$construct@V?$vector@V?$basic_config@Ujson_args@configor@@@configor@@V?$allocator@V?$basic_config@Ujson_args@configor@@@configor@@@std@@@std@@AAV12@@?$_Default_allocator_traits@V?$allocator@V?$vector@V?$basic_config@Ujson_args@configor@@@configor@@V?$allocator@V?$basic_config@Ujson_args@configor@@@configor@@@std@@@std@@@std@@@std@@SAXAAV?$allocator@V?$vector@V?$basic_config@Ujson_args@configor@@@configor@@V?$allocator@V?$basic_config@Ujson_args@configor@@@configor@@@std@@@std@@@1@QAV?$vector@V?$basic_config@Ujson_args@configor@@@configor@@V?$allocator@V?$basic_config@Ujson_args@configor@@@configor@@@std@@@1@AAV31@@Z 100407b0 f i Pipi_edit.obj
 0001:0003f7f0       ??$construct@V?$basic_string@DU?$char_traits@D@std@@V?$allocator@D@2@@std@@AAV12@@?$_Default_allocator_traits@V?$allocator@V?$basic_string@DU?$char_traits@D@std@@V?$allocator@D@2@@std@@@std@@@std@@SAXAAV?$allocator@V?$basic_string@DU?$char_traits@D@std@@V?$allocator@D@2@@std@@@1@QAV?$basic_string@DU?$char_traits@D@std@@V?$allocator@D@2@@1@AAV31@@Z 100407f0 f i Pipi_edit.obj
 0001:0003f7f0       ??$construct@V?$basic_string@DU?$char_traits@D@std@@V?$allocator@D@2@@std@@ABV12@@?$_Default_allocator_traits@V?$allocator@V?$basic_string@DU?$char_traits@D@std@@V?$allocator@D@2@@std@@@std@@@std@@SAXAAV?$allocator@V?$basic_string@DU?$char_traits@D@std@@V?$allocator@D@2@@std@@@1@QAV?$basic_string@DU?$char_traits@D@std@@V?$allocator@D@2@@1@ABV31@@Z 100407f0 f i Pipi_edit.obj
 0001:0003f830       ??$construct@V?$map@V?$basic_string@DU?$char_traits@D@std@@V?$allocator@D@2@@std@@V?$basic_config@Ujson_args@configor@@@configor@@U?$less@V?$basic_string@DU?$char_traits@D@std@@V?$allocator@D@2@@std@@@2@V?$allocator@U?$pair@$$CBV?$basic_string@DU?$char_traits@D@std@@V?$allocator@D@2@@std@@V?$basic_config@Ujson_args@configor@@@configor@@@std@@@2@@std@@$$V@?$_Default_allocator_traits@V?$allocator@V?$map@V?$basic_string@DU?$char_traits@D@std@@V?$allocator@D@2@@std@@V?$basic_config@Ujson_args@configor@@@configor@@U?$less@V?$basic_string@DU?$char_traits@D@std@@V?$allocator@D@2@@std@@@2@V?$allocator@U?$pair@$$CBV?$basic_string@DU?$char_traits@D@std@@V?$allocator@D@2@@std@@V?$basic_config@Ujson_args@configor@@@configor@@@std@@@2@@std@@@std@@@std@@SAXAAV?$allocator@V?$map@V?$basic_string@DU?$char_traits@D@std@@V?$allocator@D@2@@std@@V?$basic_config@Ujson_args@configor@@@configor@@U?$less@V?$basic_string@DU?$char_traits@D@std@@V?$allocator@D@2@@std@@@2@V?$allocator@U?$pair@$$CBV?$basic_string@DU?$char_traits@D@std@@V?$allocator@D@2@@std@@V?$basic_config@Ujson_args@configor@@@configor@@@std@@@2@@std@@@1@QAV?$map@V?$basic_string@DU?$char_traits@D@std@@V?$allocator@D@2@@std@@V?$basic_config@Ujson_args@configor@@@configor@@U?$less@V?$basic_string@DU?$char_traits@D@std@@V?$allocator@D@2@@std@@@2@V?$allocator@U?$pair@$$CBV?$basic_string@DU?$char_traits@D@std@@V?$allocator@D@2@@std@@V?$basic_config@Ujson_args@configor@@@configor@@@std@@@2@@1@@Z 10040830 f i Pipi_edit.obj
 0001:0003f860       ??$construct@V?$vector@V?$basic_config@Ujson_args@configor@@@configor@@V?$allocator@V?$basic_config@Ujson_args@configor@@@configor@@@std@@@std@@$$V@?$_Default_allocator_traits@V?$allocator@V?$vector@V?$basic_config@Ujson_args@configor@@@configor@@V?$allocator@V?$basic_config@Ujson_args@configor@@@configor@@@std@@@std@@@std@@@std@@SAXAAV?$allocator@V?$vector@V?$basic_config@Ujson_args@configor@@@configor@@V?$allocator@V?$basic_config@Ujson_args@configor@@@configor@@@std@@@std@@@1@QAV?$vector@V?$basic_config@Ujson_args@configor@@@configor@@V?$allocator@V?$basic_config@Ujson_args@configor@@@configor@@@std@@@1@@Z 10040860 f i Pipi_edit.obj
 0001:0003f890       ??$construct@V?$basic_string@DU?$char_traits@D@std@@V?$allocator@D@2@@std@@$$V@?$_Default_allocator_traits@V?$allocator@V?$basic_string@DU?$char_traits@D@std@@V?$allocator@D@2@@std@@@std@@@std@@SAXAAV?$allocator@V?$basic_string@DU?$char_traits@D@std@@V?$allocator@D@2@@std@@@1@QAV?$basic_string@DU?$char_traits@D@std@@V?$allocator@D@2@@1@@Z 10040890 f i Pipi_edit.obj
 0001:0003f8c0       ??$destroy@V?$basic_config@Ujson_args@configor@@@configor@@@?$_Default_allocator_traits@V?$allocator@V?$basic_config@Ujson_args@configor@@@configor@@@std@@@std@@SAXAAV?$allocator@V?$basic_config@Ujson_args@configor@@@configor@@@1@QAV?$basic_config@Ujson_args@configor@@@configor@@@Z 100408c0 f i Pipi_edit.obj
 0001:0003f8d0       ??$_Emplace_back@V?$basic_config@Ujson_args@configor@@@configor@@@?$_Uninitialized_backout_al@V?$allocator@V?$basic_config@Ujson_args@configor@@@configor@@@std@@@std@@QAEX$$QAV?$basic_config@Ujson_args@configor@@@configor@@@Z 100408d0 f i Pipi_edit.obj
 0001:0003f920       ??$_Reallocate_grow_by@V<lambda_4d79bb85f269e6e8002a4599002d832c>@@IPBDI@?$basic_string@DU?$char_traits@D@std@@V?$allocator@D@2@@std@@AAEAAV01@IV<lambda_4d79bb85f269e6e8002a4599002d832c>@@IPBDI@Z 10040920 f i Pipi_edit.obj
 0001:0003fa60       ??$_Maklocstr@D@std@@YAPADPBDPADABU_Cvtvec@@@Z 10040a60 f i Pipi_edit.obj
 0001:0003fb00       ??$_Maklocchr@D@std@@YADDPADABU_Cvtvec@@@Z 10040b00 f i Pipi_edit.obj
 0001:0003fb10       ??$_Getvals@D@?$numpunct@D@std@@IAEXDPBUlconv@@U_Cvtvec@@@Z 10040b10 f i Pipi_edit.obj
 0001:0003fb70       ??1?$json_serializer@V?$basic_config@Ujson_args@configor@@@configor@@@detail@configor@@QAE@XZ 10040b70 f i Pipi_edit.obj
 0001:0003fba0       ??_G?$map@V?$basic_string@DU?$char_traits@D@std@@V?$allocator@D@2@@std@@V?$basic_config@Ujson_args@configor@@@configor@@U?$less@V?$basic_string@DU?$char_traits@D@std@@V?$allocator@D@2@@std@@@2@V?$allocator@U?$pair@$$CBV?$basic_string@DU?$char_traits@D@std@@V?$allocator@D@2@@std@@V?$basic_config@Ujson_args@configor@@@configor@@@std@@@2@@std@@QAEPAXI@Z 10040ba0 f i Pipi_edit.obj
 0001:0003fbd0       ??_G?$vector@V?$basic_config@Ujson_args@configor@@@configor@@V?$allocator@V?$basic_config@Ujson_args@configor@@@configor@@@std@@@std@@QAEPAXI@Z 10040bd0 f i Pipi_edit.obj
 0001:0003fc00       ??_G?$basic_string@DU?$char_traits@D@std@@V?$allocator@D@2@@std@@QAEPAXI@Z 10040c00 f i Pipi_edit.obj
 0001:0003fc30       ??_G?$basic_config@Ujson_args@configor@@@configor@@QAEPAXI@Z 10040c30 f i Pipi_edit.obj
 0001:0003fc60       ??1?$indent@V?$basic_string@DU?$char_traits@D@std@@V?$allocator@D@2@@std@@@detail@configor@@QAE@XZ 10040c60 f i Pipi_edit.obj
 0001:0003fc80       ??1?$map@V?$basic_string@DU?$char_traits@D@std@@V?$allocator@D@2@@std@@V?$basic_config@Ujson_args@configor@@@configor@@U?$less@V?$basic_string@DU?$char_traits@D@std@@V?$allocator@D@2@@std@@@2@V?$allocator@U?$pair@$$CBV?$basic_string@DU?$char_traits@D@std@@V?$allocator@D@2@@std@@V?$basic_config@Ujson_args@configor@@@configor@@@std@@@2@@std@@QAE@XZ 10040c80 f i Pipi_edit.obj
 0001:0003fca0       ??1?$_Tree_temp_node@V?$allocator@U?$_Tree_node@U?$pair@$$CBV?$basic_string@DU?$char_traits@D@std@@V?$allocator@D@2@@std@@V?$basic_config@Ujson_args@configor@@@configor@@@std@@PAX@std@@@std@@@std@@QAE@XZ 10040ca0 f i Pipi_edit.obj
 0001:0003fd40       ?_Release@?$_Alloc_construct_ptr@V?$allocator@U?$_Tree_node@U?$pair@$$CBV?$basic_string@DU?$char_traits@D@std@@V?$allocator@D@2@@std@@V?$basic_config@Ujson_args@configor@@@configor@@@std@@PAX@std@@@std@@@std@@QAEPAU?$_Tree_node@U?$pair@$$CBV?$basic_string@DU?$char_traits@D@std@@V?$allocator@D@2@@std@@V?$basic_config@Ujson_args@configor@@@configor@@@std@@PAX@2@XZ 10040d40 f i Pipi_edit.obj
 0001:0003fd70       ?_Clear_and_reserve_geometric@?$vector@V?$basic_config@Ujson_args@configor@@@configor@@V?$allocator@V?$basic_config@Ujson_args@configor@@@configor@@@std@@@std@@AAEXI@Z 10040d70 f i Pipi_edit.obj
 0001:0003fe30       ??1?$vector@V?$basic_config@Ujson_args@configor@@@configor@@V?$allocator@V?$basic_config@Ujson_args@configor@@@configor@@@std@@@std@@QAE@XZ 10040e30 f i Pipi_edit.obj
 0001:0003fe50       ??0?$vector@V?$basic_config@Ujson_args@configor@@@configor@@V?$allocator@V?$basic_config@Ujson_args@configor@@@configor@@@std@@@std@@QAE@ABV01@@Z 10040e50 f i Pipi_edit.obj
 0001:0003ff60       ??0?$vector@V?$basic_config@Ujson_args@configor@@@configor@@V?$allocator@V?$basic_config@Ujson_args@configor@@@configor@@@std@@@std@@QAE@XZ 10040f60 f i Pipi_edit.obj
 0001:0003ff90       ??0?$map@V?$basic_string@DU?$char_traits@D@std@@V?$allocator@D@2@@std@@V?$basic_config@Ujson_args@configor@@@configor@@U?$less@V?$basic_string@DU?$char_traits@D@std@@V?$allocator@D@2@@std@@@2@V?$allocator@U?$pair@$$CBV?$basic_string@DU?$char_traits@D@std@@V?$allocator@D@2@@std@@V?$basic_config@Ujson_args@configor@@@configor@@@std@@@2@@std@@QAE@ABV01@@Z 10040f90 f i Pipi_edit.obj
 0001:0003ffd0       ??0?$map@V?$basic_string@DU?$char_traits@D@std@@V?$allocator@D@2@@std@@V?$basic_config@Ujson_args@configor@@@configor@@U?$less@V?$basic_string@DU?$char_traits@D@std@@V?$allocator@D@2@@std@@@2@V?$allocator@U?$pair@$$CBV?$basic_string@DU?$char_traits@D@std@@V?$allocator@D@2@@std@@V?$basic_config@Ujson_args@configor@@@configor@@@std@@@2@@std@@QAE@XZ 10040fd0 f i Pipi_edit.obj
 0001:0003fff0       ?_Insert_node@?$_Tree_val@U?$_Tree_simple_types@U?$pair@$$CBV?$basic_string@DU?$char_traits@D@std@@V?$allocator@D@2@@std@@V?$basic_config@Ujson_args@configor@@@configor@@@std@@@std@@@std@@QAEPAU?$_Tree_node@U?$pair@$$CBV?$basic_string@DU?$char_traits@D@std@@V?$allocator@D@2@@std@@V?$basic_config@Ujson_args@configor@@@configor@@@std@@PAX@2@U?$_Tree_id@PAU?$_Tree_node@U?$pair@$$CBV?$basic_string@DU?$char_traits@D@std@@V?$allocator@D@2@@std@@V?$basic_config@Ujson_args@configor@@@configor@@@std@@PAX@std@@@2@QAU32@@Z 10040ff0 f i Pipi_edit.obj
 0001:00040200       ?_Check_grow_by_1@?$_Tree@V?$_Tmap_traits@V?$basic_string@DU?$char_traits@D@std@@V?$allocator@D@2@@std@@V?$basic_config@Ujson_args@configor@@@configor@@U?$less@V?$basic_string@DU?$char_traits@D@std@@V?$allocator@D@2@@std@@@2@V?$allocator@U?$pair@$$CBV?$basic_string@DU?$char_traits@D@std@@V?$allocator@D@2@@std@@V?$basic_config@Ujson_args@configor@@@configor@@@std@@@2@$0A@@std@@@std@@IAEXXZ 10041200 f i Pipi_edit.obj
 0001:00040230       ??1?$_Tree@V?$_Tmap_traits@V?$basic_string@DU?$char_traits@D@std@@V?$allocator@D@2@@std@@V?$basic_config@Ujson_args@configor@@@configor@@U?$less@V?$basic_string@DU?$char_traits@D@std@@V?$allocator@D@2@@std@@@2@V?$allocator@U?$pair@$$CBV?$basic_string@DU?$char_traits@D@std@@V?$allocator@D@2@@std@@V?$basic_config@Ujson_args@configor@@@configor@@@std@@@2@$0A@@std@@@std@@QAE@XZ 10041230 f i Pipi_edit.obj
 0001:00040260       ??0?$json_serializer@V?$basic_config@Ujson_args@configor@@@configor@@@detail@configor@@QAE@ABUargs@012@@Z 10041260 f i Pipi_edit.obj
 0001:00040390       ??1?$_Tree_temp_node_alloc@V?$allocator@U?$_Tree_node@U?$pair@$$CBV?$basic_string@DU?$char_traits@D@std@@V?$allocator@D@2@@std@@V?$basic_config@Ujson_args@configor@@@configor@@@std@@PAX@std@@@std@@@std@@QAE@XZ 10041390 f i Pipi_edit.obj
 0001:000403b0       ??0?$basic_serializer@V?$basic_config@Ujson_args@configor@@@configor@@@configor@@QAE@XZ 100413b0 f i Pipi_edit.obj
 0001:000403d0       ??1?$_Tidy_guard@V?$vector@V?$basic_config@Ujson_args@configor@@@configor@@V?$allocator@V?$basic_config@Ujson_args@configor@@@configor@@@std@@@std@@@std@@QAE@XZ 100413d0 f i Pipi_edit.obj
 0001:000403f0       ??1?$_Alloc_construct_ptr@V?$allocator@U?$_Tree_node@U?$pair@$$CBV?$basic_string@DU?$char_traits@D@std@@V?$allocator@D@2@@std@@V?$basic_config@Ujson_args@configor@@@configor@@@std@@PAX@std@@@std@@@std@@QAE@XZ 100413f0 f i Pipi_edit.obj
 0001:00040450       ?_Tidy@?$vector@V?$basic_config@Ujson_args@configor@@@configor@@V?$allocator@V?$basic_config@Ujson_args@configor@@@configor@@@std@@@std@@AAEXXZ 10041450 f i Pipi_edit.obj
 0001:00040510       ?_Buy_raw@?$vector@V?$basic_config@Ujson_args@configor@@@configor@@V?$allocator@V?$basic_config@Ujson_args@configor@@@configor@@@std@@@std@@AAEXI@Z 10041510 f i Pipi_edit.obj
 0001:00040580       ?_Calculate_growth@?$vector@V?$basic_config@Ujson_args@configor@@@configor@@V?$allocator@V?$basic_config@Ujson_args@configor@@@configor@@@std@@@std@@ABEII@Z 10041580 f i Pipi_edit.obj
 0001:000405e0       ?_Rrotate@?$_Tree_val@U?$_Tree_simple_types@U?$pair@$$CBV?$basic_string@DU?$char_traits@D@std@@V?$allocator@D@2@@std@@V?$basic_config@Ujson_args@configor@@@configor@@@std@@@std@@@std@@QAEXPAU?$_Tree_node@U?$pair@$$CBV?$basic_string@DU?$char_traits@D@std@@V?$allocator@D@2@@std@@V?$basic_config@Ujson_args@configor@@@configor@@@std@@PAX@2@@Z 100415e0 f i Pipi_edit.obj
 0001:00040680       ?_Lrotate@?$_Tree_val@U?$_Tree_simple_types@U?$pair@$$CBV?$basic_string@DU?$char_traits@D@std@@V?$allocator@D@2@@std@@V?$basic_config@Ujson_args@configor@@@configor@@@std@@@std@@@std@@QAEXPAU?$_Tree_node@U?$pair@$$CBV?$basic_string@DU?$char_traits@D@std@@V?$allocator@D@2@@std@@V?$basic_config@Ujson_args@configor@@@configor@@@std@@PAX@2@@Z 10041680 f i Pipi_edit.obj
 0001:00040720       ?max_size@?$_Tree@V?$_Tmap_traits@V?$basic_string@DU?$char_traits@D@std@@V?$allocator@D@2@@std@@V?$basic_config@Ujson_args@configor@@@configor@@U?$less@V?$basic_string@DU?$char_traits@D@std@@V?$allocator@D@2@@std@@@2@V?$allocator@U?$pair@$$CBV?$basic_string@DU?$char_traits@D@std@@V?$allocator@D@2@@std@@V?$basic_config@Ujson_args@configor@@@configor@@@std@@@2@$0A@@std@@@std@@QBEIXZ 10041720 f i Pipi_edit.obj
 0001:00040760       ??0?$_Tree@V?$_Tmap_traits@V?$basic_string@DU?$char_traits@D@std@@V?$allocator@D@2@@std@@V?$basic_config@Ujson_args@configor@@@configor@@U?$less@V?$basic_string@DU?$char_traits@D@std@@V?$allocator@D@2@@std@@@2@V?$allocator@U?$pair@$$CBV?$basic_string@DU?$char_traits@D@std@@V?$allocator@D@2@@std@@V?$basic_config@Ujson_args@configor@@@configor@@@std@@@2@$0A@@std@@@std@@QAE@ABU?$less@V?$basic_string@DU?$char_traits@D@std@@V?$allocator@D@2@@std@@@1@@Z 10041760 f i Pipi_edit.obj
 0001:00040790       ?init@?$indent@V?$basic_string@DU?$char_traits@D@std@@V?$allocator@D@2@@std@@@detail@configor@@QAEXD@Z 10041790 f i Pipi_edit.obj
 0001:000407c0       ??0?$indent@V?$basic_string@DU?$char_traits@D@std@@V?$allocator@D@2@@std@@@detail@configor@@QAE@XZ 100417c0 f i Pipi_edit.obj
 0001:000407f0       ?_Alloc_sentinel_and_proxy@?$_Tree@V?$_Tmap_traits@V?$basic_string@DU?$char_traits@D@std@@V?$allocator@D@2@@std@@V?$basic_config@Ujson_args@configor@@@configor@@U?$less@V?$basic_string@DU?$char_traits@D@std@@V?$allocator@D@2@@std@@@2@V?$allocator@U?$pair@$$CBV?$basic_string@DU?$char_traits@D@std@@V?$allocator@D@2@@std@@V?$basic_config@Ujson_args@configor@@@configor@@@std@@@2@$0A@@std@@@std@@IAEXXZ 100417f0 f i Pipi_edit.obj
 0001:00040860       ?max_size@?$_Default_allocator_traits@V?$allocator@U?$_Tree_node@U?$pair@$$CBV?$basic_string@DU?$char_traits@D@std@@V?$allocator@D@2@@std@@V?$basic_config@Ujson_args@configor@@@configor@@@std@@PAX@std@@@std@@@std@@SAIABV?$allocator@U?$_Tree_node@U?$pair@$$CBV?$basic_string@DU?$char_traits@D@std@@V?$allocator@D@2@@std@@V?$basic_config@Ujson_args@configor@@@configor@@@std@@PAX@std@@@2@@Z 10041860 f i Pipi_edit.obj
 0001:00040870       ?deallocate@?$allocator@U?$_Tree_node@U?$pair@$$CBV?$basic_string@DU?$char_traits@D@std@@V?$allocator@D@2@@std@@V?$basic_config@Ujson_args@configor@@@configor@@@std@@PAX@std@@@std@@QAEXQAU?$_Tree_node@U?$pair@$$CBV?$basic_string@DU?$char_traits@D@std@@V?$allocator@D@2@@std@@V?$basic_config@Ujson_args@configor@@@configor@@@std@@PAX@2@I@Z 10041870 f i Pipi_edit.obj
 0001:00040890       ??$adl_to_config@V?$basic_config@Ujson_args@configor@@@configor@@$$BY04D@detail@configor@@YAXAAV?$basic_config@Ujson_args@configor@@@1@AAY04$$CBD@Z 10041890 f i Pipi_edit.obj
 0001:00040890       ??$adl_to_config@V?$basic_config@Ujson_args@configor@@@configor@@$$BY07D@detail@configor@@YAXAAV?$basic_config@Ujson_args@configor@@@1@AAY07$$CBD@Z 10041890 f i Pipi_edit.obj
 0001:00040900       ??$adl_to_config@V?$basic_config@Ujson_args@configor@@@configor@@V?$basic_string@DU?$char_traits@D@std@@V?$allocator@D@2@@std@@@detail@configor@@YAXAAV?$basic_config@Ujson_args@configor@@@1@ABV?$basic_string@DU?$char_traits@D@std@@V?$allocator@D@2@@std@@@Z 10041900 f i Pipi_edit.obj
 0001:00040920       ??$adl_to_config@V?$basic_config@Ujson_args@configor@@@configor@@H@detail@configor@@YAXAAV?$basic_config@Ujson_args@configor@@@1@ABH@Z 10041920 f i Pipi_edit.obj
 0001:00040940       ??$dump_config@V?$basic_config@Ujson_args@configor@@@configor@@X@configor@@YAXABV?$basic_config@Ujson_args@configor@@@0@AAV?$basic_ostream@DU?$char_traits@D@std@@@std@@AAV?$basic_serializer@V?$basic_config@Ujson_args@configor@@@configor@@@0@PAVerror_handler@0@@Z 10041940 f i Pipi_edit.obj
 0001:00040a00       ??$_Find_lower_bound@V?$basic_string@DU?$char_traits@D@std@@V?$allocator@D@2@@std@@@?$_Tree@V?$_Tmap_traits@V?$basic_string@DU?$char_traits@D@std@@V?$allocator@D@2@@std@@V?$basic_config@Ujson_args@configor@@@configor@@U?$less@V?$basic_string@DU?$char_traits@D@std@@V?$allocator@D@2@@std@@@2@V?$allocator@U?$pair@$$CBV?$basic_string@DU?$char_traits@D@std@@V?$allocator@D@2@@std@@V?$basic_config@Ujson_args@configor@@@configor@@@std@@@2@$0A@@std@@@std@@IBE?AU?$_Tree_find_result@PAU?$_Tree_node@U?$pair@$$CBV?$basic_string@DU?$char_traits@D@std@@V?$allocator@D@2@@std@@V?$basic_config@Ujson_args@configor@@@configor@@@std@@PAX@std@@@1@ABV?$basic_string@DU?$char_traits@D@std@@V?$allocator@D@2@@1@@Z 10041a00 f i Pipi_edit.obj
 0001:00040ad0       ??$_Lower_bound_duplicate@V?$basic_string@DU?$char_traits@D@std@@V?$allocator@D@2@@std@@@?$_Tree@V?$_Tmap_traits@V?$basic_string@DU?$char_traits@D@std@@V?$allocator@D@2@@std@@V?$basic_config@Ujson_args@configor@@@configor@@U?$less@V?$basic_string@DU?$char_traits@D@std@@V?$allocator@D@2@@std@@@2@V?$allocator@U?$pair@$$CBV?$basic_string@DU?$char_traits@D@std@@V?$allocator@D@2@@std@@V?$basic_config@Ujson_args@configor@@@configor@@@std@@@2@$0A@@std@@@std@@IBE_NQAU?$_Tree_node@U?$pair@$$CBV?$basic_string@DU?$char_traits@D@std@@V?$allocator@D@2@@std@@V?$basic_config@Ujson_args@configor@@@configor@@@std@@PAX@1@ABV?$basic_string@DU?$char_traits@D@std@@V?$allocator@D@2@@1@@Z 10041ad0 f i Pipi_edit.obj
 0001:00040b30       ??$?0AAPAU?$_Tree_node@U?$pair@$$CBV?$basic_string@DU?$char_traits@D@std@@V?$allocator@D@2@@std@@V?$basic_config@Ujson_args@configor@@@configor@@@std@@PAX@std@@_N$0A@@?$pair@PAU?$_Tree_node@U?$pair@$$CBV?$basic_string@DU?$char_traits@D@std@@V?$allocator@D@2@@std@@V?$basic_config@Ujson_args@configor@@@configor@@@std@@PAX@std@@_N@std@@QAE@AAPAU?$_Tree_node@U?$pair@$$CBV?$basic_string@DU?$char_traits@D@std@@V?$allocator@D@2@@std@@V?$basic_config@Ujson_args@configor@@@configor@@@std@@PAX@1@$$QA_N@Z 10041b30 f i Pipi_edit.obj
 0001:00040b30       ??$?0PAU?$_Tree_node@U?$pair@$$CBV?$basic_string@DU?$char_traits@D@std@@V?$allocator@D@2@@std@@V?$basic_config@Ujson_args@configor@@@configor@@@std@@PAX@std@@_N$0A@@?$pair@PAU?$_Tree_node@U?$pair@$$CBV?$basic_string@DU?$char_traits@D@std@@V?$allocator@D@2@@std@@V?$basic_config@Ujson_args@configor@@@configor@@@std@@PAX@std@@_N@std@@QAE@$$QAPAU?$_Tree_node@U?$pair@$$CBV?$basic_string@DU?$char_traits@D@std@@V?$allocator@D@2@@std@@V?$basic_config@Ujson_args@configor@@@configor@@@std@@PAX@1@$$QA_N@Z 10041b30 f i Pipi_edit.obj
 0001:00040b70       ??$?0AAV?$basic_string@DU?$char_traits@D@std@@V?$allocator@D@2@@std@@AAV?$basic_config@Ujson_args@configor@@@configor@@@?$_Tree_temp_node@V?$allocator@U?$_Tree_node@U?$pair@$$CBV?$basic_string@DU?$char_traits@D@std@@V?$allocator@D@2@@std@@V?$basic_config@Ujson_args@configor@@@configor@@@std@@PAX@std@@@std@@@std@@QAE@AAV?$allocator@U?$_Tree_node@U?$pair@$$CBV?$basic_string@DU?$char_traits@D@std@@V?$allocator@D@2@@std@@V?$basic_config@Ujson_args@configor@@@configor@@@std@@PAX@std@@@1@PAU?$_Tree_node@U?$pair@$$CBV?$basic_string@DU?$char_traits@D@std@@V?$allocator@D@2@@std@@V?$basic_config@Ujson_args@configor@@@configor@@@std@@PAX@1@AAV?$basic_string@DU?$char_traits@D@std@@V?$allocator@D@2@@1@AAV?$basic_config@Ujson_args@configor@@@configor@@@Z 10041b70 f i Pipi_edit.obj
 0001:00040c60       ??$distance@PBV?$basic_config@Ujson_args@configor@@@configor@@@std@@YAHPBV?$basic_config@Ujson_args@configor@@@configor@@0@Z 10041c60 f i Pipi_edit.obj
 0001:00040c70       ??$next@PBV?$basic_config@Ujson_args@configor@@@configor@@@std@@YAPBV?$basic_config@Ujson_args@configor@@@configor@@PBV12@H@Z 10041c70 f i Pipi_edit.obj
 0001:00040c90       ??$_Copy_unchecked@PBV?$basic_config@Ujson_args@configor@@@configor@@PAV12@@std@@YAPAV?$basic_config@Ujson_args@configor@@@configor@@PBV12@0PAV12@@Z 10041c90 f i Pipi_edit.obj
 0001:00040ce0       ??$_Ucopy@PBV?$basic_config@Ujson_args@configor@@@configor@@@?$vector@V?$basic_config@Ujson_args@configor@@@configor@@V?$allocator@V?$basic_config@Ujson_args@configor@@@configor@@@std@@@std@@AAEPAV?$basic_config@Ujson_args@configor@@@configor@@PBV23@0PAV23@@Z 10041ce0 f i Pipi_edit.obj
 0001:00040ce0       ??$_Ucopy@PAV?$basic_config@Ujson_args@configor@@@configor@@@?$vector@V?$basic_config@Ujson_args@configor@@@configor@@V?$allocator@V?$basic_config@Ujson_args@configor@@@configor@@@std@@@std@@AAEPAV?$basic_config@Ujson_args@configor@@@configor@@PAV23@00@Z 10041ce0 f i Pipi_edit.obj
 0001:00040d10       ??$construct@V?$basic_config@Ujson_args@configor@@@configor@@V12@@?$_Default_allocator_traits@V?$allocator@V?$basic_config@Ujson_args@configor@@@configor@@@std@@@std@@SAXAAV?$allocator@V?$basic_config@Ujson_args@configor@@@configor@@@1@QAV?$basic_config@Ujson_args@configor@@@configor@@$$QAV34@@Z 10041d10 f i Pipi_edit.obj
 0001:00040d50       ??$destroy@U?$pair@$$CBV?$basic_string@DU?$char_traits@D@std@@V?$allocator@D@2@@std@@V?$basic_config@Ujson_args@configor@@@configor@@@std@@@?$_Default_allocator_traits@V?$allocator@U?$_Tree_node@U?$pair@$$CBV?$basic_string@DU?$char_traits@D@std@@V?$allocator@D@2@@std@@V?$basic_config@Ujson_args@configor@@@configor@@@std@@PAX@std@@@std@@@std@@SAXAAV?$allocator@U?$_Tree_node@U?$pair@$$CBV?$basic_string@DU?$char_traits@D@std@@V?$allocator@D@2@@std@@V?$basic_config@Ujson_args@configor@@@configor@@@std@@PAX@std@@@1@QAU?$pair@$$CBV?$basic_string@DU?$char_traits@D@std@@V?$allocator@D@2@@std@@V?$basic_config@Ujson_args@configor@@@configor@@@1@@Z 10041d50 f i Pipi_edit.obj
 0001:00040d60       ??$?0V?$allocator@V?$basic_config@Ujson_args@configor@@@configor@@@std@@$$V@?$_Compressed_pair@V?$allocator@V?$basic_config@Ujson_args@configor@@@configor@@@std@@V?$_Vector_val@U?$_Simple_types@V?$basic_config@Ujson_args@configor@@@configor@@@std@@@2@$00@std@@QAE@U_One_then_variadic_args_t@1@$$QAV?$allocator@V?$basic_config@Ujson_args@configor@@@configor@@@1@@Z 10041d60 f i Pipi_edit.obj
 0001:00040d90       ??$?0$$V@?$_Compressed_pair@V?$allocator@V?$basic_config@Ujson_args@configor@@@configor@@@std@@V?$_Vector_val@U?$_Simple_types@V?$basic_config@Ujson_args@configor@@@configor@@@std@@@2@$00@std@@QAE@U_Zero_then_variadic_args_t@1@@Z 10041d90 f i Pipi_edit.obj
 0001:00040db0       ??$?0V?$allocator@U?$_Tree_node@U?$pair@$$CBV?$basic_string@DU?$char_traits@D@std@@V?$allocator@D@2@@std@@V?$basic_config@Ujson_args@configor@@@configor@@@std@@PAX@std@@@std@@@?$_Tree@V?$_Tmap_traits@V?$basic_string@DU?$char_traits@D@std@@V?$allocator@D@2@@std@@V?$basic_config@Ujson_args@configor@@@configor@@U?$less@V?$basic_string@DU?$char_traits@D@std@@V?$allocator@D@2@@std@@@2@V?$allocator@U?$pair@$$CBV?$basic_string@DU?$char_traits@D@std@@V?$allocator@D@2@@std@@V?$basic_config@Ujson_args@configor@@@configor@@@std@@@2@$0A@@std@@@std@@QAE@ABV01@$$QAV?$allocator@U?$_Tree_node@U?$pair@$$CBV?$basic_string@DU?$char_traits@D@std@@V?$allocator@D@2@@std@@V?$basic_config@Ujson_args@configor@@@configor@@@std@@PAX@std@@@1@@Z 10041db0 f i Pipi_edit.obj
 0001:00040ea0       ??$_Erase_head@V?$allocator@U?$_Tree_node@U?$pair@$$CBV?$basic_string@DU?$char_traits@D@std@@V?$allocator@D@2@@std@@V?$basic_config@Ujson_args@configor@@@configor@@@std@@PAX@std@@@std@@@?$_Tree_val@U?$_Tree_simple_types@U?$pair@$$CBV?$basic_string@DU?$char_traits@D@std@@V?$allocator@D@2@@std@@V?$basic_config@Ujson_args@configor@@@configor@@@std@@@std@@@std@@QAEXAAV?$allocator@U?$_Tree_node@U?$pair@$$CBV?$basic_string@DU?$char_traits@D@std@@V?$allocator@D@2@@std@@V?$basic_config@Ujson_args@configor@@@configor@@@std@@PAX@std@@@1@@Z 10041ea0 f i Pipi_edit.obj
 0001:00040ee0       ??$?0ABU?$less@V?$basic_string@DU?$char_traits@D@std@@V?$allocator@D@2@@std@@@std@@U_Zero_then_variadic_args_t@1@@?$_Compressed_pair@U?$less@V?$basic_string@DU?$char_traits@D@std@@V?$allocator@D@2@@std@@@std@@V?$_Compressed_pair@V?$allocator@U?$_Tree_node@U?$pair@$$CBV?$basic_string@DU?$char_traits@D@std@@V?$allocator@D@2@@std@@V?$basic_config@Ujson_args@configor@@@configor@@@std@@PAX@std@@@std@@V?$_Tree_val@U?$_Tree_simple_types@U?$pair@$$CBV?$basic_string@DU?$char_traits@D@std@@V?$allocator@D@2@@std@@V?$basic_config@Ujson_args@configor@@@configor@@@std@@@std@@@2@$00@2@$00@std@@QAE@U_One_then_variadic_args_t@1@ABU?$less@V?$basic_string@DU?$char_traits@D@std@@V?$allocator@D@2@@std@@@1@$$QAU_Zero_then_variadic_args_t@1@@Z 10041ee0 f i Pipi_edit.obj
 0001:00040f20       ??$_Buyheadnode@V?$allocator@U?$_Tree_node@U?$pair@$$CBV?$basic_string@DU?$char_traits@D@std@@V?$allocator@D@2@@std@@V?$basic_config@Ujson_args@configor@@@configor@@@std@@PAX@std@@@std@@@?$_Tree_node@U?$pair@$$CBV?$basic_string@DU?$char_traits@D@std@@V?$allocator@D@2@@std@@V?$basic_config@Ujson_args@configor@@@configor@@@std@@PAX@std@@SAPAU01@AAV?$allocator@U?$_Tree_node@U?$pair@$$CBV?$basic_string@DU?$char_traits@D@std@@V?$allocator@D@2@@std@@V?$basic_config@Ujson_args@configor@@@configor@@@std@@PAX@std@@@1@@Z 10041f20 f i Pipi_edit.obj
 0001:00040fa0       ??_G?$pair@$$CBV?$basic_string@DU?$char_traits@D@std@@V?$allocator@D@2@@std@@V?$basic_config@Ujson_args@configor@@@configor@@@std@@QAEPAXI@Z 10041fa0 f i Pipi_edit.obj
 0001:00040fd0       ??1?$pair@$$CBV?$basic_string@DU?$char_traits@D@std@@V?$allocator@D@2@@std@@V?$basic_config@Ujson_args@configor@@@configor@@@std@@QAE@XZ 10041fd0 f i Pipi_edit.obj
 0001:00040ff0       ??1?$_Tree_head_scoped_ptr@V?$allocator@U?$_Tree_node@U?$pair@$$CBV?$basic_string@DU?$char_traits@D@std@@V?$allocator@D@2@@std@@V?$basic_config@Ujson_args@configor@@@configor@@@std@@PAX@std@@@std@@V?$_Tree_val@U?$_Tree_simple_types@U?$pair@$$CBV?$basic_string@DU?$char_traits@D@std@@V?$allocator@D@2@@std@@V?$basic_config@Ujson_args@configor@@@configor@@@std@@@std@@@2@@std@@QAE@XZ 10041ff0 f i Pipi_edit.obj
 0001:00041020       ?_Release@?$_Tree_head_scoped_ptr@V?$allocator@U?$_Tree_node@U?$pair@$$CBV?$basic_string@DU?$char_traits@D@std@@V?$allocator@D@2@@std@@V?$basic_config@Ujson_args@configor@@@configor@@@std@@PAX@std@@@std@@V?$_Tree_val@U?$_Tree_simple_types@U?$pair@$$CBV?$basic_string@DU?$char_traits@D@std@@V?$allocator@D@2@@std@@V?$basic_config@Ujson_args@configor@@@configor@@@std@@@std@@@2@@std@@QAEXXZ 10042020 f i Pipi_edit.obj
 0001:00041020       ?Set32BitAddress@CDetourDis@@IAEXXZ 10042020 f i detours:disasm.obj
 0001:00041040       ??0?$_Tree_head_scoped_ptr@V?$allocator@U?$_Tree_node@U?$pair@$$CBV?$basic_string@DU?$char_traits@D@std@@V?$allocator@D@2@@std@@V?$basic_config@Ujson_args@configor@@@configor@@@std@@PAX@std@@@std@@V?$_Tree_val@U?$_Tree_simple_types@U?$pair@$$CBV?$basic_string@DU?$char_traits@D@std@@V?$allocator@D@2@@std@@V?$basic_config@Ujson_args@configor@@@configor@@@std@@@std@@@2@@std@@QAE@AAV?$allocator@U?$_Tree_node@U?$pair@$$CBV?$basic_string@DU?$char_traits@D@std@@V?$allocator@D@2@@std@@V?$basic_config@Ujson_args@configor@@@configor@@@std@@PAX@std@@@1@AAV?$_Tree_val@U?$_Tree_simple_types@U?$pair@$$CBV?$basic_string@DU?$char_traits@D@std@@V?$allocator@D@2@@std@@V?$basic_config@Ujson_args@configor@@@configor@@@std@@@std@@@1@@Z 10042040 f i Pipi_edit.obj
 0001:00041080       ??0?$_Tree_temp_node_alloc@V?$allocator@U?$_Tree_node@U?$pair@$$CBV?$basic_string@DU?$char_traits@D@std@@V?$allocator@D@2@@std@@V?$basic_config@Ujson_args@configor@@@configor@@@std@@PAX@std@@@std@@@std@@QAE@AAV?$allocator@U?$_Tree_node@U?$pair@$$CBV?$basic_string@DU?$char_traits@D@std@@V?$allocator@D@2@@std@@V?$basic_config@Ujson_args@configor@@@configor@@@std@@PAX@std@@@1@@Z 10042080 f i Pipi_edit.obj
 0001:000410e0       ??0?$_Vector_val@U?$_Simple_types@V?$basic_config@Ujson_args@configor@@@configor@@@std@@@std@@QAE@XZ 100420e0 f i Pipi_edit.obj
 0001:00041110       ??R?$less@V?$basic_string@DU?$char_traits@D@std@@V?$allocator@D@2@@std@@@std@@QBE_NABV?$basic_string@DU?$char_traits@D@std@@V?$allocator@D@2@@1@0@Z 10042110 f i Pipi_edit.obj
 0001:00041130       ?allocate@?$allocator@U?$_Tree_node@U?$pair@$$CBV?$basic_string@DU?$char_traits@D@std@@V?$allocator@D@2@@std@@V?$basic_config@Ujson_args@configor@@@configor@@@std@@PAX@std@@@std@@QAEPAU?$_Tree_node@U?$pair@$$CBV?$basic_string@DU?$char_traits@D@std@@V?$allocator@D@2@@std@@V?$basic_config@Ujson_args@configor@@@configor@@@std@@PAX@2@I@Z 10042130 f i Pipi_edit.obj
 0001:00041160       ?to_config@configor@@YAXAAV?$basic_config@Ujson_args@configor@@@1@ABV?$basic_string@DU?$char_traits@D@std@@V?$allocator@D@2@@std@@@Z 10042160 f i Pipi_edit.obj
 0001:00041180       ??4?$basic_config@Ujson_args@configor@@@configor@@QAEAAV01@V01@@Z 10042180 f i Pipi_edit.obj
 0001:000411f0       ??0?$basic_config@Ujson_args@configor@@@configor@@QAE@$$QAV01@@Z 100421f0 f i Pipi_edit.obj
 0001:00041260       ?_Allocate@?$_Alloc_construct_ptr@V?$allocator@U?$_Tree_node@U?$pair@$$CBV?$basic_string@DU?$char_traits@D@std@@V?$allocator@D@2@@std@@V?$basic_config@Ujson_args@configor@@@configor@@@std@@PAX@std@@@std@@@std@@QAEXXZ 10042260 f i Pipi_edit.obj
 0001:00041290       ??0?$config_value@V?$basic_config@Ujson_args@configor@@@configor@@@detail@configor@@QAE@$$QAU012@@Z 10042290 f i Pipi_edit.obj
 0001:000412d0       ?swap@?$basic_config@Ujson_args@configor@@@configor@@QAEXAAV12@@Z 100422d0 f i Pipi_edit.obj
 0001:000412f0       ?swap@?$config_value@V?$basic_config@Ujson_args@configor@@@configor@@@detail@configor@@QAEXAAU123@@Z 100422f0 f i Pipi_edit.obj
 0001:00041330       ??$to_config@H$0A@@configor@@YAXAAV?$basic_config@Ujson_args@configor@@@0@H@Z 10042330 f i Pipi_edit.obj
 0001:00041350       ??$?0$$V@?$_Compressed_pair@V?$allocator@U?$_Tree_node@U?$pair@$$CBV?$basic_string@DU?$char_traits@D@std@@V?$allocator@D@2@@std@@V?$basic_config@Ujson_args@configor@@@configor@@@std@@PAX@std@@@std@@V?$_Tree_val@U?$_Tree_simple_types@U?$pair@$$CBV?$basic_string@DU?$char_traits@D@std@@V?$allocator@D@2@@std@@V?$basic_config@Ujson_args@configor@@@configor@@@std@@@std@@@2@$00@std@@QAE@U_Zero_then_variadic_args_t@1@@Z 10042350 f i Pipi_edit.obj
 0001:00041370       ??$do_dump_config@V?$basic_config@Ujson_args@configor@@@configor@@@detail@configor@@YAXABV?$basic_config@Ujson_args@configor@@@1@AAV?$basic_serializer@V?$basic_config@Ujson_args@configor@@@configor@@@1@@Z 10042370 f i Pipi_edit.obj
 0001:00041650       ??$construct@U?$pair@$$CBV?$basic_string@DU?$char_traits@D@std@@V?$allocator@D@2@@std@@V?$basic_config@Ujson_args@configor@@@configor@@@std@@AAV?$basic_string@DU?$char_traits@D@std@@V?$allocator@D@2@@2@AAV?$basic_config@Ujson_args@configor@@@configor@@@?$_Default_allocator_traits@V?$allocator@U?$_Tree_node@U?$pair@$$CBV?$basic_string@DU?$char_traits@D@std@@V?$allocator@D@2@@std@@V?$basic_config@Ujson_args@configor@@@configor@@@std@@PAX@std@@@std@@@std@@SAXAAV?$allocator@U?$_Tree_node@U?$pair@$$CBV?$basic_string@DU?$char_traits@D@std@@V?$allocator@D@2@@std@@V?$basic_config@Ujson_args@configor@@@configor@@@std@@PAX@std@@@1@QAU?$pair@$$CBV?$basic_string@DU?$char_traits@D@std@@V?$allocator@D@2@@std@@V?$basic_config@Ujson_args@configor@@@configor@@@1@AAV?$basic_string@DU?$char_traits@D@std@@V?$allocator@D@2@@1@AAV?$basic_config@Ujson_args@configor@@@configor@@@Z 10042650 f i Pipi_edit.obj
 0001:000416a0       ??$advance@PBV?$basic_config@Ujson_args@configor@@@configor@@H@std@@YAXAAPBV?$basic_config@Ujson_args@configor@@@configor@@H@Z 100426a0 f i Pipi_edit.obj
 0001:000416c0       ??$_Uninitialized_copy@PBV?$basic_config@Ujson_args@configor@@@configor@@V?$allocator@V?$basic_config@Ujson_args@configor@@@configor@@@std@@@std@@YAPAV?$basic_config@Ujson_args@configor@@@configor@@QBV12@0PAV12@AAV?$allocator@V?$basic_config@Ujson_args@configor@@@configor@@@0@@Z 100426c0 f i Pipi_edit.obj
 0001:000416c0       ??$_Uninitialized_copy@PAV?$basic_config@Ujson_args@configor@@@configor@@V?$allocator@V?$basic_config@Ujson_args@configor@@@configor@@@std@@@std@@YAPAV?$basic_config@Ujson_args@configor@@@configor@@QAV12@0PAV12@AAV?$allocator@V?$basic_config@Ujson_args@configor@@@configor@@@0@@Z 100426c0 f i Pipi_edit.obj
 0001:00041780       ??$?0U?$less@V?$basic_string@DU?$char_traits@D@std@@V?$allocator@D@2@@std@@@std@@U_One_then_variadic_args_t@1@V?$allocator@U?$_Tree_node@U?$pair@$$CBV?$basic_string@DU?$char_traits@D@std@@V?$allocator@D@2@@std@@V?$basic_config@Ujson_args@configor@@@configor@@@std@@PAX@std@@@1@@?$_Compressed_pair@U?$less@V?$basic_string@DU?$char_traits@D@std@@V?$allocator@D@2@@std@@@std@@V?$_Compressed_pair@V?$allocator@U?$_Tree_node@U?$pair@$$CBV?$basic_string@DU?$char_traits@D@std@@V?$allocator@D@2@@std@@V?$basic_config@Ujson_args@configor@@@configor@@@std@@PAX@std@@@std@@V?$_Tree_val@U?$_Tree_simple_types@U?$pair@$$CBV?$basic_string@DU?$char_traits@D@std@@V?$allocator@D@2@@std@@V?$basic_config@Ujson_args@configor@@@configor@@@std@@@std@@@2@$00@2@$00@std@@QAE@U_One_then_variadic_args_t@1@$$QAU?$less@V?$basic_string@DU?$char_traits@D@std@@V?$allocator@D@2@@std@@@1@$$QAU21@$$QAV?$allocator@U?$_Tree_node@U?$pair@$$CBV?$basic_string@DU?$char_traits@D@std@@V?$allocator@D@2@@std@@V?$basic_config@Ujson_args@configor@@@configor@@@std@@PAX@std@@@1@@Z 10042780 f i Pipi_edit.obj
 0001:000417d0       ??$_Copy@U_Copy_tag@?$_Tree@V?$_Tmap_traits@V?$basic_string@DU?$char_traits@D@std@@V?$allocator@D@2@@std@@V?$basic_config@Ujson_args@configor@@@configor@@U?$less@V?$basic_string@DU?$char_traits@D@std@@V?$allocator@D@2@@std@@@2@V?$allocator@U?$pair@$$CBV?$basic_string@DU?$char_traits@D@std@@V?$allocator@D@2@@std@@V?$basic_config@Ujson_args@configor@@@configor@@@std@@@2@$0A@@std@@@std@@@?$_Tree@V?$_Tmap_traits@V?$basic_string@DU?$char_traits@D@std@@V?$allocator@D@2@@std@@V?$basic_config@Ujson_args@configor@@@configor@@U?$less@V?$basic_string@DU?$char_traits@D@std@@V?$allocator@D@2@@std@@@2@V?$allocator@U?$pair@$$CBV?$basic_string@DU?$char_traits@D@std@@V?$allocator@D@2@@std@@V?$basic_config@Ujson_args@configor@@@configor@@@std@@@2@$0A@@std@@@std@@IAEXABV01@U_Copy_tag@01@@Z 100427d0 f i Pipi_edit.obj
 0001:00041890       ??$_Erase_tree@V?$allocator@U?$_Tree_node@U?$pair@$$CBV?$basic_string@DU?$char_traits@D@std@@V?$allocator@D@2@@std@@V?$basic_config@Ujson_args@configor@@@configor@@@std@@PAX@std@@@std@@@?$_Tree_val@U?$_Tree_simple_types@U?$pair@$$CBV?$basic_string@DU?$char_traits@D@std@@V?$allocator@D@2@@std@@V?$basic_config@Ujson_args@configor@@@configor@@@std@@@std@@@std@@QAEXAAV?$allocator@U?$_Tree_node@U?$pair@$$CBV?$basic_string@DU?$char_traits@D@std@@V?$allocator@D@2@@std@@V?$basic_config@Ujson_args@configor@@@configor@@@std@@PAX@std@@@1@PAU?$_Tree_node@U?$pair@$$CBV?$basic_string@DU?$char_traits@D@std@@V?$allocator@D@2@@std@@V?$basic_config@Ujson_args@configor@@@configor@@@std@@PAX@1@@Z 10042890 f i Pipi_edit.obj
 0001:000418e0       ??$_Freenode0@V?$allocator@U?$_Tree_node@U?$pair@$$CBV?$basic_string@DU?$char_traits@D@std@@V?$allocator@D@2@@std@@V?$basic_config@Ujson_args@configor@@@configor@@@std@@PAX@std@@@std@@@?$_Tree_node@U?$pair@$$CBV?$basic_string@DU?$char_traits@D@std@@V?$allocator@D@2@@std@@V?$basic_config@Ujson_args@configor@@@configor@@@std@@PAX@std@@SAXAAV?$allocator@U?$_Tree_node@U?$pair@$$CBV?$basic_string@DU?$char_traits@D@std@@V?$allocator@D@2@@std@@V?$basic_config@Ujson_args@configor@@@configor@@@std@@PAX@std@@@1@PAU01@@Z 100428e0 f i Pipi_edit.obj
 0001:00041960       ??$?MDU?$char_traits@D@std@@V?$allocator@D@1@@std@@YA_NABV?$basic_string@DU?$char_traits@D@std@@V?$allocator@D@2@@0@0@Z 10042960 f i Pipi_edit.obj
 0001:00041990       ??$_Get_size_of_n@$0DI@@std@@YAII@Z 10042990 f i Pipi_edit.obj
 0001:000419c0       ??$swap@T<unnamed-type-data>@?$config_value@V?$basic_config@Ujson_args@configor@@@configor@@@detail@configor@@$0A@@std@@YAXAAT<unnamed-type-data>@?$config_value@V?$basic_config@Ujson_args@configor@@@configor@@@detail@configor@@0@Z 100429c0 f i Pipi_edit.obj
 0001:00041a30       ??E?$_Tree_const_iterator@V?$_Tree_val@U?$_Tree_simple_types@U?$pair@$$CBV?$basic_string@DU?$char_traits@D@std@@V?$allocator@D@2@@std@@V?$basic_config@Ujson_args@configor@@@configor@@@std@@@std@@@std@@@std@@QAEAAV01@XZ 10042a30 f i Pipi_edit.obj
 0001:00041a50       ??C?$_Tree_const_iterator@V?$_Tree_val@U?$_Tree_simple_types@U?$pair@$$CBV?$basic_string@DU?$char_traits@D@std@@V?$allocator@D@2@@std@@V?$basic_config@Ujson_args@configor@@@configor@@@std@@@std@@@std@@@std@@QBEPBU?$pair@$$CBV?$basic_string@DU?$char_traits@D@std@@V?$allocator@D@2@@std@@V?$basic_config@Ujson_args@configor@@@configor@@@1@XZ 10042a50 f i Pipi_edit.obj
 0001:00041a70       ?at@?$vector@V?$basic_config@Ujson_args@configor@@@configor@@V?$allocator@V?$basic_config@Ujson_args@configor@@@configor@@@std@@@std@@QAEAAV?$basic_config@Ujson_args@configor@@@configor@@I@Z 10042a70 f i Pipi_edit.obj
 0001:00041ab0       ?empty@?$vector@V?$basic_config@Ujson_args@configor@@@configor@@V?$allocator@V?$basic_config@Ujson_args@configor@@@configor@@@std@@@std@@QBE_NXZ 10042ab0 f i Pipi_edit.obj
 0001:00041af0       ?_Min@?$_Tree_val@U?$_Tree_simple_types@U?$pair@$$CBV?$basic_string@DU?$char_traits@D@std@@V?$allocator@D@2@@std@@V?$basic_config@Ujson_args@configor@@@configor@@@std@@@std@@@std@@SAPAU?$_Tree_node@U?$pair@$$CBV?$basic_string@DU?$char_traits@D@std@@V?$allocator@D@2@@std@@V?$basic_config@Ujson_args@configor@@@configor@@@std@@PAX@2@PAU32@@Z 10042af0 f i Pipi_edit.obj
 0001:00041b10       ?_Max@?$_Tree_val@U?$_Tree_simple_types@U?$pair@$$CBV?$basic_string@DU?$char_traits@D@std@@V?$allocator@D@2@@std@@V?$basic_config@Ujson_args@configor@@@configor@@@std@@@std@@@std@@SAPAU?$_Tree_node@U?$pair@$$CBV?$basic_string@DU?$char_traits@D@std@@V?$allocator@D@2@@std@@V?$basic_config@Ujson_args@configor@@@configor@@@std@@PAX@2@PAU32@@Z 10042b10 f i Pipi_edit.obj
 0001:00041b40       ??0?$_Tree_val@U?$_Tree_simple_types@U?$pair@$$CBV?$basic_string@DU?$char_traits@D@std@@V?$allocator@D@2@@std@@V?$basic_config@Ujson_args@configor@@@configor@@@std@@@std@@@std@@QAE@XZ 10042b40 f i Pipi_edit.obj
 0001:00041b70       ?empty@?$_Tree@V?$_Tmap_traits@V?$basic_string@DU?$char_traits@D@std@@V?$allocator@D@2@@std@@V?$basic_config@Ujson_args@configor@@@configor@@U?$less@V?$basic_string@DU?$char_traits@D@std@@V?$allocator@D@2@@std@@@2@V?$allocator@U?$pair@$$CBV?$basic_string@DU?$char_traits@D@std@@V?$allocator@D@2@@std@@V?$basic_config@Ujson_args@configor@@@configor@@@std@@@2@$0A@@std@@@std@@QBE_NXZ 10042b70 f i Pipi_edit.obj
 0001:00041ba0       ?cbegin@?$_Tree@V?$_Tmap_traits@V?$basic_string@DU?$char_traits@D@std@@V?$allocator@D@2@@std@@V?$basic_config@Ujson_args@configor@@@configor@@U?$less@V?$basic_string@DU?$char_traits@D@std@@V?$allocator@D@2@@std@@@2@V?$allocator@U?$pair@$$CBV?$basic_string@DU?$char_traits@D@std@@V?$allocator@D@2@@std@@V?$basic_config@Ujson_args@configor@@@configor@@@std@@@2@$0A@@std@@@std@@QBE?AV?$_Tree_const_iterator@V?$_Tree_val@U?$_Tree_simple_types@U?$pair@$$CBV?$basic_string@DU?$char_traits@D@std@@V?$allocator@D@2@@std@@V?$basic_config@Ujson_args@configor@@@configor@@@std@@@std@@@std@@@2@XZ 10042ba0 f i Pipi_edit.obj
 0001:00041bc0       ?deallocate@?$_Default_allocator_traits@V?$allocator@U?$_Tree_node@U?$pair@$$CBV?$basic_string@DU?$char_traits@D@std@@V?$allocator@D@2@@std@@V?$basic_config@Ujson_args@configor@@@configor@@@std@@PAX@std@@@std@@@std@@SAXAAV?$allocator@U?$_Tree_node@U?$pair@$$CBV?$basic_string@DU?$char_traits@D@std@@V?$allocator@D@2@@std@@V?$basic_config@Ujson_args@configor@@@configor@@@std@@PAX@std@@@2@QAU?$_Tree_node@U?$pair@$$CBV?$basic_string@DU?$char_traits@D@std@@V?$allocator@D@2@@std@@V?$basic_config@Ujson_args@configor@@@configor@@@std@@PAX@2@I@Z 10042bc0 f i Pipi_edit.obj
 0001:00041be0       ?pointer_to@?$pointer_traits@PBU?$pair@$$CBV?$basic_string@DU?$char_traits@D@std@@V?$allocator@D@2@@std@@V?$basic_config@Ujson_args@configor@@@configor@@@std@@@std@@SAPBU?$pair@$$CBV?$basic_string@DU?$char_traits@D@std@@V?$allocator@D@2@@std@@V?$basic_config@Ujson_args@configor@@@configor@@@2@ABU32@@Z 10042be0 f i Pipi_edit.obj
 0001:00041c00       ??D?$_Tree_const_iterator@V?$_Tree_val@U?$_Tree_simple_types@U?$pair@$$CBV?$basic_string@DU?$char_traits@D@std@@V?$allocator@D@2@@std@@V?$basic_config@Ujson_args@configor@@@configor@@@std@@@std@@@std@@@std@@QBEABU?$pair@$$CBV?$basic_string@DU?$char_traits@D@std@@V?$allocator@D@2@@std@@V?$basic_config@Ujson_args@configor@@@configor@@@1@XZ 10042c00 f i Pipi_edit.obj
 0001:00041c20       ??E?$_Tree_unchecked_const_iterator@V?$_Tree_val@U?$_Tree_simple_types@U?$pair@$$CBV?$basic_string@DU?$char_traits@D@std@@V?$allocator@D@2@@std@@V?$basic_config@Ujson_args@configor@@@configor@@@std@@@std@@@std@@U_Iterator_base0@2@@std@@QAEAAV01@XZ 10042c20 f i Pipi_edit.obj
 0001:00041c90       ?_Xrange@?$vector@V?$basic_config@Ujson_args@configor@@@configor@@V?$allocator@V?$basic_config@Ujson_args@configor@@@configor@@@std@@@std@@CAXXZ 10042c90 f i Pipi_edit.obj
 0001:00041ca0       ?begin@?$_Tree@V?$_Tmap_traits@V?$basic_string@DU?$char_traits@D@std@@V?$allocator@D@2@@std@@V?$basic_config@Ujson_args@configor@@@configor@@U?$less@V?$basic_string@DU?$char_traits@D@std@@V?$allocator@D@2@@std@@@2@V?$allocator@U?$pair@$$CBV?$basic_string@DU?$char_traits@D@std@@V?$allocator@D@2@@std@@V?$basic_config@Ujson_args@configor@@@configor@@@std@@@2@$0A@@std@@@std@@QBE?AV?$_Tree_const_iterator@V?$_Tree_val@U?$_Tree_simple_types@U?$pair@$$CBV?$basic_string@DU?$char_traits@D@std@@V?$allocator@D@2@@std@@V?$basic_config@Ujson_args@configor@@@configor@@@std@@@std@@@std@@@2@XZ 10042ca0 f i Pipi_edit.obj
 0001:00041ce0       ??$?0V?$allocator@U?$_Tree_node@U?$pair@$$CBV?$basic_string@DU?$char_traits@D@std@@V?$allocator@D@2@@std@@V?$basic_config@Ujson_args@configor@@@configor@@@std@@PAX@std@@@std@@$$V@?$_Compressed_pair@V?$allocator@U?$_Tree_node@U?$pair@$$CBV?$basic_string@DU?$char_traits@D@std@@V?$allocator@D@2@@std@@V?$basic_config@Ujson_args@configor@@@configor@@@std@@PAX@std@@@std@@V?$_Tree_val@U?$_Tree_simple_types@U?$pair@$$CBV?$basic_string@DU?$char_traits@D@std@@V?$allocator@D@2@@std@@V?$basic_config@Ujson_args@configor@@@configor@@@std@@@std@@@2@$00@std@@QAE@U_One_then_variadic_args_t@1@$$QAV?$allocator@U?$_Tree_node@U?$pair@$$CBV?$basic_string@DU?$char_traits@D@std@@V?$allocator@D@2@@std@@V?$basic_config@Ujson_args@configor@@@configor@@@std@@PAX@std@@@1@@Z 10042ce0 f i Pipi_edit.obj
 0001:00041d10       ??$?0AAV?$basic_string@DU?$char_traits@D@std@@V?$allocator@D@2@@std@@AAV?$basic_config@Ujson_args@configor@@@configor@@$0A@@?$pair@$$CBV?$basic_string@DU?$char_traits@D@std@@V?$allocator@D@2@@std@@V?$basic_config@Ujson_args@configor@@@configor@@@std@@QAE@AAV?$basic_string@DU?$char_traits@D@std@@V?$allocator@D@2@@1@AAV?$basic_config@Ujson_args@configor@@@configor@@@Z 10042d10 f i Pipi_edit.obj
 0001:00041d90       ??$_Emplace_back@AAV?$basic_config@Ujson_args@configor@@@configor@@@?$_Uninitialized_backout_al@V?$allocator@V?$basic_config@Ujson_args@configor@@@configor@@@std@@@std@@QAEXAAV?$basic_config@Ujson_args@configor@@@configor@@@Z 10042d90 f i Pipi_edit.obj
 0001:00041d90       ??$_Emplace_back@ABV?$basic_config@Ujson_args@configor@@@configor@@@?$_Uninitialized_backout_al@V?$allocator@V?$basic_config@Ujson_args@configor@@@configor@@@std@@@std@@QAEXABV?$basic_config@Ujson_args@configor@@@configor@@@Z 10042d90 f i Pipi_edit.obj
 0001:00041de0       ??$_Copy_nodes@U_Copy_tag@?$_Tree@V?$_Tmap_traits@V?$basic_string@DU?$char_traits@D@std@@V?$allocator@D@2@@std@@V?$basic_config@Ujson_args@configor@@@configor@@U?$less@V?$basic_string@DU?$char_traits@D@std@@V?$allocator@D@2@@std@@@2@V?$allocator@U?$pair@$$CBV?$basic_string@DU?$char_traits@D@std@@V?$allocator@D@2@@std@@V?$basic_config@Ujson_args@configor@@@configor@@@std@@@2@$0A@@std@@@std@@@?$_Tree@V?$_Tmap_traits@V?$basic_string@DU?$char_traits@D@std@@V?$allocator@D@2@@std@@V?$basic_config@Ujson_args@configor@@@configor@@U?$less@V?$basic_string@DU?$char_traits@D@std@@V?$allocator@D@2@@std@@@2@V?$allocator@U?$pair@$$CBV?$basic_string@DU?$char_traits@D@std@@V?$allocator@D@2@@std@@V?$basic_config@Ujson_args@configor@@@configor@@@std@@@2@$0A@@std@@@std@@IAEPAU?$_Tree_node@U?$pair@$$CBV?$basic_string@DU?$char_traits@D@std@@V?$allocator@D@2@@std@@V?$basic_config@Ujson_args@configor@@@configor@@@std@@PAX@1@PAU21@0U_Copy_tag@01@@Z 10042de0 f i Pipi_edit.obj
 0001:00041f20       ??$_Freenode@V?$allocator@U?$_Tree_node@U?$pair@$$CBV?$basic_string@DU?$char_traits@D@std@@V?$allocator@D@2@@std@@V?$basic_config@Ujson_args@configor@@@configor@@@std@@PAX@std@@@std@@@?$_Tree_node@U?$pair@$$CBV?$basic_string@DU?$char_traits@D@std@@V?$allocator@D@2@@std@@V?$basic_config@Ujson_args@configor@@@configor@@@std@@PAX@std@@SAXAAV?$allocator@U?$_Tree_node@U?$pair@$$CBV?$basic_string@DU?$char_traits@D@std@@V?$allocator@D@2@@std@@V?$basic_config@Ujson_args@configor@@@configor@@@std@@PAX@std@@@1@PAU01@@Z 10042f20 f i Pipi_edit.obj
 0001:00041f90       ??$construct@V?$basic_config@Ujson_args@configor@@@configor@@AAV12@@?$_Default_allocator_traits@V?$allocator@V?$basic_config@Ujson_args@configor@@@configor@@@std@@@std@@SAXAAV?$allocator@V?$basic_config@Ujson_args@configor@@@configor@@@1@QAV?$basic_config@Ujson_args@configor@@@configor@@AAV34@@Z 10042f90 f i Pipi_edit.obj
 0001:00041f90       ??$construct@V?$basic_config@Ujson_args@configor@@@configor@@ABV12@@?$_Default_allocator_traits@V?$allocator@V?$basic_config@Ujson_args@configor@@@configor@@@std@@@std@@SAXAAV?$allocator@V?$basic_config@Ujson_args@configor@@@configor@@@1@QAV?$basic_config@Ujson_args@configor@@@configor@@ABV34@@Z 10042f90 f i Pipi_edit.obj
 0001:00041fd0       ??$_Copy_or_move@U?$pair@$$CBV?$basic_string@DU?$char_traits@D@std@@V?$allocator@D@2@@std@@V?$basic_config@Ujson_args@configor@@@configor@@@std@@U?$integral_constant@_N$0A@@2@@?$_Tree@V?$_Tmap_traits@V?$basic_string@DU?$char_traits@D@std@@V?$allocator@D@2@@std@@V?$basic_config@Ujson_args@configor@@@configor@@U?$less@V?$basic_string@DU?$char_traits@D@std@@V?$allocator@D@2@@std@@@2@V?$allocator@U?$pair@$$CBV?$basic_string@DU?$char_traits@D@std@@V?$allocator@D@2@@std@@V?$basic_config@Ujson_args@configor@@@configor@@@std@@@2@$0A@@std@@@std@@IAEPAU?$_Tree_node@U?$pair@$$CBV?$basic_string@DU?$char_traits@D@std@@V?$allocator@D@2@@std@@V?$basic_config@Ujson_args@configor@@@configor@@@std@@PAX@1@AAU?$pair@$$CBV?$basic_string@DU?$char_traits@D@std@@V?$allocator@D@2@@std@@V?$basic_config@Ujson_args@configor@@@configor@@@1@U_Copy_tag@01@U?$integral_constant@_N$0A@@1@@Z 10042fd0 f i Pipi_edit.obj
 0001:00041ff0       ??$_Erase_tree_and_orphan@V?$allocator@U?$_Tree_node@U?$pair@$$CBV?$basic_string@DU?$char_traits@D@std@@V?$allocator@D@2@@std@@V?$basic_config@Ujson_args@configor@@@configor@@@std@@PAX@std@@@std@@@?$_Tree_val@U?$_Tree_simple_types@U?$pair@$$CBV?$basic_string@DU?$char_traits@D@std@@V?$allocator@D@2@@std@@V?$basic_config@Ujson_args@configor@@@configor@@@std@@@std@@@std@@QAEXAAV?$allocator@U?$_Tree_node@U?$pair@$$CBV?$basic_string@DU?$char_traits@D@std@@V?$allocator@D@2@@std@@V?$basic_config@Ujson_args@configor@@@configor@@@std@@PAX@std@@@1@PAU?$_Tree_node@U?$pair@$$CBV?$basic_string@DU?$char_traits@D@std@@V?$allocator@D@2@@std@@V?$basic_config@Ujson_args@configor@@@configor@@@std@@PAX@1@@Z 10042ff0 f i Pipi_edit.obj
 0001:00042050       ??$_Buynode@AAU?$pair@$$CBV?$basic_string@DU?$char_traits@D@std@@V?$allocator@D@2@@std@@V?$basic_config@Ujson_args@configor@@@configor@@@std@@@?$_Tree@V?$_Tmap_traits@V?$basic_string@DU?$char_traits@D@std@@V?$allocator@D@2@@std@@V?$basic_config@Ujson_args@configor@@@configor@@U?$less@V?$basic_string@DU?$char_traits@D@std@@V?$allocator@D@2@@std@@@2@V?$allocator@U?$pair@$$CBV?$basic_string@DU?$char_traits@D@std@@V?$allocator@D@2@@std@@V?$basic_config@Ujson_args@configor@@@configor@@@std@@@2@$0A@@std@@@std@@IAEPAU?$_Tree_node@U?$pair@$$CBV?$basic_string@DU?$char_traits@D@std@@V?$allocator@D@2@@std@@V?$basic_config@Ujson_args@configor@@@configor@@@std@@PAX@1@AAU?$pair@$$CBV?$basic_string@DU?$char_traits@D@std@@V?$allocator@D@2@@std@@V?$basic_config@Ujson_args@configor@@@configor@@@1@@Z 10043050 f i Pipi_edit.obj
 0001:00042090       ??$_Buynode@V?$allocator@U?$_Tree_node@U?$pair@$$CBV?$basic_string@DU?$char_traits@D@std@@V?$allocator@D@2@@std@@V?$basic_config@Ujson_args@configor@@@configor@@@std@@PAX@std@@@std@@AAU?$pair@$$CBV?$basic_string@DU?$char_traits@D@std@@V?$allocator@D@2@@std@@V?$basic_config@Ujson_args@configor@@@configor@@@2@@?$_Tree_node@U?$pair@$$CBV?$basic_string@DU?$char_traits@D@std@@V?$allocator@D@2@@std@@V?$basic_config@Ujson_args@configor@@@configor@@@std@@PAX@std@@SAPAU01@AAV?$allocator@U?$_Tree_node@U?$pair@$$CBV?$basic_string@DU?$char_traits@D@std@@V?$allocator@D@2@@std@@V?$basic_config@Ujson_args@configor@@@configor@@@std@@PAX@std@@@1@PAU01@AAU?$pair@$$CBV?$basic_string@DU?$char_traits@D@std@@V?$allocator@D@2@@std@@V?$basic_config@Ujson_args@configor@@@configor@@@1@@Z 10043090 f i Pipi_edit.obj
 0001:00042180       ??$construct@U?$pair@$$CBV?$basic_string@DU?$char_traits@D@std@@V?$allocator@D@2@@std@@V?$basic_config@Ujson_args@configor@@@configor@@@std@@AAU12@@?$_Default_allocator_traits@V?$allocator@U?$_Tree_node@U?$pair@$$CBV?$basic_string@DU?$char_traits@D@std@@V?$allocator@D@2@@std@@V?$basic_config@Ujson_args@configor@@@configor@@@std@@PAX@std@@@std@@@std@@SAXAAV?$allocator@U?$_Tree_node@U?$pair@$$CBV?$basic_string@DU?$char_traits@D@std@@V?$allocator@D@2@@std@@V?$basic_config@Ujson_args@configor@@@configor@@@std@@PAX@std@@@1@QAU?$pair@$$CBV?$basic_string@DU?$char_traits@D@std@@V?$allocator@D@2@@std@@V?$basic_config@Ujson_args@configor@@@configor@@@1@AAU31@@Z 10043180 f i Pipi_edit.obj
 0001:000421c0       ??0?$pair@$$CBV?$basic_string@DU?$char_traits@D@std@@V?$allocator@D@2@@std@@V?$basic_config@Ujson_args@configor@@@configor@@@std@@QAE@ABU01@@Z 100431c0 f i Pipi_edit.obj
 0001:00042226       ??_E?$basic_ostream@DU?$char_traits@D@std@@@std@@$4PPPPPPPM@A@AEPAXI@Z 10043226 f i Pipi_edit.obj
 0001:0004222e       ??_E?$basic_ofstream@DU?$char_traits@D@std@@@std@@$4PPPPPPPM@A@AEPAXI@Z 1004322e f i Pipi_edit.obj
 0001:00042236       ??_E?$fast_basic_ostringstream@D@detail@configor@@$4PPPPPPPM@A@AEPAXI@Z 10043236 f i Pipi_edit.obj
 0001:00042240       ?AngleVectors@QAngle@@QAEXPAVVector@@00@Z 10043240 f   QAngle.obj
 0001:00042470       ?AngleVectorsTranspose@QAngle@@QAEXPAVVector@@00@Z 10043470 f   QAngle.obj
 0001:00042670       _ror                       10043670 f i ReflectiveLoader.obj
 0001:00042680       _hash                      10043680 f i ReflectiveLoader.obj
 0001:000426c0       _caller                    100436c0 f   ReflectiveLoader.obj
 0001:000426d0       _ReflectiveLoader@4        100436d0 f   ReflectiveLoader.obj
 0001:00042e00       ?StudioRenderModel@@YAXXZ  10043e00 f   StudioModelRenderer.obj
 0001:000432b0       ?oStudioRenderModel@@YAXXZ 100442b0 f   StudioModelRenderer.obj
 0001:000432c0       ?StudioRenderModel_Gate@@YAXXZ 100442c0 f   StudioModelRenderer.obj
 0001:000432d0       ?oStudioRenderFinal@@YAXXZ 100442d0 f   StudioModelRenderer.obj
 0001:000432e0       ?ScoreAttrib@@YAHPBDHPAX@Z 100442e0 f   Usermsg.obj
 0001:00043350       ?TeamInfo@@YAHPBDHPAX@Z    10044350 f   Usermsg.obj
 0001:00043460       ?SetFOV@@YAHPBDHPAX@Z      10044460 f   Usermsg.obj
 0001:00043570       ?BombDrop@@YAHPBDHPAX@Z    10044570 f   Usermsg.obj
 0001:00043600       ?ResetHUD@@YAHPBDHPAX@Z    10044600 f   Usermsg.obj
 0001:00043680       ?Battery@@YAHPBDHPAX@Z     10044680 f   Usermsg.obj
 0001:000436c0       ?Health@@YAHPBDHPAX@Z      100446c0 f   Usermsg.obj
 0001:00043700       ?DeathMsg@@YAHPBDHPAX@Z    10044700 f   Usermsg.obj
 0001:000437c0       ?CaptureFactory@@YAP6APAVIBaseInterface@@PBDPAH@ZPAD@Z 100447c0 f   interface.obj
 0001:00043810       ?CaptureInterface@@YAPAXP6APAVIBaseInterface@@PBDPAH@ZPAD@Z 10044810 f   interface.obj
 0001:00043850       ?BEGIN_READ@@YAXPAXH@Z     10044850 f   parsemsg.obj
 0001:00043880       ?READ_CHAR@@YAHXZ          10044880 f   parsemsg.obj
 0001:000438d0       ?READ_BYTE@@YAHXZ          100448d0 f   parsemsg.obj
 0001:00043920       ?READ_SHORT@@YAHXZ         10044920 f   parsemsg.obj
 0001:00043980       ?READ_STRING@@YAPADXZ      10044980 f   parsemsg.obj
 0001:00043a30       ?READ_COORD@@YAMXZ         10044a30 f   parsemsg.obj
 0001:00043a60       ?CrossProduct@Vector@@QAEAAV1@ABV1@0@Z 10044a60 f i Vector.obj
 0001:00043af0       ?AngleMatrix@Vector@@QAEXAAVQAngle@@PAY02M@Z 10044af0 f   Vector.obj
 0001:00043da0       ?VectorRotate@Vector@@QAEXAAV1@AAVQAngle@@@Z 10044da0 f   Vector.obj
 0001:00043eb0       ?ToEulerAngles@Vector@@QAE?AVQAngle@@XZ 10044eb0 f   Vector.obj
 0001:00044070       ?ToEulerAngles@Vector@@QAE?AVQAngle@@PAV1@@Z 10045070 f   Vector.obj
 0001:000444db       ??0bad_alloc@std@@QAE@XZ   100454db f i libcpmt:xthrow.obj
 0001:000444f3       ??0length_error@std@@QAE@ABV01@@Z 100454f3 f i libcpmt:xthrow.obj
 0001:0004450e       ??0length_error@std@@QAE@PBD@Z 1004550e f i libcpmt:xthrow.obj
 0001:0004452d       ??0runtime_error@std@@QAE@PBD@Z 1004552d f i libcpmt:xthrow.obj
 0001:0004454c       ??1length_error@std@@UAE@XZ 1004554c f i libcpmt:xthrow.obj
 0001:0004455d       ??_Glength_error@std@@UAEPAXI@Z 1004555d f i libcpmt:xthrow.obj
 0001:0004455d       ??_Elength_error@std@@UAEPAXI@Z 1004555d f i libcpmt:xthrow.obj
 0001:0004458a       ?__scrt_throw_std_bad_alloc@@YAXXZ 1004558a f   LIBCMT:throw_bad_alloc.obj
 0001:0004458a       ?_Xbad_alloc@std@@YAXXZ    1004558a f   libcpmt:xthrow.obj
 0001:000445a7       ?_Xlength_error@std@@YAXPBD@Z 100455a7 f   libcpmt:xthrow.obj
 0001:000445c7       ?_Xout_of_range@std@@YAXPBD@Z 100455c7 f   libcpmt:xthrow.obj
 0001:000445e7       ?_Xruntime_error@std@@YAXPBD@Z 100455e7 f   libcpmt:xthrow.obj
 0001:00044607       ___std_get_string_size_without_trailing_whitespace@8 10045607 f   libcpmt:syserror_import_lib.obj
 0001:0004462b       ___std_system_error_allocate_message@8 1004562b f   libcpmt:syserror_import_lib.obj
 0001:00044654       ___std_system_error_deallocate_message@4 10045654 f   libcpmt:syserror_import_lib.obj
 0001:0004465a       ?_Syserror_map@std@@YAPBDH@Z 1004565a f   libcpmt:syserror.obj
 0001:0004467f       ?_Winerror_map@std@@YAHH@Z 1004567f f   libcpmt:syserror.obj
 0001:000446a1       ??0_Init_locks@std@@QAE@XZ 100456a1 f   libcpmt:xlock.obj
 0001:000446ce       ??0_Lockit@std@@QAE@H@Z    100456ce f   libcpmt:xlock.obj
 0001:000446ff       ??1_Init_locks@std@@QAE@XZ 100456ff f   libcpmt:xlock.obj
 0001:00044726       ??1_Lockit@std@@QAE@XZ     10045726 f   libcpmt:xlock.obj
 0001:00044745       ??0_Locimp@locale@std@@AAE@_N@Z 10045745 f i libcpmt:locale0.obj
 0001:00044786       ??1_Fac_node@std@@QAE@XZ   10045786 f i libcpmt:locale0.obj
 0001:000447b7       ??1_Fac_tidy_reg_t@std@@QAE@XZ 100457b7 f i libcpmt:locale0.obj
 0001:000447de       ??1_Locimp@locale@std@@MAE@XZ 100457de f i libcpmt:locale0.obj
 0001:00044809       ??4?$_Yarn@D@std@@QAEAAV01@PBD@Z 10045809 f i libcpmt:locale0.obj
 0001:0004485d       ??_G_Locimp@locale@std@@MAEPAXI@Z 1004585d f i libcpmt:locale0.obj
 0001:0004485d       ??_E_Locimp@locale@std@@MAEPAXI@Z 1004585d f i libcpmt:locale0.obj
 0001:0004487f       ?_Facet_Register@std@@YAXPAV_Facet_base@1@@Z 1004587f f   libcpmt:locale0.obj
 0001:000448ab       ?_Getgloballocale@locale@std@@CAPAV_Locimp@12@XZ 100458ab f   libcpmt:locale0.obj
 0001:000448b1       ?_Init@locale@std@@CAPAV_Locimp@12@_N@Z 100458b1 f   libcpmt:locale0.obj
 0001:00044941       ?_Locimp_dtor@_Locimp@locale@std@@CAXPAV123@@Z 10045941 f   libcpmt:locale0.obj
 0001:000449b1       ?_Locinfo_ctor@_Locinfo@std@@SAXPAV12@PBD@Z 100459b1 f   libcpmt:locale0.obj
 0001:000449fc       ?_Locinfo_dtor@_Locinfo@std@@SAXPAV12@@Z 100459fc f   libcpmt:locale0.obj
 0001:00044a16       ?_New_Locimp@_Locimp@locale@std@@CAPAV123@_N@Z 10045a16 f   libcpmt:locale0.obj
 0001:00044a39       ?_Setgloballocale@locale@std@@CAXPAX@Z 10045a39 f   libcpmt:locale0.obj
 0001:00044a61       __Deletegloballocale       10045a61 f   libcpmt:locale0.obj
 0001:00044ac6       ?_Addstd@ios_base@std@@SAXPAV12@@Z 10045ac6 f   libcpmt:ios.obj
 0001:00044b18       ?_Callfns@ios_base@std@@AAEXW4event@12@@Z 10045b18 f i libcpmt:ios.obj
 0001:00044b4b       ?_Ios_base_dtor@ios_base@std@@CAXPAV12@@Z 10045b4b f   libcpmt:ios.obj
 0001:00044b8b       ?_Tidy@ios_base@std@@AAEXXZ 10045b8b f i libcpmt:ios.obj
 0001:00044c06       ??$_Xfiopen@D@std@@YAPAU_iobuf@@PBDHH@Z 10045c06 f i libcpmt:fiopen.obj
 0001:00044cac       ?_Fiopen@std@@YAPAU_iobuf@@PBDHH@Z 10045cac f   libcpmt:fiopen.obj
 0001:00044cb5       ?_Xfsopen@std@@YAPAU_iobuf@@PBDHH@Z 10045cb5 f   libcpmt:fiopen.obj
 0001:00044cd2       __Getctype                 10045cd2 f   libcpmt:_tolower.obj
 0001:00044d3d       __Tolower                  10045d3d f   libcpmt:_tolower.obj
 0001:00044e3b       __Toupper                  10045e3b f   libcpmt:_toupper.obj
 0001:00044f39       ??$_Copy_construct_from@$$CBU_EXCEPTION_RECORD@@@?$_Ptr_base@$$CBU_EXCEPTION_RECORD@@@std@@IAEXABV?$shared_ptr@$$CBU_EXCEPTION_RECORD@@@1@@Z 10045f39 f i libcpmt:excptptr.obj
 0001:00044fc4       ??0bad_exception@std@@QAE@ABV01@@Z 10045fc4 f i libcpmt:excptptr.obj
 0001:00045015       ??0bad_exception@std@@QAE@XZ 10046015 f i libcpmt:excptptr.obj
 0001:000450e7       ??1?$shared_ptr@$$CBU_EXCEPTION_RECORD@@@std@@QAE@XZ 100460e7 f i libcpmt:excptptr.obj
 0001:000450f3       ??1bad_exception@std@@UAE@XZ 100460f3 f i libcpmt:excptptr.obj
 0001:0004513a       ??4?$shared_ptr@$$CBU_EXCEPTION_RECORD@@@std@@QAEAAV01@$$QAV01@@Z 1004613a f i libcpmt:excptptr.obj
 0001:0004525e       ??_G?$shared_ptr@$$CBU_EXCEPTION_RECORD@@@std@@QAEPAXI@Z 1004625e f i libcpmt:excptptr.obj
 0001:000452a4       ??_Gbad_exception@std@@UAEPAXI@Z 100462a4 f i libcpmt:excptptr.obj
 0001:000452a4       ??_Ebad_exception@std@@UAEPAXI@Z 100462a4 f i libcpmt:excptptr.obj
 0001:00045522       ?_CallMemberFunction0@@YGXQAX0@Z 10046522 f i libcpmt:excptptr.obj
 0001:0004552f       ?_CallMemberFunction1@@YGXQAX00@Z 1004652f f i libcpmt:excptptr.obj
 0001:0004553f       ?_CallMemberFunction2@@YGXQAX00H@Z 1004653f f i libcpmt:excptptr.obj
 0001:000455c4       ?_Decref@_Ref_count_base@std@@QAEXXZ 100465c4 f i libcpmt:excptptr.obj
 0001:000455ed       ?_Decwref@_Ref_count_base@std@@QAEXXZ 100465ed f i libcpmt:excptptr.obj
 0001:0004560f       @_guard_check_icall_nop@4  1004660f f   LIBCMT:guard_support.obj
 0001:000457b3       ?_Get_deleter@_Ref_count_base@std@@UBEPAXABVtype_info@@@Z 100467b3 f i libcpmt:excptptr.obj
 0001:00045810       ?__ExceptionPtrCopy@@YAXPAXPBX@Z 10046810 f   libcpmt:excptptr.obj
 0001:00045827       ?__ExceptionPtrCreate@@YAXPAX@Z 10046827 f   libcpmt:excptptr.obj
 0001:00045836       ?__ExceptionPtrCurrentException@@YAXPAX@Z 10046836 f   libcpmt:excptptr.obj
 0001:00045912       ?__ExceptionPtrDestroy@@YAXPAX@Z 10046912 f   libcpmt:excptptr.obj
 0001:00045921       ?uncaught_exception@std@@YA_NXZ 10046921 f   libcpmt:uncaught_exception.obj
 0001:00045926       ?setprecision@std@@YA?AU?$_Smanip@_J@1@_J@Z 10046926 f   libcpmt:iomanip.obj
 0001:00045940       ?setw@std@@YA?AU?$_Smanip@_J@1@_J@Z 10046940 f   libcpmt:iomanip.obj
 0001:00045982       __Getcvt                   10046982 f   libcpmt:xwctomb.obj
 0001:000459f5       __Mtxdst                   100469f5 f   libcpmt:xmtx.obj
 0001:00045a03       __Mtxinit                  10046a03 f   libcpmt:xmtx.obj
 0001:00045a18       __Mtxlock                  10046a18 f   libcpmt:xmtx.obj
 0001:00045a26       __Mtxunlock                10046a26 f   libcpmt:xmtx.obj
 0001:00045a34       ??1_Init_atexit@@QAE@XZ    10046a34 f i libcpmt:iosptrs.obj
 0001:00045a9c       ?_Atexit@@YAXP6AXXZ@Z      10046a9c f   libcpmt:iosptrs.obj
 0001:00045acb       ??1?$__crt_scoped_stack_ptr@_W@@QAE@XZ 10046acb f i libcpmt:StlLCMapStringA.obj
 0001:00045ae4       ___crtLCMapStringA         10046ae4 f   libcpmt:StlLCMapStringA.obj
 0001:00045cb0       __freea_crt                10046cb0 f i libcpmt:StlLCMapStringA.obj
 0001:00045cce       @__security_check_cookie@4 10046cce f   LIBCMT:secchk.obj
 0001:00045cdc       ??_V@YAXPAX@Z              10046cdc f   LIBCMT:delete_array.obj
 0001:00045da6       __Init_thread_footer       10046da6 f   LIBCMT:thread_safe_statics.obj
 0001:00045df0       __Init_thread_header       10046df0 f   LIBCMT:thread_safe_statics.obj
 0001:00045e42       __Init_thread_notify       10046e42 f   LIBCMT:thread_safe_statics.obj
 0001:00045e78       __Init_thread_wait         10046e78 f   LIBCMT:thread_safe_statics.obj
 0001:00045ec6       ??_U@YAPAXI@Z              10046ec6 f   LIBCMT:new_array.obj
 0001:00045ecf       ??2@YAPAXI@Z               10046ecf f   LIBCMT:new_scalar.obj
 0001:00045eff       ??3@YAXPAXI@Z              10046eff f   LIBCMT:delete_scalar_size.obj
 0001:00045f0d       ??_Gtype_info@@UAEPAXI@Z   10046f0d f i LIBCMT:std_type_info_static.obj
 0001:00045f0d       ??_Etype_info@@UAEPAXI@Z   10046f0d f i LIBCMT:std_type_info_static.obj
 0001:00045f74       ___scrt_acquire_startup_lock 10046f74 f   LIBCMT:utility.obj
 0001:00045fa6       ___scrt_dllmain_after_initialize_c 10046fa6 f   LIBCMT:utility.obj
 0001:00045fd1       ___scrt_dllmain_before_initialize_c 10046fd1 f   LIBCMT:utility.obj
 0001:00045fdf       ___scrt_dllmain_crt_thread_attach 10046fdf f   LIBCMT:utility.obj
 0001:00045ffe       ___scrt_dllmain_crt_thread_detach 10046ffe f   LIBCMT:utility.obj
 0001:0004600b       ___scrt_dllmain_exception_filter 1004700b f   LIBCMT:utility.obj
 0001:0004603f       ___scrt_dllmain_uninitialize_c 1004703f f   LIBCMT:utility.obj
 0001:00046062       ___scrt_dllmain_uninitialize_critical 10047062 f   LIBCMT:utility.obj
 0001:0004606f       ___scrt_initialize_crt     1004706f f   LIBCMT:utility.obj
 0001:000460a8       ___scrt_initialize_onexit_tables 100470a8 f   LIBCMT:utility.obj
 0001:0004612f       ___scrt_is_nonwritable_in_current_image 1004712f f   LIBCMT:utility.obj
 0001:000461c3       ___scrt_release_startup_lock 100471c3 f   LIBCMT:utility.obj
 0001:000461e0       ___scrt_uninitialize_crt   100471e0 f   LIBCMT:utility.obj
 0001:00046208       __onexit                   10047208 f   LIBCMT:utility.obj
 0001:00046235       _atexit                    10047235 f   LIBCMT:utility.obj
 0001:0004624a       ??_M@YGXPAXIIP6EX0@Z@Z     1004724a f   LIBCMT:ehvecdtr.obj
 0001:000462cf       ?__ArrayUnwind@@YGXPAXIIP6EX0@Z@Z 100472cf f   LIBCMT:ehvecdtr.obj
 0001:0004635f       ??_L@YGXPAXIIP6EX0@Z1@Z    1004735f f   LIBCMT:ehvecctr.obj
 0001:000463d3       ___raise_securityfailure   100473d3 f   LIBCMT:gs_report.obj
 0001:000463fb       ___report_gsfailure        100473fb f   LIBCMT:gs_report.obj
 0001:000464f5       ___report_rangecheckfailure 100474f5 f   LIBCMT:gs_report.obj
 0001:00046501       ___report_securityfailure  10047501 f   LIBCMT:gs_report.obj
 0001:00046910       __DllMainCRTStartup@12     10047910 f   LIBCMT:dll_dllmain.obj
 0001:00046933       ??3@YAXPAX@Z               10047933 f   LIBCMT:delete_scalar.obj
 0001:00046938       __EH_epilog3               10047938 f   LIBCMT:ehprolg3.obj
 0001:0004694c       __EH_prolog3               1004794c f   LIBCMT:ehprolg3.obj
 0001:0004697f       __EH_prolog3_catch         1004797f f   LIBCMT:ehprolg3.obj
 0001:000469c0       __alloca_probe_16          100479c0 f   LIBCMT:alloca16.obj
 0001:000469d6       __alloca_probe_8           100479d6     LIBCMT:alloca16.obj
 0001:000469f0       __allmul                   100479f0 f   LIBCMT:llmul.obj
 0001:00046a30       ___scrt_fastfail           10047a30 f   LIBCMT:utility_desktop.obj
 0001:00046b4b       __crt_debugger_hook        10047b4b f   LIBCMT:utility_desktop.obj
 0001:00046b53       ?__scrt_throw_std_bad_array_new_length@@YAXXZ 10047b53 f   LIBCMT:throw_bad_alloc.obj
 0001:00046b70       ___isa_available_init      10047b70 f   LIBCMT:cpu_disp.obj
 0001:00046d41       __get_startup_argv_mode    10047d41 f   LIBCMT:argv_mode.obj
 0001:00046d45       ___scrt_is_ucrt_dll_in_use 10047d45 f   LIBCMT:ucrt_detection.obj
 0001:00046d60       __SEH_prolog4              10047d60 f   LIBCMT:sehprolg4.obj
 0001:00046df2       ___security_init_cookie    10047df2 f   LIBCMT:gs_support.obj
 0001:00046e3d       ?__scrt_initialize_type_info@@YAXXZ 10047e3d f   LIBCMT:tncleanup.obj
 0001:00046e49       ?__scrt_uninitialize_type_info@@YAXXZ 10047e49 f   LIBCMT:tncleanup.obj
 0001:00046e55       ___local_stdio_scanf_options 10047e55 f i LIBCMT:default_local_stdio_options.obj
 0001:00046e5b       ___scrt_initialize_default_local_stdio_options 10047e5b f   LIBCMT:default_local_stdio_options.obj
 0001:00046e78       ___scrt_get_dyn_tls_init_callback 10047e78 f   LIBCMT:dyn_tls_init.obj
 0001:00046e7e       __RTC_Initialize           10047e7e f   LIBCMT:initsect.obj
 0001:00046eaa       __RTC_Terminate            10047eaa f   LIBCMT:initsect.obj
 0001:00046ee0       __chkstk                   10047ee0 f   LIBCMT:chkstk.obj
 0001:00046ee0       __alloca_probe             10047ee0 f   LIBCMT:chkstk.obj
 0001:00046f0b       ?GetRangeOfTrysToCheck@__FrameHandler3@@SA?AU?$pair@Viterator@TryBlockMap@__FrameHandler3@@V123@@std@@AAVTryBlockMap@1@HPAXPBU_s_FuncInfo@@H@Z 10047f0b f   libvcruntime:trnsctrl.obj
 0001:00046f7b       ?_CallCatchBlock2@@YAPAXPAUEHRegistrationNode@@PBU_s_FuncInfo@@PAXHK@Z 10047f7b f   libvcruntime:trnsctrl.obj
 0001:00046fd8       ?_CallSETranslator@@YAHPAUEHExceptionRecord@@PAUEHRegistrationNode@@PAX2PBU_s_FuncInfo@@H1@Z 10047fd8 f   libvcruntime:trnsctrl.obj
 0001:000470ce       ?_JumpToContinuation@@YGXPAXPAUEHRegistrationNode@@@Z 100480ce f   libvcruntime:trnsctrl.obj
 0001:000470fe       ?_UnwindNestedFrames@@YGXPAUEHRegistrationNode@@PAUEHExceptionRecord@@@Z 100480fe f   libvcruntime:trnsctrl.obj
 0001:00047151       __CatchGuardHandler        10048151 f   libvcruntime:trnsctrl.obj
 0001:00047182       __CreateFrameInfo          10048182 f   libvcruntime:trnsctrl.obj
 0001:000471a6       __FindAndUnlinkFrame       100481a6 f   libvcruntime:trnsctrl.obj
 0001:000471ee       __TranslatorGuardHandler   100481ee f   libvcruntime:trnsctrl.obj
 0001:0004728b       ___CxxFrameHandler3        1004828b f   libvcruntime:trnsctrl.obj
 0001:000472c1       ___DestructExceptionObject 100482c1 f   libvcruntime:ehhelpers.obj
 0001:000473ba       __IsExceptionObjectToBeDestroyed 100483ba f   libvcruntime:ehhelpers.obj
 0001:000473e0       ___AdjustPointer           100483e0 f   libvcruntime:ehhelpers.obj
 0001:00047405       ___FrameUnwindFilter       10048405 f   libvcruntime:ehhelpers.obj
 0001:0004745b       ___current_exception       1004845b f   libvcruntime:ehhelpers.obj
 0001:00047464       ___current_exception_context 10048464 f   libvcruntime:ehhelpers.obj
 0001:0004746d       ___std_terminate           1004846d f   libvcruntime:ehhelpers.obj
 0001:00047480       _strstr                    10048480 f   libvcruntime:strstr.obj
 0001:000476eb       ___std_exception_copy      100486eb f   libvcruntime:std_exception.obj
 0001:0004774e       ___std_exception_destroy   1004874e f   libvcruntime:std_exception.obj
 0001:0004776d       __get_purecall_handler     1004876d f   libvcruntime:purevirt.obj
 0001:00047773       __purecall                 10048773 f   libvcruntime:purevirt.obj
 0001:00047790       _memset                    10048790 f   libvcruntime:memset.obj
 0001:000478f0       __NLG_Notify1              100488f0 f   libvcruntime:exsup.obj
 0001:00047900       __NLG_Notify               10048900 f   libvcruntime:exsup.obj
 0001:00047917       __NLG_Dispatch2            10048917     libvcruntime:exsup.obj
 0001:00047917       __NLG_Dispatch             10048917     libvcruntime:exsup.obj
 0001:00047920       __NLG_Call                 10048920 f   libvcruntime:exsup.obj
 0001:00047922       __NLG_Return2              10048922     libvcruntime:exsup.obj
 0001:00047938       _memcmp                    10048938 f   libvcruntime:memcmp.obj
 0001:00048850       _memmove                   10049850 f   libvcruntime:memmove.obj
 0001:00048850       _memcpy                    10049850 f   libvcruntime:memcpy.obj
 0001:00048dc4       __CxxThrowException@8      10049dc4 f   libvcruntime:throw.obj
 0001:00048e30       ___uncaught_exception      10049e30 f   libvcruntime:uncaught_exception.obj
 0001:00048e50       _memchr                    10049e50 f   libvcruntime:memchr.obj
 0001:00048f00       ___vcrt_initialize         10049f00 f   libvcruntime:initialization.obj
 0001:00048f1f       ___vcrt_thread_attach      10049f1f f   libvcruntime:initialization.obj
 0001:00048f2a       ___vcrt_thread_detach      10049f2a f   libvcruntime:initialization.obj
 0001:00048f35       ___vcrt_uninitialize       10049f35 f   libvcruntime:initialization.obj
 0001:00048f4c       ___vcrt_uninitialize_critical 10049f4c f   libvcruntime:initialization.obj
 0001:00048fa0       __except_handler4          10049fa0 f   libvcruntime:chandler4.obj
 0001:000490fe       ___std_type_info_compare   1004a0fe f   libvcruntime:std_type_info.obj
 0001:0004913a       ___std_type_info_destroy_list 1004a13a f   libvcruntime:std_type_info.obj
 0001:0004915d       ___vcrt_freefls@4          1004a15d f   libvcruntime:per_thread_data.obj
 0001:00049179       ___vcrt_freeptd            1004a179 f   libvcruntime:per_thread_data.obj
 0001:000491af       ___vcrt_getptd             1004a1af f   libvcruntime:per_thread_data.obj
 0001:000491bd       ___vcrt_getptd_noexit      1004a1bd f   libvcruntime:per_thread_data.obj
 0001:0004924f       ___vcrt_getptd_noinit      1004a24f f   libvcruntime:per_thread_data.obj
 0001:00049286       ___vcrt_initialize_ptd     1004a286 f   libvcruntime:per_thread_data.obj
 0001:000492b9       ___vcrt_uninitialize_ptd   1004a2b9 f   libvcruntime:per_thread_data.obj
 0001:00049a0b       ??$TypeMatchHelper@V__FrameHandler3@@@@YAHPBU_s_HandlerType@@PBU_s_CatchableType@@PBU_s_ThrowInfo@@@Z 1004aa0b f i libvcruntime:frame.obj
 0001:00049a99       ??$__InternalCxxFrameHandler@V__FrameHandler3@@@@YA?AW4_EXCEPTION_DISPOSITION@@PAUEHExceptionRecord@@PAUEHRegistrationNode@@PAU_CONTEXT@@PAXPBU_s_FuncInfo@@H1E@Z 1004aa99 f i libvcruntime:frame.obj
 0001:00049b9b       ??8type_info@@QBE_NABV0@@Z 1004ab9b f i libvcruntime:frame.obj
 0001:00049e07       ?FrameUnwindToEmptyState@__FrameHandler3@@SAXPAUEHRegistrationNode@@PAXPBU_s_FuncInfo@@@Z 1004ae07 f   libvcruntime:frame.obj
 0001:00049e1f       ?FrameUnwindToState@__FrameHandler3@@SAXPAUEHRegistrationNode@@PAXPBU_s_FuncInfo@@H@Z 1004ae1f f   libvcruntime:frame.obj
 0001:00049fa1       ?getESTypes@__FrameHandler3@@SAPBU_s_ESTypeList@@PBU_s_FuncInfo@@@Z 1004afa1 f i libvcruntime:frame.obj
 0001:00049fb0       __CallSettingFrame@12      1004afb0 f   libvcruntime:lowhelpr.obj
 0001:00049fd7       __NLG_Return               1004afd7     libvcruntime:lowhelpr.obj
 0001:00049ffc       ___except_validate_context_record 1004affc f   libvcruntime:jbcxrval.obj
 0001:0004a030       _strchr                    1004b030 f   libvcruntime:strchr.obj
 0001:0004a09e       ___from_strstr_to_strchr   1004b09e     libvcruntime:strchr.obj
 0001:0004a15b       ___vcrt_initialize_locks   1004b15b f   libvcruntime:locks.obj
 0001:0004a197       ___vcrt_uninitialize_locks 1004b197 f   libvcruntime:locks.obj
 0001:0004a1d0       __local_unwind4            1004b1d0 f   libvcruntime:exsup4.obj
 0001:0004a2c0       @_EH4_CallFilterFunc@8     1004b2c0 f   libvcruntime:exsup4.obj
 0001:0004a2e0       @_EH4_TransferToHandler@8  1004b2e0 f   libvcruntime:exsup4.obj
 0001:0004a300       @_EH4_GlobalUnwind2@8      1004b300 f   libvcruntime:exsup4.obj
 0001:0004a320       @_EH4_LocalUnwind@16       1004b320 f   libvcruntime:exsup4.obj
 0001:0004a41a       ___vcrt_FlsAlloc           1004b41a f   libvcruntime:winapi_downlevel.obj
 0001:0004a455       ___vcrt_FlsFree            1004b455 f   libvcruntime:winapi_downlevel.obj
 0001:0004a490       ___vcrt_FlsGetValue        1004b490 f   libvcruntime:winapi_downlevel.obj
 0001:0004a4cb       ___vcrt_FlsSetValue        1004b4cb f   libvcruntime:winapi_downlevel.obj
 0001:0004a509       ___vcrt_InitializeCriticalSectionEx 1004b509 f   libvcruntime:winapi_downlevel.obj
 0001:0004a550       _unexpected                1004b550 f   libvcruntime:unexpected.obj
 0001:0004a56d       ?GetCurrentState@__FrameHandler3@@SAHPAUEHRegistrationNode@@PAXPBU_s_FuncInfo@@@Z 1004b56d f   libvcruntime:ehstate.obj
 0001:0004a58a       ?SetState@__FrameHandler3@@SAXPAUEHRegistrationNode@@PBU_s_FuncInfo@@H@Z 1004b58a f   libvcruntime:ehstate.obj
 0001:0004a87f       ___acrt_initialize_thread_local_exit_callback 1004b87f f   libucrt:exit.obj
 0001:0004a88e       __cexit                    1004b88e f   libucrt:exit.obj
 0001:0004a89d       __exit                     1004b89d f   libucrt:exit.obj
 0001:0004a8b3       __is_c_termination_complete 1004b8b3 f   libucrt:exit.obj
 0001:0004a8ba       ??0__crt_cached_ptd_host@@QAE@QAU__crt_locale_pointers@@@Z 1004b8ba f i libucrt:invalid_parameter.obj
 0001:0004a902       ??1__crt_cached_ptd_host@@QAE@XZ 1004b902 f i libucrt:invalid_parameter.obj
 0001:0004a93e       ?check_synchronize_global_state_index@__crt_cached_ptd_host@@AAEIXZ 1004b93e f i libucrt:invalid_parameter.obj
 0001:0004a967       ?force_synchronize_per_thread_data@__crt_cached_ptd_host@@AAEPAU__acrt_ptd@@XZ 1004b967 f i libucrt:invalid_parameter.obj
 0001:0004a9ad       ?get_raw_ptd@__crt_cached_ptd_host@@QAEPAU__acrt_ptd@@XZ 1004b9ad f i libucrt:invalid_parameter.obj
 0001:0004a9ca       ___acrt_call_reportfault   1004b9ca f   libucrt:invalid_parameter.obj
 0001:0004ab03       ___acrt_initialize_invalid_parameter_handler 1004bb03 f   libucrt:invalid_parameter.obj
 0001:0004ab12       __invalid_parameter        1004bb12 f   libucrt:invalid_parameter.obj
 0001:0004ab49       __invalid_parameter_internal 1004bb49 f   libucrt:invalid_parameter.obj
 0001:0004abc6       __invalid_parameter_noinfo 1004bbc6 f   libucrt:invalid_parameter.obj
 0001:0004abd6       __invalid_parameter_noinfo_noreturn 1004bbd6 f   libucrt:invalid_parameter.obj
 0001:0004abf3       __invoke_watson            1004bbf3 f   libucrt:invalid_parameter.obj
 0001:0004ac27       ??$is_overflow_condition@K@__crt_strtox@@YA_NIK@Z 1004bc27 f i libucrt:atox.obj
 0001:0004ac58       ??$parse_integer@KV?$c_string_character_source@D@__crt_strtox@@$00@__crt_strtox@@YAKAAV__crt_cached_ptd_host@@V?$c_string_character_source@D@0@H_N@Z 1004bc58 f i libucrt:atox.obj
 0001:0004ae9f       ??$parse_integer@KV?$c_string_character_source@_W@__crt_strtox@@$00@__crt_strtox@@YAKAAV__crt_cached_ptd_host@@V?$c_string_character_source@_W@0@H_N@Z 1004be9f f i libucrt:atox.obj
 0001:0004b4a9       ?unget@?$c_string_character_source@D@__crt_strtox@@QAEXD@Z 1004c4a9 f i libucrt:atox.obj
 0001:0004b4d2       ?unget@?$c_string_character_source@_W@__crt_strtox@@QAEX_W@Z 1004c4d2 f i libucrt:atox.obj
 0001:0004b500       ?update_locale_slow@__crt_cached_ptd_host@@AAEXXZ 1004c500 f i libucrt:atox.obj
 0001:0004b55b       ?validate@?$c_string_character_source@D@__crt_strtox@@QBE_NXZ 1004c55b f i libucrt:atox.obj
 0001:0004b55b       ?validate@?$c_string_character_source@_W@__crt_strtox@@QBE_NXZ 1004c55b f i libucrt:atox.obj
 0001:0004b576       ___acrt_locale_get_ctype_array_value 1004c576 f i libucrt:atox.obj
 0001:0004b598       __ischartype_l             1004c598 f i libucrt:atox.obj
 0001:0004b5ef       __wtol                     1004c5ef f   libucrt:atox.obj
 0001:0004b62e       _atoi                      1004c62e f   libucrt:atox.obj
 0001:0004b66d       ??$assemble_floating_point_snan@N@__crt_strtox@@YAX_NAAN@Z 1004c66d f i libucrt:atof.obj
 0001:0004b68e       ??$assemble_floating_point_value_t@M@__crt_strtox@@YA?AW4SLD_STATUS@@_NH_KAAM@Z 1004c68e f i libucrt:atof.obj
 0001:0004b6be       ??$assemble_floating_point_value_t@N@__crt_strtox@@YA?AW4SLD_STATUS@@_NH_KAAN@Z 1004c6be f i libucrt:atof.obj
 0001:0004b764       ??$convert_decimal_string_to_floating_type@N@__crt_strtox@@YA?AW4SLD_STATUS@@ABUfloating_point_string@0@AAN@Z 1004c764 f i libucrt:atof.obj
 0001:0004b785       ??$convert_hexadecimal_string_to_floating_type@N@__crt_strtox@@YA?AW4SLD_STATUS@@ABUfloating_point_string@0@AAN@Z 1004c785 f i libucrt:atof.obj
 0001:0004b7a6       ??$parse_floating_point@V?$c_string_character_source@D@__crt_strtox@@N@__crt_strtox@@YA?AW4SLD_STATUS@@QAU__crt_locale_pointers@@V?$c_string_character_source@D@0@QAN@Z 1004c7a6 f i libucrt:atof.obj
 0001:0004b826       ??$parse_floating_point_from_source@V?$c_string_character_source@D@__crt_strtox@@@__crt_strtox@@YA?AW4floating_point_parse_result@0@QAU__crt_locale_pointers@@AAV?$c_string_character_source@D@0@AAUfloating_point_string@0@@Z 1004c826 f i libucrt:atof.obj
 0001:0004bc1e       ??$parse_floating_point_possible_infinity@DV?$c_string_character_source@D@__crt_strtox@@PBD@__crt_strtox@@YA?AW4floating_point_parse_result@0@AADAAV?$c_string_character_source@D@0@PBD@Z 1004cc1e f i libucrt:atof.obj
 0001:0004bcd1       ??$parse_floating_point_possible_nan@DV?$c_string_character_source@D@__crt_strtox@@PBD@__crt_strtox@@YA?AW4floating_point_parse_result@0@AADAAV?$c_string_character_source@D@0@PBD@Z 1004ccd1 f i libucrt:atof.obj
 0001:0004bdd5       ??$parse_floating_point_possible_nan_is_ind@DV?$c_string_character_source@D@__crt_strtox@@@__crt_strtox@@YA_NAADAAV?$c_string_character_source@D@0@@Z 1004cdd5 f i libucrt:atof.obj
 0001:0004be11       ??$parse_floating_point_possible_nan_is_snan@DV?$c_string_character_source@D@__crt_strtox@@@__crt_strtox@@YA_NAADAAV?$c_string_character_source@D@0@@Z 1004ce11 f i libucrt:atof.obj
 0001:0004be4d       ??$parse_floating_point_write_result@N@__crt_strtox@@YA?AW4SLD_STATUS@@W4floating_point_parse_result@0@ABUfloating_point_string@0@QAN@Z 1004ce4d f i libucrt:atof.obj
 0001:0004bf71       ??0_LocaleUpdate@@QAE@QAU__crt_locale_pointers@@@Z 1004cf71 f i libucrt:atof.obj
 0001:0004bff4       ??R<lambda_e51f7abad2595a5950d3223319845217>@@QBE_NXZ 1004cff4 f i libucrt:atof.obj
 0001:0004bff4       ??R<lambda_690cf26ff5d754c94c32cf642e9f01bc>@@QBE_NXZ 1004cff4 f i libucrt:atof.obj
 0001:0004bff4       ??R<lambda_32aa245da1b5b882fa96db788295c8b2>@@QBE_NXZ 1004cff4 f i libucrt:atof.obj
 0001:0004c01a       ?as_double@floating_point_value@__crt_strtox@@QBEAANXZ 1004d01a f i libucrt:atof.obj
 0001:0004c03f       ?as_float@floating_point_value@__crt_strtox@@QBEAAMXZ 1004d03f f i libucrt:atof.obj
 0001:0004c064       ?assemble_floating_point_infinity@__crt_strtox@@YAX_NABVfloating_point_value@1@@Z 1004d064 f i libucrt:atof.obj
 0001:0004c0a4       ?assemble_floating_point_value@__crt_strtox@@YA?AW4SLD_STATUS@@_KH_N1ABVfloating_point_value@1@@Z 1004d0a4 f i libucrt:atof.obj
 0001:0004c3f7       ?assemble_floating_point_value_from_big_integer@__crt_strtox@@YA?AW4SLD_STATUS@@ABUbig_integer@1@I_N1ABVfloating_point_value@1@@Z 1004d3f7 f i libucrt:atof.obj
 0001:0004c589       ?assemble_floating_point_zero@__crt_strtox@@YAX_NABVfloating_point_value@1@@Z 1004d589 f i libucrt:atof.obj
 0001:0004c5be       ?convert_decimal_string_to_floating_type_common@__crt_strtox@@YA?AW4SLD_STATUS@@ABUfloating_point_string@1@ABVfloating_point_value@1@@Z 1004d5be f i libucrt:atof.obj
 0001:0004e2dd       ?convert_hexadecimal_string_to_floating_type_common@__crt_strtox@@YA?AW4SLD_STATUS@@ABUfloating_point_string@1@ABVfloating_point_value@1@@Z 1004f2dd f i libucrt:atof.obj
 0001:0004e383       ?denormal_mantissa_mask@floating_point_value@__crt_strtox@@QBE_KXZ 1004f383 f i libucrt:atof.obj
 0001:0004e3a0       ?divide@__crt_strtox@@YA_KAAUbig_integer@1@ABU21@@Z 1004f3a0 f i libucrt:atof.obj
 0001:0004e828       ?normal_mantissa_mask@floating_point_value@__crt_strtox@@QBE_KXZ 1004f828 f i libucrt:atof.obj
 0001:0004e83f       _atof                      1004f83f f   libucrt:atof.obj
 0001:0004ecb5       ??$count@D@formatting_buffer@__crt_stdio_output@@QBEIXZ 1004fcb5 f i libucrt:output.obj
 0001:0004eccd       ??$ensure_buffer_is_big_enough@D@formatting_buffer@__crt_stdio_output@@QAE_NIAAV__crt_cached_ptd_host@@@Z 1004fccd f i libucrt:output.obj
 0001:0004ed4e       ??$is_wide_character_specifier@D@__crt_stdio_output@@YA_N_KDW4length_modifier@0@@Z 1004fd4e f i libucrt:output.obj
 0001:0004ed7f       ??$make_c_string_character_source@_WPAPA_W@__crt_strtox@@YA?AV?$c_string_character_source@_W@0@QB_WQAPA_W@Z 1004fd7f f i libucrt:output.obj
 0001:0004ed9a       ??$parse_integer@KV?$c_string_character_source@D@__crt_strtox@@$0A@@__crt_strtox@@YAKAAV__crt_cached_ptd_host@@V?$c_string_character_source@D@0@H_N@Z 1004fd9a f i libucrt:output.obj
 0001:0004efa9       ??$scratch_data@D@formatting_buffer@__crt_stdio_output@@QAEPADXZ 1004ffa9 f i libucrt:output.obj
 0001:0004efc7       ??$type_case_integer@$07@?$output_processor@DV?$stream_output_adapter@D@__crt_stdio_output@@V?$standard_base@DV?$stream_output_adapter@D@__crt_stdio_output@@@2@@__crt_stdio_output@@AAE_N_N@Z 1004ffc7 f i libucrt:output.obj
 0001:0004efc7       ??$type_case_integer@$07@?$output_processor@DV?$string_output_adapter@D@__crt_stdio_output@@V?$format_validation_base@DV?$string_output_adapter@D@__crt_stdio_output@@@2@@__crt_stdio_output@@AAE_N_N@Z 1004ffc7 f i libucrt:output.obj
 0001:0004efc7       ??$type_case_integer@$07@?$output_processor@DV?$string_output_adapter@D@__crt_stdio_output@@V?$standard_base@DV?$string_output_adapter@D@__crt_stdio_output@@@2@@__crt_stdio_output@@AAE_N_N@Z 1004ffc7 f i libucrt:output.obj
 0001:0004f144       ??$type_case_integer@$09@?$output_processor@DV?$string_output_adapter@D@__crt_stdio_output@@V?$standard_base@DV?$string_output_adapter@D@__crt_stdio_output@@@2@@__crt_stdio_output@@AAE_N_N@Z 10050144 f i libucrt:output.obj
 0001:0004f144       ??$type_case_integer@$09@?$output_processor@DV?$string_output_adapter@D@__crt_stdio_output@@V?$format_validation_base@DV?$string_output_adapter@D@__crt_stdio_output@@@2@@__crt_stdio_output@@AAE_N_N@Z 10050144 f i libucrt:output.obj
 0001:0004f144       ??$type_case_integer@$09@?$output_processor@DV?$stream_output_adapter@D@__crt_stdio_output@@V?$standard_base@DV?$stream_output_adapter@D@__crt_stdio_output@@@2@@__crt_stdio_output@@AAE_N_N@Z 10050144 f i libucrt:output.obj
 0001:0004f2c1       ??$type_case_integer@$0BA@@?$output_processor@DV?$stream_output_adapter@D@__crt_stdio_output@@V?$standard_base@DV?$stream_output_adapter@D@__crt_stdio_output@@@2@@__crt_stdio_output@@AAE_N_N@Z 100502c1 f i libucrt:output.obj
 0001:0004f2c1       ??$type_case_integer@$0BA@@?$output_processor@DV?$string_output_adapter@D@__crt_stdio_output@@V?$format_validation_base@DV?$string_output_adapter@D@__crt_stdio_output@@@2@@__crt_stdio_output@@AAE_N_N@Z 100502c1 f i libucrt:output.obj
 0001:0004f2c1       ??$type_case_integer@$0BA@@?$output_processor@DV?$string_output_adapter@D@__crt_stdio_output@@V?$standard_base@DV?$string_output_adapter@D@__crt_stdio_output@@@2@@__crt_stdio_output@@AAE_N_N@Z 100502c1 f i libucrt:output.obj
 0001:0004f43e       ??$type_case_integer_parse_into_buffer@I$07@?$output_processor@DV?$stream_output_adapter@D@__crt_stdio_output@@V?$standard_base@DV?$stream_output_adapter@D@__crt_stdio_output@@@2@@__crt_stdio_output@@AAEXI_N@Z 1005043e f i libucrt:output.obj
 0001:0004f43e       ??$type_case_integer_parse_into_buffer@I$07@?$output_processor@DV?$string_output_adapter@D@__crt_stdio_output@@V?$format_validation_base@DV?$string_output_adapter@D@__crt_stdio_output@@@2@@__crt_stdio_output@@AAEXI_N@Z 1005043e f i libucrt:output.obj
 0001:0004f43e       ??$type_case_integer_parse_into_buffer@I$07@?$output_processor@DV?$string_output_adapter@D@__crt_stdio_output@@V?$standard_base@DV?$string_output_adapter@D@__crt_stdio_output@@@2@@__crt_stdio_output@@AAEXI_N@Z 1005043e f i libucrt:output.obj
 0001:0004f4a8       ??$type_case_integer_parse_into_buffer@I$09@?$output_processor@DV?$string_output_adapter@D@__crt_stdio_output@@V?$format_validation_base@DV?$string_output_adapter@D@__crt_stdio_output@@@2@@__crt_stdio_output@@AAEXI_N@Z 100504a8 f i libucrt:output.obj
 0001:0004f4a8       ??$type_case_integer_parse_into_buffer@I$09@?$output_processor@DV?$stream_output_adapter@D@__crt_stdio_output@@V?$standard_base@DV?$stream_output_adapter@D@__crt_stdio_output@@@2@@__crt_stdio_output@@AAEXI_N@Z 100504a8 f i libucrt:output.obj
 0001:0004f4a8       ??$type_case_integer_parse_into_buffer@I$09@?$output_processor@DV?$string_output_adapter@D@__crt_stdio_output@@V?$standard_base@DV?$string_output_adapter@D@__crt_stdio_output@@@2@@__crt_stdio_output@@AAEXI_N@Z 100504a8 f i libucrt:output.obj
 0001:0004f522       ??$type_case_integer_parse_into_buffer@I$0BA@@?$output_processor@DV?$string_output_adapter@D@__crt_stdio_output@@V?$standard_base@DV?$string_output_adapter@D@__crt_stdio_output@@@2@@__crt_stdio_output@@AAEXI_N@Z 10050522 f i libucrt:output.obj
 0001:0004f522       ??$type_case_integer_parse_into_buffer@I$0BA@@?$output_processor@DV?$string_output_adapter@D@__crt_stdio_output@@V?$format_validation_base@DV?$string_output_adapter@D@__crt_stdio_output@@@2@@__crt_stdio_output@@AAEXI_N@Z 10050522 f i libucrt:output.obj
 0001:0004f522       ??$type_case_integer_parse_into_buffer@I$0BA@@?$output_processor@DV?$stream_output_adapter@D@__crt_stdio_output@@V?$standard_base@DV?$stream_output_adapter@D@__crt_stdio_output@@@2@@__crt_stdio_output@@AAEXI_N@Z 10050522 f i libucrt:output.obj
 0001:0004f5aa       ??$type_case_integer_parse_into_buffer@_K$07@?$output_processor@DV?$string_output_adapter@D@__crt_stdio_output@@V?$format_validation_base@DV?$string_output_adapter@D@__crt_stdio_output@@@2@@__crt_stdio_output@@AAEX_K_N@Z 100505aa f i libucrt:output.obj
 0001:0004f5aa       ??$type_case_integer_parse_into_buffer@_K$07@?$output_processor@DV?$string_output_adapter@D@__crt_stdio_output@@V?$standard_base@DV?$string_output_adapter@D@__crt_stdio_output@@@2@@__crt_stdio_output@@AAEX_K_N@Z 100505aa f i libucrt:output.obj
 0001:0004f5aa       ??$type_case_integer_parse_into_buffer@_K$07@?$output_processor@DV?$stream_output_adapter@D@__crt_stdio_output@@V?$standard_base@DV?$stream_output_adapter@D@__crt_stdio_output@@@2@@__crt_stdio_output@@AAEX_K_N@Z 100505aa f i libucrt:output.obj
 0001:0004f622       ??$type_case_integer_parse_into_buffer@_K$09@?$output_processor@DV?$string_output_adapter@D@__crt_stdio_output@@V?$format_validation_base@DV?$string_output_adapter@D@__crt_stdio_output@@@2@@__crt_stdio_output@@AAEX_K_N@Z 10050622 f i libucrt:output.obj
 0001:0004f622       ??$type_case_integer_parse_into_buffer@_K$09@?$output_processor@DV?$string_output_adapter@D@__crt_stdio_output@@V?$standard_base@DV?$string_output_adapter@D@__crt_stdio_output@@@2@@__crt_stdio_output@@AAEX_K_N@Z 10050622 f i libucrt:output.obj
 0001:0004f622       ??$type_case_integer_parse_into_buffer@_K$09@?$output_processor@DV?$stream_output_adapter@D@__crt_stdio_output@@V?$standard_base@DV?$stream_output_adapter@D@__crt_stdio_output@@@2@@__crt_stdio_output@@AAEX_K_N@Z 10050622 f i libucrt:output.obj
 0001:0004f6be       ??$type_case_integer_parse_into_buffer@_K$0BA@@?$output_processor@DV?$stream_output_adapter@D@__crt_stdio_output@@V?$standard_base@DV?$stream_output_adapter@D@__crt_stdio_output@@@2@@__crt_stdio_output@@AAEX_K_N@Z 100506be f i libucrt:output.obj
 0001:0004f6be       ??$type_case_integer_parse_into_buffer@_K$0BA@@?$output_processor@DV?$string_output_adapter@D@__crt_stdio_output@@V?$format_validation_base@DV?$string_output_adapter@D@__crt_stdio_output@@@2@@__crt_stdio_output@@AAEX_K_N@Z 100506be f i libucrt:output.obj
 0001:0004f6be       ??$type_case_integer_parse_into_buffer@_K$0BA@@?$output_processor@DV?$string_output_adapter@D@__crt_stdio_output@@V?$standard_base@DV?$string_output_adapter@D@__crt_stdio_output@@@2@@__crt_stdio_output@@AAEX_K_N@Z 100506be f i libucrt:output.obj
 0001:0004f750       ??0?$output_adapter_data@DV?$string_output_adapter@D@__crt_stdio_output@@@__crt_stdio_output@@IAE@ABV?$string_output_adapter@D@1@_KQBDAAV__crt_cached_ptd_host@@QAD@Z 10050750 f i libucrt:output.obj
 0001:0004f750       ??0?$output_adapter_data@DV?$stream_output_adapter@D@__crt_stdio_output@@@__crt_stdio_output@@IAE@ABV?$stream_output_adapter@D@1@_KQBDAAV__crt_cached_ptd_host@@QAD@Z 10050750 f i libucrt:output.obj
 0001:0004f7b5       ??1formatting_buffer@__crt_stdio_output@@QAE@XZ 100507b5 f i libucrt:output.obj
 0001:0004f7cf       ??4?$__crt_unique_heap_ptr@DU__crt_internal_free_policy@@@@QAEAAV0@$$QAV0@@Z 100507cf f i libucrt:output.obj
 0001:0004f88f       ?crop_zeroes@__crt_stdio_output@@YAXPADQAU__crt_locale_pointers@@@Z 1005088f f i libucrt:output.obj
 0001:0004f8ef       ?find_next_state@?$output_processor@DV?$stream_output_adapter@D@__crt_stdio_output@@V?$standard_base@DV?$stream_output_adapter@D@__crt_stdio_output@@@2@@__crt_stdio_output@@ABE?AW4state@2@DW432@@Z 100508ef f i libucrt:output.obj
 0001:0004f8ef       ?find_next_state@?$output_processor@DV?$string_output_adapter@D@__crt_stdio_output@@V?$standard_base@DV?$string_output_adapter@D@__crt_stdio_output@@@2@@__crt_stdio_output@@ABE?AW4state@2@DW432@@Z 100508ef f i libucrt:output.obj
 0001:0004f92a       ?find_next_state@?$output_processor@DV?$string_output_adapter@D@__crt_stdio_output@@V?$format_validation_base@DV?$string_output_adapter@D@__crt_stdio_output@@@2@@__crt_stdio_output@@ABE?AW4state@2@DW432@@Z 1005092a f i libucrt:output.obj
 0001:0004f967       ?force_decimal_point@__crt_stdio_output@@YAXPADQAU__crt_locale_pointers@@@Z 10050967 f i libucrt:output.obj
 0001:0004f9c3       ?parse_int_from_format_string@?$output_processor@DV?$stream_output_adapter@D@__crt_stdio_output@@V?$standard_base@DV?$stream_output_adapter@D@__crt_stdio_output@@@2@@__crt_stdio_output@@AAE_NQAH@Z 100509c3 f i libucrt:output.obj
 0001:0004f9c3       ?parse_int_from_format_string@?$output_processor@DV?$string_output_adapter@D@__crt_stdio_output@@V?$standard_base@DV?$string_output_adapter@D@__crt_stdio_output@@@2@@__crt_stdio_output@@AAE_NQAH@Z 100509c3 f i libucrt:output.obj
 0001:0004f9c3       ?parse_int_from_format_string@?$output_processor@DV?$string_output_adapter@D@__crt_stdio_output@@V?$format_validation_base@DV?$string_output_adapter@D@__crt_stdio_output@@@2@@__crt_stdio_output@@AAE_NQAH@Z 100509c3 f i libucrt:output.obj
 0001:0004fa3b       ?process@?$output_processor@DV?$stream_output_adapter@D@__crt_stdio_output@@V?$standard_base@DV?$stream_output_adapter@D@__crt_stdio_output@@@2@@__crt_stdio_output@@QAEHXZ 10050a3b f i libucrt:output.obj
 0001:0004fce7       ?process@?$output_processor@DV?$string_output_adapter@D@__crt_stdio_output@@V?$format_validation_base@DV?$string_output_adapter@D@__crt_stdio_output@@@2@@__crt_stdio_output@@QAEHXZ 10050ce7 f i libucrt:output.obj
 0001:0004ffc7       ?process@?$output_processor@DV?$string_output_adapter@D@__crt_stdio_output@@V?$standard_base@DV?$string_output_adapter@D@__crt_stdio_output@@@2@@__crt_stdio_output@@QAEHXZ 10050fc7 f i libucrt:output.obj
 0001:0005029b       ?state_case_size@?$output_processor@DV?$stream_output_adapter@D@__crt_stdio_output@@V?$standard_base@DV?$stream_output_adapter@D@__crt_stdio_output@@@2@@__crt_stdio_output@@AAE_NXZ 1005129b f i libucrt:output.obj
 0001:000503f9       ?state_case_size@?$output_processor@DV?$string_output_adapter@D@__crt_stdio_output@@V?$standard_base@DV?$string_output_adapter@D@__crt_stdio_output@@@2@@__crt_stdio_output@@AAE_NXZ 100513f9 f i libucrt:output.obj
 0001:000503f9       ?state_case_size@?$output_processor@DV?$string_output_adapter@D@__crt_stdio_output@@V?$format_validation_base@DV?$string_output_adapter@D@__crt_stdio_output@@@2@@__crt_stdio_output@@AAE_NXZ 100513f9 f i libucrt:output.obj
 0001:00050557       ?state_case_type@?$output_processor@DV?$stream_output_adapter@D@__crt_stdio_output@@V?$standard_base@DV?$stream_output_adapter@D@__crt_stdio_output@@@2@@__crt_stdio_output@@AAE_NXZ 10051557 f i libucrt:output.obj
 0001:0005089f       ?state_case_type@?$output_processor@DV?$string_output_adapter@D@__crt_stdio_output@@V?$format_validation_base@DV?$string_output_adapter@D@__crt_stdio_output@@@2@@__crt_stdio_output@@AAE_NXZ 1005189f f i libucrt:output.obj
 0001:0005089f       ?state_case_type@?$output_processor@DV?$string_output_adapter@D@__crt_stdio_output@@V?$standard_base@DV?$string_output_adapter@D@__crt_stdio_output@@@2@@__crt_stdio_output@@AAE_NXZ 1005189f f i libucrt:output.obj
 0001:00050c2d       ?to_integer_size@__crt_stdio_output@@YAIW4length_modifier@1@@Z 10051c2d f i libucrt:output.obj
 0001:00050c81       ?type_case_Z@?$output_processor@DV?$stream_output_adapter@D@__crt_stdio_output@@V?$standard_base@DV?$stream_output_adapter@D@__crt_stdio_output@@@2@@__crt_stdio_output@@AAE_NXZ 10051c81 f i libucrt:output.obj
 0001:00050c81       ?type_case_Z@?$output_processor@DV?$string_output_adapter@D@__crt_stdio_output@@V?$standard_base@DV?$string_output_adapter@D@__crt_stdio_output@@@2@@__crt_stdio_output@@AAE_NXZ 10051c81 f i libucrt:output.obj
 0001:00050c81       ?type_case_Z@?$output_processor@DV?$string_output_adapter@D@__crt_stdio_output@@V?$format_validation_base@DV?$string_output_adapter@D@__crt_stdio_output@@@2@@__crt_stdio_output@@AAE_NXZ 10051c81 f i libucrt:output.obj
 0001:00050cdb       ?type_case_a@?$output_processor@DV?$stream_output_adapter@D@__crt_stdio_output@@V?$standard_base@DV?$stream_output_adapter@D@__crt_stdio_output@@@2@@__crt_stdio_output@@AAE_NXZ 10051cdb f i libucrt:output.obj
 0001:00050cdb       ?type_case_a@?$output_processor@DV?$string_output_adapter@D@__crt_stdio_output@@V?$format_validation_base@DV?$string_output_adapter@D@__crt_stdio_output@@@2@@__crt_stdio_output@@AAE_NXZ 10051cdb f i libucrt:output.obj
 0001:00050cdb       ?type_case_a@?$output_processor@DV?$string_output_adapter@D@__crt_stdio_output@@V?$standard_base@DV?$string_output_adapter@D@__crt_stdio_output@@@2@@__crt_stdio_output@@AAE_NXZ 10051cdb f i libucrt:output.obj
 0001:00050e65       ?type_case_c_tchar@?$output_processor@DV?$string_output_adapter@D@__crt_stdio_output@@V?$format_validation_base@DV?$string_output_adapter@D@__crt_stdio_output@@@2@@__crt_stdio_output@@AAE_ND@Z 10051e65 f i libucrt:output.obj
 0001:00050e65       ?type_case_c_tchar@?$output_processor@DV?$string_output_adapter@D@__crt_stdio_output@@V?$standard_base@DV?$string_output_adapter@D@__crt_stdio_output@@@2@@__crt_stdio_output@@AAE_ND@Z 10051e65 f i libucrt:output.obj
 0001:00050e65       ?type_case_c_tchar@?$output_processor@DV?$stream_output_adapter@D@__crt_stdio_output@@V?$standard_base@DV?$stream_output_adapter@D@__crt_stdio_output@@@2@@__crt_stdio_output@@AAE_ND@Z 10051e65 f i libucrt:output.obj
 0001:00050efa       ?type_case_n@?$output_processor@DV?$stream_output_adapter@D@__crt_stdio_output@@V?$standard_base@DV?$stream_output_adapter@D@__crt_stdio_output@@@2@@__crt_stdio_output@@AAE_NXZ 10051efa f i libucrt:output.obj
 0001:00050efa       ?type_case_n@?$output_processor@DV?$string_output_adapter@D@__crt_stdio_output@@V?$format_validation_base@DV?$string_output_adapter@D@__crt_stdio_output@@@2@@__crt_stdio_output@@AAE_NXZ 10051efa f i libucrt:output.obj
 0001:00050efa       ?type_case_n@?$output_processor@DV?$string_output_adapter@D@__crt_stdio_output@@V?$standard_base@DV?$string_output_adapter@D@__crt_stdio_output@@@2@@__crt_stdio_output@@AAE_NXZ 10051efa f i libucrt:output.obj
 0001:00050f7e       ?type_case_o@?$output_processor@DV?$stream_output_adapter@D@__crt_stdio_output@@V?$standard_base@DV?$stream_output_adapter@D@__crt_stdio_output@@@2@@__crt_stdio_output@@AAE_NXZ 10051f7e f i libucrt:output.obj
 0001:00050f7e       ?type_case_o@?$output_processor@DV?$string_output_adapter@D@__crt_stdio_output@@V?$standard_base@DV?$string_output_adapter@D@__crt_stdio_output@@@2@@__crt_stdio_output@@AAE_NXZ 10051f7e f i libucrt:output.obj
 0001:00050f7e       ?type_case_o@?$output_processor@DV?$string_output_adapter@D@__crt_stdio_output@@V?$format_validation_base@DV?$string_output_adapter@D@__crt_stdio_output@@@2@@__crt_stdio_output@@AAE_NXZ 10051f7e f i libucrt:output.obj
 0001:00050f9b       ?type_case_p@?$output_processor@DV?$stream_output_adapter@D@__crt_stdio_output@@V?$standard_base@DV?$stream_output_adapter@D@__crt_stdio_output@@@2@@__crt_stdio_output@@AAE_NXZ 10051f9b f i libucrt:output.obj
 0001:00050f9b       ?type_case_p@?$output_processor@DV?$string_output_adapter@D@__crt_stdio_output@@V?$standard_base@DV?$string_output_adapter@D@__crt_stdio_output@@@2@@__crt_stdio_output@@AAE_NXZ 10051f9b f i libucrt:output.obj
 0001:00050f9b       ?type_case_p@?$output_processor@DV?$string_output_adapter@D@__crt_stdio_output@@V?$format_validation_base@DV?$string_output_adapter@D@__crt_stdio_output@@@2@@__crt_stdio_output@@AAE_NXZ 10051f9b f i libucrt:output.obj
 0001:00050fb1       ?type_case_s@?$output_processor@DV?$stream_output_adapter@D@__crt_stdio_output@@V?$standard_base@DV?$stream_output_adapter@D@__crt_stdio_output@@@2@@__crt_stdio_output@@AAE_NXZ 10051fb1 f i libucrt:output.obj
 0001:00050fb1       ?type_case_s@?$output_processor@DV?$string_output_adapter@D@__crt_stdio_output@@V?$format_validation_base@DV?$string_output_adapter@D@__crt_stdio_output@@@2@@__crt_stdio_output@@AAE_NXZ 10051fb1 f i libucrt:output.obj
 0001:00050fb1       ?type_case_s@?$output_processor@DV?$string_output_adapter@D@__crt_stdio_output@@V?$standard_base@DV?$string_output_adapter@D@__crt_stdio_output@@@2@@__crt_stdio_output@@AAE_NXZ 10051fb1 f i libucrt:output.obj
 0001:00051022       ?validate@?$stream_output_adapter@D@__crt_stdio_output@@QBE_NAAV__crt_cached_ptd_host@@@Z 10052022 f i libucrt:output.obj
 0001:0005105a       ?validate@?$string_output_adapter@D@__crt_stdio_output@@QBE_NAAV__crt_cached_ptd_host@@@Z 1005205a f i libucrt:output.obj
 0001:0005108b       ?validate_stream_is_ansi_if_required@?$__acrt_stdio_char_traits@D@@SA_NQAU_iobuf@@@Z 1005208b f i libucrt:output.obj
 0001:00051112       ?write_character@?$output_adapter_common@DV?$stream_output_adapter@D@__crt_stdio_output@@@__crt_stdio_output@@QBEXDQAHAAV__crt_cached_ptd_host@@@Z 10052112 f i libucrt:output.obj
 0001:00051134       ?write_character_without_count_update@?$stream_output_adapter@D@__crt_stdio_output@@QBE_NDAAV__crt_cached_ptd_host@@@Z 10052134 f i libucrt:output.obj
 0001:0005116e       ?write_string@?$stream_output_adapter@D@__crt_stdio_output@@QBEXQBDHQAHAAV__crt_cached_ptd_host@@@Z 1005216e f i libucrt:output.obj
 0001:0005119a       ?write_string@?$string_output_adapter@D@__crt_stdio_output@@QBEXQBDHQAHAAV__crt_cached_ptd_host@@@Z 1005219a f i libucrt:output.obj
 0001:00051201       ?write_string_impl@?$output_adapter_common@DV?$stream_output_adapter@D@__crt_stdio_output@@@__crt_stdio_output@@IBEXQBDHQAHAAV__crt_cached_ptd_host@@@Z 10052201 f i libucrt:output.obj
 0001:00051280       ___stdio_common_vfprintf   10052280 f   libucrt:output.obj
 0001:00051324       ___stdio_common_vsprintf   10052324 f   libucrt:output.obj
 0001:00051365       ___stdio_common_vsprintf_s 10052365 f   libucrt:output.obj
 0001:000513a6       _rand                      100523a6 f   libucrt:rand.obj
 0001:000513c7       _strcpy_s                  100523c7 f   libucrt:strcpy_s.obj
 0001:00051421       _strcat_s                  10052421 f   libucrt:strcat_s.obj
 0001:0005148c       ??$__acrt_convert_wcs_mbs_cp@D_WV<lambda_62f6974d9771e494a5ea317cc32e971c>@@U__crt_win32_buffer_internal_dynamic_resizing@@@@YAHQBDAAV?$__crt_win32_buffer@_WU__crt_win32_buffer_internal_dynamic_resizing@@@@ABV<lambda_62f6974d9771e494a5ea317cc32e971c>@@I@Z 1005248c f i libucrt:access.obj
 0001:0005153e       ??$__acrt_mbs_to_wcs_cp@U__crt_win32_buffer_internal_dynamic_resizing@@@@YAHQBDAAV?$__crt_win32_buffer@_WU__crt_win32_buffer_internal_dynamic_resizing@@@@I@Z 1005253e f i libucrt:access.obj
 0001:0005155b       ?__acrt_get_utf8_acp_compatibility_codepage@@YAIXZ 1005255b f i libucrt:access.obj
 0001:0005159a       ?_deallocate@?$__crt_win32_buffer@DU__crt_win32_buffer_internal_dynamic_resizing@@@@AAEXXZ 1005259a f i libucrt:argv_wildcards.obj
 0001:0005159a       ?_deallocate@?$__crt_win32_buffer@_WU__crt_win32_buffer_internal_dynamic_resizing@@@@AAEXXZ 1005259a f i libucrt:access.obj
 0001:000515b4       ?allocate@?$__crt_win32_buffer@_WU__crt_win32_buffer_internal_dynamic_resizing@@@@QAEHI@Z 100525b4 f i libucrt:access.obj
 0001:000515f3       ?allocate@__crt_win32_buffer_internal_dynamic_resizing@@SAHQAPAXIABV__crt_win32_buffer_empty_debug_info@@@Z 100525f3 f i libucrt:access.obj
 0001:00051612       __access                   10052612 f   libucrt:access.obj
 0001:0005162a       __access_s                 1005262a f   libucrt:access.obj
 0001:0005169c       ___acrt_initialize_stdio   1005269c f   libucrt:_file.obj
 0001:00051764       ___acrt_iob_func           10052764 f   libucrt:_file.obj
 0001:00051774       ___acrt_uninitialize_stdio 10052774 f   libucrt:_file.obj
 0001:000517c0       __get_stream_buffer_pointers 100527c0 f   libucrt:_file.obj
 0001:00051806       __lock_file                10052806 f   libucrt:_file.obj
 0001:0005181a       __unlock_file              1005281a f   libucrt:_file.obj
 0001:0005182e       __toupper_l                1005282e f   libucrt:tolower_toupper.obj
 0001:0005192c       _toupper                   1005292c f   libucrt:tolower_toupper.obj
 0001:00051960       _isalpha                   10052960 f   libucrt:_ctype.obj
 0001:000519f0       _islower                   100529f0 f   libucrt:_ctype.obj
 0001:00051a80       _isspace                   10052a80 f   libucrt:_ctype.obj
 0001:00051b10       _isupper                   10052b10 f   libucrt:_ctype.obj
 0001:00051b94       __strnicmp                 10052b94 f   libucrt:strnicmp.obj
 0001:00051c01       __strnicmp_l               10052c01 f   libucrt:strnicmp.obj
 0001:00051ccc       ___ascii_stricmp           10052ccc f   libucrt:stricmp.obj
 0001:00051d05       __stricmp                  10052d05 f   libucrt:stricmp.obj
 0001:00051d4e       __stricmp_l                10052d4e f   libucrt:stricmp.obj
 0001:00051f0b       __fputc_nolock_internal    10052f0b f   libucrt:fputc.obj
 0001:00051f38       _fputc                     10052f38 f   libucrt:fputc.obj
 0001:000521a9       ___acrt_stdio_flush_nolock 100531a9 f   libucrt:fflush.obj
 0001:00052212       __fflush_nolock            10053212 f   libucrt:fflush.obj
 0001:00052277       __flushall                 10053277 f   libucrt:fflush.obj
 0001:00052280       _fflush                    10053280 f   libucrt:fflush.obj
 0001:000523fa       __fclose_nolock            100533fa f   libucrt:fclose.obj
 0001:0005242a       _fclose                    1005342a f   libucrt:fclose.obj
 0001:0005245a       __fgetc_nolock             1005345a f   libucrt:fgetc.obj
 0001:00052496       _fgetc                     10053496 f   libucrt:fgetc.obj
 0001:00052649       __fwrite_internal          10053649 f   libucrt:fwrite.obj
 0001:000526c0       __fwrite_nolock_internal   100536c0 f   libucrt:fwrite.obj
 0001:0005286a       _fwrite                    1005386a f   libucrt:fwrite.obj
 0001:000528a4       _fgetpos                   100538a4 f   libucrt:fgetpos.obj
 0001:00052ac3       _setvbuf                   10053ac3 f   libucrt:setvbuf.obj
 0001:00052afd       _free                      10053afd f   libucrt:free.obj
 0001:00052b18       __ungetc_nolock            10053b18 f   libucrt:ungetc.obj
 0001:00052c11       _ungetc                    10053c11 f   libucrt:ungetc.obj
 0001:00052c84       _fsetpos                   10053c84 f   libucrt:fsetpos.obj
 0001:00052cbf       __fread_nolock_s           10053cbf f   libucrt:fread.obj
 0001:00052ea5       _fread                     10053ea5 f   libucrt:fread.obj
 0001:00052ec2       _fread_s                   10053ec2 f   libucrt:fread.obj
 0001:00052f5f       ?LongLongSub@@YAJ_J0PA_J@Z 10053f5f f i libucrt:fseek.obj
 0001:0005323a       __fseeki64                 1005423a f   libucrt:fseek.obj
 0001:00053274       _fseek                     10054274 f   libucrt:fseek.obj
 0001:000533b6       _freopen                   100543b6 f   libucrt:freopen.obj
 0001:000533dc       _calloc                    100543dc f   libucrt:calloc.obj
 0001:000533e7       ??$__crt_time_elapsed_leap_years@_J@@YA_J_J@Z 100543e7 f i libucrt:mktime.obj
 0001:0005344b       ??$__crt_time_is_leap_year@_J@@YA_N_J@Z 1005444b f i libucrt:mktime.obj
 0001:00053860       __mktime64                 10054860 f   libucrt:mktime.obj
 0001:00053880       _strcspn                   10054880 f   libucrt:strcspn.obj
 0001:000538d0       _strncpy                   100548d0 f   libucrt:strncpy.obj
 0001:000539f4       _localeconv                100549f4 f   libucrt:localeconv.obj
 0001:00053a1c       _frexp                     10054a1c f   libucrt:frexp.obj
 0001:00053b20       _strncat                   10054b20 f   libucrt:strncat.obj
 0001:00053c60       _strcpy                    10054c60 f   libucrt:strcat.obj
 0001:00053c70       _strcat                    10054c70 f   libucrt:strcat.obj
 0001:00053d60       _strcmp                    10054d60 f   libucrt:strcmp.obj
 0001:00053dec       ___acrt_initialize_locks   10054dec f   libucrt:locks.obj
 0001:00053e2d       ___acrt_lock               10054e2d f   libucrt:locks.obj
 0001:00053e44       ___acrt_uninitialize_locks 10054e44 f   libucrt:locks.obj
 0001:00053e75       ___acrt_unlock             10054e75 f   libucrt:locks.obj
 0001:00053e8c       __lock_locales             10054e8c f   libucrt:locks.obj
 0001:00053e9a       __unlock_locales           10054e9a f   libucrt:locks.obj
 0001:00053ea3       _malloc                    10054ea3 f   libucrt:malloc.obj
 0001:00054105       _setlocale                 10055105 f   libucrt:setlocale.obj
 0001:000541f4       __fsopen                   100551f4 f   libucrt:fopen.obj
 0001:000541ff       ___pctype_func             100551ff f   libucrt:ctype.obj
 0001:00054223       ____lc_codepage_func       10055223 f   libucrt:initctype.obj
 0001:00054248       ____lc_locale_name_func    10055248 f   libucrt:initctype.obj
 0001:0005426f       ____mb_cur_max_func        1005526f f   libucrt:initctype.obj
 0001:00054294       ___acrt_locale_initialize_ctype 10055294 f   libucrt:initctype.obj
 0001:000546f1       __wcsdup                   100556f1 f   libucrt:wcsdup.obj
 0001:00054750       _abort                     10055750 f   libucrt:abort.obj
 0001:00054794       ___acrt_errno_from_os_error 10055794 f   libucrt:errno.obj
 0001:000547d7       ___acrt_errno_map_os_error 100557d7 f   libucrt:errno.obj
 0001:000547fa       ___acrt_errno_map_os_error_ptd 100557fa f   libucrt:errno.obj
 0001:0005481e       ___doserrno                1005581e f   libucrt:errno.obj
 0001:00054831       __errno                    10055831 f   libucrt:errno.obj
 0001:00054850       __CIpow                    10055850 f   libucrt:pow_impl.obj
 0001:0005488b       __CIpow_default            1005588b f   libucrt:pow_impl.obj
 0001:000548a4       __pow_default              100558a4     libucrt:pow_impl.obj
 0001:00054a99       ___strncnt                 10055a99 f   libucrt:strncnt.obj
 0001:00054ab5       ??$__acrt_convert_wcs_mbs_cp@_WDV<lambda_0fec1a7b3f42a53036604e18c2d5e07e>@@U__crt_win32_buffer_no_resizing@@@@YAHQB_WAAV?$__crt_win32_buffer@DU__crt_win32_buffer_no_resizing@@@@ABV<lambda_0fec1a7b3f42a53036604e18c2d5e07e>@@I@Z 10055ab5 f i libucrt:strftime.obj
 0001:00054b77       ??R<lambda_28bda7af82a03b66c1cb3803a755f95d>@@QBEHIQB_WQADI@Z 10055b77 f i libucrt:argv_wildcards.obj
 0001:00054b77       ??R<lambda_0fec1a7b3f42a53036604e18c2d5e07e>@@QBEHIQB_WQADI@Z 10055b77 f i libucrt:strftime.obj
 0001:00054b9b       ?allocate@?$__crt_win32_buffer@DU__crt_win32_buffer_no_resizing@@@@QAEHI@Z 10055b9b f i libucrt:strftime.obj
 0001:00054bc2       ?set_to_nullptr@?$__crt_win32_buffer@DU__crt_win32_buffer_no_resizing@@@@QAEXXZ 10055bc2 f i libucrt:strftime.obj
 0001:00054bd6       ??$__crt_time_is_leap_year@H@@YA_NH@Z 10055bd6 f i libucrt:wcsftime.obj
 0001:00054c18       _strnlen                   10055c18 f   libucrt:strnlen.obj
 0001:00054d3a       _wcsnlen                   10055d3a f   libucrt:strnlen.obj
 0001:00054eea       ___acrt_initialize_new_handler 10055eea f   libucrt:new_handler.obj
 0001:00054ef9       __callnewh                 10055ef9 f   libucrt:new_handler.obj
 0001:00054f26       __query_new_handler        10055f26 f   libucrt:new_handler.obj
 0001:00054f82       __seh_filter_dll           10055f82 f   libucrt:exception_filter.obj
 0001:00054fa2       __seh_filter_exe           10055fa2 f   libucrt:exception_filter.obj
 0001:00055399       ___acrt_allocate_buffer_for_argv 10056399 f   libucrt:argv_parsing.obj
 0001:000553e8       __configure_narrow_argv    100563e8 f   libucrt:argv_parsing.obj
 0001:000557b4       ___dcrt_get_or_create_wide_environment_nolock 100567b4 f   libucrt:environment_initialization.obj
 0001:000557b9       ___dcrt_uninitialize_environments_nolock 100567b9 f   libucrt:environment_initialization.obj
 0001:0005580a       __initialize_narrow_environment 1005680a f   libucrt:environment_initialization.obj
 0001:000558c5       ??$__crt_fast_encode_pointer@PAX@@YAPAXQAX@Z 100568c5 f i libucrt:initialization.obj
 0001:000558c5       ??$__crt_fast_encode_pointer@PAP6AXXZ@@YAPAP6AXXZQAP6AXXZ@Z 100568c5 f i libucrt:onexit.obj
 0001:000558c5       ??$__crt_fast_encode_pointer@P6GHPA_WKJ@Z@@YAP6GHPA_WKJ@ZQ6GH0KJ@Z@Z 100568c5 f i libucrt:winapi_thunks.obj
 0001:000558c5       ??$__crt_fast_encode_pointer@P6AHXZ@@YAP6AHXZQ6AHXZ@Z 100568c5 f i libucrt:onexit.obj
 0001:00055ac0       __crt_atexit               10056ac0 f   libucrt:onexit.obj
 0001:00055ad6       __execute_onexit_table     10056ad6 f   libucrt:onexit.obj
 0001:00055b14       __initialize_onexit_table  10056b14 f   libucrt:onexit.obj
 0001:00055b3d       __register_onexit_function 10056b3d f   libucrt:onexit.obj
 0001:00055b97       ___acrt_uninitialize_command_line 10056b97 f   libucrt:argv_data.obj
 0001:00055c6e       ___acrt_initialize         10056c6e f   libucrt:initialization.obj
 0001:00055c80       ___acrt_thread_attach      10056c80 f   libucrt:initialization.obj
 0001:00055c8b       ___acrt_thread_detach      10056c8b f   libucrt:initialization.obj
 0001:00055c93       ___acrt_uninitialize       10056c93 f   libucrt:initialization.obj
 0001:00055cc3       ___acrt_uninitialize_critical 10056cc3 f   libucrt:initialization.obj
 0001:00055cd5       _terminate                 10056cd5 f   libucrt:terminate.obj
 0001:00055d11       __initterm                 10056d11 f   libucrt:initterm.obj
 0001:00055d3c       __initterm_e               10056d3c f   libucrt:initterm.obj
 0001:00055d70       _strncmp                   10056d70 f   libucrt:strncmp.obj
 0001:00055de8       _wcsncmp                   10056de8 f   libucrt:wcsncmp.obj
 0001:00055e22       ___acrt_get_process_end_policy 10056e22 f   libucrt:win_policies.obj
 0001:00056191       ___acrt_freeptd            10057191 f   libucrt:per_thread_data.obj
 0001:000561bd       ___acrt_getptd             100571bd f   libucrt:per_thread_data.obj
 0001:00056278       ___acrt_getptd_head        10057278 f   libucrt:per_thread_data.obj
 0001:0005630e       ___acrt_getptd_noexit      1005730e f   libucrt:per_thread_data.obj
 0001:000563bf       ___acrt_getptd_noexit_explicit 100573bf f   libucrt:per_thread_data.obj
 0001:00056462       ___acrt_initialize_ptd     10057462 f   libucrt:per_thread_data.obj
 0001:0005648e       ___acrt_uninitialize_ptd   1005748e f   libucrt:per_thread_data.obj
 0001:000565ab       ??0_expandlocale_locale_name_cache@@QAE@QA_WIQAU__crt_qualified_locale_data@@@Z 100575ab f i libucrt:wsetlocale.obj
 0001:000565f5       ??1_expandlocale_locale_name_cache@@QAE@XZ 100575f5 f i libucrt:wsetlocale.obj
 0001:0005678d       ?commit_locale_name@_expandlocale_locale_name_cache@@QAEXQB_WI@Z 1005778d f i libucrt:wsetlocale.obj
 0001:000567d1       ?commit_locale_name_cache_already_updated@_expandlocale_locale_name_cache@@QAEXQB_WI@Z 100577d1 f i libucrt:wsetlocale.obj
 0001:00056806       ___acrt_copy_locale_name   10057806 f   libucrt:wsetlocale.obj
 0001:00056866       ___acrt_set_locale_changed 10057866 f   libucrt:wsetlocale.obj
 0001:00056871       ___acrt_uninitialize_locale 10057871 f   libucrt:wsetlocale.obj
 0001:00056898       ___lc_lctowcs              10057898 f   libucrt:wsetlocale.obj
 0001:00056908       ___lc_wcstolc              10057908 f   libucrt:wsetlocale.obj
 0001:00056e4d       __wcscats                  10057e4d f   libucrt:wsetlocale.obj
 0001:00056e8e       __wsetlocale               10057e8e f   libucrt:wsetlocale.obj
 0001:00057b69       _iswctype                  10058b69 f   libucrt:iswctype.obj
 0001:00057bd2       __isctype_l                10058bd2 f   libucrt:isctype.obj
 0001:00057c9d       ___acrt_update_locale_info 10058c9d f   libucrt:locale_update.obj
 0001:00057cca       ___acrt_update_locale_info_explicit 10058cca f   libucrt:locale_update.obj
 0001:00057cfb       ___acrt_update_multibyte_info 10058cfb f   libucrt:locale_update.obj
 0001:00057d28       ___acrt_update_multibyte_info_explicit 10058d28 f   libucrt:locale_update.obj
 0001:00057d59       _fegetround                10058d59 f   libucrt:fegetround.obj
 0001:00057d66       __free_base                10058d66 f   libucrt:free_base.obj
 0001:00057da0       __malloc_base              10058da0 f   libucrt:malloc_base.obj
 0001:00057dee       ?__acrt_fp_classify@@YA?AW4__acrt_fp_class@@ABN@Z 10058dee f i libucrt:cvt.obj
 0001:000587b7       ___acrt_fp_format          100597b7 f   libucrt:cvt.obj
 0001:00058938       __wctomb_internal          10059938 f   libucrt:wctomb.obj
 0001:00058aa2       __mbtowc_internal          10059aa2 f   libucrt:mbtowc.obj
 0001:00058bd5       __fileno                   10059bd5 f   libucrt:fileno.obj
 0001:00058bfc       __get_printf_count_output  10059bfc f   libucrt:printf_count_output.obj
 0001:00058c11       ___acrt_should_use_temporary_buffer 10059c11 f   libucrt:_sftbuf.obj
 0001:00058c4c       ___acrt_stdio_begin_temporary_buffering_nolock 10059c4c f   libucrt:_sftbuf.obj
 0001:00058cf8       ___acrt_stdio_end_temporary_buffering_nolock 10059cf8 f   libucrt:_sftbuf.obj
 0001:00058e9c       ___acrt_initialize_lowio   10059e9c f   libucrt:ioinit.obj
 0001:00058efc       ___acrt_uninitialize_lowio 10059efc f   libucrt:ioinit.obj
 0001:00058f28       ___acrt_MultiByteToWideChar 10059f28 f   libucrt:multibytetowidechar.obj
 0001:000592c8       ___acrt_AppPolicyGetProcessTerminationMethodInternal@4 1005a2c8 f   libucrt:winapi_thunks.obj
 0001:00059308       ___acrt_AreFileApisANSI@0  1005a308 f   libucrt:winapi_thunks.obj
 0001:00059327       ___acrt_CompareStringEx@36 1005a327 f   libucrt:winapi_thunks.obj
 0001:00059384       ___acrt_EnumSystemLocalesEx@16 1005a384 f   libucrt:winapi_thunks.obj
 0001:000593d8       ___acrt_FlsAlloc@4         1005a3d8 f   libucrt:winapi_thunks.obj
 0001:00059417       ___acrt_FlsFree@4          1005a417 f   libucrt:winapi_thunks.obj
 0001:00059456       ___acrt_FlsGetValue@4      1005a456 f   libucrt:winapi_thunks.obj
 0001:00059495       ___acrt_FlsSetValue@8      1005a495 f   libucrt:winapi_thunks.obj
 0001:000594d7       ___acrt_GetLocaleInfoEx@16 1005a4d7 f   libucrt:winapi_thunks.obj
 0001:00059516       ___acrt_GetUserDefaultLocaleName@8 1005a516 f   libucrt:winapi_thunks.obj
 0001:00059552       ___acrt_InitializeCriticalSectionEx@12 1005a552 f   libucrt:winapi_thunks.obj
 0001:0005959d       ___acrt_IsValidLocaleName@4 1005a59d f   libucrt:winapi_thunks.obj
 0001:000595d5       ___acrt_LCIDToLocaleName@16 1005a5d5 f   libucrt:winapi_thunks.obj
 0001:00059614       ___acrt_LCMapStringEx@36   1005a614 f   libucrt:winapi_thunks.obj
 0001:00059671       ___acrt_LocaleNameToLCID@8 1005a671 f   libucrt:winapi_thunks.obj
 0001:000596a2       ___acrt_can_use_vista_locale_apis 1005a6a2 f   libucrt:winapi_thunks.obj
 0001:000596ad       ___acrt_eagerly_load_locale_apis 1005a6ad f   libucrt:winapi_thunks.obj
 0001:000596e4       ___acrt_initialize_winapi_thunks 1005a6e4 f   libucrt:winapi_thunks.obj
 0001:000596f8       ___acrt_uninitialize_winapi_thunks 1005a6f8 f   libucrt:winapi_thunks.obj
 0001:0005972e       __waccess_s                1005a72e f   libucrt:waccess.obj
 0001:000597ec       __calloc_base              1005a7ec f   libucrt:calloc_base.obj
 0001:00059849       __fcloseall                1005a849 f   libucrt:closeall.obj
 0001:000598f4       ___acrt_stdio_free_buffer_nolock 1005a8f4 f   libucrt:_freebuf.obj
 0001:00059b22       ___acrt_LCMapStringA       1005ab22 f   libucrt:lcmapstringa.obj
 0001:00059b70       ___ascii_strnicmp          1005ab70 f   libucrt:_strnicm.obj
 0001:00059e1e       ___acrt_stdio_flush_and_write_narrow_nolock 1005ae1e f   libucrt:_flsbuf.obj
 0001:00059ecb       __commit                   1005aecb f   libucrt:commit.obj
 0001:0005a6f6       __write                    1005b6f6 f   libucrt:write.obj
 0001:0005a72d       __write_internal           1005b72d f   libucrt:write.obj
 0001:0005a835       __write_nolock             1005b835 f   libucrt:write.obj
 0001:0005aac6       __close_internal           1005bac6 f   libucrt:close.obj
 0001:0005ab69       __close_nolock             1005bb69 f   libucrt:close.obj
 0001:0005ab99       __close_nolock_internal    1005bb99 f   libucrt:close.obj
 0001:0005ac39       ?__acrt_stdio_allocate_stream@@YA?AV__crt_stdio_stream@@XZ 1005bc39 f   libucrt:stream.obj
 0001:0005aca2       ?__acrt_stdio_free_stream@@YAXV__crt_stdio_stream@@@Z 1005bca2 f   libucrt:stream.obj
 0001:0005af2e       ___acrt_stdio_refill_and_read_narrow_nolock 1005bf2e f   libucrt:_filbuf.obj
 0001:0005b524       __ftelli64                 1005c524 f   libucrt:ftell.obj
 0001:0005b55a       __ftelli64_nolock_internal 1005c55a f   libucrt:ftell.obj
 0001:0005b565       ___acrt_stdio_allocate_buffer_nolock 1005c565 f   libucrt:_getbuf.obj
 0001:0005ba6d       __read                     1005ca6d f   libucrt:read.obj
 0001:0005bb81       __read_nolock              1005cb81 f   libucrt:read.obj
 0001:0005c0c9       __lseeki64                 1005d0c9 f   libucrt:lseek.obj
 0001:0005c109       __lseeki64_internal        1005d109 f   libucrt:lseek.obj
 0001:0005c127       __lseeki64_nolock          1005d127 f   libucrt:lseek.obj
 0001:0005c167       __lseeki64_nolock_internal 1005d167 f   libucrt:lseek.obj
 0001:0005c185       ??$__acrt_stdio_parse_mode@D@@YA?AU__acrt_stdio_stream_mode@@QBD@Z 1005d185 f i libucrt:openfile.obj
 0001:0005c432       ?__acrt_stdio_parse_mode_D@@YA_NAAU__acrt_stdio_stream_mode@@@Z 1005d432 f i libucrt:openfile.obj
 0001:0005c44d       ?__acrt_stdio_parse_mode_T@@YA_NAAU__acrt_stdio_stream_mode@@@Z 1005d44d f i libucrt:openfile.obj
 0001:0005c46c       ?__acrt_stdio_parse_mode_b@@YA_NAAU__acrt_stdio_stream_mode@@@Z 1005d46c f i libucrt:openfile.obj
 0001:0005c48c       ?__acrt_stdio_parse_mode_c@@YA_NAAU__acrt_stdio_stream_mode@@AA_N@Z 1005d48c f i libucrt:openfile.obj
 0001:0005c4ae       ?__acrt_stdio_parse_mode_n@@YA_NAAU__acrt_stdio_stream_mode@@AA_N@Z 1005d4ae f i libucrt:openfile.obj
 0001:0005c4d0       ?__acrt_stdio_parse_mode_plus@@YA_NAAU__acrt_stdio_stream_mode@@AA_N@Z 1005d4d0 f i libucrt:openfile.obj
 0001:0005c506       ?__acrt_stdio_parse_mode_t@@YA_NAAU__acrt_stdio_stream_mode@@@Z 1005d506 f i libucrt:openfile.obj
 0001:0005c526       ?__acrt_stdio_parse_mode_x@@YA_NAAU__acrt_stdio_stream_mode@@@Z 1005d526 f i libucrt:openfile.obj
 0001:0005c546       __openfile                 1005d546 f   libucrt:openfile.obj
 0001:0005c551       ___acrt_initialize_timeset 1005d551 f   libucrt:timeset.obj
 0001:0005c586       ___daylight                1005d586 f   libucrt:timeset.obj
 0001:0005c58c       ___dstbias                 1005d58c f   libucrt:timeset.obj
 0001:0005c592       ___timezone                1005d592 f   libucrt:timeset.obj
 0001:0005c598       ___tzname                  1005d598 f   libucrt:timeset.obj
 0001:0005c59e       ___wide_tzname             1005d59e f   libucrt:timeset.obj
 0001:0005c5a4       __get_daylight             1005d5a4 f   libucrt:timeset.obj
 0001:0005c5d0       __get_dstbias              1005d5d0 f   libucrt:timeset.obj
 0001:0005c5fc       __get_timezone             1005d5fc f   libucrt:timeset.obj
 0001:0005c628       ??$__crt_time_elapsed_leap_years@H@@YAHH@Z 1005d628 f i libucrt:gmtime.obj
 0001:0005c865       __gmtime64_s               1005d865 f   libucrt:gmtime.obj
 0001:0005caff       __localtime64_s            1005daff f   libucrt:localtime.obj
 0001:0005d3c6       ___tzset                   1005e3c6 f   libucrt:tzset.obj
 0001:0005d423       __isindst                  1005e423 f   libucrt:tzset.obj
 0001:0005d477       __dclass                   1005e477 f   libucrt:nan.obj
 0001:0005d488       __dsign                    1005e488 f   libucrt:nan.obj
 0001:0005d498       __errcode                  1005e498 f   libucrt:fpexcept.obj
 0001:0005d4cc       __except1                  1005e4cc f   libucrt:fpexcept.obj
 0001:0005d59a       __handle_exc               1005e59a f   libucrt:fpexcept.obj
 0001:0005d813       __raise_exc                1005e813 f   libucrt:fpexcept.obj
 0001:0005d836       __raise_exc_ex             1005e836 f   libucrt:fpexcept.obj
 0001:0005db2c       __set_errno_from_matherr   1005eb2c f   libucrt:fpexcept.obj
 0001:0005db5b       __umatherr                 1005eb5b f   libucrt:fpexcept.obj
 0001:0005dbfb       __decomp                   1005ebfb f   libucrt:util.obj
 0001:0005dccd       __set_exp                  1005eccd f   libucrt:util.obj
 0001:0005dcfa       __sptype                   1005ecfa f   libucrt:util.obj
 0001:0005dd58       ___set_fpsr_sse2           1005ed58 f   libucrt:fpctrl.obj
 0001:0005ddd8       __clrfp                    1005edd8 f   libucrt:fpctrl.obj
 0001:0005dde9       __ctrlfp                   1005ede9 f   libucrt:fpctrl.obj
 0001:0005de13       __set_statfp               1005ee13 f   libucrt:fpctrl.obj
 0001:0005de6c       __statfp                   1005ee6c f   libucrt:fpctrl.obj
 0001:0005e127       _mbstowcs_s                1005f127 f   libucrt:mbstowcs.obj
 0001:0005e4e9       __wcstombs_s_l             1005f4e9 f   libucrt:wcstombs.obj
 0001:0005e60e       ___acrt_GetLocaleInfoA     1005f60e f   libucrt:getlocaleinfoa.obj
 0001:0005e7be       ___acrt_GetStringTypeA     1005f7be f   libucrt:getstringtypea.obj
 0001:0005e8c7       _wcscpy_s                  1005f8c7 f   libucrt:wcscpy_s.obj
 0001:0005e9f9       ___acrt_get_sigabrt_handler 1005f9f9 f   libucrt:signal.obj
 0001:0005ea20       ___acrt_initialize_signal_handlers 1005fa20 f   libucrt:signal.obj
 0001:0005ea3e       _raise                     1005fa3e f   libucrt:signal.obj
 0001:0005ec31       __fpclass                  1005fc31 f   libucrt:ieeemisc.obj
 0001:0005ecd5       __realloc_base             1005fcd5 f   libucrt:realloc_base.obj
 0001:0005ed3e       ___acrt_initialize_sse2    1005fd3e f   libucrt:mathfcns.obj
 0001:0005ed60       __CIpow_pentium4           1005fd60 f   libucrt:pow_pentium4.obj
 0001:0005ed79       __pow_pentium4             1005fd79     libucrt:pow_pentium4.obj
 0001:0005f8a0       __fFEXP                    100608a0 f   libucrt:87tran.obj
 0001:0005f8f7       __rtinfpopse               100608f7     libucrt:87tran.obj
 0001:0005f8f9       __rtinfnpopse              100608f9     libucrt:87tran.obj
 0001:0005f909       __fFLN                     10060909     libucrt:87tran.obj
 0001:0005f9be       __rtinfpop                 100609be     libucrt:87tran.obj
 0001:0005f9c0       __rtinfnpop                100609c0     libucrt:87tran.obj
 0001:0005f9d0       __rtforexpinf              100609d0 f   libucrt:87tran.obj
 0001:0005f9dd       __ffexpm1                  100609dd     libucrt:87tran.obj
 0001:0005fa90       __trandisp1                10060a90 f   libucrt:87disp.obj
 0001:0005fb05       __trandisp2                10060b05 f   libucrt:87disp.obj
 0001:0005fb9f       __rttospopde               10060b9f     libucrt:87disp.obj
 0001:0005fba4       __rttospop                 10060ba4     libucrt:87disp.obj
 0001:0005fbb0       __rtnospop                 10060bb0 f   libucrt:87disp.obj
 0001:0005fbc0       __rttosnpop                10060bc0 f   libucrt:87disp.obj
 0001:0005fbc1       __rtnospopde               10060bc1     libucrt:87disp.obj
 0001:0005fbc8       __rtzeropop                10060bc8     libucrt:87disp.obj
 0001:0005fbca       __rtzeronpop               10060bca     libucrt:87disp.obj
 0001:0005fbd0       __rtzerospop               10060bd0 f   libucrt:87disp.obj
 0001:0005fbdd       __rtonepop                 10060bdd     libucrt:87disp.obj
 0001:0005fbe0       __rtonenpop                10060be0 f   libucrt:87disp.obj
 0001:0005fbf0       __tosnan1                  10060bf0 f   libucrt:87disp.obj
 0001:0005fc20       __nosnan2                  10060c20 f   libucrt:87disp.obj
 0001:0005fc30       __tosnan2                  10060c30 f   libucrt:87disp.obj
 0001:0005fc60       __nan2                     10060c60 f   libucrt:87disp.obj
 0001:0005fca0       __rtindfpop                10060ca0 f   libucrt:87disp.obj
 0001:0005fca2       __rtindfnpop               10060ca2     libucrt:87disp.obj
 0001:0005fcb3       __rttosnpopde              10060cb3     libucrt:87disp.obj
 0001:0005fcc0       __rtatan2inf               10060cc0 f   libucrt:87disp.obj
 0001:0005fcdd       __rtchsifneg               10060cdd     libucrt:87disp.obj
 0001:0005fcf0       __startTwoArgErrorHandling 10060cf0 f   libucrt:genexcep.obj
 0001:0005fd07       __startOneArgErrorHandling 10060d07 f   libucrt:genexcep.obj
 0001:0005fd50       __twoToTOS                 10060d50 f   libucrt:common.obj
 0001:0005fd65       __load_CW                  10060d65 f   libucrt:common.obj
 0001:0005fd7c       __convertTOStoQNaN         10060d7c f   libucrt:common.obj
 0001:0005fd95       __fload_withFB             10060d95 f   libucrt:common.obj
 0001:0005fdd8       __checkTOS_withFB          10060dd8 f   libucrt:common.obj
 0001:0005fdee       __fast_exit                10060dee f   libucrt:common.obj
 0001:0005fdfb       __math_exit                10060dfb f   libucrt:common.obj
 0001:0005fe25       __check_overflow_exit      10060e25 f   libucrt:common.obj
 0001:0005fe39       __check_range_exit         10060e39 f   libucrt:common.obj
 0001:0005fedc       __d_inttype                10060edc f   libucrt:powhlp.obj
 0001:0005ff44       __powhlp                   10060f44 f   libucrt:powhlp.obj
 0001:0006006f       ___acrt_WideCharToMultiByte 1006106f f   libucrt:widechartomultibyte.obj
 0001:00060126       ___ascii_wcsicmp           10061126 f   libucrt:wcsicmp.obj
 0001:00060163       __towlower_internal        10061163 f i libucrt:wcsicmp.obj
 0001:000601a2       __wcsicmp                  100611a2 f   libucrt:wcsicmp.obj
 0001:000601eb       __wcsicmp_l                100611eb f   libucrt:wcsicmp.obj
 0001:000602bb       ??$__acrt_convert_wcs_mbs_cp@_WDV<lambda_28bda7af82a03b66c1cb3803a755f95d>@@U__crt_win32_buffer_internal_dynamic_resizing@@@@YAHQB_WAAV?$__crt_win32_buffer@DU__crt_win32_buffer_internal_dynamic_resizing@@@@ABV<lambda_28bda7af82a03b66c1cb3803a755f95d>@@I@Z 100612bb f i libucrt:argv_wildcards.obj
 0001:0006085d       ?allocate@?$__crt_win32_buffer@DU__crt_win32_buffer_internal_dynamic_resizing@@@@QAEHI@Z 1006185d f i libucrt:argv_wildcards.obj
 0001:00060920       ___acrt_expand_narrow_argv_wildcards 10061920 f   libucrt:argv_wildcards.obj
 0001:0006092b       ___acrt_GetModuleFileNameA 1006192b f   libucrt:getmodulefilenamea.obj
 0001:00060f4f       ___acrt_initialize_multibyte 10061f4f f   libucrt:mbctype.obj
 0001:00060f97       ___acrt_update_thread_multibyte_data 10061f97 f   libucrt:mbctype.obj
 0001:00060faa       __setmbcp_nolock           10061faa f   libucrt:mbctype.obj
 0001:00061202       __ismbblead                10062202 f   libucrt:ismbbyte.obj
 0001:0006121a       ___acrt_initialize_command_line 1006221a f   libucrt:argv_data.obj
 0001:0006126a       ___dcrt_get_narrow_environment_from_os 1006226a f   libucrt:get_environment_from_os.obj
 0001:0006130a       ___dcrt_get_wide_environment_from_os 1006230a f   libucrt:get_environment_from_os.obj
 0001:00061707       ___dcrt_set_variable_in_wide_environment_nolock 10062707 f   libucrt:setenv.obj
 0001:00061712       __recalloc_base            10062712 f   libucrt:recalloc.obj
 0001:0006177f       ___acrt_initialize_heap    1006277f f   libucrt:heap_handle.obj
 0001:00061790       ___acrt_uninitialize_heap  10062790 f   libucrt:heap_handle.obj
 0001:0006179a       ___acrt_execute_initializers 1006279a f   libucrt:shared_initialization.obj
 0001:00061802       ___acrt_execute_uninitializers 10062802 f   libucrt:shared_initialization.obj
 0001:00061833       ___acrt_has_user_matherr   10062833 f   libucrt:matherr.obj
 0001:0006184b       ___acrt_initialize_user_matherr 1006284b f   libucrt:matherr.obj
 0001:0006185a       ___acrt_invoke_user_matherr 1006285a f   libucrt:matherr.obj
 0001:0006188c       ___acrt_add_locale_ref     1006288c f   libucrt:locale_refcounting.obj
 0001:00061909       ___acrt_free_locale        10062909 f   libucrt:locale_refcounting.obj
 0001:00061a51       ___acrt_locale_add_lc_time_reference 10062a51 f   libucrt:locale_refcounting.obj
 0001:00061a7a       ___acrt_locale_free_lc_time_if_unreferenced 10062a7a f   libucrt:locale_refcounting.obj
 0001:00061aab       ___acrt_locale_release_lc_time_reference 10062aab f   libucrt:locale_refcounting.obj
 0001:00061ad4       ___acrt_release_locale_ref 10062ad4 f   libucrt:locale_refcounting.obj
 0001:00061b55       ___acrt_update_thread_locale_data 10062b55 f   libucrt:locale_refcounting.obj
 0001:00061bd6       __updatetlocinfoEx_nolock  10062bd6 f   libucrt:locale_refcounting.obj
 0001:00061c26       ___acrt_locale_free_monetary 10062c26 f   libucrt:initmon.obj
 0001:00061d24       ___acrt_locale_initialize_monetary 10062d24 f   libucrt:initmon.obj
 0001:000620da       ___acrt_locale_free_numeric 100630da f   libucrt:initnum.obj
 0001:00062143       ___acrt_locale_initialize_numeric 10063143 f   libucrt:initnum.obj
 0001:000625f5       ___acrt_locale_free_time   100635f5 f   libucrt:inittime.obj
 0001:000626d9       ___acrt_locale_initialize_time 100636d9 f   libucrt:inittime.obj
 0001:000627cc       _wcscat_s                  100637cc f   libucrt:wcscat_s.obj
 0001:000628c4       _wcsncat_s                 100638c4 f   libucrt:wcsncat_s.obj
 0001:0006299d       _wcsncpy_s                 1006399d f   libucrt:wcsncpy_s.obj
 0001:000629a8       _wcscspn                   100639a8 f   libucrt:wcscspn.obj
 0001:00062a01       _wcspbrk                   10063a01 f   libucrt:wcspbrk.obj
 0001:0006314b       ___acrt_get_qualified_locale 1006414b f   libucrt:get_qualified_locale.obj
 0001:00063aaf       ___acrt_get_qualified_locale_downlevel 10064aaf f   libucrt:getqloc_downlevel.obj
 0001:00063ca4       ___acrt_GetStringTypeW     10064ca4 f   libucrt:getstringtypew.obj
 0001:00063f86       ___acrt_fenv_get_common_round_control 10064f86 f   libucrt:_fenvutils.obj
 0001:00063fa8       ___acrt_fenv_get_control   10064fa8 f   libucrt:_fenvutils.obj
 0001:00064028       ___acrt_fenv_get_status    10065028 f   libucrt:_fenvutils.obj
 0001:000640d2       ___acrt_fenv_set_control   100650d2 f   libucrt:_fenvutils.obj
 0001:0006414d       ___acrt_fenv_set_status    1006514d f   libucrt:_fenvutils.obj
 0001:00064247       __query_new_mode           10065247 f   libucrt:new_mode.obj
 0001:000642cc       ___acrt_fp_strflt_to_string 100652cc f   libucrt:_fptostr.obj
 0001:000643c6       ___acrt_fltout             100653c6 f   libucrt:cfout.obj
 0001:000658ff       ?__c32rtomb_utf8@__crt_mbstring@@YAIPAD_UPAU_Mbstatet@@AAV__crt_cached_ptd_host@@@Z 100668ff f   libucrt:c32rtomb.obj
 0001:000659db       ?__mbrtowc_utf8@__crt_mbstring@@YAIPA_WPBDIPAU_Mbstatet@@AAV__crt_cached_ptd_host@@@Z 100669db f   libucrt:mbrtowc.obj
 0001:00065a1e       ?__mbsrtowcs_utf8@__crt_mbstring@@YAIPA_WPAPBDIPAU_Mbstatet@@AAV__crt_cached_ptd_host@@@Z 10066a1e f   libucrt:mbrtowc.obj
 0001:00065b26       __isatty                   10066b26 f   libucrt:isatty.obj
 0001:00065b7c       ___acrt_lowio_create_handle_array 10066b7c f   libucrt:osfinfo.obj
 0001:00065bf7       ___acrt_lowio_destroy_handle_array 10066bf7 f   libucrt:osfinfo.obj
 0001:00065c2c       ___acrt_lowio_ensure_fh_exists 10066c2c f   libucrt:osfinfo.obj
 0001:00065cca       ___acrt_lowio_lock_fh      10066cca f   libucrt:osfinfo.obj
 0001:00065ced       ___acrt_lowio_set_os_handle 10066ced f   libucrt:osfinfo.obj
 0001:00065d7f       ___acrt_lowio_unlock_fh    10066d7f f   libucrt:osfinfo.obj
 0001:00065da2       __alloc_osfhnd             10066da2 f   libucrt:osfinfo.obj
 0001:00065eb5       __free_osfhnd              10066eb5 f   libucrt:osfinfo.obj
 0001:00065f46       __get_osfhandle            10066f46 f   libucrt:osfinfo.obj
 0001:00066000       ___acrt_DownlevelLCIDToLocaleName 10067000 f   libucrt:lcidtoname_downlevel.obj
 0001:000660a3       ___acrt_DownlevelLocaleNameToLCID 100670a3 f   libucrt:lcidtoname_downlevel.obj
 0001:000660cf       __putwch_nolock            100670cf f   libucrt:putwch.obj
 0001:00066101       ___ascii_wcsnicmp          10067101 f   libucrt:wcsnicmp.obj
 0001:00066150       __wcsnicmp                 10067150 f   libucrt:wcsnicmp.obj
 0001:0006619c       __wcsnicmp_l               1006719c f   libucrt:wcsnicmp.obj
 0001:00066837       __sopen_nolock             10067837 f   libucrt:open.obj
 0001:000668a5       __sopen_s                  100678a5 f   libucrt:open.obj
 0001:000668c5       __wsopen_nolock            100678c5 f   libucrt:open.obj
 0001:00066bef       _wcstol                    10067bef f   libucrt:strtox.obj
 0001:00066dd1       __wgetenv_s                10067dd1 f   libucrt:getenv.obj
 0001:00066ddc       __dtest                    10067ddc f   libucrt:_test.obj
 0001:00066e40       __fd_int                   10067e40 f   libucrt:_test.obj
 0001:00066f0d       __fdtest                   10067f0d f   libucrt:_test.obj
 0001:00066f5b       ?__wcsrtombs_utf8@__crt_mbstring@@YAIPADPAPB_WIPAU_Mbstatet@@AAV__crt_cached_ptd_host@@@Z 10067f5b f   libucrt:wcrtomb.obj
 0001:0006711e       _strncpy_s                 1006811e f   libucrt:strncpy_s.obj
 0001:00067129       ___libm_error_support      10068129 f   libucrt:libm_error.obj
 0001:0006731d       __87except                 1006831d f   libucrt:87except.obj
 0001:00067427       __frnd                     10068427 f   libucrt:frnd.obj
 0001:0006743b       __towlower_l               1006843b f   libucrt:towlower.obj
 0001:00067520       _qsort                     10068520 f   libucrt:qsort.obj
 0001:00067a10       _strpbrk                   10068a10 f   libucrt:strpbrk.obj
 0001:00067a50       __mbsdec                   10068a50 f   libucrt:mbsdec.obj
 0001:00067a67       __mbsdec_l                 10068a67 f   libucrt:mbsdec.obj
 0001:00067b03       __wcsnicoll                10068b03 f   libucrt:wcsnicol.obj
 0001:00067b70       __wcsnicoll_l              10068b70 f   libucrt:wcsnicol.obj
 0001:00067c30       __msize_base               10068c30 f   libucrt:msize.obj
 0001:00067d88       __itow_s                   10068d88 f   libucrt:xtoa.obj
 0001:00067dbb       __controlfp_s              10068dbb f   libucrt:contrlfp.obj
 0001:00067e1a       _fegetenv                  10068e1a f   libucrt:fegetenv.obj
 0001:00067e37       _fesetenv                  10068e37 f   libucrt:fesetenv.obj
 0001:00067e82       _feholdexcept              10068e82 f   libucrt:feholdexcept.obj
 0001:00067ed0       __CIlog10                  10068ed0 f   libucrt:log10_impl.obj
 0001:00067f0b       __CIlog10_default          10068f0b f   libucrt:log10_impl.obj
 0001:00067f1f       __log10_default            10068f1f     libucrt:log10_impl.obj
 0001:00067fe0       _ceil                      10068fe0 f   libucrt:ceil_pentium4.obj
 0001:00068020       __ceil_pentium4            10069020 f   libucrt:ceil_pentium4.obj
 0001:000680fd       ?reset_and_return@__crt_mbstring@@YAIIPAU_Mbstatet@@@Z 100690fd f   libucrt:common_utf8.obj
 0001:00068111       ?return_illegal_sequence@__crt_mbstring@@YAIPAU_Mbstatet@@AAV__crt_cached_ptd_host@@@Z 10069111 f   libucrt:common_utf8.obj
 0001:00068133       ?__mbrtoc32_utf8@__crt_mbstring@@YAIPA_UPBDIPAU_Mbstatet@@AAV__crt_cached_ptd_host@@@Z 10069133 f   libucrt:mbrtoc32.obj
 0001:000682f1       __query_app_type           100692f1 f   libucrt:report_runtime_error.obj
 0001:00068316       ___dcrt_lowio_ensure_console_output_initialized 10069316 f   libucrt:initcon.obj
 0001:00068335       ___dcrt_terminate_console_output 10069335 f   libucrt:initcon.obj
 0001:0006834c       ___dcrt_write_console      1006934c f   libucrt:initcon.obj
 0001:000683a1       __get_fmode                100693a1 f   libucrt:setmode.obj
 0001:000683ce       __setmode_nolock           100693ce f   libucrt:setmode.obj
 0001:0006849d       ??0__crt_seek_guard@@QAE@H_J@Z 1006949d f i libucrt:chsize.obj
 0001:000684ea       __chsize_nolock            100694ea f   libucrt:chsize.obj
 0001:00068521       __chsize_nolock_internal   10069521 f   libucrt:chsize.obj
 0001:000686c4       ?__c16rtomb_utf8@__crt_mbstring@@YAIPAD_SPAU_Mbstatet@@AAV__crt_cached_ptd_host@@@Z 100696c4 f   libucrt:c16rtomb.obj
 0001:0006876d       ___acrt_LCMapStringW       1006976d f   libucrt:lcmapstringw.obj
 0001:000687ab       ___acrt_CompareStringW     100697ab f   libucrt:comparestringw.obj
 0001:000688b7       __clearfp                  100698b7 f   libucrt:ieee87.obj
 0001:00068995       __control87                10069995 f   libucrt:ieee87.obj
 0001:00068d40       __CIlog10_pentium4         10069d40 f   libucrt:log10_pentium4.obj
 0001:00068d58       __log10_pentium4           10069d58     libucrt:log10_pentium4.obj
 0001:00068fd0       __ceil_default             10069fd0 f   libucrt:ceil.obj
 0001:00069085       ___acrt_initialize_fmode   1006a085 f   libucrt:txtmode.obj
 0001:000690a0       __FindPESection            1006a0a0 f   LIBCMT:pesect.obj
 0001:000690f0       __IsNonwritableInCurrentImage 1006a0f0 f   LIBCMT:pesect.obj
 0001:000691b0       __ValidateImageBase        1006a1b0 f   LIBCMT:pesect.obj
 0001:000691f0       __aulldvrm                 1006a1f0 f   LIBCMT:ulldvrm.obj
 0001:00069290       __allshl                   1006a290 f   LIBCMT:llshl.obj
 0001:000692b0       __aullshr                  1006a2b0 f   LIBCMT:ullshr.obj
 0001:000692d0       __alldiv                   1006a2d0 f   LIBCMT:lldiv.obj
 0001:00069380       __allrem                   1006a380 f   LIBCMT:llrem.obj
 0001:00069440       __alldvrm                  1006a440 f   LIBCMT:lldvrm.obj
 0001:00069520       __ftol2_sse                1006a520 f   LIBCMT:ftol2.obj
 0001:00069530       __ftoi2                    1006a530 f   LIBCMT:ftol2.obj
 0001:000695b0       _strrchr                   1006a5b0 f   libvcruntime:strrchr.obj
 0001:000696e7       _wcschr                    1006a6e7 f   libvcruntime:wcschr.obj
 0001:000697ae       __filter_x86_sse2_floating_point_exception_default 1006a7ae f   LIBCMT:x86_exception_filter.obj
 0001:000697ae       __filter_x86_sse2_floating_point_exception 1006a7ae f   LIBCMT:x86_exception_filter.obj
 0001:00069830       __ftoui3                   1006a830 f   LIBCMT:ftol3.obj
 0001:00069880       __dtol3                    1006a880 f   LIBCMT:ftol3.obj
 0001:00069930       __CIatan2                  1006a930 f   libucrt:87ctriga.obj
 0001:00069940       __CIfmod                   1006a940 f   libucrt:87fmod_impl.obj
 0001:00069950       __fFMOD                    1006a950 f   libucrt:87fmod_impl.obj
 0001:0006995e       __fdclass                  1006a95e f   libucrt:nanf.obj
 0001:00069970       __libm_sse2_acos_precise   1006a970 f   libucrt:acos_sse2_precise.obj
 0001:00069e90       __libm_sse2_cos_precise    1006ae90 f   libucrt:cos_sse2_precise.obj
 0001:0006a050       __libm_sse2_log10_precise  1006b050 f   libucrt:log10_sse2_precise.obj
 0001:0006a300       __libm_sse2_pow_precise    1006b300 f   libucrt:pow_sse2_precise.obj
 0001:0006ae50       __libm_sse2_sin_precise    1006be50 f   libucrt:sin_sse2_precise.obj
 0001:0006b020       __libm_sse2_sqrt_precise   1006c020 f   libucrt:sqrt_sse2_precise.obj
 0001:0006b120       __libm_sse2_tan_precise    1006c120 f   libucrt:tan_sse2_precise.obj
 0001:0006b390       _floor                     1006c390 f   libucrt:floor_pentium4.obj
 0001:0006b3d0       __floor_pentium4           1006c3d0 f   libucrt:floor_pentium4.obj
 0001:0006b48d       _roundf                    1006c48d f   libucrt:roundf.obj
 0001:0006b500       __fFATN2                   1006c500 f   libucrt:87triga.obj
 0001:0006b550       __rtpiby2                  1006c550     libucrt:87triga.obj
 0001:0006b560       __rtforatn20               1006c560 f   libucrt:87triga.obj
 0001:0006b590       __rtforatnby0              1006c590 f   libucrt:87triga.obj
 0001:0006b5a0       __cintrindisp2             1006c5a0 f   libucrt:87cdisp.obj
 0001:0006b5f0       __cintrindisp1             1006c5f0 f   libucrt:87cdisp.obj
 0001:0006b639       __ctrandisp2               1006c639 f   libucrt:87cdisp.obj
 0001:0006b7c8       __ctrandisp1               1006c7c8 f   libucrt:87cdisp.obj
 0001:0006b7fb       __fload                    1006c7fb f   libucrt:87cdisp.obj
 0001:0006b840       __CIacos                   1006c840 f   libucrt:acos_impl.obj
 0001:0006b87b       __CIacos_default           1006c87b f   libucrt:acos_impl.obj
 0001:0006b88f       __acos_default             1006c88f     libucrt:acos_impl.obj
 0001:0006b950       __CIcos                    1006c950 f   libucrt:cos_impl.obj
 0001:0006b98b       __CIcos_default            1006c98b f   libucrt:cos_impl.obj
 0001:0006b99f       __cos_default              1006c99f     libucrt:cos_impl.obj
 0001:0006ba40       __CIsin                    1006ca40 f   libucrt:sin_impl.obj
 0001:0006ba7b       __CIsin_default            1006ca7b f   libucrt:sin_impl.obj
 0001:0006ba8f       __sin_default              1006ca8f     libucrt:sin_impl.obj
 0001:0006bb30       _sqrt                      1006cb30 f   libucrt:sqrt.obj
 0001:0006bb40       __CItan                    1006cb40 f   libucrt:tan_impl.obj
 0001:0006bb7b       __CItan_default            1006cb7b f   libucrt:tan_impl.obj
 0001:0006bb8f       __tan_default              1006cb8f     libucrt:tan_impl.obj
 0001:0006bc26       __floor_default            1006cc26 f   libucrt:floor.obj
 0001:0006bce0       __CIacos_pentium4          1006cce0 f   libucrt:acos_pentium4.obj
 0001:0006bcf8       __acos_pentium4            1006ccf8     libucrt:acos_pentium4.obj
 0001:0006c240       __CIcos_pentium4           1006d240 f   libucrt:cos_pentium4.obj
 0001:0006c258       __cos_pentium4             1006d258     libucrt:cos_pentium4.obj
 0001:0006c3f0       __CIsin_pentium4           1006d3f0 f   libucrt:sin_pentium4.obj
 0001:0006c408       __sin_pentium4             1006d408     libucrt:sin_pentium4.obj
 0001:0006c5c0       __CIsqrt                   1006d5c0 f   libucrt:sqrt_impl.obj
 0001:0006c5d4       __sqrt_common              1006d5d4     libucrt:sqrt_impl.obj
 0001:0006c680       __CItan_pentium4           1006d680 f   libucrt:tan_pentium4.obj
 0001:0006c698       __tan_pentium4             1006d698     libucrt:tan_pentium4.obj
 0002:00000000       __imp__CreateCompatibleBitmap@12 10071000     gdi32:GDI32.dll
 0002:00000004       __imp__SelectObject@8      10071004     gdi32:GDI32.dll
 0002:00000008       __imp__CreateCompatibleDC@4 10071008     gdi32:GDI32.dll
 0002:0000000c       __imp__GetDeviceCaps@8     1007100c     gdi32:GDI32.dll
 0002:00000010       __imp__DeleteDC@4          10071010     gdi32:GDI32.dll
 0002:00000014       __imp__BitBlt@36           10071014     gdi32:GDI32.dll
 0002:00000018       \177GDI32_NULL_THUNK_DATA  10071018     gdi32:GDI32.dll
 0002:0000001c       __imp__GetPrivateProfileStringA@24 1007101c     kernel32:KERNEL32.dll
 0002:00000020       __imp__GetLastError@0      10071020     kernel32:KERNEL32.dll
 0002:00000024       __imp__CloseHandle@4       10071024     kernel32:KERNEL32.dll
 0002:00000028       __imp__CreateThread@24     10071028     kernel32:KERNEL32.dll
 0002:0000002c       __imp__IsBadCodePtr@4      1007102c     kernel32:KERNEL32.dll
 0002:00000030       __imp__HeapAlloc@12        10071030     kernel32:KERNEL32.dll
 0002:00000034       __imp__GetProcessHeap@0    10071034     kernel32:KERNEL32.dll
 0002:00000038       __imp__GetModuleFileNameA@12 10071038     kernel32:KERNEL32.dll
 0002:0000003c       __imp__SetConsoleTextAttribute@8 1007103c     kernel32:KERNEL32.dll
 0002:00000040       __imp__SetConsoleTitleA@4  10071040     kernel32:KERNEL32.dll
 0002:00000044       __imp__GetStdHandle@4      10071044     kernel32:KERNEL32.dll
 0002:00000048       __imp__DisableThreadLibraryCalls@4 10071048     kernel32:KERNEL32.dll
 0002:0000004c       __imp__lstrcpyA@8          1007104c     kernel32:KERNEL32.dll
 0002:00000050       __imp__IsBadReadPtr@8      10071050     kernel32:KERNEL32.dll
 0002:00000054       __imp__AllocConsole@0      10071054     kernel32:KERNEL32.dll
 0002:00000058       __imp__GetCurrentProcess@0 10071058     kernel32:KERNEL32.dll
 0002:0000005c       __imp__TerminateProcess@8  1007105c     kernel32:KERNEL32.dll
 0002:00000060       __imp__GetModuleHandleA@4  10071060     kernel32:KERNEL32.dll
 0002:00000064       __imp__FlushInstructionCache@12 10071064     kernel32:KERNEL32.dll
 0002:00000068       __imp__WritePrivateProfileStringA@16 10071068     kernel32:KERNEL32.dll
 0002:0000006c       __imp__WriteFile@20        1007106c     kernel32:KERNEL32.dll
 0002:00000070       __imp__CreateFileA@28      10071070     kernel32:KERNEL32.dll
 0002:00000074       __imp__GetLocalTime@4      10071074     kernel32:KERNEL32.dll
 0002:00000078       __imp__GlobalLock@4        10071078     kernel32:KERNEL32.dll
 0002:0000007c       __imp__GlobalUnlock@4      1007107c     kernel32:KERNEL32.dll
 0002:00000080       __imp__SetEndOfFile@4      10071080     kernel32:KERNEL32.dll
 0002:00000084       __imp__WriteConsoleW@20    10071084     kernel32:KERNEL32.dll
 0002:00000088       __imp__HeapSize@12         10071088     kernel32:KERNEL32.dll
 0002:0000008c       __imp__CreateFileW@28      1007108c     kernel32:KERNEL32.dll
 0002:00000090       __imp__SetStdHandle@8      10071090     kernel32:KERNEL32.dll
 0002:00000094       __imp__SetEnvironmentVariableW@8 10071094     kernel32:KERNEL32.dll
 0002:00000098       __imp__FreeEnvironmentStringsW@4 10071098     kernel32:KERNEL32.dll
 0002:0000009c       __imp__GetEnvironmentStringsW@0 1007109c     kernel32:KERNEL32.dll
 0002:000000a0       __imp__GetCommandLineW@0   100710a0     kernel32:KERNEL32.dll
 0002:000000a4       __imp__GetCommandLineA@0   100710a4     kernel32:KERNEL32.dll
 0002:000000a8       __imp__GetOEMCP@0          100710a8     kernel32:KERNEL32.dll
 0002:000000ac       __imp__GetACP@0            100710ac     kernel32:KERNEL32.dll
 0002:000000b0       __imp__IsValidCodePage@4   100710b0     kernel32:KERNEL32.dll
 0002:000000b4       __imp__FindNextFileW@8     100710b4     kernel32:KERNEL32.dll
 0002:000000b8       __imp__FindFirstFileExW@24 100710b8     kernel32:KERNEL32.dll
 0002:000000bc       __imp__VirtualProtect@16   100710bc     kernel32:KERNEL32.dll
 0002:000000c0       __imp__Sleep@4             100710c0     kernel32:KERNEL32.dll
 0002:000000c4       __imp__MultiByteToWideChar@24 100710c4     kernel32:KERNEL32.dll
 0002:000000c8       __imp__GetTickCount@0      100710c8     kernel32:KERNEL32.dll
 0002:000000cc       __imp__GetProcAddress@8    100710cc     kernel32:KERNEL32.dll
 0002:000000d0       __imp__lstrcmpA@8          100710d0     kernel32:KERNEL32.dll
 0002:000000d4       __imp__FindClose@4         100710d4     kernel32:KERNEL32.dll
 0002:000000d8       __imp__HeapReAlloc@16      100710d8     kernel32:KERNEL32.dll
 0002:000000dc       __imp__GetTimeZoneInformation@4 100710dc     kernel32:KERNEL32.dll
 0002:000000e0       __imp__ReadConsoleW@20     100710e0     kernel32:KERNEL32.dll
 0002:000000e4       __imp__ReadFile@20         100710e4     kernel32:KERNEL32.dll
 0002:000000e8       __imp__GetConsoleMode@8    100710e8     kernel32:KERNEL32.dll
 0002:000000ec       __imp__GetConsoleOutputCP@0 100710ec     kernel32:KERNEL32.dll
 0002:000000f0       __imp__FlushFileBuffers@4  100710f0     kernel32:KERNEL32.dll
 0002:000000f4       __imp__SetFilePointerEx@20 100710f4     kernel32:KERNEL32.dll
 0002:000000f8       __imp__GetFileSizeEx@8     100710f8     kernel32:KERNEL32.dll
 0002:000000fc       __imp__GetFileAttributesExW@12 100710fc     kernel32:KERNEL32.dll
 0002:00000100       __imp__EnumSystemLocalesW@8 10071100     kernel32:KERNEL32.dll
 0002:00000104       __imp__GetUserDefaultLCID@0 10071104     kernel32:KERNEL32.dll
 0002:00000108       __imp__IsValidLocale@8     10071108     kernel32:KERNEL32.dll
 0002:0000010c       __imp__GetLocaleInfoW@16   1007110c     kernel32:KERNEL32.dll
 0002:00000110       __imp__LCMapStringW@24     10071110     kernel32:KERNEL32.dll
 0002:00000114       __imp__CompareStringW@24   10071114     kernel32:KERNEL32.dll
 0002:00000118       __imp__GetFileType@4       10071118     kernel32:KERNEL32.dll
 0002:0000011c       __imp__HeapFree@12         1007111c     kernel32:KERNEL32.dll
 0002:00000120       __imp__GetModuleFileNameW@12 10071120     kernel32:KERNEL32.dll
 0002:00000124       __imp__SetLastError@4      10071124     kernel32:KERNEL32.dll
 0002:00000128       __imp__FreeLibrary@4       10071128     kernel32:KERNEL32.dll
 0002:0000012c       __imp__LocalFree@4         1007112c     kernel32:KERNEL32.dll
 0002:00000130       __imp__FormatMessageA@28   10071130     kernel32:KERNEL32.dll
 0002:00000134       __imp__RaiseException@16   10071134     kernel32:KERNEL32.dll
 0002:00000138       __imp__WideCharToMultiByte@32 10071138     kernel32:KERNEL32.dll
 0002:0000013c       __imp__EnterCriticalSection@4 1007113c     kernel32:KERNEL32.dll
 0002:00000140       __imp__LeaveCriticalSection@4 10071140     kernel32:KERNEL32.dll
 0002:00000144       __imp__InitializeCriticalSectionEx@12 10071144     kernel32:KERNEL32.dll
 0002:00000148       __imp__DeleteCriticalSection@4 10071148     kernel32:KERNEL32.dll
 0002:0000014c       __imp__EncodePointer@4     1007114c     kernel32:KERNEL32.dll
 0002:00000150       __imp__DecodePointer@4     10071150     kernel32:KERNEL32.dll
 0002:00000154       __imp__LCMapStringEx@36    10071154     kernel32:KERNEL32.dll
 0002:00000158       __imp__GetStringTypeW@16   10071158     kernel32:KERNEL32.dll
 0002:0000015c       __imp__GetCPInfo@8         1007115c     kernel32:KERNEL32.dll
 0002:00000160       __imp__InitializeCriticalSectionAndSpinCount@8 10071160     kernel32:KERNEL32.dll
 0002:00000164       __imp__SetEvent@4          10071164     kernel32:KERNEL32.dll
 0002:00000168       __imp__ResetEvent@4        10071168     kernel32:KERNEL32.dll
 0002:0000016c       __imp__WaitForSingleObjectEx@12 1007116c     kernel32:KERNEL32.dll
 0002:00000170       __imp__CreateEventW@16     10071170     kernel32:KERNEL32.dll
 0002:00000174       __imp__GetModuleHandleW@4  10071174     kernel32:KERNEL32.dll
 0002:00000178       __imp__UnhandledExceptionFilter@4 10071178     kernel32:KERNEL32.dll
 0002:0000017c       __imp__SetUnhandledExceptionFilter@4 1007117c     kernel32:KERNEL32.dll
 0002:00000180       __imp__IsProcessorFeaturePresent@4 10071180     kernel32:KERNEL32.dll
 0002:00000184       __imp__IsDebuggerPresent@0 10071184     kernel32:KERNEL32.dll
 0002:00000188       __imp__GetStartupInfoW@4   10071188     kernel32:KERNEL32.dll
 0002:0000018c       __imp__QueryPerformanceCounter@4 1007118c     kernel32:KERNEL32.dll
 0002:00000190       __imp__GetCurrentProcessId@0 10071190     kernel32:KERNEL32.dll
 0002:00000194       __imp__GetCurrentThreadId@0 10071194     kernel32:KERNEL32.dll
 0002:00000198       __imp__GetSystemTimeAsFileTime@4 10071198     kernel32:KERNEL32.dll
 0002:0000019c       __imp__InitializeSListHead@4 1007119c     kernel32:KERNEL32.dll
 0002:000001a0       __imp__RtlUnwind@16        100711a0     kernel32:KERNEL32.dll
 0002:000001a4       __imp__InterlockedFlushSList@4 100711a4     kernel32:KERNEL32.dll
 0002:000001a8       __imp__TlsAlloc@0          100711a8     kernel32:KERNEL32.dll
 0002:000001ac       __imp__TlsGetValue@4       100711ac     kernel32:KERNEL32.dll
 0002:000001b0       __imp__TlsSetValue@8       100711b0     kernel32:KERNEL32.dll
 0002:000001b4       __imp__TlsFree@4           100711b4     kernel32:KERNEL32.dll
 0002:000001b8       __imp__LoadLibraryExW@12   100711b8     kernel32:KERNEL32.dll
 0002:000001bc       __imp__ExitProcess@4       100711bc     kernel32:KERNEL32.dll
 0002:000001c0       __imp__GetModuleHandleExW@12 100711c0     kernel32:KERNEL32.dll
 0002:000001c4       \177KERNEL32_NULL_THUNK_DATA 100711c4     kernel32:KERNEL32.dll
 0002:000001c8       __imp__OleCreatePictureIndirect@16 100711c8     oleaut32:OLEAUT32.dll
 0002:000001cc       \177OLEAUT32_NULL_THUNK_DATA 100711cc     oleaut32:OLEAUT32.dll
 0002:000001d0       __imp__glGetFloatv@8       100711d0     OpenGL32:OPENGL32.dll
 0002:000001d4       __imp__glClearColor@16     100711d4     OpenGL32:OPENGL32.dll
 0002:000001d8       __imp__glMatrixMode@4      100711d8     OpenGL32:OPENGL32.dll
 0002:000001dc       __imp__glPushMatrix@0      100711dc     OpenGL32:OPENGL32.dll
 0002:000001e0       __imp__glDisable@4         100711e0     OpenGL32:OPENGL32.dll
 0002:000001e4       __imp__glColor4ub@16       100711e4     OpenGL32:OPENGL32.dll
 0002:000001e8       __imp__glOrtho@48          100711e8     OpenGL32:OPENGL32.dll
 0002:000001ec       __imp__glBegin@4           100711ec     OpenGL32:OPENGL32.dll
 0002:000001f0       __imp__glLoadIdentity@0    100711f0     OpenGL32:OPENGL32.dll
 0002:000001f4       __imp__glBlendFunc@8       100711f4     OpenGL32:OPENGL32.dll
 0002:000001f8       __imp__glEnd@0             100711f8     OpenGL32:OPENGL32.dll
 0002:000001fc       __imp__glEnable@4          100711fc     OpenGL32:OPENGL32.dll
 0002:00000200       __imp__glPopMatrix@0       10071200     OpenGL32:OPENGL32.dll
 0002:00000204       __imp__glDepthFunc@4       10071204     OpenGL32:OPENGL32.dll
 0002:00000208       __imp__glBindTexture@8     10071208     OpenGL32:OPENGL32.dll
 0002:0000020c       __imp__glVertex2i@8        1007120c     OpenGL32:OPENGL32.dll
 0002:00000210       \177OPENGL32_NULL_THUNK_DATA 10071210     OpenGL32:OPENGL32.dll
 0002:00000214       __imp__SHGetFolderPathA@20 10071214     shell32:SHELL32.dll
 0002:00000218       \177SHELL32_NULL_THUNK_DATA 10071218     shell32:SHELL32.dll
 0002:0000021c       __imp__SetWindowLongA@12   1007121c     user32:USER32.dll
 0002:00000220       __imp__mouse_event@20      10071220     user32:USER32.dll
 0002:00000224       __imp__GetWindowRect@8     10071224     user32:USER32.dll
 0002:00000228       __imp__GetDC@4             10071228     user32:USER32.dll
 0002:0000022c       __imp__MessageBoxA@16      1007122c     user32:USER32.dll
 0002:00000230       __imp__GetSystemMenu@8     10071230     user32:USER32.dll
 0002:00000234       __imp__DeleteMenu@12       10071234     user32:USER32.dll
 0002:00000238       __imp__GetAsyncKeyState@4  10071238     user32:USER32.dll
 0002:0000023c       __imp__CallWindowProcA@20  1007123c     user32:USER32.dll
 0002:00000240       __imp__FindWindowA@8       10071240     user32:USER32.dll
 0002:00000244       __imp__GetKeyNameTextA@12  10071244     user32:USER32.dll
 0002:00000248       __imp__MapVirtualKeyA@8    10071248     user32:USER32.dll
 0002:0000024c       __imp__SendInput@12        1007124c     user32:USER32.dll
 0002:00000250       \177USER32_NULL_THUNK_DATA 10071250     user32:USER32.dll
 0002:00000254       __imp__GetHGlobalFromStream@8 10071254     ole32:ole32.dll
 0002:00000258       __imp__CreateStreamOnHGlobal@12 10071258     ole32:ole32.dll
 0002:0000025c       \177ole32_NULL_THUNK_DATA  1007125c     ole32:ole32.dll
 0002:00000260       ___guard_check_icall_fptr  10071260     LIBCMT:guard_support.obj
 0002:00000264       ___xc_a                    10071264     LIBCMT:initializers.obj
 0002:000002c0       ___xc_z                    100712c0     LIBCMT:initializers.obj
 0002:000002c4       ___xi_a                    100712c4     LIBCMT:initializers.obj
 0002:000002cc       ___acrt_stdio_initializer  100712cc     libucrt:stdio_initializer.obj
 0002:000002d0       ___acrt_timeset_initializer 100712d0     libucrt:timeset_initializer.obj
 0002:000002d4       ___acrt_tran_sse2_initializer 100712d4     libucrt:sse2_initializer.obj
 0002:000002d8       ___acrt_multibyte_initializer 100712d8     libucrt:multibyte_initializer.obj
 0002:000002dc       ___acrt_fmode_initializer  100712dc     libucrt:fmode_initializer.obj
 0002:000002e0       ___xi_z                    100712e0     LIBCMT:initializers.obj
 0002:000002e4       ___xl_a                    100712e4     LIBCMT:tlssup.obj
 0002:000002e8       ___xl_z                    100712e8     LIBCMT:tlssup.obj
 0002:000002ec       ___xp_a                    100712ec     LIBCMT:initializers.obj
 0002:000002f0       ___acrt_locale_terminator  100712f0     libucrt:locale_initializer.obj
 0002:000002f4       ___dcrt_console_output_terminator 100712f4     libucrt:console_output_initializer.obj
 0002:000002f8       ___acrt_stdio_terminator   100712f8     libucrt:stdio_initializer.obj
 0002:000002fc       ___xp_z                    100712fc     LIBCMT:initializers.obj
 0002:00000300       ___xt_a                    10071300     LIBCMT:initializers.obj
 0002:00000304       ___xt_z                    10071304     LIBCMT:initializers.obj
 0002:00000310       _IID_IPicture              10071310     uuid:ocidl_i.obj
 0002:00000320       ?s_rbModRm@CDetourDis@@1QBEB 10071320     detours:disasm.obj
 0002:00000420       ?s_rceCopyTable@CDetourDis@@1QBUCOPYENTRY@1@B 10071420     detours:disasm.obj
 0002:00000c28       ?s_rceCopyTable0F@CDetourDis@@1QBUCOPYENTRY@1@B 10071c28     detours:disasm.obj
 0002:00001434       ??_7exception@std@@6B@     10072434     libcpmt:xthrow.obj
 0002:00001440       ??_7bad_alloc@std@@6B@     10072440     libcpmt:xthrow.obj
 0002:00001448       ??_C@_0P@GHFPNOJB@bad?5allocation@ 10072448     libcpmt:xthrow.obj
 0002:0000145c       ??_7logic_error@std@@6B@   1007245c     libcpmt:xthrow.obj
 0002:00001468       ??_7length_error@std@@6B@  10072468     libcpmt:xthrow.obj
 0002:00001474       ??_7out_of_range@std@@6B@  10072474     libcpmt:xthrow.obj
 0002:00001480       ??_7runtime_error@std@@6B@ 10072480     libcpmt:xthrow.obj
 0002:00001a70       ??_C@_0BN@LKKBCCDB@address?5family?5not?5supported@ 10072a70     libcpmt:syserror.obj
 0002:00001a90       ??_C@_0P@LDMLAFHI@address?5in?5use@ 10072a90     libcpmt:syserror.obj
 0002:00001aa0       ??_C@_0BG@DHPCNBJB@address?5not?5available@ 10072aa0     libcpmt:syserror.obj
 0002:00001ab8       ??_C@_0BC@DFIBIBIL@already?5connected@ 10072ab8     libcpmt:syserror.obj
 0002:00001acc       ??_C@_0BH@CAKOHOMI@argument?5list?5too?5long@ 10072acc     libcpmt:syserror.obj
 0002:00001ae4       ??_C@_0BH@CGIMPKIM@argument?5out?5of?5domain@ 10072ae4     libcpmt:syserror.obj
 0002:00001afc       ??_C@_0M@KGHGGJGL@bad?5address@ 10072afc     libcpmt:syserror.obj
 0002:00001b08       ??_C@_0BE@MPJPGCEO@bad?5file?5descriptor@ 10072b08     libcpmt:syserror.obj
 0002:00001b1c       ??_C@_0M@PMMIEFCP@bad?5message@ 10072b1c     libcpmt:syserror.obj
 0002:00001b28       ??_C@_0M@KPHOFDBE@broken?5pipe@ 10072b28     libcpmt:syserror.obj
 0002:00001b34       ??_C@_0BD@MGNDDEGM@connection?5aborted@ 10072b34     libcpmt:syserror.obj
 0002:00001b48       ??_C@_0BP@KAIHPOGN@connection?5already?5in?5progress@ 10072b48     libcpmt:syserror.obj
 0002:00001b68       ??_C@_0BD@PJLIIJEL@connection?5refused@ 10072b68     libcpmt:syserror.obj
 0002:00001b7c       ??_C@_0BB@IECNJNOI@connection?5reset@ 10072b7c     libcpmt:syserror.obj
 0002:00001b90       ??_C@_0BC@PPHBOELF@cross?5device?5link@ 10072b90     libcpmt:syserror.obj
 0002:00001ba4       ??_C@_0BN@KDMIFEIP@destination?5address?5required@ 10072ba4     libcpmt:syserror.obj
 0002:00001bc4       ??_C@_0BI@NGCEHDD@device?5or?5resource?5busy@ 10072bc4     libcpmt:syserror.obj
 0002:00001bdc       ??_C@_0BE@JIDOCPHM@directory?5not?5empty@ 10072bdc     libcpmt:syserror.obj
 0002:00001bf0       ??_C@_0BI@BNCLIGPB@executable?5format?5error@ 10072bf0     libcpmt:syserror.obj
 0002:00001c08       ??_C@_0M@MIDIAGJP@file?5exists@ 10072c08     libcpmt:syserror.obj
 0002:00001c14       ??_C@_0P@DNAJLBJK@file?5too?5large@ 10072c14     libcpmt:syserror.obj
 0002:00001c24       ??_C@_0BC@EJHOMAAK@filename?5too?5long@ 10072c24     libcpmt:syserror.obj
 0002:00001c38       ??_C@_0BH@KEFGLDAF@function?5not?5supported@ 10072c38     libcpmt:syserror.obj
 0002:00001c50       ??_C@_0BB@DHFDFGDM@host?5unreachable@ 10072c50     libcpmt:syserror.obj
 0002:00001c64       ??_C@_0BD@JPHBMONG@identifier?5removed@ 10072c64     libcpmt:syserror.obj
 0002:00001c78       ??_C@_0BG@CDNPAGJK@illegal?5byte?5sequence@ 10072c78     libcpmt:syserror.obj
 0002:00001c90       ??_C@_0CD@BNPLBMNA@inappropriate?5io?5control?5operat@ 10072c90     libcpmt:syserror.obj
 0002:00001cb4       ??_C@_0M@EGEKIIMP@interrupted@ 10072cb4     libcpmt:syserror.obj
 0002:00001cc0       ??_C@_0BB@FCMFBGOM@invalid?5argument@ 10072cc0     libcpmt:syserror.obj
 0002:00001cd4       ??_C@_0N@OHAFKDEK@invalid?5seek@ 10072cd4     libcpmt:syserror.obj
 0002:00001ce4       ??_C@_08GLNPIFBN@io?5error@ 10072ce4     libcpmt:syserror.obj
 0002:00001cf0       ??_C@_0P@FLLDBIDK@is?5a?5directory@ 10072cf0     libcpmt:syserror.obj
 0002:00001d00       ??_C@_0N@IFLPBIOP@message?5size@ 10072d00     libcpmt:syserror.obj
 0002:00001d10       ??_C@_0N@KIIEAAIO@network?5down@ 10072d10     libcpmt:syserror.obj
 0002:00001d20       ??_C@_0O@FNPDBHEE@network?5reset@ 10072d20     libcpmt:syserror.obj
 0002:00001d30       ??_C@_0BE@IFNCKGE@network?5unreachable@ 10072d30     libcpmt:syserror.obj
 0002:00001d44       ??_C@_0BA@PFFCAOFK@no?5buffer?5space@ 10072d44     libcpmt:syserror.obj
 0002:00001d54       ??_C@_0BB@IEPBLJHK@no?5child?5process@ 10072d54     libcpmt:syserror.obj
 0002:00001d68       ??_C@_07PLECNNKG@no?5link@ 10072d68     libcpmt:syserror.obj
 0002:00001d70       ??_C@_0BC@NJECKMKE@no?5lock?5available@ 10072d70     libcpmt:syserror.obj
 0002:00001d84       ??_C@_0BF@PBGGPKKE@no?5message?5available@ 10072d84     libcpmt:syserror.obj
 0002:00001d9c       ??_C@_0L@EDOLMPAK@no?5message@ 10072d9c     libcpmt:syserror.obj
 0002:00001da8       ??_C@_0BD@EAMBFIDF@no?5protocol?5option@ 10072da8     libcpmt:syserror.obj
 0002:00001dbc       ??_C@_0BD@IJDJKDEA@no?5space?5on?5device@ 10072dbc     libcpmt:syserror.obj
 0002:00001dd0       ??_C@_0BE@MKFDAFMP@no?5stream?5resources@ 10072dd0     libcpmt:syserror.obj
 0002:00001de4       ??_C@_0BK@IMCPHCBI@no?5such?5device?5or?5address@ 10072de4     libcpmt:syserror.obj
 0002:00001e00       ??_C@_0P@FDINDDOK@no?5such?5device@ 10072e00     libcpmt:syserror.obj
 0002:00001e10       ??_C@_0BK@NDOCBPGE@no?5such?5file?5or?5directory@ 10072e10     libcpmt:syserror.obj
 0002:00001e2c       ??_C@_0BA@ENLPPKBN@no?5such?5process@ 10072e2c     libcpmt:syserror.obj
 0002:00001e3c       ??_C@_0BA@DOCPFFJG@not?5a?5directory@ 10072e3c     libcpmt:syserror.obj
 0002:00001e4c       ??_C@_0N@POEIPGGF@not?5a?5socket@ 10072e4c     libcpmt:syserror.obj
 0002:00001e5c       ??_C@_0N@LGAPMMPI@not?5a?5stream@ 10072e5c     libcpmt:syserror.obj
 0002:00001e6c       ??_C@_0O@GLMIBBEG@not?5connected@ 10072e6c     libcpmt:syserror.obj
 0002:00001e7c       ??_C@_0BC@ENOOLCNF@not?5enough?5memory@ 10072e7c     libcpmt:syserror.obj
 0002:00001e90       ??_C@_0O@NHEDABJP@not?5supported@ 10072e90     libcpmt:syserror.obj
 0002:00001ea0       ??_C@_0BD@MOLBPMEA@operation?5canceled@ 10072ea0     libcpmt:syserror.obj
 0002:00001eb4       ??_C@_0BG@KDKHOPCO@operation?5in?5progress@ 10072eb4     libcpmt:syserror.obj
 0002:00001ecc       ??_C@_0BI@OHIEJAAB@operation?5not?5permitted@ 10072ecc     libcpmt:syserror.obj
 0002:00001ee4       ??_C@_0BI@LNEGIFLN@operation?5not?5supported@ 10072ee4     libcpmt:syserror.obj
 0002:00001efc       ??_C@_0BG@OEMDKMEE@operation?5would?5block@ 10072efc     libcpmt:syserror.obj
 0002:00001f14       ??_C@_0L@BLPOFLNJ@owner?5dead@ 10072f14     libcpmt:syserror.obj
 0002:00001f20       ??_C@_0BC@CIJDGCDI@permission?5denied@ 10072f20     libcpmt:syserror.obj
 0002:00001f34       ??_C@_0P@FNPOCJBE@protocol?5error@ 10072f34     libcpmt:syserror.obj
 0002:00001f44       ??_C@_0BH@JPPPLHJB@protocol?5not?5supported@ 10072f44     libcpmt:syserror.obj
 0002:00001f5c       ??_C@_0BG@EICBIHDP@read?5only?5file?5system@ 10072f5c     libcpmt:syserror.obj
 0002:00001f74       ??_C@_0BO@BJBOMOEJ@resource?5deadlock?5would?5occur@ 10072f74     libcpmt:syserror.obj
 0002:00001f94       ??_C@_0BP@LKNGHENJ@resource?5unavailable?5try?5again@ 10072f94     libcpmt:syserror.obj
 0002:00001fb4       ??_C@_0BE@GOIPJJHG@result?5out?5of?5range@ 10072fb4     libcpmt:syserror.obj
 0002:00001fc8       ??_C@_0BG@MPLKFPAE@state?5not?5recoverable@ 10072fc8     libcpmt:syserror.obj
 0002:00001fe0       ??_C@_0P@DIIFGFCG@stream?5timeout@ 10072fe0     libcpmt:syserror.obj
 0002:00001ff0       ??_C@_0P@IPFDMIFL@text?5file?5busy@ 10072ff0     libcpmt:syserror.obj
 0002:00002000       ??_C@_09KJPPMAOI@timed?5out@ 10073000     libcpmt:syserror.obj
 0002:0000200c       ??_C@_0BO@HACHBEKI@too?5many?5files?5open?5in?5system@ 1007300c     libcpmt:syserror.obj
 0002:0000202c       ??_C@_0BE@GHAFMPAH@too?5many?5files?5open@ 1007302c     libcpmt:syserror.obj
 0002:00002040       ??_C@_0P@HCOMKFCC@too?5many?5links@ 10073040     libcpmt:syserror.obj
 0002:00002050       ??_C@_0BO@EFGOJEF@too?5many?5symbolic?5link?5levels@ 10073050     libcpmt:syserror.obj
 0002:00002070       ??_C@_0BA@KGKGOOJA@value?5too?5large@ 10073070     libcpmt:syserror.obj
 0002:00002080       ??_C@_0BE@MIEJDDNH@wrong?5protocol?5type@ 10073080     libcpmt:syserror.obj
 0002:00002094       ??_C@_0O@BFJCFAAK@unknown?5error@ 10073094     libcpmt:syserror.obj
 0002:000020a8       ??_7_Facet_base@std@@6B@   100730a8     libcpmt:locale0.obj
 0002:000020b8       ??_7facet@locale@std@@6B@  100730b8     libcpmt:locale0.obj
 0002:000020c8       ??_7_Locimp@locale@std@@6B@ 100730c8     libcpmt:locale0.obj
 0002:000020d4       ??_C@_01NBENCBCI@?$CK@     100730d4     libcpmt:locale0.obj
 0002:000020d8       ??_C@_01GFHCPBMG@C@        100730d8     libcpmt:locale0.obj
 0002:000020e0       ?_BADOFF@std@@3_JB         100730e0     libcpmt:ios.obj
 0002:00002124       ??_C@_01KDCPPGHE@r@        10073124     libcpmt:fiopen.obj
 0002:00002128       ??_C@_01NOFIACDB@w@        10073128     libcpmt:fiopen.obj
 0002:0000212c       ??_C@_01MCMALHOG@a@        1007312c     libcpmt:fiopen.obj
 0002:00002130       ??_C@_02JDPG@rb@           10073130     libcpmt:fiopen.obj
 0002:00002134       ??_C@_02GMLFBBN@wb@        10073134     libcpmt:fiopen.obj
 0002:00002138       ??_C@_02BOGAIONP@ab@       10073138     libcpmt:fiopen.obj
 0002:0000213c       ??_C@_02CBLLGHLK@r?$CL@    1007313c     libcpmt:fiopen.obj
 0002:00002140       ??_C@_02CHHAKFFB@w?$CL@    10073140     libcpmt:fiopen.obj
 0002:00002144       ??_C@_02DPNLHKJD@a?$CL@    10073144     libcpmt:fiopen.obj
 0002:00002148       ??_C@_03HMFOOINA@r?$CLb@   10073148     libcpmt:fiopen.obj
 0002:0000214c       ??_C@_03ELIABIOC@w?$CLb@   1007314c     libcpmt:fiopen.obj
 0002:00002150       ??_C@_03DOPCBAKB@a?$CLb@   10073150     libcpmt:fiopen.obj
 0002:00002158       ??_7bad_exception@std@@6B@ 10073158     libcpmt:excptptr.obj
 0002:00002160       ??_C@_0O@DPKOEFFH@bad?5exception@ 10073160     libcpmt:excptptr.obj
 0002:000021b0       ??_7bad_array_new_length@std@@6B@ 100731b0     libcpmt:locale.obj
 0002:000021bc       ??_7bad_cast@std@@6B@      100731bc     libcpmt:locale.obj
 0002:000021c8       ??_7codecvt_base@std@@6B@  100731c8     libcpmt:locale.obj
 0002:000021e4       ??_7ctype_base@std@@6B@    100731e4     libcpmt:locale.obj
 0002:000021f4       ??_7?$ctype@D@std@@6B@     100731f4     libcpmt:locale.obj
 0002:00002224       ??_7?$num_put@DV?$ostreambuf_iterator@DU?$char_traits@D@std@@@std@@@std@@6B@ 10073224     libcpmt:locale.obj
 0002:00002254       ??_7?$numpunct@D@std@@6B@  10073254     libcpmt:locale.obj
 0002:00002278       ??_7?$codecvt@DDU_Mbstatet@@@std@@6B@ 10073278     libcpmt:locale.obj
 0002:000022a0       ??_C@_11LOCGONAA@@         100732a0     libcpmt:wlocale.obj
 0002:000022a4       ??_C@_13IMODFHAA@?$AA?9@   100732a4     libcpmt:wlocale.obj
 0002:000022a8       ??_C@_01JOAMLHOP@?9@       100732a8     libcpmt:wlocale.obj
 0002:00002350       ??_C@_1EC@JIJBPKFM@?$AAa?$AAp?$AAi?$AA?9?$AAm?$AAs?$AA?9?$AAw?$AAi?$AAn?$AA?9?$AAc?$AAo?$AAr?$AAe@ 10073350     LIBCMT:thread_safe_statics.obj
 0002:00002394       ??_C@_1BK@MGMFAEKH@?$AAk?$AAe?$AAr?$AAn?$AAe?$AAl?$AA3?$AA2?$AA?4?$AAd?$AAl?$AAl@ 10073394     LIBCMT:thread_safe_statics.obj
 0002:000023b0       ??_C@_0BJ@JEBJOJFJ@SleepConditionVariableCS@ 100733b0     LIBCMT:thread_safe_statics.obj
 0002:000023cc       ??_C@_0BJ@PGPPEPCC@WakeAllConditionVariable@ 100733cc     LIBCMT:thread_safe_statics.obj
 0002:000023ec       ??_7type_info@@6B@         100733ec     LIBCMT:std_type_info_static.obj
 0002:000023f8       __pDefaultRawDllMain       100733f8     LIBCMT:dll_dllmain.obj
 0002:000023f8       __pRawDllMain              100733f8     LIBCMT:dll_dllmain.obj
 0002:000023fc       __pDestructExceptionObject 100733fc     libvcruntime:ehhelpers.obj
 0002:00002780       ??_C@_08EHJDFFNH@__based?$CI@ 10073780     libvcruntime:undname.obj
 0002:0000278c       ??_C@_07KOLFKCDI@__cdecl@  1007378c     libvcruntime:undname.obj
 0002:00002794       ??_C@_08GHMPAG@__pascal@   10073794     libvcruntime:undname.obj
 0002:000027a0       ??_C@_09IFJBGAPI@__stdcall@ 100737a0     libvcruntime:undname.obj
 0002:000027ac       ??_C@_0L@NPHFGOKO@__thiscall@ 100737ac     libvcruntime:undname.obj
 0002:000027b8       ??_C@_0L@JMKHOMEK@__fastcall@ 100737b8     libvcruntime:undname.obj
 0002:000027c4       ??_C@_0N@BCKKPABJ@__vectorcall@ 100737c4     libvcruntime:undname.obj
 0002:000027d4       ??_C@_09HIJEGCPM@__clrcall@ 100737d4     libvcruntime:undname.obj
 0002:000027e0       ??_C@_06GHPCKEAG@__eabi@   100737e0     libvcruntime:undname.obj
 0002:000027e8       ??_C@_09IOPIDJLG@__swift_1@ 100737e8     libvcruntime:undname.obj
 0002:000027f4       ??_C@_09KFNFGKHF@__swift_2@ 100737f4     libvcruntime:undname.obj
 0002:00002800       ??_C@_07JOMMBBKO@__ptr64@  10073800     libvcruntime:undname.obj
 0002:00002808       ??_C@_0L@PILCLIHE@__restrict@ 10073808     libvcruntime:undname.obj
 0002:00002814       ??_C@_0M@GFIIJFMG@__unaligned@ 10073814     libvcruntime:undname.obj
 0002:00002820       ??_C@_09DHDLOLLB@restrict?$CI@ 10073820     libvcruntime:undname.obj
 0002:0000282c       ??_C@_04NIHEBCM@?5new@     1007382c     libvcruntime:undname.obj
 0002:00002834       ??_C@_07FPCDHGMM@?5delete@ 10073834     libvcruntime:undname.obj
 0002:0000283c       ??_C@_01NEMOKFLO@?$DN@     1007383c     libvcruntime:undname.obj
 0002:00002840       ??_C@_02GPIOPFAK@?$DO?$DO@ 10073840     libvcruntime:undname.obj
 0002:00002844       ??_C@_02FODMEDOG@?$DM?$DM@ 10073844     libvcruntime:undname.obj
 0002:00002848       ??_C@_01DCLJPIOD@?$CB@     10073848     libvcruntime:undname.obj
 0002:0000284c       ??_C@_02EGOFBIJA@?$DN?$DN@ 1007384c     libvcruntime:undname.obj
 0002:00002850       ??_C@_02FDNJECIE@?$CB?$DN@ 10073850     libvcruntime:undname.obj
 0002:00002854       ??_C@_02GPECMEKF@?$FL?$FN@ 10073854     libvcruntime:undname.obj
 0002:00002858       ??_C@_08LHJFAFGD@operator@ 10073858     libvcruntime:undname.obj
 0002:00002864       ??_C@_02HBOOOICD@?9?$DO@   10073864     libvcruntime:undname.obj
 0002:00002868       ??_C@_02ECNGHCIF@?$CL?$CL@ 10073868     libvcruntime:undname.obj
 0002:0000286c       ??_C@_02BAABKJLB@?9?9@     1007386c     libvcruntime:undname.obj
 0002:00002870       ??_C@_01MIFGBAGJ@?$CL@     10073870     libvcruntime:undname.obj
 0002:00002874       ??_C@_01HNPIGOCE@?$CG@     10073874     libvcruntime:undname.obj
 0002:00002878       ??_C@_03MNHNFDLC@?9?$DO?$CK@ 10073878     libvcruntime:undname.obj
 0002:0000287c       ??_C@_01KMDKNFGN@?1@       1007387c     libvcruntime:undname.obj
 0002:00002880       ??_C@_01FGNFDNOH@?$CF@     10073880     libvcruntime:undname.obj
 0002:00002884       ??_C@_01MNNFJEPP@?$DM@     10073884     libvcruntime:undname.obj
 0002:00002888       ??_C@_02EHCHHCKH@?$DM?$DN@ 10073888     libvcruntime:undname.obj
 0002:0000288c       ??_C@_01PPODPGHN@?$DO@     1007388c     libvcruntime:undname.obj
 0002:00002890       ??_C@_02EEKDKGMJ@?$DO?$DN@ 10073890     libvcruntime:undname.obj
 0002:00002894       ??_C@_01IHBHIGKO@?0@       10073894     libvcruntime:undname.obj
 0002:00002898       ??_C@_02HCKGKOFO@?$CI?$CJ@ 10073898     libvcruntime:undname.obj
 0002:0000289c       ??_C@_01PJKLJHI@?$HO@      1007389c     libvcruntime:undname.obj
 0002:000028a0       ??_C@_01JKBOJNNK@?$FO@     100738a0     libvcruntime:undname.obj
 0002:000028a4       ??_C@_01DNKMNLPK@?$HM@     100738a4     libvcruntime:undname.obj
 0002:000028a8       ??_C@_02PPKAJPJL@?$CG?$CG@ 100738a8     libvcruntime:undname.obj
 0002:000028ac       ??_C@_02NONPIBCD@?$HM?$HM@ 100738ac     libvcruntime:undname.obj
 0002:000028b0       ??_C@_02FPIMKNGF@?$CK?$DN@ 100738b0     libvcruntime:undname.obj
 0002:000028b4       ??_C@_02FOEOMHFC@?$CL?$DN@ 100738b4     libvcruntime:undname.obj
 0002:000028b8       ??_C@_02FKMDLLOA@?9?$DN@   100738b8     libvcruntime:undname.obj
 0002:000028bc       ??_C@_02FJEHGPIO@?1?$DN@   100738bc     libvcruntime:undname.obj
 0002:000028c0       ??_C@_02FENAOKFI@?$CF?$DN@ 100738c0     libvcruntime:undname.obj
 0002:000028c4       ??_C@_03IKFCCPFF@?$DO?$DO?$DN@ 100738c4     libvcruntime:undname.obj
 0002:000028c8       ??_C@_03CDNPDDLA@?$DM?$DM?$DN@ 100738c8     libvcruntime:undname.obj
 0002:000028cc       ??_C@_02FGJGFEAB@?$CG?$DN@ 100738cc     libvcruntime:undname.obj
 0002:000028d0       ??_C@_02DHLNPPGH@?$HM?$DN@ 100738d0     libvcruntime:undname.obj
 0002:000028d4       ??_C@_02MHEGNOJ@?$FO?$DN@  100738d4     libvcruntime:undname.obj
 0002:000028d8       ??_C@_09IFPLHPGF@?$GAvftable?8@ 100738d8     libvcruntime:undname.obj
 0002:000028e4       ??_C@_09BLBHBJP@?$GAvbtable?8@ 100738e4     libvcruntime:undname.obj
 0002:000028f0       ??_C@_07FEEIOKP@?$GAvcall?8@ 100738f0     libvcruntime:undname.obj
 0002:000028f8       ??_C@_08LLFFHHDJ@?$GAtypeof?8@ 100738f8     libvcruntime:undname.obj
 0002:00002904       ??_C@_0BF@KDPPACIK@?$GAlocal?5static?5guard?8@ 10073904     libvcruntime:undname.obj
 0002:0000291c       ??_C@_08OBABFOLI@?$GAstring?8@ 1007391c     libvcruntime:undname.obj
 0002:00002928       ??_C@_0BD@JDLKDPAB@?$GAvbase?5destructor?8@ 10073928     libvcruntime:undname.obj
 0002:0000293c       ??_C@_0BN@DEGPLNFK@?$GAvector?5deleting?5destructor?8@ 1007393c     libvcruntime:undname.obj
 0002:0000295c       ??_C@_0BO@OBMKPJIG@?$GAdefault?5constructor?5closure?8@ 1007395c     libvcruntime:undname.obj
 0002:0000297c       ??_C@_0BN@IMDCHIKM@?$GAscalar?5deleting?5destructor?8@ 1007397c     libvcruntime:undname.obj
 0002:0000299c       ??_C@_0BO@PFGOCPJJ@?$GAvector?5constructor?5iterator?8@ 1007399c     libvcruntime:undname.obj
 0002:000029bc       ??_C@_0BN@LFPFMEDL@?$GAvector?5destructor?5iterator?8@ 100739bc     libvcruntime:undname.obj
 0002:000029dc       ??_C@_0CE@IKBNEHA@?$GAvector?5vbase?5constructor?5itera@ 100739dc     libvcruntime:undname.obj
 0002:00002a00       ??_C@_0BL@NILFHHPC@?$GAvirtual?5displacement?5map?8@ 10073a00     libvcruntime:undname.obj
 0002:00002a1c       ??_C@_0CB@JONCMFFK@?$GAeh?5vector?5constructor?5iterator@ 10073a1c     libvcruntime:undname.obj
 0002:00002a40       ??_C@_0CA@GCEOPDGL@?$GAeh?5vector?5destructor?5iterator?8@ 10073a40     libvcruntime:undname.obj
 0002:00002a60       ??_C@_0CH@OOJPLCPH@?$GAeh?5vector?5vbase?5constructor?5it@ 10073a60     libvcruntime:undname.obj
 0002:00002a88       ??_C@_0BL@LLKPOHJI@?$GAcopy?5constructor?5closure?8@ 10073a88     libvcruntime:undname.obj
 0002:00002aa4       ??_C@_0BA@KBCDOMBN@?$GAudt?5returning?8@ 10073aa4     libvcruntime:undname.obj
 0002:00002ab4       ??_C@_03KLGMFNMG@?$GAEH@   10073ab4     libvcruntime:undname.obj
 0002:00002ab8       ??_C@_05KHLCHHI@?$GARTTI@  10073ab8     libvcruntime:undname.obj
 0002:00002ac0       ??_C@_0BA@KKLDJDLB@?$GAlocal?5vftable?8@ 10073ac0     libvcruntime:undname.obj
 0002:00002ad0       ??_C@_0CE@IIHCMGGL@?$GAlocal?5vftable?5constructor?5clos@ 10073ad0     libvcruntime:undname.obj
 0002:00002af4       ??_C@_06FHBGPFGH@?5new?$FL?$FN@ 10073af4     libvcruntime:undname.obj
 0002:00002afc       ??_C@_09LBNFPBCA@?5delete?$FL?$FN@ 10073afc     libvcruntime:undname.obj
 0002:00002b08       ??_C@_0P@HJKNJFNN@?$GAomni?5callsig?8@ 10073b08     libvcruntime:undname.obj
 0002:00002b18       ??_C@_0BL@CNOONJFP@?$GAplacement?5delete?5closure?8@ 10073b18     libvcruntime:undname.obj
 0002:00002b34       ??_C@_0BN@CKNJLHMB@?$GAplacement?5delete?$FL?$FN?5closure?8@ 10073b34     libvcruntime:undname.obj
 0002:00002b54       ??_C@_0CG@CFDHKGGD@?$GAmanaged?5vector?5constructor?5ite@ 10073b54     libvcruntime:undname.obj
 0002:00002b7c       ??_C@_0CF@IMGKMJNO@?$GAmanaged?5vector?5destructor?5iter@ 10073b7c     libvcruntime:undname.obj
 0002:00002ba4       ??_C@_0CG@HLDDJMAG@?$GAeh?5vector?5copy?5constructor?5ite@ 10073ba4     libvcruntime:undname.obj
 0002:00002bcc       ??_C@_0CM@FCBBDIGB@?$GAeh?5vector?5vbase?5copy?5construct@ 10073bcc     libvcruntime:undname.obj
 0002:00002bf8       ??_C@_0BL@CLIPGLGB@?$GAdynamic?5initializer?5for?5?8@ 10073bf8     libvcruntime:undname.obj
 0002:00002c14       ??_C@_0CB@PDBIFEP@?$GAdynamic?5atexit?5destructor?5for?5@ 10073c14     libvcruntime:undname.obj
 0002:00002c38       ??_C@_0CD@CGAJBKEJ@?$GAvector?5copy?5constructor?5iterat@ 10073c38     libvcruntime:undname.obj
 0002:00002c5c       ??_C@_0CJ@GJELGAMM@?$GAvector?5vbase?5copy?5constructor?5@ 10073c5c     libvcruntime:undname.obj
 0002:00002c88       ??_C@_0CL@FGIJHLCE@?$GAmanaged?5vector?5copy?5constructo@ 10073c88     libvcruntime:undname.obj
 0002:00002cb4       ??_C@_0BM@PMGGMLDN@?$GAlocal?5static?5thread?5guard?8@ 10073cb4     libvcruntime:undname.obj
 0002:00002cd0       ??_C@_0N@BDNMDMOL@operator?5?$CC?$CC?5@ 10073cd0     libvcruntime:undname.obj
 0002:00002ce0       ??_C@_0BC@GGEBGALA@operator?5co_await@ 10073ce0     libvcruntime:undname.obj
 0002:00002cf4       ??_C@_0M@GAAIMMOH@operator?$DM?$DN?$DO@ 10073cf4     libvcruntime:undname.obj
 0002:00002d00       ??_C@_0BC@DAFEJGAK@?5Type?5Descriptor?8@ 10073d00     libvcruntime:undname.obj
 0002:00002d14       ??_C@_0BM@LDKODKLH@?5Base?5Class?5Descriptor?5at?5?$CI@ 10073d14     libvcruntime:undname.obj
 0002:00002d30       ??_C@_0BD@LGICGFMM@?5Base?5Class?5Array?8@ 10073d30     libvcruntime:undname.obj
 0002:00002d44       ??_C@_0BN@MECKDCOJ@?5Class?5Hierarchy?5Descriptor?8@ 10073d44     libvcruntime:undname.obj
 0002:00002d64       ??_C@_0BK@CFCOFLF@?5Complete?5Object?5Locator?8@ 10073d64     libvcruntime:undname.obj
 0002:00002d80       ??_C@_0BG@JNJLAMPM@?$GAanonymous?5namespace?8@ 10073d80     libvcruntime:undname.obj
 0002:00002da4       ??_C@_1DM@KHCHBNEB@?$AAa?$AAp?$AAi?$AA?9?$AAm?$AAs?$AA?9?$AAw?$AAi?$AAn?$AA?9?$AAc?$AAo?$AAr?$AAe@ 10073da4     libvcruntime:winapi_downlevel.obj
 0002:00002de0       ??_C@_1DK@LPPGFMPP@?$AAa?$AAp?$AAi?$AA?9?$AAm?$AAs?$AA?9?$AAw?$AAi?$AAn?$AA?9?$AAc?$AAo?$AAr?$AAe@ 10073de0     libvcruntime:winapi_downlevel.obj
 0002:00002e1c       ??_C@_1BC@GDMECMAK@?$AAk?$AAe?$AAr?$AAn?$AAe?$AAl?$AA3?$AA2@ 10073e1c     libvcruntime:winapi_downlevel.obj
 0002:00002e30       ??_C@_1BA@PFFKHIOG@?$AAa?$AAp?$AAi?$AA?9?$AAm?$AAs?$AA?9@ 10073e30     libvcruntime:winapi_downlevel.obj
 0002:00002e48       ??_C@_08KNHFBNJ@FlsAlloc@  10073e48     libvcruntime:winapi_downlevel.obj
 0002:00002e5c       ??_C@_07PEJMOBNF@FlsFree@  10073e5c     libvcruntime:winapi_downlevel.obj
 0002:00002e6c       ??_C@_0M@GDNOONDI@FlsGetValue@ 10073e6c     libvcruntime:winapi_downlevel.obj
 0002:00002e80       ??_C@_0M@JCPCPOEF@FlsSetValue@ 10073e80     libvcruntime:winapi_downlevel.obj
 0002:00002e94       ??_C@_0BM@HCFOFFN@InitializeCriticalSectionEx@ 10073e94     libvcruntime:winapi_downlevel.obj
 0002:00002eb0       ??_C@_1BI@BGOHAHKC@?$AAm?$AAs?$AAc?$AAo?$AAr?$AAe?$AAe?$AA?4?$AAd?$AAl?$AAl@ 10073eb0     libucrt:exit.obj
 0002:00002ec8       ??_C@_0P@MIGLKIOC@CorExitProcess@ 10073ec8     libucrt:exit.obj
 0002:00002ed8       ?large_power_data@?1??multiply_by_power_of_ten@__crt_strtox@@YA_NAAUbig_integer@2@I@Z@4QBIB 10073ed8     libucrt:atof.obj
 0002:000037e0       ?large_power_indices@?1??multiply_by_power_of_ten@__crt_strtox@@YA_NAAUbig_integer@2@I@Z@4QBUunpack_index@?1??12@YA_N0I@Z@B 100747e0     libucrt:atof.obj
 0002:00003878       ?small_powers_of_ten@?1??multiply_by_power_of_ten@__crt_strtox@@YA_NAAUbig_integer@2@I@Z@4QBIB 10074878     libucrt:atof.obj
 0002:000038a0       ??_C@_1GE@DPGDJKLM@?$AAm?$AAi?$AAn?$AAk?$AAe?$AAr?$AAn?$AAe?$AAl?$AA?2?$AAc?$AAr?$AAt?$AAs?$AA?2@ 100748a0     libucrt:atof.obj
 0002:00003908       ??_C@_1FM@FELNCOBF@?$AA_?$AA_?$AAc?$AAr?$AAt?$AA_?$AAs?$AAt?$AAr?$AAt?$AAo?$AAx?$AA?3?$AA?3?$AAf@ 10074908     libucrt:atof.obj
 0002:00003964       ??_C@_1BG@GEMHBGAF@?$AA_?$AAi?$AAs?$AA_?$AAd?$AAo?$AAu?$AAb?$AAl?$AAe@ 10074964     libucrt:atof.obj
 0002:00003980       ??_C@_1FK@JOJELFFO@?$AA_?$AA_?$AAc?$AAr?$AAt?$AA_?$AAs?$AAt?$AAr?$AAt?$AAo?$AAx?$AA?3?$AA?3?$AAf@ 10074980     libucrt:atof.obj
 0002:000039dc       ??_C@_1BI@BANMPGJI@?$AA?$CB?$AA_?$AAi?$AAs?$AA_?$AAd?$AAo?$AAu?$AAb?$AAl?$AAe@ 100749dc     libucrt:atof.obj
 0002:000039f4       ?inf_uppercase@?1???$parse_floating_point_possible_infinity@DV?$c_string_character_source@D@__crt_strtox@@PBD@__crt_strtox@@YA?AW4floating_point_parse_result@1@AADAAV?$c_string_character_source@D@1@PBD@Z@4QBDB 100749f4     libucrt:atof.obj
 0002:000039f8       ?inf_lowercase@?1???$parse_floating_point_possible_infinity@DV?$c_string_character_source@D@__crt_strtox@@PBD@__crt_strtox@@YA?AW4floating_point_parse_result@1@AADAAV?$c_string_character_source@D@1@PBD@Z@4QBDB 100749f8     libucrt:atof.obj
 0002:000039fc       ?inity_uppercase@?1???$parse_floating_point_possible_infinity@DV?$c_string_character_source@D@__crt_strtox@@PBD@__crt_strtox@@YA?AW4floating_point_parse_result@1@AADAAV?$c_string_character_source@D@1@PBD@Z@4QBDB 100749fc     libucrt:atof.obj
 0002:00003a04       ?inity_lowercase@?1???$parse_floating_point_possible_infinity@DV?$c_string_character_source@D@__crt_strtox@@PBD@__crt_strtox@@YA?AW4floating_point_parse_result@1@AADAAV?$c_string_character_source@D@1@PBD@Z@4QBDB 10074a04     libucrt:atof.obj
 0002:00003a0c       ?uppercase@?1???$parse_floating_point_possible_nan@DV?$c_string_character_source@D@__crt_strtox@@PBD@__crt_strtox@@YA?AW4floating_point_parse_result@1@AADAAV?$c_string_character_source@D@1@PBD@Z@4QBDB 10074a0c     libucrt:atof.obj
 0002:00003a10       ?lowercase@?1???$parse_floating_point_possible_nan@DV?$c_string_character_source@D@__crt_strtox@@PBD@__crt_strtox@@YA?AW4floating_point_parse_result@1@AADAAV?$c_string_character_source@D@1@PBD@Z@4QBDB 10074a10     libucrt:atof.obj
 0002:00003a14       ?uppercase@?1???$parse_floating_point_possible_nan_is_snan@DV?$c_string_character_source@D@__crt_strtox@@@__crt_strtox@@YA_NAADAAV?$c_string_character_source@D@1@@Z@4QBDB 10074a14     libucrt:atof.obj
 0002:00003a1c       ?lowercase@?1???$parse_floating_point_possible_nan_is_snan@DV?$c_string_character_source@D@__crt_strtox@@@__crt_strtox@@YA_NAADAAV?$c_string_character_source@D@1@@Z@4QBDB 10074a1c     libucrt:atof.obj
 0002:00003a24       ?uppercase@?1???$parse_floating_point_possible_nan_is_ind@DV?$c_string_character_source@D@__crt_strtox@@@__crt_strtox@@YA_NAADAAV?$c_string_character_source@D@1@@Z@4QBDB 10074a24     libucrt:atof.obj
 0002:00003a28       ?lowercase@?1???$parse_floating_point_possible_nan_is_ind@DV?$c_string_character_source@D@__crt_strtox@@@__crt_strtox@@YA_NAADAAV?$c_string_character_source@D@1@@Z@4QBDB 10074a28     libucrt:atof.obj
 0002:00003a30       ?standard_lookup_table_spectre@__crt_stdio_output@@3V?$spectre_mitigated_lookup_table@Ustate_transition_pair@__crt_stdio_output@@$0IA@@1@B 10074a30     libucrt:output.obj
 0002:00003b30       ?format_validation_lookup_table_spectre@__crt_stdio_output@@3V?$spectre_mitigated_lookup_table@Ustate_transition_pair@__crt_stdio_output@@$0IA@@1@B 10074b30     libucrt:output.obj
 0002:00003c30       ??_C@_1O@CEDCILHN@?$AA?$CI?$AAn?$AAu?$AAl?$AAl?$AA?$CJ@ 10074c30     libucrt:output.obj
 0002:00003c40       ??_C@_06OJHGLDPL@?$CInull?$CJ@ 10074c40     libucrt:output.obj
 0002:00003c48       __real@8000000000000000    10074c48     libucrt:frexp.obj
 0002:00003c50       ___newctype                10074c50     libucrt:ctype.obj
 0002:00003f50       ___newclmap                10074f50     libucrt:ctype.obj
 0002:000040d0       ___newcumap                100750d0     libucrt:ctype.obj
 0002:00004250       __wctype                   10075250     libucrt:ctype.obj
 0002:000045c4       __half                     100755c4     libucrt:pow_impl.obj
 0002:000045d0       ___acrt_exception_action_table 100755d0     libucrt:exception_filter.obj
 0002:00004660       ___acrt_signal_action_table_count 10075660     libucrt:exception_filter.obj
 0002:00004664       ___acrt_signal_action_first_fpe_index 10075664     libucrt:exception_filter.obj
 0002:00004668       ___acrt_signal_action_fpe_count 10075668     libucrt:exception_filter.obj
 0002:00004770       ___lc_category             10075770     libucrt:wsetlocale.obj
 0002:000047b8       ??_C@_1O@GIFLHMA@?$AAL?$AAC?$AA_?$AAA?$AAL?$AAL@ 100757b8     libucrt:wsetlocale.obj
 0002:000047c8       ??_C@_1BG@PPOMIBNJ@?$AAL?$AAC?$AA_?$AAC?$AAO?$AAL?$AAL?$AAA?$AAT?$AAE@ 100757c8     libucrt:wsetlocale.obj
 0002:000047e0       ??_C@_1BC@FFJGAPJM@?$AAL?$AAC?$AA_?$AAC?$AAT?$AAY?$AAP?$AAE@ 100757e0     libucrt:wsetlocale.obj
 0002:000047f4       ??_C@_1BI@PCKFNJFB@?$AAL?$AAC?$AA_?$AAM?$AAO?$AAN?$AAE?$AAT?$AAA?$AAR?$AAY@ 100757f4     libucrt:wsetlocale.obj
 0002:0000480c       ??_C@_1BG@ENIEDKID@?$AAL?$AAC?$AA_?$AAN?$AAU?$AAM?$AAE?$AAR?$AAI?$AAC@ 1007580c     libucrt:wsetlocale.obj
 0002:00004824       ??_C@_1BA@HAAOMIIG@?$AAL?$AAC?$AA_?$AAT?$AAI?$AAM?$AAE@ 10075824     libucrt:wsetlocale.obj
 0002:00004834       ??_C@_15NBPDDFIP@?$AA?$DN?$AA?$DL@ 10075834     libucrt:wsetlocale.obj
 0002:0000483c       ??_C@_13PJJBFPED@?$AA?$DL@ 1007583c     libucrt:wsetlocale.obj
 0002:00004840       ??_C@_13NMPKAAJP@?$AA?$DN@ 10075840     libucrt:wsetlocale.obj
 0002:00004844       ??_C@_17EFJLDFDO@?$AA?9?$AA_?$AA?4@ 10075844     libucrt:wsetlocale.obj
 0002:0000484c       ??_C@_13FHBKNHDA@?$AAC@    1007584c     libucrt:wsetlocale.obj
 0002:00004850       ??_C@_17MBJJLFDM@?$AA_?$AA?4?$AA?0@ 10075850     libucrt:wsetlocale.obj
 0002:00004858       ??_C@_13ENNFDPBH@?$AA_@    10075858     libucrt:wsetlocale.obj
 0002:0000485c       ??_C@_13JOFGPIOO@?$AA?4@   1007585c     libucrt:wsetlocale.obj
 0002:00004860       ___lc_time_c               10075860     libucrt:nlsdata.obj
 0002:000049c4       ??_C@_03KOEHGMDN@Sun@      100759c4     libucrt:nlsdata.obj
 0002:000049c8       ??_C@_03PDAGKDH@Mon@       100759c8     libucrt:nlsdata.obj
 0002:000049cc       ??_C@_03NAGEINEP@Tue@      100759cc     libucrt:nlsdata.obj
 0002:000049d0       ??_C@_03MHOMLAJA@Wed@      100759d0     libucrt:nlsdata.obj
 0002:000049d4       ??_C@_03IOFIKPDN@Thu@      100759d4     libucrt:nlsdata.obj
 0002:000049d8       ??_C@_03IDIOELNC@Fri@      100759d8     libucrt:nlsdata.obj
 0002:000049dc       ??_C@_03FEFJNEK@Sat@       100759dc     libucrt:nlsdata.obj
 0002:000049e0       ??_C@_06OOPIFAJ@Sunday@    100759e0     libucrt:nlsdata.obj
 0002:000049e8       ??_C@_06JLEDEDGH@Monday@   100759e8     libucrt:nlsdata.obj
 0002:000049f0       ??_C@_07BAAGCFCM@Tuesday@  100759f0     libucrt:nlsdata.obj
 0002:000049f8       ??_C@_09DLIGFAKA@Wednesday@ 100759f8     libucrt:nlsdata.obj
 0002:00004a04       ??_C@_08HACCIKIA@Thursday@ 10075a04     libucrt:nlsdata.obj
 0002:00004a10       ??_C@_06JECMNKMI@Friday@   10075a10     libucrt:nlsdata.obj
 0002:00004a18       ??_C@_08INBOOONO@Saturday@ 10075a18     libucrt:nlsdata.obj
 0002:00004a24       ??_C@_03JIHJHPIE@Jan@      10075a24     libucrt:nlsdata.obj
 0002:00004a28       ??_C@_03HJBDCHOM@Feb@      10075a28     libucrt:nlsdata.obj
 0002:00004a2c       ??_C@_03ODNJBKGA@Mar@      10075a2c     libucrt:nlsdata.obj
 0002:00004a30       ??_C@_03LEOLGMJP@Apr@      10075a30     libucrt:nlsdata.obj
 0002:00004a34       ??_C@_03CNMDKL@May@        10075a34     libucrt:nlsdata.obj
 0002:00004a38       ??_C@_03IDFGHECI@Jun@      10075a38     libucrt:nlsdata.obj
 0002:00004a3c       ??_C@_03LBGABGKK@Jul@      10075a3c     libucrt:nlsdata.obj
 0002:00004a40       ??_C@_03IFJFEIGA@Aug@      10075a40     libucrt:nlsdata.obj
 0002:00004a44       ??_C@_03GGCAPAJC@Sep@      10075a44     libucrt:nlsdata.obj
 0002:00004a48       ??_C@_03BMAOKBAD@Oct@      10075a48     libucrt:nlsdata.obj
 0002:00004a4c       ??_C@_03JPJOFNIA@Nov@      10075a4c     libucrt:nlsdata.obj
 0002:00004a50       ??_C@_03MKABNOCG@Dec@      10075a50     libucrt:nlsdata.obj
 0002:00004a54       ??_C@_07CGJPFGJA@January@  10075a54     libucrt:nlsdata.obj
 0002:00004a5c       ??_C@_08GNJGEPFN@February@ 10075a5c     libucrt:nlsdata.obj
 0002:00004a68       ??_C@_05HPCKOFNC@March@    10075a68     libucrt:nlsdata.obj
 0002:00004a70       ??_C@_05DMJDNLEJ@April@    10075a70     libucrt:nlsdata.obj
 0002:00004a78       ??_C@_04CNLMGBGM@June@     10075a78     libucrt:nlsdata.obj
 0002:00004a80       ??_C@_04MIEPOIFP@July@     10075a80     libucrt:nlsdata.obj
 0002:00004a88       ??_C@_06LBBHFDDG@August@   10075a88     libucrt:nlsdata.obj
 0002:00004a90       ??_C@_09BHHEALKD@September@ 10075a90     libucrt:nlsdata.obj
 0002:00004a9c       ??_C@_07JJNFCEND@October@  10075a9c     libucrt:nlsdata.obj
 0002:00004aa4       ??_C@_08HCHEGEOA@November@ 10075aa4     libucrt:nlsdata.obj
 0002:00004ab0       ??_C@_08EDHMEBNP@December@ 10075ab0     libucrt:nlsdata.obj
 0002:00004abc       ??_C@_02DEDBPAFC@AM@       10075abc     libucrt:nlsdata.obj
 0002:00004ac0       ??_C@_02CJNFDJBF@PM@       10075ac0     libucrt:nlsdata.obj
 0002:00004ac4       ??_C@_08BPBNCDIB@MM?1dd?1yy@ 10075ac4     libucrt:nlsdata.obj
 0002:00004ad0       ??_C@_0BE@CKGJFCPC@dddd?0?5MMMM?5dd?0?5yyyy@ 10075ad0     libucrt:nlsdata.obj
 0002:00004ae4       ??_C@_08JCCMCCIL@HH?3mm?3ss@ 10075ae4     libucrt:nlsdata.obj
 0002:00004af0       ??_C@_17MBGCMIPB@?$AAS?$AAu?$AAn@ 10075af0     libucrt:nlsdata.obj
 0002:00004af8       ??_C@_17KBOMKBF@?$AAM?$AAo?$AAn@ 10075af8     libucrt:nlsdata.obj
 0002:00004b00       ??_C@_17BMKGEGOJ@?$AAT?$AAu?$AAe@ 10075b00     libucrt:nlsdata.obj
 0002:00004b08       ??_C@_17CJEDCEPE@?$AAW?$AAe?$AAd@ 10075b08     libucrt:nlsdata.obj
 0002:00004b10       ??_C@_17PDPHAADD@?$AAT?$AAh?$AAu@ 10075b10     libucrt:nlsdata.obj
 0002:00004b18       ??_C@_17HFOLPPLP@?$AAF?$AAr?$AAi@ 10075b18     libucrt:nlsdata.obj
 0002:00004b20       ??_C@_17GGIBDPIH@?$AAS?$AAa?$AAt@ 10075b20     libucrt:nlsdata.obj
 0002:00004b28       ??_C@_1O@IHNHDHPB@?$AAS?$AAu?$AAn?$AAd?$AAa?$AAy@ 10075b28     libucrt:nlsdata.obj
 0002:00004b38       ??_C@_1O@MMNBFLIA@?$AAM?$AAo?$AAn?$AAd?$AAa?$AAy@ 10075b38     libucrt:nlsdata.obj
 0002:00004b48       ??_C@_1BA@ENFBFFEK@?$AAT?$AAu?$AAe?$AAs?$AAd?$AAa?$AAy@ 10075b48     libucrt:nlsdata.obj
 0002:00004b58       ??_C@_1BE@EBOGMDOH@?$AAW?$AAe?$AAd?$AAn?$AAe?$AAs?$AAd?$AAa?$AAy@ 10075b58     libucrt:nlsdata.obj
 0002:00004b6c       ??_C@_1BC@HHMNLIHE@?$AAT?$AAh?$AAu?$AAr?$AAs?$AAd?$AAa?$AAy@ 10075b6c     libucrt:nlsdata.obj
 0002:00004b80       ??_C@_1O@PDICJHAG@?$AAF?$AAr?$AAi?$AAd?$AAa?$AAy@ 10075b80     libucrt:nlsdata.obj
 0002:00004b90       ??_C@_1BC@ENMNNPAJ@?$AAS?$AAa?$AAt?$AAu?$AAr?$AAd?$AAa?$AAy@ 10075b90     libucrt:nlsdata.obj
 0002:00004ba4       ??_C@_17DKNBKCHM@?$AAJ?$AAa?$AAn@ 10075ba4     libucrt:nlsdata.obj
 0002:00004bac       ??_C@_17LMDJEKJN@?$AAF?$AAe?$AAb@ 10075bac     libucrt:nlsdata.obj
 0002:00004bb4       ??_C@_17CKNLEDEC@?$AAM?$AAa?$AAr@ 10075bb4     libucrt:nlsdata.obj
 0002:00004bbc       ??_C@_17LFPOIHDD@?$AAA?$AAp?$AAr@ 10075bbc     libucrt:nlsdata.obj
 0002:00004bc4       ??_C@_17PNNKMEED@?$AAM?$AAa?$AAy@ 10075bc4     libucrt:nlsdata.obj
 0002:00004bcc       ??_C@_17KCJGOCPB@?$AAJ?$AAu?$AAn@ 10075bcc     libucrt:nlsdata.obj
 0002:00004bd4       ??_C@_17IJPCKHK@?$AAJ?$AAu?$AAl@ 10075bd4     libucrt:nlsdata.obj
 0002:00004bdc       ??_C@_17ICPELBCN@?$AAA?$AAu?$AAg@ 10075bdc     libucrt:nlsdata.obj
 0002:00004be4       ??_C@_17HCHCOKMG@?$AAS?$AAe?$AAp@ 10075be4     libucrt:nlsdata.obj
 0002:00004bec       ??_C@_17FNLKOI@?$AAO?$AAc?$AAt@ 10075bec     libucrt:nlsdata.obj
 0002:00004bf4       ??_C@_17BBDMLCIG@?$AAN?$AAo?$AAv@ 10075bf4     libucrt:nlsdata.obj
 0002:00004bfc       ??_C@_17EGKACKIF@?$AAD?$AAe?$AAc@ 10075bfc     libucrt:nlsdata.obj
 0002:00004c04       ??_C@_1BA@EFMEIEBA@?$AAJ?$AAa?$AAn?$AAu?$AAa?$AAr?$AAy@ 10075c04     libucrt:nlsdata.obj
 0002:00004c14       ??_C@_1BC@JGDDFFAM@?$AAF?$AAe?$AAb?$AAr?$AAu?$AAa?$AAr?$AAy@ 10075c14     libucrt:nlsdata.obj
 0002:00004c28       ??_C@_1M@IKEENEDF@?$AAM?$AAa?$AAr?$AAc?$AAh@ 10075c28     libucrt:nlsdata.obj
 0002:00004c34       ??_C@_1M@GJNLMHFD@?$AAA?$AAp?$AAr?$AAi?$AAl@ 10075c34     libucrt:nlsdata.obj
 0002:00004c40       ??_C@_19EPFLPGAP@?$AAJ?$AAu?$AAn?$AAe@ 10075c40     libucrt:nlsdata.obj
 0002:00004c4c       ??_C@_19BIFMLPCD@?$AAJ?$AAu?$AAl?$AAy@ 10075c4c     libucrt:nlsdata.obj
 0002:00004c58       ??_C@_1O@PAHLKOAC@?$AAA?$AAu?$AAg?$AAu?$AAs?$AAt@ 10075c58     libucrt:nlsdata.obj
 0002:00004c68       ??_C@_1BE@DKAAMBJL@?$AAS?$AAe?$AAp?$AAt?$AAe?$AAm?$AAb?$AAe?$AAr@ 10075c68     libucrt:nlsdata.obj
 0002:00004c7c       ??_C@_1BA@EPANDLNG@?$AAO?$AAc?$AAt?$AAo?$AAb?$AAe?$AAr@ 10075c7c     libucrt:nlsdata.obj
 0002:00004c8c       ??_C@_1BC@BGLIFPF@?$AAN?$AAo?$AAv?$AAe?$AAm?$AAb?$AAe?$AAr@ 10075c8c     libucrt:nlsdata.obj
 0002:00004ca0       ??_C@_1BC@FEMKIFH@?$AAD?$AAe?$AAc?$AAe?$AAm?$AAb?$AAe?$AAr@ 10075ca0     libucrt:nlsdata.obj
 0002:00004cb4       ??_C@_15ODEHAHHF@?$AAA?$AAM@ 10075cb4     libucrt:nlsdata.obj
 0002:00004cbc       ??_C@_15CLMNNGEL@?$AAP?$AAM@ 10075cbc     libucrt:nlsdata.obj
 0002:00004cc4       ??_C@_1BC@IEBCMHCM@?$AAM?$AAM?$AA?1?$AAd?$AAd?$AA?1?$AAy?$AAy@ 10075cc4     libucrt:nlsdata.obj
 0002:00004cd8       ??_C@_1CI@KNAKOEBC@?$AAd?$AAd?$AAd?$AAd?$AA?0?$AA?5?$AAM?$AAM?$AAM?$AAM?$AA?5?$AAd?$AAd?$AA?0?$AA?5@ 10075cd8     libucrt:nlsdata.obj
 0002:00004d00       ??_C@_1BC@GDGBMEMK@?$AAH?$AAH?$AA?3?$AAm?$AAm?$AA?3?$AAs?$AAs@ 10075d00     libucrt:nlsdata.obj
 0002:00004d14       ??_C@_1M@BMHNFIME@?$AAe?$AAn?$AA?9?$AAU?$AAS@ 10075d14     libucrt:nlsdata.obj
 0002:00004d60       ??_C@_03OEIAHPBN@INF@      10075d60     libucrt:cvt.obj
 0002:00004d64       ??_C@_03OJHLLCGB@inf@      10075d64     libucrt:cvt.obj
 0002:00004d68       ??_C@_03LKNCIKJB@NAN@      10075d68     libucrt:cvt.obj
 0002:00004d6c       ??_C@_03LHCJEHON@nan@      10075d6c     libucrt:cvt.obj
 0002:00004d70       ??_C@_09OFJJIMPC@NAN?$CISNAN?$CJ@ 10075d70     libucrt:cvt.obj
 0002:00004d7c       ??_C@_09IPFBKMDL@nan?$CIsnan?$CJ@ 10075d7c     libucrt:cvt.obj
 0002:00004d88       ??_C@_08IKHNHAJ@NAN?$CIIND?$CJ@ 10075d88     libucrt:cvt.obj
 0002:00004d94       ??_C@_08OFCDMILK@nan?$CIind?$CJ@ 10075d94     libucrt:cvt.obj
 0002:00004da0       ??_C@_05KLBDPFGC@e?$CL000@ 10075da0     libucrt:cvt.obj
 0002:00004df8       ??_C@_1EA@JGEFHKEI@?$AAa?$AAp?$AAi?$AA?9?$AAm?$AAs?$AA?9?$AAw?$AAi?$AAn?$AA?9?$AAc?$AAo?$AAr?$AAe@ 10075df8     libucrt:winapi_thunks.obj
 0002:00004e38       ??_C@_1DI@IJCEHOCB@?$AAa?$AAp?$AAi?$AA?9?$AAm?$AAs?$AA?9?$AAw?$AAi?$AAn?$AA?9?$AAc?$AAo?$AAr?$AAe@ 10075e38     libucrt:winapi_thunks.obj
 0002:00004e70       ??_C@_1EI@MPIAOHOC@?$AAa?$AAp?$AAi?$AA?9?$AAm?$AAs?$AA?9?$AAw?$AAi?$AAn?$AA?9?$AAc?$AAo?$AAr?$AAe@ 10075e70     libucrt:winapi_thunks.obj
 0002:00004eb8       ??_C@_1FK@FPHCKFIE@?$AAa?$AAp?$AAi?$AA?9?$AAm?$AAs?$AA?9?$AAw?$AAi?$AAn?$AA?9?$AAc?$AAo?$AAr?$AAe@ 10075eb8     libucrt:winapi_thunks.obj
 0002:00004f18       ??_C@_1EM@DILCGIIO@?$AAa?$AAp?$AAi?$AA?9?$AAm?$AAs?$AA?9?$AAw?$AAi?$AAn?$AA?9?$AAc?$AAo?$AAr?$AAe@ 10075f18     libucrt:winapi_thunks.obj
 0002:00004f64       ??_C@_1DM@LNCGDDPN@?$AAa?$AAp?$AAi?$AA?9?$AAm?$AAs?$AA?9?$AAw?$AAi?$AAn?$AA?9?$AAc?$AAo?$AAr?$AAe@ 10075f64     libucrt:winapi_thunks.obj
 0002:00004fa0       ??_C@_1DO@FPAPJEMD@?$AAa?$AAp?$AAi?$AA?9?$AAm?$AAs?$AA?9?$AAw?$AAi?$AAn?$AA?9?$AAc?$AAo?$AAr?$AAe@ 10075fa0     libucrt:winapi_thunks.obj
 0002:00004fe0       ??_C@_1DK@NDHNAHIO@?$AAa?$AAp?$AAi?$AA?9?$AAm?$AAs?$AA?9?$AAw?$AAi?$AAn?$AA?9?$AAc?$AAo?$AAr?$AAe@ 10075fe0     libucrt:winapi_thunks.obj
 0002:0000501c       ??_C@_1DM@KGHDGBCM@?$AAa?$AAp?$AAi?$AA?9?$AAm?$AAs?$AA?9?$AAw?$AAi?$AAn?$AA?9?$AAc?$AAo?$AAr?$AAe@ 1007601c     libucrt:winapi_thunks.obj
 0002:00005058       ??_C@_1EO@IJIOEFOH@?$AAa?$AAp?$AAi?$AA?9?$AAm?$AAs?$AA?9?$AAw?$AAi?$AAn?$AA?9?$AAr?$AAt?$AAc?$AAo@ 10076058     libucrt:winapi_thunks.obj
 0002:000050a8       ??_C@_1FG@HHGEKANL@?$AAa?$AAp?$AAi?$AA?9?$AAm?$AAs?$AA?9?$AAw?$AAi?$AAn?$AA?9?$AAs?$AAe?$AAc?$AAu@ 100760a8     libucrt:winapi_thunks.obj
 0002:00005100       ??_C@_1EG@DBIOJECG@?$AAe?$AAx?$AAt?$AA?9?$AAm?$AAs?$AA?9?$AAw?$AAi?$AAn?$AA?9?$AAn?$AAt?$AAu?$AAs@ 10076100     libucrt:winapi_thunks.obj
 0002:00005148       ??_C@_1EO@FIHMJCLF@?$AAe?$AAx?$AAt?$AA?9?$AAm?$AAs?$AA?9?$AAw?$AAi?$AAn?$AA?9?$AAn?$AAt?$AAu?$AAs@ 10076148     libucrt:winapi_thunks.obj
 0002:00005198       ??_C@_1BC@DNHGCMLG@?$AAa?$AAd?$AAv?$AAa?$AAp?$AAi?$AA3?$AA2@ 10076198     libucrt:winapi_thunks.obj
 0002:000051ac       ??_C@_1M@OAIMIKLP@?$AAn?$AAt?$AAd?$AAl?$AAl@ 100761ac     libucrt:winapi_thunks.obj
 0002:000051b8       ??_C@_1EG@DPGNFKGC@?$AAa?$AAp?$AAi?$AA?9?$AAm?$AAs?$AA?9?$AAw?$AAi?$AAn?$AA?9?$AAa?$AAp?$AAp?$AAm@ 100761b8     libucrt:winapi_thunks.obj
 0002:00005200       ??_C@_1O@BCCLBEOE@?$AAu?$AAs?$AAe?$AAr?$AA3?$AA2@ 10076200     libucrt:winapi_thunks.obj
 0002:00005210       ??_C@_1DM@BPJLHKCE@?$AAa?$AAp?$AAi?$AA?9?$AAm?$AAs?$AA?9?$AAw?$AAi?$AAn?$AA?9?$AAc?$AAo?$AAr?$AAe@ 10076210     libucrt:winapi_thunks.obj
 0002:0000524c       ??_C@_1BA@IAIFMGEF@?$AAe?$AAx?$AAt?$AA?9?$AAm?$AAs?$AA?9@ 1007624c     libucrt:winapi_thunks.obj
 0002:00005260       ??_C@_0BA@FHFNEAED@AreFileApisANSI@ 10076260     libucrt:winapi_thunks.obj
 0002:00005278       ??_C@_0BA@IHGNDAEB@CompareStringEx@ 10076278     libucrt:winapi_thunks.obj
 0002:00005290       ??_C@_0BE@LJANKFHF@EnumSystemLocalesEx@ 10076290     libucrt:winapi_thunks.obj
 0002:000052ac       ??_C@_0BA@EPCJIIPD@GetDateFormatEx@ 100762ac     libucrt:winapi_thunks.obj
 0002:000052c4       ??_C@_0BA@ONOKGCMP@GetLocaleInfoEx@ 100762c4     libucrt:winapi_thunks.obj
 0002:000052dc       ??_C@_0BA@CIJJKCJJ@GetTimeFormatEx@ 100762dc     libucrt:winapi_thunks.obj
 0002:000052f4       ??_C@_0BJ@PBCCBIPI@GetUserDefaultLocaleName@ 100762f4     libucrt:winapi_thunks.obj
 0002:00005320       ??_C@_0BC@CELBKLLA@IsValidLocaleName@ 10076320     libucrt:winapi_thunks.obj
 0002:0000533c       ??_C@_0O@KKBNKAPF@LCMapStringEx@ 1007633c     libucrt:winapi_thunks.obj
 0002:00005354       ??_C@_0BB@CDHDDLLP@LCIDToLocaleName@ 10076354     libucrt:winapi_thunks.obj
 0002:00005370       ??_C@_0BB@HBDEELFH@LocaleNameToLCID@ 10076370     libucrt:winapi_thunks.obj
 0002:00005388       ??_C@_0CF@OJOFEIGO@AppPolicyGetProcessTerminationM@ 10076388     libucrt:winapi_thunks.obj
 0002:000053d0       ?ccs@?1???$__acrt_stdio_parse_mode@D@@YA?AU__acrt_stdio_stream_mode@@QBD@Z@4QBDB 100763d0     libucrt:openfile.obj
 0002:000053d4       ?utf8_encoding@?1???$__acrt_stdio_parse_mode@D@@YA?AU__acrt_stdio_stream_mode@@QBD@Z@4QBDB 100763d4     libucrt:openfile.obj
 0002:000053dc       ?utf16_encoding@?1???$__acrt_stdio_parse_mode@D@@YA?AU__acrt_stdio_stream_mode@@QBD@Z@4QBDB 100763dc     libucrt:openfile.obj
 0002:000053e4       ?unicode_encoding@?1???$__acrt_stdio_parse_mode@D@@YA?AU__acrt_stdio_stream_mode@@QBD@Z@4QBDB 100763e4     libucrt:openfile.obj
 0002:000053ec       ??_C@_15HNJCPLHL@?$AAT?$AAZ@ 100763ec     libucrt:tzset.obj
 0002:000053f4       __days                     100763f4     libucrt:days.obj
 0002:00005428       __lpdays                   10076428     libucrt:days.obj
 0002:00005548       ??_C@_03KHJOGHMM@exp@      10076548     libucrt:fpexcept.obj
 0002:0000554c       ??_C@_03JGHBODFD@pow@      1007654c     libucrt:fpexcept.obj
 0002:00005550       ??_C@_03MGHMBJCF@log@      10076550     libucrt:fpexcept.obj
 0002:00005554       ??_C@_05HGHHAHAP@log10@    10076554     libucrt:fpexcept.obj
 0002:0000555c       ??_C@_04COOMCNPB@sinh@     1007655c     libucrt:fpexcept.obj
 0002:00005564       ??_C@_04HPJJNFIM@cosh@     10076564     libucrt:fpexcept.obj
 0002:0000556c       ??_C@_04FJHINJAO@tanh@     1007656c     libucrt:fpexcept.obj
 0002:00005574       ??_C@_04FIHNOPOL@asin@     10076574     libucrt:fpexcept.obj
 0002:0000557c       ??_C@_04PDIFKINK@acos@     1007657c     libucrt:fpexcept.obj
 0002:00005584       ??_C@_04MLLJIGOK@atan@     10076584     libucrt:fpexcept.obj
 0002:0000558c       ??_C@_05KNGEOGJB@atan2@    1007658c     libucrt:fpexcept.obj
 0002:00005594       ??_C@_04EIAKFFMI@sqrt@     10076594     libucrt:fpexcept.obj
 0002:0000559c       ??_C@_03BLEJJJBH@sin@      1007659c     libucrt:fpexcept.obj
 0002:000055a0       ??_C@_03LALBNOCG@cos@      100765a0     libucrt:fpexcept.obj
 0002:000055a4       ??_C@_03IIINPABG@tan@      100765a4     libucrt:fpexcept.obj
 0002:000055a8       ??_C@_04GFPJNGEK@ceil@     100765a8     libucrt:fpexcept.obj
 0002:000055b0       ??_C@_05PBJFFIGL@floor@    100765b0     libucrt:fpexcept.obj
 0002:000055b8       ??_C@_04ODHECPBC@fabs@     100765b8     libucrt:fpexcept.obj
 0002:000055c0       ??_C@_04EHEDPDJG@modf@     100765c0     libucrt:fpexcept.obj
 0002:000055c8       ??_C@_05CEJMAHNP@ldexp@    100765c8     libucrt:fpexcept.obj
 0002:000055d0       ??_C@_05KBKMEMPO@_cabs@    100765d0     libucrt:fpexcept.obj
 0002:000055d8       ??_C@_06MEIMCGCF@_hypot@   100765d8     libucrt:fpexcept.obj
 0002:000055e0       ??_C@_04KEPJIHGP@fmod@     100765e0     libucrt:fpexcept.obj
 0002:000055e8       ??_C@_05GKKHEGJL@frexp@    100765e8     libucrt:fpexcept.obj
 0002:000055f0       ??_C@_03MJLDFKDL@_y0@      100765f0     libucrt:fpexcept.obj
 0002:000055f4       ??_C@_03NAKIGLHK@_y1@      100765f4     libucrt:fpexcept.obj
 0002:000055f8       ??_C@_03ONILCKOB@_yn@      100765f8     libucrt:fpexcept.obj
 0002:000055fc       ??_C@_05JGDBENOH@_logb@    100765fc     libucrt:fpexcept.obj
 0002:00005604       ??_C@_0L@KDOEJCKC@_nextafter@ 10076604     libucrt:fpexcept.obj
 0002:00005610       __d_inf                    10076610     libucrt:util.obj
 0002:00005618       __d_max                    10076618     libucrt:util.obj
 0002:00005620       __d_mzero                  10076620     libucrt:util.obj
 0002:00005700       __infinity                 10076700     libucrt:87tran.obj
 0002:0000570a       __minfinity                1007670a     libucrt:87tran.obj
 0002:00005714       __logemax                  10076714     libucrt:87tran.obj
 0002:0000573a       __OP_EXPjmptab             1007673a     libucrt:87tran.obj
 0002:00005760       __indefinite               10076760     libucrt:87disp.obj
 0002:0000576a       __piby2                    1007676a     libucrt:87disp.obj
 0002:00005774       __piby4                    10076774     libucrt:87disp.obj
 0002:000057a8       __DEFAULT_CW_in_mem        100767a8     libucrt:common.obj
 0002:000057aa       __pi_by_2_to_61            100767aa     libucrt:common.obj
 0002:000057f4       ??_C@_1M@HPNHIDJI@?$AAj?$AAa?$AA?9?$AAJ?$AAP@ 100767f4     libucrt:mbctype.obj
 0002:00005800       ??_C@_1M@BIBDDEMK@?$AAz?$AAh?$AA?9?$AAC?$AAN@ 10076800     libucrt:mbctype.obj
 0002:0000580c       ??_C@_1M@JLOOOEGK@?$AAk?$AAo?$AA?9?$AAK?$AAR@ 1007680c     libucrt:mbctype.obj
 0002:00005818       ??_C@_1M@CLNBBOPM@?$AAz?$AAh?$AA?9?$AAT?$AAW@ 10076818     libucrt:mbctype.obj
 0002:00005828       ___acrt_rg_language        10076828     libucrt:get_qualified_locale.obj
 0002:00005b34       ___acrt_rg_language_count  10076b34     libucrt:get_qualified_locale.obj
 0002:00005b38       ___acrt_rg_country         10076b38     libucrt:get_qualified_locale.obj
 0002:00005c4c       ___acrt_rg_country_count   10076c4c     libucrt:get_qualified_locale.obj
 0002:00005c50       ??_C@_1BC@LLOKLNP@?$AAa?$AAm?$AAe?$AAr?$AAi?$AAc?$AAa?$AAn@ 10076c50     libucrt:get_qualified_locale.obj
 0002:00005c64       ??_C@_1CC@HEIGCDGG@?$AAa?$AAm?$AAe?$AAr?$AAi?$AAc?$AAa?$AAn?$AA?5?$AAe?$AAn?$AAg?$AAl?$AAi?$AAs@ 10076c64     libucrt:get_qualified_locale.obj
 0002:00005c88       ??_C@_1CC@IHCNOMIN@?$AAa?$AAm?$AAe?$AAr?$AAi?$AAc?$AAa?$AAn?$AA?9?$AAe?$AAn?$AAg?$AAl?$AAi?$AAs@ 10076c88     libucrt:get_qualified_locale.obj
 0002:00005cac       ??_C@_1BG@GKAGPCGG@?$AAa?$AAu?$AAs?$AAt?$AAr?$AAa?$AAl?$AAi?$AAa?$AAn@ 10076cac     libucrt:get_qualified_locale.obj
 0002:00005cc4       ??_C@_1BA@GMENCENF@?$AAb?$AAe?$AAl?$AAg?$AAi?$AAa?$AAn@ 10076cc4     libucrt:get_qualified_locale.obj
 0002:00005cd4       ??_C@_1BC@PJMIIAAN@?$AAc?$AAa?$AAn?$AAa?$AAd?$AAi?$AAa?$AAn@ 10076cd4     libucrt:get_qualified_locale.obj
 0002:00005ce8       ??_C@_17NOIMNFBF@?$AAc?$AAh?$AAh@ 10076ce8     libucrt:get_qualified_locale.obj
 0002:00005cf0       ??_C@_17GGDALCHA@?$AAc?$AAh?$AAi@ 10076cf0     libucrt:get_qualified_locale.obj
 0002:00005cf8       ??_C@_1BA@NPNJKIBL@?$AAc?$AAh?$AAi?$AAn?$AAe?$AAs?$AAe@ 10076cf8     libucrt:get_qualified_locale.obj
 0002:00005d08       ??_C@_1CC@DINBAMMJ@?$AAc?$AAh?$AAi?$AAn?$AAe?$AAs?$AAe?$AA?9?$AAh?$AAo?$AAn?$AAg?$AAk?$AAo?$AAn@ 10076d08     libucrt:get_qualified_locale.obj
 0002:00005d2c       ??_C@_1CG@IOBJPACO@?$AAc?$AAh?$AAi?$AAn?$AAe?$AAs?$AAe?$AA?9?$AAs?$AAi?$AAm?$AAp?$AAl?$AAi?$AAf@ 10076d2c     libucrt:get_qualified_locale.obj
 0002:00005d54       ??_C@_1CE@GAJNDCKG@?$AAc?$AAh?$AAi?$AAn?$AAe?$AAs?$AAe?$AA?9?$AAs?$AAi?$AAn?$AAg?$AAa?$AAp?$AAo@ 10076d54     libucrt:get_qualified_locale.obj
 0002:00005d78       ??_C@_1CI@PAJPIOOD@?$AAc?$AAh?$AAi?$AAn?$AAe?$AAs?$AAe?$AA?9?$AAt?$AAr?$AAa?$AAd?$AAi?$AAt?$AAi@ 10076d78     libucrt:get_qualified_locale.obj
 0002:00005da0       ??_C@_1BM@NILJBMMD@?$AAd?$AAu?$AAt?$AAc?$AAh?$AA?9?$AAb?$AAe?$AAl?$AAg?$AAi?$AAa?$AAn@ 10076da0     libucrt:get_qualified_locale.obj
 0002:00005dbc       ??_C@_1CC@OOJPJNEJ@?$AAe?$AAn?$AAg?$AAl?$AAi?$AAs?$AAh?$AA?9?$AAa?$AAm?$AAe?$AAr?$AAi?$AAc?$AAa@ 10076dbc     libucrt:get_qualified_locale.obj
 0002:00005de0       ??_C@_1BI@IOLFEEM@?$AAe?$AAn?$AAg?$AAl?$AAi?$AAs?$AAh?$AA?9?$AAa?$AAu?$AAs@ 10076de0     libucrt:get_qualified_locale.obj
 0002:00005df8       ??_C@_1BO@HFFNLENJ@?$AAe?$AAn?$AAg?$AAl?$AAi?$AAs?$AAh?$AA?9?$AAb?$AAe?$AAl?$AAi?$AAz?$AAe@ 10076df8     libucrt:get_qualified_locale.obj
 0002:00005e18       ??_C@_1BI@HAPKJMPO@?$AAe?$AAn?$AAg?$AAl?$AAi?$AAs?$AAh?$AA?9?$AAc?$AAa?$AAn@ 10076e18     libucrt:get_qualified_locale.obj
 0002:00005e30       ??_C@_1CE@HLNDMIOJ@?$AAe?$AAn?$AAg?$AAl?$AAi?$AAs?$AAh?$AA?9?$AAc?$AAa?$AAr?$AAi?$AAb?$AAb?$AAe@ 10076e30     libucrt:get_qualified_locale.obj
 0002:00005e54       ??_C@_1BI@LDHJHHAC@?$AAe?$AAn?$AAg?$AAl?$AAi?$AAs?$AAh?$AA?9?$AAi?$AAr?$AAe@ 10076e54     libucrt:get_qualified_locale.obj
 0002:00005e6c       ??_C@_1CA@NJMMCFOC@?$AAe?$AAn?$AAg?$AAl?$AAi?$AAs?$AAh?$AA?9?$AAj?$AAa?$AAm?$AAa?$AAi?$AAc?$AAa@ 10076e6c     libucrt:get_qualified_locale.obj
 0002:00005e8c       ??_C@_1BG@BHJEBBGG@?$AAe?$AAn?$AAg?$AAl?$AAi?$AAs?$AAh?$AA?9?$AAn?$AAz@ 10076e8c     libucrt:get_qualified_locale.obj
 0002:00005ea4       ??_C@_1CK@FGOEJJCO@?$AAe?$AAn?$AAg?$AAl?$AAi?$AAs?$AAh?$AA?9?$AAs?$AAo?$AAu?$AAt?$AAh?$AA?5?$AAa@ 10076ea4     libucrt:get_qualified_locale.obj
 0002:00005ed0       ??_C@_1DE@PDBJPCJ@?$AAe?$AAn?$AAg?$AAl?$AAi?$AAs?$AAh?$AA?9?$AAt?$AAr?$AAi?$AAn?$AAi?$AAd?$AAa@ 10076ed0     libucrt:get_qualified_locale.obj
 0002:00005f04       ??_C@_1BG@JGCANDME@?$AAe?$AAn?$AAg?$AAl?$AAi?$AAs?$AAh?$AA?9?$AAu?$AAk@ 10076f04     libucrt:get_qualified_locale.obj
 0002:00005f1c       ??_C@_1BG@DINKMLE@?$AAe?$AAn?$AAg?$AAl?$AAi?$AAs?$AAh?$AA?9?$AAu?$AAs@ 10076f1c     libucrt:get_qualified_locale.obj
 0002:00005f34       ??_C@_1BI@NMFDBHJE@?$AAe?$AAn?$AAg?$AAl?$AAi?$AAs?$AAh?$AA?9?$AAu?$AAs?$AAa@ 10076f34     libucrt:get_qualified_locale.obj
 0002:00005f4c       ??_C@_1BO@OIHKJKII@?$AAf?$AAr?$AAe?$AAn?$AAc?$AAh?$AA?9?$AAb?$AAe?$AAl?$AAg?$AAi?$AAa?$AAn@ 10076f4c     libucrt:get_qualified_locale.obj
 0002:00005f6c       ??_C@_1CA@NKAELJKI@?$AAf?$AAr?$AAe?$AAn?$AAc?$AAh?$AA?9?$AAc?$AAa?$AAn?$AAa?$AAd?$AAi?$AAa?$AAn@ 10076f6c     libucrt:get_qualified_locale.obj
 0002:00005f8c       ??_C@_1CE@MGKCNLGN@?$AAf?$AAr?$AAe?$AAn?$AAc?$AAh?$AA?9?$AAl?$AAu?$AAx?$AAe?$AAm?$AAb?$AAo?$AAu@ 10076f8c     libucrt:get_qualified_locale.obj
 0002:00005fb0       ??_C@_1BK@CEGEAILM@?$AAf?$AAr?$AAe?$AAn?$AAc?$AAh?$AA?9?$AAs?$AAw?$AAi?$AAs?$AAs@ 10076fb0     libucrt:get_qualified_locale.obj
 0002:00005fcc       ??_C@_1CA@PAFKEOCC@?$AAg?$AAe?$AAr?$AAm?$AAa?$AAn?$AA?9?$AAa?$AAu?$AAs?$AAt?$AAr?$AAi?$AAa?$AAn@ 10076fcc     libucrt:get_qualified_locale.obj
 0002:00005fec       ??_C@_1CI@HCFHGOFD@?$AAg?$AAe?$AAr?$AAm?$AAa?$AAn?$AA?9?$AAl?$AAi?$AAc?$AAh?$AAt?$AAe?$AAn?$AAs@ 10076fec     libucrt:get_qualified_locale.obj
 0002:00006014       ??_C@_1CE@FEDDNPDG@?$AAg?$AAe?$AAr?$AAm?$AAa?$AAn?$AA?9?$AAl?$AAu?$AAx?$AAe?$AAm?$AAb?$AAo?$AAu@ 10077014     libucrt:get_qualified_locale.obj
 0002:00006038       ??_C@_1BK@LIMINNMN@?$AAg?$AAe?$AAr?$AAm?$AAa?$AAn?$AA?9?$AAs?$AAw?$AAi?$AAs?$AAs@ 10077038     libucrt:get_qualified_locale.obj
 0002:00006054       ??_C@_1BM@LGMDBEPD@?$AAi?$AAr?$AAi?$AAs?$AAh?$AA?9?$AAe?$AAn?$AAg?$AAl?$AAi?$AAs?$AAh@ 10077054     libucrt:get_qualified_locale.obj
 0002:00006070       ??_C@_1BM@NNCFBAEE@?$AAi?$AAt?$AAa?$AAl?$AAi?$AAa?$AAn?$AA?9?$AAs?$AAw?$AAi?$AAs?$AAs@ 10077070     libucrt:get_qualified_locale.obj
 0002:0000608c       ??_C@_1BE@FEDJNPIB@?$AAn?$AAo?$AAr?$AAw?$AAe?$AAg?$AAi?$AAa?$AAn@ 1007708c     libucrt:get_qualified_locale.obj
 0002:000060a0       ??_C@_1CC@CILKDEIE@?$AAn?$AAo?$AAr?$AAw?$AAe?$AAg?$AAi?$AAa?$AAn?$AA?9?$AAb?$AAo?$AAk?$AAm?$AAa@ 100770a0     libucrt:get_qualified_locale.obj
 0002:000060c4       ??_C@_1CE@DHMMHEPL@?$AAn?$AAo?$AAr?$AAw?$AAe?$AAg?$AAi?$AAa?$AAn?$AA?9?$AAn?$AAy?$AAn?$AAo?$AAr@ 100770c4     libucrt:get_qualified_locale.obj
 0002:000060e8       ??_C@_1CK@OPNMHECD@?$AAp?$AAo?$AAr?$AAt?$AAu?$AAg?$AAu?$AAe?$AAs?$AAe?$AA?9?$AAb?$AAr?$AAa?$AAz@ 100770e8     libucrt:get_qualified_locale.obj
 0002:00006114       ??_C@_1CE@KEEHCDB@?$AAs?$AAp?$AAa?$AAn?$AAi?$AAs?$AAh?$AA?9?$AAa?$AAr?$AAg?$AAe?$AAn?$AAt?$AAi@ 10077114     libucrt:get_qualified_locale.obj
 0002:00006138       ??_C@_1CA@GIAOLHJD@?$AAs?$AAp?$AAa?$AAn?$AAi?$AAs?$AAh?$AA?9?$AAb?$AAo?$AAl?$AAi?$AAv?$AAi?$AAa@ 10077138     libucrt:get_qualified_locale.obj
 0002:00006158       ??_C@_1BM@OJNDFNPD@?$AAs?$AAp?$AAa?$AAn?$AAi?$AAs?$AAh?$AA?9?$AAc?$AAh?$AAi?$AAl?$AAe@ 10077158     libucrt:get_qualified_locale.obj
 0002:00006174       ??_C@_1CC@OCOLPALL@?$AAs?$AAp?$AAa?$AAn?$AAi?$AAs?$AAh?$AA?9?$AAc?$AAo?$AAl?$AAo?$AAm?$AAb?$AAi@ 10077174     libucrt:get_qualified_locale.obj
 0002:00006198       ??_C@_1CG@BPOFMKBB@?$AAs?$AAp?$AAa?$AAn?$AAi?$AAs?$AAh?$AA?9?$AAc?$AAo?$AAs?$AAt?$AAa?$AA?5?$AAr@ 10077198     libucrt:get_qualified_locale.obj
 0002:000061c0       ??_C@_1DG@IGOBAPBB@?$AAs?$AAp?$AAa?$AAn?$AAi?$AAs?$AAh?$AA?9?$AAd?$AAo?$AAm?$AAi?$AAn?$AAi?$AAc@ 100771c0     libucrt:get_qualified_locale.obj
 0002:000061f8       ??_C@_1CA@JHAPGEGI@?$AAs?$AAp?$AAa?$AAn?$AAi?$AAs?$AAh?$AA?9?$AAe?$AAc?$AAu?$AAa?$AAd?$AAo?$AAr@ 100771f8     libucrt:get_qualified_locale.obj
 0002:00006218       ??_C@_1CI@LAPALJPP@?$AAs?$AAp?$AAa?$AAn?$AAi?$AAs?$AAh?$AA?9?$AAe?$AAl?$AA?5?$AAs?$AAa?$AAl?$AAv@ 10077218     libucrt:get_qualified_locale.obj
 0002:00006240       ??_C@_1CE@PDGBOFOM@?$AAs?$AAp?$AAa?$AAn?$AAi?$AAs?$AAh?$AA?9?$AAg?$AAu?$AAa?$AAt?$AAe?$AAm?$AAa@ 10077240     libucrt:get_qualified_locale.obj
 0002:00006264       ??_C@_1CC@NBEBAODI@?$AAs?$AAp?$AAa?$AAn?$AAi?$AAs?$AAh?$AA?9?$AAh?$AAo?$AAn?$AAd?$AAu?$AAr?$AAa@ 10077264     libucrt:get_qualified_locale.obj
 0002:00006288       ??_C@_1CA@LLKGHBMF@?$AAs?$AAp?$AAa?$AAn?$AAi?$AAs?$AAh?$AA?9?$AAm?$AAe?$AAx?$AAi?$AAc?$AAa?$AAn@ 10077288     libucrt:get_qualified_locale.obj
 0002:000062a8       ??_C@_1BO@LKNDOIGD@?$AAs?$AAp?$AAa?$AAn?$AAi?$AAs?$AAh?$AA?9?$AAm?$AAo?$AAd?$AAe?$AAr?$AAn@ 100772a8     libucrt:get_qualified_locale.obj
 0002:000062c8       ??_C@_1CE@NMDMOEEB@?$AAs?$AAp?$AAa?$AAn?$AAi?$AAs?$AAh?$AA?9?$AAn?$AAi?$AAc?$AAa?$AAr?$AAa?$AAg@ 100772c8     libucrt:get_qualified_locale.obj
 0002:000062ec       ??_C@_1BO@LLCBEJGB@?$AAs?$AAp?$AAa?$AAn?$AAi?$AAs?$AAh?$AA?9?$AAp?$AAa?$AAn?$AAa?$AAm?$AAa@ 100772ec     libucrt:get_qualified_locale.obj
 0002:0000630c       ??_C@_1CC@FKPGGIHO@?$AAs?$AAp?$AAa?$AAn?$AAi?$AAs?$AAh?$AA?9?$AAp?$AAa?$AAr?$AAa?$AAg?$AAu?$AAa@ 1007730c     libucrt:get_qualified_locale.obj
 0002:00006330       ??_C@_1BK@CDEIHOOP@?$AAs?$AAp?$AAa?$AAn?$AAi?$AAs?$AAh?$AA?9?$AAp?$AAe?$AAr?$AAu@ 10077330     libucrt:get_qualified_locale.obj
 0002:0000634c       ??_C@_1CI@GAHAKKGP@?$AAs?$AAp?$AAa?$AAn?$AAi?$AAs?$AAh?$AA?9?$AAp?$AAu?$AAe?$AAr?$AAt?$AAo?$AA?5@ 1007734c     libucrt:get_qualified_locale.obj
 0002:00006374       ??_C@_1CA@NKJBCAGP@?$AAs?$AAp?$AAa?$AAn?$AAi?$AAs?$AAh?$AA?9?$AAu?$AAr?$AAu?$AAg?$AAu?$AAa?$AAy@ 10077374     libucrt:get_qualified_locale.obj
 0002:00006394       ??_C@_1CE@ODILCONM@?$AAs?$AAp?$AAa?$AAn?$AAi?$AAs?$AAh?$AA?9?$AAv?$AAe?$AAn?$AAe?$AAz?$AAu?$AAe@ 10077394     libucrt:get_qualified_locale.obj
 0002:000063b8       ??_C@_1CA@OBNMCGFO@?$AAs?$AAw?$AAe?$AAd?$AAi?$AAs?$AAh?$AA?9?$AAf?$AAi?$AAn?$AAl?$AAa?$AAn?$AAd@ 100773b8     libucrt:get_qualified_locale.obj
 0002:000063d8       ??_C@_1M@PIPDDPPI@?$AAs?$AAw?$AAi?$AAs?$AAs@ 100773d8     libucrt:get_qualified_locale.obj
 0002:000063e4       ??_C@_15PJPFLCCM@?$AAu?$AAk@ 100773e4     libucrt:get_qualified_locale.obj
 0002:000063ec       ??_C@_15GMFIMNFM@?$AAu?$AAs@ 100773ec     libucrt:get_qualified_locale.obj
 0002:000063f4       ??_C@_17HAEBFAGL@?$AAu?$AAs?$AAa@ 100773f4     libucrt:get_qualified_locale.obj
 0002:000063fc       ??_C@_1BA@DPFJEPHB@?$AAa?$AAm?$AAe?$AAr?$AAi?$AAc?$AAa@ 100773fc     libucrt:get_qualified_locale.obj
 0002:0000640c       ??_C@_1BA@ELOGGFK@?$AAb?$AAr?$AAi?$AAt?$AAa?$AAi?$AAn@ 1007740c     libucrt:get_qualified_locale.obj
 0002:0000641c       ??_C@_1M@GHBGIGDA@?$AAc?$AAh?$AAi?$AAn?$AAa@ 1007741c     libucrt:get_qualified_locale.obj
 0002:00006428       ??_C@_1M@NCHEJOPO@?$AAc?$AAz?$AAe?$AAc?$AAh@ 10077428     libucrt:get_qualified_locale.obj
 0002:00006434       ??_C@_1BA@BKPAPBLA@?$AAe?$AAn?$AAg?$AAl?$AAa?$AAn?$AAd@ 10077434     libucrt:get_qualified_locale.obj
 0002:00006444       ??_C@_1BM@HKBCKIPC@?$AAg?$AAr?$AAe?$AAa?$AAt?$AA?5?$AAb?$AAr?$AAi?$AAt?$AAa?$AAi?$AAn@ 10077444     libucrt:get_qualified_locale.obj
 0002:00006460       ??_C@_1BA@PPCHPGJB@?$AAh?$AAo?$AAl?$AAl?$AAa?$AAn?$AAd@ 10077460     libucrt:get_qualified_locale.obj
 0002:00006470       ??_C@_1BE@JBMPEGDG@?$AAh?$AAo?$AAn?$AAg?$AA?9?$AAk?$AAo?$AAn?$AAg@ 10077470     libucrt:get_qualified_locale.obj
 0002:00006484       ??_C@_1BI@KOELBBPJ@?$AAn?$AAe?$AAw?$AA?9?$AAz?$AAe?$AAa?$AAl?$AAa?$AAn?$AAd@ 10077484     libucrt:get_qualified_locale.obj
 0002:0000649c       ??_C@_15HIEBHAIO@?$AAn?$AAz@ 1007749c     libucrt:get_qualified_locale.obj
 0002:000064a4       ??_C@_1BC@CHBCPFPI@?$AAp?$AAr?$AA?5?$AAc?$AAh?$AAi?$AAn?$AAa@ 100774a4     libucrt:get_qualified_locale.obj
 0002:000064b8       ??_C@_1BC@JAOIIFKD@?$AAp?$AAr?$AA?9?$AAc?$AAh?$AAi?$AAn?$AAa@ 100774b8     libucrt:get_qualified_locale.obj
 0002:000064cc       ??_C@_1BI@BEHPPHKC@?$AAp?$AAu?$AAe?$AAr?$AAt?$AAo?$AA?9?$AAr?$AAi?$AAc?$AAo@ 100774cc     libucrt:get_qualified_locale.obj
 0002:000064e4       ??_C@_1O@PAEOFKDI@?$AAs?$AAl?$AAo?$AAv?$AAa?$AAk@ 100774e4     libucrt:get_qualified_locale.obj
 0002:000064f4       ??_C@_1BK@FIHMCKAM@?$AAs?$AAo?$AAu?$AAt?$AAh?$AA?5?$AAa?$AAf?$AAr?$AAi?$AAc?$AAa@ 100774f4     libucrt:get_qualified_locale.obj
 0002:00006510       ??_C@_1BI@NAEOODKB@?$AAs?$AAo?$AAu?$AAt?$AAh?$AA?5?$AAk?$AAo?$AAr?$AAe?$AAa@ 10077510     libucrt:get_qualified_locale.obj
 0002:00006528       ??_C@_1BK@FBDGGIFF@?$AAs?$AAo?$AAu?$AAt?$AAh?$AA?9?$AAa?$AAf?$AAr?$AAi?$AAc?$AAa@ 10077528     libucrt:get_qualified_locale.obj
 0002:00006544       ??_C@_1BI@GHLEJDPK@?$AAs?$AAo?$AAu?$AAt?$AAh?$AA?9?$AAk?$AAo?$AAr?$AAe?$AAa@ 10077544     libucrt:get_qualified_locale.obj
 0002:0000655c       ??_C@_1CE@PLHLOMJF@?$AAt?$AAr?$AAi?$AAn?$AAi?$AAd?$AAa?$AAd?$AA?5?$AA?$CG?$AA?5?$AAt?$AAo?$AAb?$AAa@ 1007755c     libucrt:get_qualified_locale.obj
 0002:00006580       ??_C@_1BO@MODIMHHI@?$AAu?$AAn?$AAi?$AAt?$AAe?$AAd?$AA?9?$AAk?$AAi?$AAn?$AAg?$AAd?$AAo?$AAm@ 10077580     libucrt:get_qualified_locale.obj
 0002:000065a0       ??_C@_1BM@FFHJONBJ@?$AAu?$AAn?$AAi?$AAt?$AAe?$AAd?$AA?9?$AAs?$AAt?$AAa?$AAt?$AAe?$AAs@ 100775a0     libucrt:get_qualified_locale.obj
 0002:000065bc       ??_C@_19MPDNHKDG@?$AAu?$AAt?$AAf?$AA8@ 100775bc     libucrt:get_qualified_locale.obj
 0002:000065c8       ??_C@_17DNCLJFIF@?$AAA?$AAC?$AAP@ 100775c8     libucrt:get_qualified_locale.obj
 0002:000065d0       ??_C@_1M@FPEIIFAM@?$AAu?$AAt?$AAf?$AA?9?$AA8@ 100775d0     libucrt:get_qualified_locale.obj
 0002:000065dc       ??_C@_17CIKBIHLH@?$AAO?$AAC?$AAP@ 100775dc     libucrt:get_qualified_locale.obj
 0002:000065e4       ___rglangidNotDefault      100775e4     libucrt:getqloc_downlevel.obj
 0002:000065f8       ??_C@_01GBGANLPD@0@        100775f8     libucrt:cfout.obj
 0002:000065fc       ??_C@_05DNEBIAHO@1?$CDINF@ 100775fc     libucrt:cfout.obj
 0002:00006604       ??_C@_06IMKFLFPG@1?$CDQNAN@ 10077604     libucrt:cfout.obj
 0002:0000660c       ??_C@_06PGGFOGJG@1?$CDSNAN@ 1007760c     libucrt:cfout.obj
 0002:00006614       ??_C@_05PHHOCPM@1?$CDIND@  10077614     libucrt:cfout.obj
 0002:00006d40       ??_C@_15EMKDOKLE@?$AAa?$AAr@ 10077d40     libucrt:lcidtoname_downlevel.obj
 0002:00006d48       ??_C@_15KNPADPLH@?$AAb?$AAg@ 10077d48     libucrt:lcidtoname_downlevel.obj
 0002:00006d50       ??_C@_15EDMHLDMO@?$AAc?$AAa@ 10077d50     libucrt:lcidtoname_downlevel.obj
 0002:00006d58       ??_C@_1O@BPEAJADD@?$AAz?$AAh?$AA?9?$AAC?$AAH?$AAS@ 10077d58     libucrt:lcidtoname_downlevel.obj
 0002:00006d68       ??_C@_15LJNHCMNK@?$AAc?$AAs@ 10077d68     libucrt:lcidtoname_downlevel.obj
 0002:00006d70       ??_C@_15FOMCIDHG@?$AAd?$AAa@ 10077d70     libucrt:lcidtoname_downlevel.obj
 0002:00006d78       ??_C@_15NBKABECB@?$AAd?$AAe@ 10077d78     libucrt:lcidtoname_downlevel.obj
 0002:00006d80       ??_C@_15GHPEIIAO@?$AAe?$AAl@ 10077d80     libucrt:lcidtoname_downlevel.obj
 0002:00006d88       ??_C@_15MNPNEAIF@?$AAe?$AAn@ 10077d88     libucrt:lcidtoname_downlevel.obj
 0002:00006d90       ??_C@_15GPIOMPMH@?$AAe?$AAs@ 10077d90     libucrt:lcidtoname_downlevel.obj
 0002:00006d98       ??_C@_15NGLOAKJC@?$AAf?$AAi@ 10077d98     libucrt:lcidtoname_downlevel.obj
 0002:00006da0       ??_C@_15FBKGNKAM@?$AAf?$AAr@ 10077da0     libucrt:lcidtoname_downlevel.obj
 0002:00006da8       ??_C@_15KGGCNEFK@?$AAh?$AAe@ 10077da8     libucrt:lcidtoname_downlevel.obj
 0002:00006db0       ??_C@_15PGHLIDMF@?$AAh?$AAu@ 10077db0     libucrt:lcidtoname_downlevel.obj
 0002:00006db8       ??_C@_15BIEMAPLM@?$AAi?$AAs@ 10077db8     libucrt:lcidtoname_downlevel.obj
 0002:00006dc0       ??_C@_15IFJLDHAF@?$AAi?$AAt@ 10077dc0     libucrt:lcidtoname_downlevel.obj
 0002:00006dc8       ??_C@_15GEMIOCAG@?$AAj?$AAa@ 10077dc8     libucrt:lcidtoname_downlevel.obj
 0002:00006dd0       ??_C@_15EPELEGJA@?$AAk?$AAo@ 10077dd0     libucrt:lcidtoname_downlevel.obj
 0002:00006dd8       ??_C@_15NDDHIMN@?$AAn?$AAl@ 10077dd8     libucrt:lcidtoname_downlevel.obj
 0002:00006de0       ??_C@_15BPIGNHCD@?$AAn?$AAo@ 10077de0     libucrt:lcidtoname_downlevel.obj
 0002:00006de8       ??_C@_15DEOPBLCG@?$AAp?$AAl@ 10077de8     libucrt:lcidtoname_downlevel.obj
 0002:00006df0       ??_C@_15KBECGEFG@?$AAp?$AAt@ 10077df0     libucrt:lcidtoname_downlevel.obj
 0002:00006df8       ??_C@_15GLJCBFMD@?$AAr?$AAo@ 10077df8     libucrt:lcidtoname_downlevel.obj
 0002:00006e00       ??_C@_15FEDGKCDI@?$AAr?$AAu@ 10077e00     libucrt:lcidtoname_downlevel.obj
 0002:00006e08       ??_C@_15GLKMLLHM@?$AAh?$AAr@ 10077e08     libucrt:lcidtoname_downlevel.obj
 0002:00006e10       ??_C@_15CPKMFBDB@?$AAs?$AAk@ 10077e10     libucrt:lcidtoname_downlevel.obj
 0002:00006e18       ??_C@_15BAAIOGMK@?$AAs?$AAq@ 10077e18     libucrt:lcidtoname_downlevel.obj
 0002:00006e20       ??_C@_15INNPNOHD@?$AAs?$AAv@ 10077e20     libucrt:lcidtoname_downlevel.obj
 0002:00006e28       ??_C@_15CABMMOGH@?$AAt?$AAh@ 10077e28     libucrt:lcidtoname_downlevel.obj
 0002:00006e30       ??_C@_15BPLIHJJM@?$AAt?$AAr@ 10077e30     libucrt:lcidtoname_downlevel.obj
 0002:00006e38       ??_C@_15NEOEKKDJ@?$AAu?$AAr@ 10077e38     libucrt:lcidtoname_downlevel.obj
 0002:00006e40       ??_C@_15NFICGAJK@?$AAi?$AAd@ 10077e40     libucrt:lcidtoname_downlevel.obj
 0002:00006e48       ??_C@_15HPJPHDM@?$AAb?$AAe@ 10077e48     libucrt:lcidtoname_downlevel.obj
 0002:00006e50       ??_C@_15LCHLGJII@?$AAs?$AAl@ 10077e50     libucrt:lcidtoname_downlevel.obj
 0002:00006e58       ??_C@_15PCFJPHHO@?$AAe?$AAt@ 10077e58     libucrt:lcidtoname_downlevel.obj
 0002:00006e60       ??_C@_15HPFPGODN@?$AAl?$AAv@ 10077e60     libucrt:lcidtoname_downlevel.obj
 0002:00006e68       ??_C@_15NFFGKGLG@?$AAl?$AAt@ 10077e68     libucrt:lcidtoname_downlevel.obj
 0002:00006e70       ??_C@_15BDAKCCHN@?$AAf?$AAa@ 10077e70     libucrt:lcidtoname_downlevel.obj
 0002:00006e78       ??_C@_15NFGIAIAJ@?$AAv?$AAi@ 10077e78     libucrt:lcidtoname_downlevel.obj
 0002:00006e80       ??_C@_15LMKNDMHN@?$AAh?$AAy@ 10077e80     libucrt:lcidtoname_downlevel.obj
 0002:00006e88       ??_C@_15IJBHMCFL@?$AAa?$AAz@ 10077e88     libucrt:lcidtoname_downlevel.obj
 0002:00006e90       ??_C@_15EKOFJABL@?$AAe?$AAu@ 10077e90     libucrt:lcidtoname_downlevel.obj
 0002:00006e98       ??_C@_15BGHADCNK@?$AAm?$AAk@ 10077e98     libucrt:lcidtoname_downlevel.obj
 0002:00006ea0       ??_C@_15JDNICKHM@?$AAa?$AAf@ 10077ea0     libucrt:lcidtoname_downlevel.obj
 0002:00006ea8       ??_C@_15KPJEDBKD@?$AAk?$AAa@ 10077ea8     libucrt:lcidtoname_downlevel.obj
 0002:00006eb0       ??_C@_15PDNFFFEO@?$AAf?$AAo@ 10077eb0     libucrt:lcidtoname_downlevel.obj
 0002:00006eb8       ??_C@_15OMLEGLOC@?$AAh?$AAi@ 10077eb8     libucrt:lcidtoname_downlevel.obj
 0002:00006ec0       ??_C@_15IDNNENKK@?$AAm?$AAs@ 10077ec0     libucrt:lcidtoname_downlevel.obj
 0002:00006ec8       ??_C@_15MACJNBMH@?$AAk?$AAk@ 10077ec8     libucrt:lcidtoname_downlevel.obj
 0002:00006ed0       ??_C@_15DKDJEOND@?$AAk?$AAy@ 10077ed0     libucrt:lcidtoname_downlevel.obj
 0002:00006ed8       ??_C@_15DFGDLJBG@?$AAs?$AAw@ 10077ed8     libucrt:lcidtoname_downlevel.obj
 0002:00006ee0       ??_C@_15BBFAICNG@?$AAu?$AAz@ 10077ee0     libucrt:lcidtoname_downlevel.obj
 0002:00006ee8       ??_C@_15DKNDCGEA@?$AAt?$AAt@ 10077ee8     libucrt:lcidtoname_downlevel.obj
 0002:00006ef0       ??_C@_15MGIFMDPL@?$AAp?$AAa@ 10077ef0     libucrt:lcidtoname_downlevel.obj
 0002:00006ef8       ??_C@_15HCNDBBA@?$AAg?$AAu@ 10077ef8     libucrt:lcidtoname_downlevel.obj
 0002:00006f00       ??_C@_15FNBEIBON@?$AAt?$AAa@ 10077f00     libucrt:lcidtoname_downlevel.obj
 0002:00006f08       ??_C@_15NCHGBGLK@?$AAt?$AAe@ 10077f08     libucrt:lcidtoname_downlevel.obj
 0002:00006f10       ??_C@_15PHPHCBPF@?$AAk?$AAn@ 10077f10     libucrt:lcidtoname_downlevel.obj
 0002:00006f18       ??_C@_15DLGBCKMP@?$AAm?$AAr@ 10077f18     libucrt:lcidtoname_downlevel.obj
 0002:00006f20       ??_C@_15EABBLBFF@?$AAs?$AAa@ 10077f20     libucrt:lcidtoname_downlevel.obj
 0002:00006f28       ??_C@_15CBKOMCOI@?$AAm?$AAn@ 10077f28     libucrt:lcidtoname_downlevel.obj
 0002:00006f30       ??_C@_15CKDMCJAF@?$AAg?$AAl@ 10077f30     libucrt:lcidtoname_downlevel.obj
 0002:00006f38       ??_C@_17CNJFBPG@?$AAk?$AAo?$AAk@ 10077f38     libucrt:lcidtoname_downlevel.obj
 0002:00006f40       ??_C@_17FFBJICPL@?$AAs?$AAy?$AAr@ 10077f40     libucrt:lcidtoname_downlevel.obj
 0002:00006f48       ??_C@_17KPNDCPAF@?$AAd?$AAi?$AAv@ 10077f48     libucrt:lcidtoname_downlevel.obj
 0002:00006f50       ??_C@_1M@OKAHONE@?$AAa?$AAr?$AA?9?$AAS?$AAA@ 10077f50     libucrt:lcidtoname_downlevel.obj
 0002:00006f5c       ??_C@_1M@FFFIGIGK@?$AAb?$AAg?$AA?9?$AAB?$AAG@ 10077f5c     libucrt:lcidtoname_downlevel.obj
 0002:00006f68       ??_C@_1M@BJNKEDC@?$AAc?$AAa?$AA?9?$AAE?$AAS@ 10077f68     libucrt:lcidtoname_downlevel.obj
 0002:00006f74       ??_C@_1M@IJJHFJHA@?$AAc?$AAs?$AA?9?$AAC?$AAZ@ 10077f74     libucrt:lcidtoname_downlevel.obj
 0002:00006f80       ??_C@_1M@CLPEOBGI@?$AAd?$AAa?$AA?9?$AAD?$AAK@ 10077f80     libucrt:lcidtoname_downlevel.obj
 0002:00006f8c       ??_C@_1M@MCMADGCB@?$AAd?$AAe?$AA?9?$AAD?$AAE@ 10077f8c     libucrt:lcidtoname_downlevel.obj
 0002:00006f98       ??_C@_1M@OOCKEMAM@?$AAe?$AAl?$AA?9?$AAG?$AAR@ 10077f98     libucrt:lcidtoname_downlevel.obj
 0002:00006fa4       ??_C@_1M@DDNJFGID@?$AAf?$AAi?$AA?9?$AAF?$AAI@ 10077fa4     libucrt:lcidtoname_downlevel.obj
 0002:00006fb0       ??_C@_1M@GLIPPMAC@?$AAf?$AAr?$AA?9?$AAF?$AAR@ 10077fb0     libucrt:lcidtoname_downlevel.obj
 0002:00006fbc       ??_C@_1M@GFMCHPE@?$AAh?$AAe?$AA?9?$AAI?$AAL@ 10077fbc     libucrt:lcidtoname_downlevel.obj
 0002:00006fc8       ??_C@_1M@MHLPGNKM@?$AAh?$AAu?$AA?9?$AAH?$AAU@ 10077fc8     libucrt:lcidtoname_downlevel.obj
 0002:00006fd4       ??_C@_1M@LPDDNNPN@?$AAi?$AAs?$AA?9?$AAI?$AAS@ 10077fd4     libucrt:lcidtoname_downlevel.obj
 0002:00006fe0       ??_C@_1M@MADIPODN@?$AAi?$AAt?$AA?9?$AAI?$AAT@ 10077fe0     libucrt:lcidtoname_downlevel.obj
 0002:00006fec       ??_C@_1M@IHBJJGG@?$AAn?$AAl?$AA?9?$AAN?$AAL@ 10077fec     libucrt:lcidtoname_downlevel.obj
 0002:00006ff8       ??_C@_1M@EANAGDL@?$AAn?$AAb?$AA?9?$AAN?$AAO@ 10077ff8     libucrt:lcidtoname_downlevel.obj
 0002:00007004       ??_C@_1M@NEIEMEGP@?$AAp?$AAl?$AA?9?$AAP?$AAL@ 10078004     libucrt:lcidtoname_downlevel.obj
 0002:00007010       ??_C@_1M@BOCFIGEP@?$AAp?$AAt?$AA?9?$AAB?$AAR@ 10078010     libucrt:lcidtoname_downlevel.obj
 0002:0000701c       ??_C@_1M@IMPFOPBG@?$AAr?$AAo?$AA?9?$AAR?$AAO@ 1007801c     libucrt:lcidtoname_downlevel.obj
 0002:00007028       ??_C@_1M@IDNNEJMM@?$AAr?$AAu?$AA?9?$AAR?$AAU@ 10078028     libucrt:lcidtoname_downlevel.obj
 0002:00007034       ??_C@_1M@LILEEOGM@?$AAh?$AAr?$AA?9?$AAH?$AAR@ 10078034     libucrt:lcidtoname_downlevel.obj
 0002:00007040       ??_C@_1M@FKIFEHPB@?$AAs?$AAk?$AA?9?$AAS?$AAK@ 10078040     libucrt:lcidtoname_downlevel.obj
 0002:0000704c       ??_C@_1M@LJMAMNPJ@?$AAs?$AAq?$AA?9?$AAA?$AAL@ 1007804c     libucrt:lcidtoname_downlevel.obj
 0002:00007058       ??_C@_1M@GIAKDKJK@?$AAs?$AAv?$AA?9?$AAS?$AAE@ 10078058     libucrt:lcidtoname_downlevel.obj
 0002:00007064       ??_C@_1M@MKJKIKCL@?$AAt?$AAh?$AA?9?$AAT?$AAH@ 10078064     libucrt:lcidtoname_downlevel.obj
 0002:00007070       ??_C@_1M@MFLCCMPB@?$AAt?$AAr?$AA?9?$AAT?$AAR@ 10078070     libucrt:lcidtoname_downlevel.obj
 0002:0000707c       ??_C@_1M@OIJHDKJN@?$AAu?$AAr?$AA?9?$AAP?$AAK@ 1007807c     libucrt:lcidtoname_downlevel.obj
 0002:00007088       ??_C@_1M@LHIPCIEK@?$AAi?$AAd?$AA?9?$AAI?$AAD@ 10078088     libucrt:lcidtoname_downlevel.obj
 0002:00007094       ??_C@_1M@MFMOBGI@?$AAu?$AAk?$AA?9?$AAU?$AAA@ 10078094     libucrt:lcidtoname_downlevel.obj
 0002:000070a0       ??_C@_1M@OBGLJIPL@?$AAb?$AAe?$AA?9?$AAB?$AAY@ 100780a0     libucrt:lcidtoname_downlevel.obj
 0002:000070ac       ??_C@_1M@BCFAJEAD@?$AAs?$AAl?$AA?9?$AAS?$AAI@ 100780ac     libucrt:lcidtoname_downlevel.obj
 0002:000070b8       ??_C@_1M@FKFFEDDN@?$AAe?$AAt?$AA?9?$AAE?$AAE@ 100780b8     libucrt:lcidtoname_downlevel.obj
 0002:000070c4       ??_C@_1M@KGKKAACI@?$AAl?$AAv?$AA?9?$AAL?$AAV@ 100780c4     libucrt:lcidtoname_downlevel.obj
 0002:000070d0       ??_C@_1M@IFGBIJO@?$AAl?$AAt?$AA?9?$AAL?$AAT@ 100780d0     libucrt:lcidtoname_downlevel.obj
 0002:000070dc       ??_C@_1M@FGEAHEDM@?$AAf?$AAa?$AA?9?$AAI?$AAR@ 100780dc     libucrt:lcidtoname_downlevel.obj
 0002:000070e8       ??_C@_1M@KBMAIBFN@?$AAv?$AAi?$AA?9?$AAV?$AAN@ 100780e8     libucrt:lcidtoname_downlevel.obj
 0002:000070f4       ??_C@_1M@GPCBKDJK@?$AAh?$AAy?$AA?9?$AAA?$AAM@ 100780f4     libucrt:lcidtoname_downlevel.obj
 0002:00007100       ??_C@_1BG@BECMDDJB@?$AAa?$AAz?$AA?9?$AAA?$AAZ?$AA?9?$AAL?$AAa?$AAt?$AAn@ 10078100     libucrt:lcidtoname_downlevel.obj
 0002:00007118       ??_C@_1M@MAOFCAEA@?$AAe?$AAu?$AA?9?$AAE?$AAS@ 10078118     libucrt:lcidtoname_downlevel.obj
 0002:00007124       ??_C@_1M@IGHABKPI@?$AAm?$AAk?$AA?9?$AAM?$AAK@ 10078124     libucrt:lcidtoname_downlevel.obj
 0002:00007130       ??_C@_1M@IAIGNEJG@?$AAt?$AAn?$AA?9?$AAZ?$AAA@ 10078130     libucrt:lcidtoname_downlevel.obj
 0002:0000713c       ??_C@_1M@IIJCOJFA@?$AAx?$AAh?$AA?9?$AAZ?$AAA@ 1007813c     libucrt:lcidtoname_downlevel.obj
 0002:00007148       ??_C@_1M@LGPJHNJH@?$AAz?$AAu?$AA?9?$AAZ?$AAA@ 10078148     libucrt:lcidtoname_downlevel.obj
 0002:00007154       ??_C@_1M@HOKAOIO@?$AAa?$AAf?$AA?9?$AAZ?$AAA@ 10078154     libucrt:lcidtoname_downlevel.obj
 0002:00007160       ??_C@_1M@DPCLHLIE@?$AAk?$AAa?$AA?9?$AAG?$AAE@ 10078160     libucrt:lcidtoname_downlevel.obj
 0002:0000716c       ??_C@_1M@BLKMHJBI@?$AAf?$AAo?$AA?9?$AAF?$AAO@ 1007816c     libucrt:lcidtoname_downlevel.obj
 0002:00007178       ??_C@_1M@LGGJAPPB@?$AAh?$AAi?$AA?9?$AAI?$AAN@ 10078178     libucrt:lcidtoname_downlevel.obj
 0002:00007184       ??_C@_1M@FIKPIHFE@?$AAm?$AAt?$AA?9?$AAM?$AAT@ 10078184     libucrt:lcidtoname_downlevel.obj
 0002:00007190       ??_C@_1M@HEGGPBFA@?$AAs?$AAe?$AA?9?$AAN?$AAO@ 10078190     libucrt:lcidtoname_downlevel.obj
 0002:0000719c       ??_C@_1M@EIBJEEPA@?$AAm?$AAs?$AA?9?$AAM?$AAY@ 1007819c     libucrt:lcidtoname_downlevel.obj
 0002:000071a8       ??_C@_1M@FHLBGMPP@?$AAk?$AAk?$AA?9?$AAK?$AAZ@ 100781a8     libucrt:lcidtoname_downlevel.obj
 0002:000071b4       ??_C@_1M@NGJJLCGI@?$AAk?$AAy?$AA?9?$AAK?$AAG@ 100781b4     libucrt:lcidtoname_downlevel.obj
 0002:000071c0       ??_C@_1M@GIENNBFC@?$AAs?$AAw?$AA?9?$AAK?$AAE@ 100781c0     libucrt:lcidtoname_downlevel.obj
 0002:000071cc       ??_C@_1BG@NDGMJIMJ@?$AAu?$AAz?$AA?9?$AAU?$AAZ?$AA?9?$AAL?$AAa?$AAt?$AAn@ 100781cc     libucrt:lcidtoname_downlevel.obj
 0002:000071e4       ??_C@_1M@IDCCIHBC@?$AAt?$AAt?$AA?9?$AAR?$AAU@ 100781e4     libucrt:lcidtoname_downlevel.obj
 0002:000071f0       ??_C@_1M@LOICPMOJ@?$AAb?$AAn?$AA?9?$AAI?$AAN@ 100781f0     libucrt:lcidtoname_downlevel.obj
 0002:000071fc       ??_C@_1M@KPKKNEAH@?$AAp?$AAa?$AA?9?$AAI?$AAN@ 100781fc     libucrt:lcidtoname_downlevel.obj
 0002:00007208       ??_C@_1M@PJGPPBOG@?$AAg?$AAu?$AA?9?$AAI?$AAN@ 10078208     libucrt:lcidtoname_downlevel.obj
 0002:00007214       ??_C@_1M@KMKMOPHI@?$AAt?$AAa?$AA?9?$AAI?$AAN@ 10078214     libucrt:lcidtoname_downlevel.obj
 0002:00007220       ??_C@_1M@KFEHEPAC@?$AAt?$AAe?$AA?9?$AAI?$AAN@ 10078220     libucrt:lcidtoname_downlevel.obj
 0002:0000722c       ??_C@_1M@CDCLMGHI@?$AAk?$AAn?$AA?9?$AAI?$AAN@ 1007822c     libucrt:lcidtoname_downlevel.obj
 0002:00007238       ??_C@_1M@MIODLDKF@?$AAm?$AAl?$AA?9?$AAI?$AAN@ 10078238     libucrt:lcidtoname_downlevel.obj
 0002:00007244       ??_C@_1M@PBIEACPO@?$AAm?$AAr?$AA?9?$AAI?$AAN@ 10078244     libucrt:lcidtoname_downlevel.obj
 0002:00007250       ??_C@_1M@NIDEAGPH@?$AAs?$AAa?$AA?9?$AAI?$AAN@ 10078250     libucrt:lcidtoname_downlevel.obj
 0002:0000725c       ??_C@_1M@FHIHCBIO@?$AAm?$AAn?$AA?9?$AAM?$AAN@ 1007825c     libucrt:lcidtoname_downlevel.obj
 0002:00007268       ??_C@_1M@JAIJPENP@?$AAc?$AAy?$AA?9?$AAG?$AAB@ 10078268     libucrt:lcidtoname_downlevel.obj
 0002:00007274       ??_C@_1M@PHGFBEPN@?$AAg?$AAl?$AA?9?$AAE?$AAS@ 10078274     libucrt:lcidtoname_downlevel.obj
 0002:00007280       ??_C@_1O@KPIPDNCP@?$AAk?$AAo?$AAk?$AA?9?$AAI?$AAN@ 10078280     libucrt:lcidtoname_downlevel.obj
 0002:00007290       ??_C@_1O@KNHJLDJA@?$AAs?$AAy?$AAr?$AA?9?$AAS?$AAY@ 10078290     libucrt:lcidtoname_downlevel.obj
 0002:000072a0       ??_C@_1O@MKEKBLAH@?$AAd?$AAi?$AAv?$AA?9?$AAM?$AAV@ 100782a0     libucrt:lcidtoname_downlevel.obj
 0002:000072b0       ??_C@_1O@OHDCKDDF@?$AAq?$AAu?$AAz?$AA?9?$AAB?$AAO@ 100782b0     libucrt:lcidtoname_downlevel.obj
 0002:000072c0       ??_C@_1M@LEPJNLFD@?$AAn?$AAs?$AA?9?$AAZ?$AAA@ 100782c0     libucrt:lcidtoname_downlevel.obj
 0002:000072cc       ??_C@_1M@OMLEIIJB@?$AAm?$AAi?$AA?9?$AAN?$AAZ@ 100782cc     libucrt:lcidtoname_downlevel.obj
 0002:000072d8       ??_C@_1M@PMPEAILG@?$AAa?$AAr?$AA?9?$AAI?$AAQ@ 100782d8     libucrt:lcidtoname_downlevel.obj
 0002:000072e4       ??_C@_1M@CNKPNOEE@?$AAd?$AAe?$AA?9?$AAC?$AAH@ 100782e4     libucrt:lcidtoname_downlevel.obj
 0002:000072f0       ??_C@_1M@LKMGMLKO@?$AAe?$AAn?$AA?9?$AAG?$AAB@ 100782f0     libucrt:lcidtoname_downlevel.obj
 0002:000072fc       ??_C@_1M@PGKJFFGL@?$AAe?$AAs?$AA?9?$AAM?$AAX@ 100782fc     libucrt:lcidtoname_downlevel.obj
 0002:00007308       ??_C@_1M@DNNANBDC@?$AAf?$AAr?$AA?9?$AAB?$AAE@ 10078308     libucrt:lcidtoname_downlevel.obj
 0002:00007314       ??_C@_1M@HLGMDFHM@?$AAi?$AAt?$AA?9?$AAC?$AAH@ 10078314     libucrt:lcidtoname_downlevel.obj
 0002:00007320       ??_C@_1M@CLLBGJH@?$AAn?$AAl?$AA?9?$AAB?$AAE@ 10078320     libucrt:lcidtoname_downlevel.obj
 0002:0000732c       ??_C@_1M@BODBOGLF@?$AAn?$AAn?$AA?9?$AAN?$AAO@ 1007832c     libucrt:lcidtoname_downlevel.obj
 0002:00007338       ??_C@_1M@HFFAHKAD@?$AAp?$AAt?$AA?9?$AAP?$AAT@ 10078338     libucrt:lcidtoname_downlevel.obj
 0002:00007344       ??_C@_1BG@LNOAKHIE@?$AAs?$AAr?$AA?9?$AAS?$AAP?$AA?9?$AAL?$AAa?$AAt?$AAn@ 10078344     libucrt:lcidtoname_downlevel.obj
 0002:0000735c       ??_C@_1M@HBMHBGAK@?$AAs?$AAv?$AA?9?$AAF?$AAI@ 1007835c     libucrt:lcidtoname_downlevel.obj
 0002:00007368       ??_C@_1BG@DGCJGJBE@?$AAa?$AAz?$AA?9?$AAA?$AAZ?$AA?9?$AAC?$AAy?$AAr?$AAl@ 10078368     libucrt:lcidtoname_downlevel.obj
 0002:00007380       ??_C@_1M@KEJDAAHB@?$AAs?$AAe?$AA?9?$AAS?$AAE@ 10078380     libucrt:lcidtoname_downlevel.obj
 0002:0000738c       ??_C@_1M@HEIBJJAD@?$AAm?$AAs?$AA?9?$AAB?$AAN@ 1007838c     libucrt:lcidtoname_downlevel.obj
 0002:00007398       ??_C@_1BG@PBGJMCEM@?$AAu?$AAz?$AA?9?$AAU?$AAZ?$AA?9?$AAC?$AAy?$AAr?$AAl@ 10078398     libucrt:lcidtoname_downlevel.obj
 0002:000073b0       ??_C@_1O@LAOBCMDF@?$AAq?$AAu?$AAz?$AA?9?$AAE?$AAC@ 100783b0     libucrt:lcidtoname_downlevel.obj
 0002:000073c0       ??_C@_1M@POEEMAIO@?$AAa?$AAr?$AA?9?$AAE?$AAG@ 100783c0     libucrt:lcidtoname_downlevel.obj
 0002:000073cc       ??_C@_1M@EFAKDEDL@?$AAz?$AAh?$AA?9?$AAH?$AAK@ 100783cc     libucrt:lcidtoname_downlevel.obj
 0002:000073d8       ??_C@_1M@HKKIJHGI@?$AAd?$AAe?$AA?9?$AAA?$AAT@ 100783d8     libucrt:lcidtoname_downlevel.obj
 0002:000073e4       ??_C@_1M@KBFBEHJF@?$AAe?$AAn?$AA?9?$AAA?$AAU@ 100783e4     libucrt:lcidtoname_downlevel.obj
 0002:000073f0       ??_C@_1M@MNPLFAAH@?$AAe?$AAs?$AA?9?$AAE?$AAS@ 100783f0     libucrt:lcidtoname_downlevel.obj
 0002:000073fc       ??_C@_1M@HJOOJFMA@?$AAf?$AAr?$AA?9?$AAC?$AAA@ 100783fc     libucrt:lcidtoname_downlevel.obj
 0002:00007408       ??_C@_1BG@JPOFPNAB@?$AAs?$AAr?$AA?9?$AAS?$AAP?$AA?9?$AAC?$AAy?$AAr?$AAl@ 10078408     libucrt:lcidtoname_downlevel.obj
 0002:00007420       ??_C@_1M@LNFOCMOB@?$AAs?$AAe?$AA?9?$AAF?$AAI@ 10078420     libucrt:lcidtoname_downlevel.obj
 0002:0000742c       ??_C@_1O@MGJBOAMB@?$AAq?$AAu?$AAz?$AA?9?$AAP?$AAE@ 1007842c     libucrt:lcidtoname_downlevel.obj
 0002:0000743c       ??_C@_1M@GJINLBOK@?$AAa?$AAr?$AA?9?$AAL?$AAY@ 1007843c     libucrt:lcidtoname_downlevel.obj
 0002:00007448       ??_C@_1M@GGMNHJNL@?$AAz?$AAh?$AA?9?$AAS?$AAG@ 10078448     libucrt:lcidtoname_downlevel.obj
 0002:00007454       ??_C@_1M@HOIKODND@?$AAd?$AAe?$AA?9?$AAL?$AAU@ 10078454     libucrt:lcidtoname_downlevel.obj
 0002:00007460       ??_C@_1M@DDOCCGFG@?$AAe?$AAn?$AA?9?$AAC?$AAA@ 10078460     libucrt:lcidtoname_downlevel.obj
 0002:0000746c       ??_C@_1M@BNOEMJLF@?$AAe?$AAs?$AA?9?$AAG?$AAT@ 1007846c     libucrt:lcidtoname_downlevel.obj
 0002:00007478       ??_C@_1M@EOGNKEK@?$AAf?$AAr?$AA?9?$AAC?$AAH@ 10078478     libucrt:lcidtoname_downlevel.obj
 0002:00007484       ??_C@_1M@FLIDJFHL@?$AAh?$AAr?$AA?9?$AAB?$AAA@ 10078484     libucrt:lcidtoname_downlevel.obj
 0002:00007490       ??_C@_1O@FMCELNAJ@?$AAs?$AAm?$AAj?$AA?9?$AAN?$AAO@ 10078490     libucrt:lcidtoname_downlevel.obj
 0002:000074a0       ??_C@_1M@JHGLJMGJ@?$AAa?$AAr?$AA?9?$AAD?$AAZ@ 100784a0     libucrt:lcidtoname_downlevel.obj
 0002:000074ac       ??_C@_1M@JKKFDCNP@?$AAz?$AAh?$AA?9?$AAM?$AAO@ 100784ac     libucrt:lcidtoname_downlevel.obj
 0002:000074b8       ??_C@_1M@GEEFALPE@?$AAd?$AAe?$AA?9?$AAL?$AAI@ 100784b8     libucrt:lcidtoname_downlevel.obj
 0002:000074c4       ??_C@_1M@IGEOFBG@?$AAe?$AAn?$AA?9?$AAN?$AAZ@ 100784c4     libucrt:lcidtoname_downlevel.obj
 0002:000074d0       ??_C@_1M@KDBONEHP@?$AAe?$AAs?$AA?9?$AAC?$AAR@ 100784d0     libucrt:lcidtoname_downlevel.obj
 0002:000074dc       ??_C@_1M@FHMDOHNN@?$AAf?$AAr?$AA?9?$AAL?$AAU@ 100784dc     libucrt:lcidtoname_downlevel.obj
 0002:000074e8       ??_C@_1BG@NFKKMAFG@?$AAb?$AAs?$AA?9?$AAB?$AAA?$AA?9?$AAL?$AAa?$AAt?$AAn@ 100784e8     libucrt:lcidtoname_downlevel.obj
 0002:00007500       ??_C@_1O@IMNBEMCI@?$AAs?$AAm?$AAj?$AA?9?$AAS?$AAE@ 10078500     libucrt:lcidtoname_downlevel.obj
 0002:00007510       ??_C@_1M@DHHMBNDP@?$AAa?$AAr?$AA?9?$AAM?$AAA@ 10078510     libucrt:lcidtoname_downlevel.obj
 0002:0000751c       ??_C@_1M@BNBLJCGH@?$AAe?$AAn?$AA?9?$AAI?$AAE@ 1007851c     libucrt:lcidtoname_downlevel.obj
 0002:00007528       ??_C@_1M@GEPAFMDL@?$AAe?$AAs?$AA?9?$AAP?$AAA@ 10078528     libucrt:lcidtoname_downlevel.obj
 0002:00007534       ??_C@_1M@OJONDMDL@?$AAf?$AAr?$AA?9?$AAM?$AAC@ 10078534     libucrt:lcidtoname_downlevel.obj
 0002:00007540       ??_C@_1BG@OBCNFJB@?$AAs?$AAr?$AA?9?$AAB?$AAA?$AA?9?$AAL?$AAa?$AAt?$AAn@ 10078540     libucrt:lcidtoname_downlevel.obj
 0002:00007558       ??_C@_1O@KEMEEGPO@?$AAs?$AAm?$AAa?$AA?9?$AAN?$AAO@ 10078558     libucrt:lcidtoname_downlevel.obj
 0002:00007568       ??_C@_1M@ELMGFODK@?$AAa?$AAr?$AA?9?$AAT?$AAN@ 10078568     libucrt:lcidtoname_downlevel.obj
 0002:00007574       ??_C@_1M@BHDLHFAF@?$AAe?$AAn?$AA?9?$AAZ?$AAA@ 10078574     libucrt:lcidtoname_downlevel.obj
 0002:00007580       ??_C@_1M@BMGIGLIF@?$AAe?$AAs?$AA?9?$AAD?$AAO@ 10078580     libucrt:lcidtoname_downlevel.obj
 0002:0000758c       ??_C@_1BG@CMBHIPBE@?$AAs?$AAr?$AA?9?$AAB?$AAA?$AA?9?$AAC?$AAy?$AAr?$AAl@ 1007858c     libucrt:lcidtoname_downlevel.obj
 0002:000075a4       ??_C@_1O@HEDBLHNP@?$AAs?$AAm?$AAa?$AA?9?$AAS?$AAE@ 100785a4     libucrt:lcidtoname_downlevel.obj
 0002:000075b4       ??_C@_1M@DAGCADIM@?$AAa?$AAr?$AA?9?$AAO?$AAM@ 100785b4     libucrt:lcidtoname_downlevel.obj
 0002:000075c0       ??_C@_1M@FODLMICG@?$AAe?$AAn?$AA?9?$AAJ?$AAM@ 100785c0     libucrt:lcidtoname_downlevel.obj
 0002:000075cc       ??_C@_1M@DNMLCIHB@?$AAe?$AAs?$AA?9?$AAV?$AAE@ 100785cc     libucrt:lcidtoname_downlevel.obj
 0002:000075d8       ??_C@_1O@EOKHMKJK@?$AAs?$AAm?$AAs?$AA?9?$AAF?$AAI@ 100785d8     libucrt:lcidtoname_downlevel.obj
 0002:000075e8       ??_C@_1M@CAFJMKOF@?$AAa?$AAr?$AA?9?$AAY?$AAE@ 100785e8     libucrt:lcidtoname_downlevel.obj
 0002:000075f4       ??_C@_1M@CBFHIJLI@?$AAe?$AAn?$AA?9?$AAC?$AAB@ 100785f4     libucrt:lcidtoname_downlevel.obj
 0002:00007600       ??_C@_1M@BGNFLDN@?$AAe?$AAs?$AA?9?$AAC?$AAO@ 10078600     libucrt:lcidtoname_downlevel.obj
 0002:0000760c       ??_C@_1O@JMPHMAMC@?$AAs?$AAm?$AAn?$AA?9?$AAF?$AAI@ 1007860c     libucrt:lcidtoname_downlevel.obj
 0002:0000761c       ??_C@_1M@JLANABKE@?$AAa?$AAr?$AA?9?$AAS?$AAY@ 1007861c     libucrt:lcidtoname_downlevel.obj
 0002:00007628       ??_C@_1M@HPKGCFGN@?$AAe?$AAn?$AA?9?$AAB?$AAZ@ 10078628     libucrt:lcidtoname_downlevel.obj
 0002:00007634       ??_C@_1M@OLJCMLGM@?$AAe?$AAs?$AA?9?$AAP?$AAE@ 10078634     libucrt:lcidtoname_downlevel.obj
 0002:00007640       ??_C@_1M@MKKGFKLE@?$AAa?$AAr?$AA?9?$AAJ?$AAO@ 10078640     libucrt:lcidtoname_downlevel.obj
 0002:0000764c       ??_C@_1M@EKPGLDNI@?$AAe?$AAn?$AA?9?$AAT?$AAT@ 1007864c     libucrt:lcidtoname_downlevel.obj
 0002:00007658       ??_C@_1M@OONGHFHE@?$AAe?$AAs?$AA?9?$AAA?$AAR@ 10078658     libucrt:lcidtoname_downlevel.obj
 0002:00007664       ??_C@_1M@OOJFGBHE@?$AAa?$AAr?$AA?9?$AAL?$AAB@ 10078664     libucrt:lcidtoname_downlevel.obj
 0002:00007670       ??_C@_1M@GCEJHNEG@?$AAe?$AAn?$AA?9?$AAZ?$AAW@ 10078670     libucrt:lcidtoname_downlevel.obj
 0002:0000767c       ??_C@_1M@JNOCAHJI@?$AAe?$AAs?$AA?9?$AAE?$AAC@ 1007867c     libucrt:lcidtoname_downlevel.obj
 0002:00007688       ??_C@_1M@JEFHPGGB@?$AAa?$AAr?$AA?9?$AAK?$AAW@ 10078688     libucrt:lcidtoname_downlevel.obj
 0002:00007694       ??_C@_1M@MLKIBJOJ@?$AAe?$AAn?$AA?9?$AAP?$AAH@ 10078694     libucrt:lcidtoname_downlevel.obj
 0002:000076a0       ??_C@_1M@BDNIPEND@?$AAe?$AAs?$AA?9?$AAC?$AAL@ 100786a0     libucrt:lcidtoname_downlevel.obj
 0002:000076ac       ??_C@_1M@MPNMEKBD@?$AAa?$AAr?$AA?9?$AAA?$AAE@ 100786ac     libucrt:lcidtoname_downlevel.obj
 0002:000076b8       ??_C@_1M@KBJALCPI@?$AAe?$AAs?$AA?9?$AAU?$AAY@ 100786b8     libucrt:lcidtoname_downlevel.obj
 0002:000076c4       ??_C@_1M@LLCCOAGA@?$AAa?$AAr?$AA?9?$AAB?$AAH@ 100786c4     libucrt:lcidtoname_downlevel.obj
 0002:000076d0       ??_C@_1M@PBFNCDEL@?$AAe?$AAs?$AA?9?$AAP?$AAY@ 100786d0     libucrt:lcidtoname_downlevel.obj
 0002:000076dc       ??_C@_1M@EDGINPNP@?$AAa?$AAr?$AA?9?$AAQ?$AAA@ 100786dc     libucrt:lcidtoname_downlevel.obj
 0002:000076e8       ??_C@_1M@MKDBIIJI@?$AAe?$AAs?$AA?9?$AAB?$AAO@ 100786e8     libucrt:lcidtoname_downlevel.obj
 0002:000076f4       ??_C@_1M@CPKKEBLD@?$AAe?$AAs?$AA?9?$AAS?$AAV@ 100786f4     libucrt:lcidtoname_downlevel.obj
 0002:00007700       ??_C@_1M@NDBGMMJL@?$AAe?$AAs?$AA?9?$AAH?$AAN@ 10078700     libucrt:lcidtoname_downlevel.obj
 0002:0000770c       ??_C@_1M@JIJIBHDP@?$AAe?$AAs?$AA?9?$AAN?$AAI@ 1007870c     libucrt:lcidtoname_downlevel.obj
 0002:00007718       ??_C@_1M@CGFMKEEK@?$AAe?$AAs?$AA?9?$AAP?$AAR@ 10078718     libucrt:lcidtoname_downlevel.obj
 0002:00007724       ??_C@_1O@ICJHKIIK@?$AAz?$AAh?$AA?9?$AAC?$AAH?$AAT@ 10078724     libucrt:lcidtoname_downlevel.obj
 0002:00007734       ??_C@_15CLNEJCE@?$AAs?$AAr@ 10078734     libucrt:lcidtoname_downlevel.obj
 0002:00007e60       ??_C@_1M@KAHEKEIG@?$AAa?$AAf?$AA?9?$AAz?$AAa@ 10078e60     libucrt:lcidtoname_downlevel.obj
 0002:00007e6c       ??_C@_1M@GIECOABL@?$AAa?$AAr?$AA?9?$AAa?$AAe@ 10078e6c     libucrt:lcidtoname_downlevel.obj
 0002:00007e78       ??_C@_1M@BMLMEKGI@?$AAa?$AAr?$AA?9?$AAb?$AAh@ 10078e78     libucrt:lcidtoname_downlevel.obj
 0002:00007e84       ??_C@_1M@DAPFDGGB@?$AAa?$AAr?$AA?9?$AAd?$AAz@ 10078e84     libucrt:lcidtoname_downlevel.obj
 0002:00007e90       ??_C@_1M@FJNKGKIG@?$AAa?$AAr?$AA?9?$AAe?$AAg@ 10078e90     libucrt:lcidtoname_downlevel.obj
 0002:00007e9c       ??_C@_1M@FLGKKCLO@?$AAa?$AAr?$AA?9?$AAi?$AAq@ 10078e9c     libucrt:lcidtoname_downlevel.obj
 0002:00007ea8       ??_C@_1M@GNDIPALM@?$AAa?$AAr?$AA?9?$AAj?$AAo@ 10078ea8     libucrt:lcidtoname_downlevel.obj
 0002:00007eb4       ??_C@_1M@DDMJFMGJ@?$AAa?$AAr?$AA?9?$AAk?$AAw@ 10078eb4     libucrt:lcidtoname_downlevel.obj
 0002:00007ec0       ??_C@_1M@EJALMLHM@?$AAa?$AAr?$AA?9?$AAl?$AAb@ 10078ec0     libucrt:lcidtoname_downlevel.obj
 0002:00007ecc       ??_C@_1M@MOBDBLOC@?$AAa?$AAr?$AA?9?$AAl?$AAy@ 10078ecc     libucrt:lcidtoname_downlevel.obj
 0002:00007ed8       ??_C@_1M@JAOCLHDH@?$AAa?$AAr?$AA?9?$AAm?$AAa@ 10078ed8     libucrt:lcidtoname_downlevel.obj
 0002:00007ee4       ??_C@_1M@JHPMKJIE@?$AAa?$AAr?$AA?9?$AAo?$AAm@ 10078ee4     libucrt:lcidtoname_downlevel.obj
 0002:00007ef0       ??_C@_1M@OEPGHFNH@?$AAa?$AAr?$AA?9?$AAq?$AAa@ 10078ef0     libucrt:lcidtoname_downlevel.obj
 0002:00007efc       ??_C@_1M@KJDONENM@?$AAa?$AAr?$AA?9?$AAs?$AAa@ 10078efc     libucrt:lcidtoname_downlevel.obj
 0002:00007f08       ??_C@_1M@DMJDKLKM@?$AAa?$AAr?$AA?9?$AAs?$AAy@ 10078f08     libucrt:lcidtoname_downlevel.obj
 0002:00007f14       ??_C@_1M@OMFIPEDC@?$AAa?$AAr?$AA?9?$AAt?$AAn@ 10078f14     libucrt:lcidtoname_downlevel.obj
 0002:00007f20       ??_C@_1M@IHMHGAON@?$AAa?$AAr?$AA?9?$AAy?$AAe@ 10078f20     libucrt:lcidtoname_downlevel.obj
 0002:00007f2c       ??_C@_1BG@KDCPGJGB@?$AAa?$AAz?$AA?9?$AAa?$AAz?$AA?9?$AAc?$AAy?$AAr?$AAl@ 10078f2c     libucrt:lcidtoname_downlevel.obj
 0002:00007f44       ??_C@_1BG@IBCKDDOE@?$AAa?$AAz?$AA?9?$AAa?$AAz?$AA?9?$AAl?$AAa?$AAt?$AAn@ 10078f44     libucrt:lcidtoname_downlevel.obj
 0002:00007f5c       ??_C@_1M@EGPFDCPD@?$AAb?$AAe?$AA?9?$AAb?$AAy@ 10078f5c     libucrt:lcidtoname_downlevel.obj
 0002:00007f68       ??_C@_1M@PCMGMCGC@?$AAb?$AAg?$AA?9?$AAb?$AAg@ 10078f68     libucrt:lcidtoname_downlevel.obj
 0002:00007f74       ??_C@_1M@BJBMFGOB@?$AAb?$AAn?$AA?9?$AAi?$AAn@ 10078f74     libucrt:lcidtoname_downlevel.obj
 0002:00007f80       ??_C@_1BG@EAKMMACD@?$AAb?$AAs?$AA?9?$AAb?$AAa?$AA?9?$AAl?$AAa?$AAt?$AAn@ 10078f80     libucrt:lcidtoname_downlevel.obj
 0002:00007f98       ??_C@_1M@KGADAODK@?$AAc?$AAa?$AA?9?$AAe?$AAs@ 10078f98     libucrt:lcidtoname_downlevel.obj
 0002:00007fa4       ??_C@_1M@COAJPDHI@?$AAc?$AAs?$AA?9?$AAc?$AAz@ 10078fa4     libucrt:lcidtoname_downlevel.obj
 0002:00007fb0       ??_C@_1M@DHBHFONH@?$AAc?$AAy?$AA?9?$AAg?$AAb@ 10078fb0     libucrt:lcidtoname_downlevel.obj
 0002:00007fbc       ??_C@_1M@IMGKELGA@?$AAd?$AAa?$AA?9?$AAd?$AAk@ 10078fbc     libucrt:lcidtoname_downlevel.obj
 0002:00007fc8       ??_C@_1M@NNDGDNGA@?$AAd?$AAe?$AA?9?$AAa?$AAt@ 10078fc8     libucrt:lcidtoname_downlevel.obj
 0002:00007fd4       ??_C@_1M@IKDBHEEM@?$AAd?$AAe?$AA?9?$AAc?$AAh@ 10078fd4     libucrt:lcidtoname_downlevel.obj
 0002:00007fe0       ??_C@_1M@GFFOJMCJ@?$AAd?$AAe?$AA?9?$AAd?$AAe@ 10078fe0     libucrt:lcidtoname_downlevel.obj
 0002:00007fec       ??_C@_1M@MDNLKBPM@?$AAd?$AAe?$AA?9?$AAl?$AAi@ 10078fec     libucrt:lcidtoname_downlevel.obj
 0002:00007ff8       ??_C@_1M@NJBEEJNL@?$AAd?$AAe?$AA?9?$AAl?$AAu@ 10078ff8     libucrt:lcidtoname_downlevel.obj
 0002:00008004       ??_C@_1O@GNNELBAP@?$AAd?$AAi?$AAv?$AA?9?$AAm?$AAv@ 10079004     libucrt:lcidtoname_downlevel.obj
 0002:00008014       ??_C@_1M@EJLEOGAE@?$AAe?$AAl?$AA?9?$AAg?$AAr@ 10079014     libucrt:lcidtoname_downlevel.obj
 0002:00008020       ??_C@_1M@GMPONJN@?$AAe?$AAn?$AA?9?$AAa?$AAu@ 10079020     libucrt:lcidtoname_downlevel.obj
 0002:0000802c       ??_C@_1M@NIDIIPGF@?$AAe?$AAn?$AA?9?$AAb?$AAz@ 1007902c     libucrt:lcidtoname_downlevel.obj
 0002:00008038       ??_C@_1M@JEHMIMFO@?$AAe?$AAn?$AA?9?$AAc?$AAa@ 10079038     libucrt:lcidtoname_downlevel.obj
 0002:00008044       ??_C@_1M@IGMJCDLA@?$AAe?$AAn?$AA?9?$AAc?$AAb@ 10079044     libucrt:lcidtoname_downlevel.obj
 0002:00008050       ??_C@_1M@BNFIGBKG@?$AAe?$AAn?$AA?9?$AAg?$AAb@ 10079050     libucrt:lcidtoname_downlevel.obj
 0002:0000805c       ??_C@_1M@LKIFDIGP@?$AAe?$AAn?$AA?9?$AAi?$AAe@ 1007905c     libucrt:lcidtoname_downlevel.obj
 0002:00008068       ??_C@_1M@PJKFGCCO@?$AAe?$AAn?$AA?9?$AAj?$AAm@ 10079068     libucrt:lcidtoname_downlevel.obj
 0002:00008074       ??_C@_1M@KPPKEPBO@?$AAe?$AAn?$AA?9?$AAn?$AAz@ 10079074     libucrt:lcidtoname_downlevel.obj
 0002:00008080       ??_C@_1M@GMDGLDOB@?$AAe?$AAn?$AA?9?$AAp?$AAh@ 10079080     libucrt:lcidtoname_downlevel.obj
 0002:0000808c       ??_C@_1M@ONGIBJNA@?$AAe?$AAn?$AA?9?$AAt?$AAt@ 1007908c     libucrt:lcidtoname_downlevel.obj
 0002:00008098       ??_C@_1M@LLODPCMM@?$AAe?$AAn?$AA?9?$AAu?$AAs@ 10079098     libucrt:lcidtoname_downlevel.obj
 0002:000080a4       ??_C@_1M@LAKFNPAN@?$AAe?$AAn?$AA?9?$AAz?$AAa@ 100790a4     libucrt:lcidtoname_downlevel.obj
 0002:000080b0       ??_C@_1M@MFNHNHEO@?$AAe?$AAn?$AA?9?$AAz?$AAw@ 100790b0     libucrt:lcidtoname_downlevel.obj
 0002:000080bc       ??_C@_1M@EJEINPHM@?$AAe?$AAs?$AA?9?$AAa?$AAr@ 100790bc     libucrt:lcidtoname_downlevel.obj
 0002:000080c8       ??_C@_1M@GNKPCCJA@?$AAe?$AAs?$AA?9?$AAb?$AAo@ 100790c8     libucrt:lcidtoname_downlevel.obj
 0002:000080d4       ??_C@_1M@LEEGFONL@?$AAe?$AAs?$AA?9?$AAc?$AAl@ 100790d4     libucrt:lcidtoname_downlevel.obj
 0002:000080e0       ??_C@_1M@KGPDPBDF@?$AAe?$AAs?$AA?9?$AAc?$AAo@ 100790e0     libucrt:lcidtoname_downlevel.obj
 0002:000080ec       ??_C@_1M@EIAHOHH@?$AAe?$AAs?$AA?9?$AAc?$AAr@ 100790ec     libucrt:lcidtoname_downlevel.obj
 0002:000080f8       ??_C@_1M@LLPGMBIN@?$AAe?$AAs?$AA?9?$AAd?$AAo@ 100790f8     libucrt:lcidtoname_downlevel.obj
 0002:00008104       ??_C@_1M@DKHMKNJA@?$AAe?$AAs?$AA?9?$AAe?$AAc@ 10079104     libucrt:lcidtoname_downlevel.obj
 0002:00008110       ??_C@_1M@GKGFPKAP@?$AAe?$AAs?$AA?9?$AAe?$AAs@ 10079110     libucrt:lcidtoname_downlevel.obj
 0002:0000811c       ??_C@_1M@LKHKGDLN@?$AAe?$AAs?$AA?9?$AAg?$AAt@ 1007911c     libucrt:lcidtoname_downlevel.obj
 0002:00008128       ??_C@_1M@HEIIGGJD@?$AAe?$AAs?$AA?9?$AAh?$AAn@ 10079128     libucrt:lcidtoname_downlevel.obj
 0002:00008134       ??_C@_1M@FBDHPPGD@?$AAe?$AAs?$AA?9?$AAm?$AAx@ 10079134     libucrt:lcidtoname_downlevel.obj
 0002:00008140       ??_C@_1M@DPAGLNDH@?$AAe?$AAs?$AA?9?$AAn?$AAi@ 10079140     libucrt:lcidtoname_downlevel.obj
 0002:0000814c       ??_C@_1M@MDGOPGDD@?$AAe?$AAs?$AA?9?$AAp?$AAa@ 1007914c     libucrt:lcidtoname_downlevel.obj
 0002:00008158       ??_C@_1M@EMAMGBGE@?$AAe?$AAs?$AA?9?$AAp?$AAe@ 10079158     libucrt:lcidtoname_downlevel.obj
 0002:00008164       ??_C@_1M@IBMCAOEC@?$AAe?$AAs?$AA?9?$AAp?$AAr@ 10079164     libucrt:lcidtoname_downlevel.obj
 0002:00008170       ??_C@_1M@FGMDIJED@?$AAe?$AAs?$AA?9?$AAp?$AAy@ 10079170     libucrt:lcidtoname_downlevel.obj
 0002:0000817c       ??_C@_1M@IIDEOLLL@?$AAe?$AAs?$AA?9?$AAs?$AAv@ 1007917c     libucrt:lcidtoname_downlevel.obj
 0002:00008188       ??_C@_1M@GAOBIPA@?$AAe?$AAs?$AA?9?$AAu?$AAy@ 10079188     libucrt:lcidtoname_downlevel.obj
 0002:00008194       ??_C@_1M@JKFFICHJ@?$AAe?$AAs?$AA?9?$AAv?$AAe@ 10079194     libucrt:lcidtoname_downlevel.obj
 0002:000081a0       ??_C@_1M@PNMLOJDF@?$AAe?$AAt?$AA?9?$AAe?$AAe@ 100791a0     libucrt:lcidtoname_downlevel.obj
 0002:000081ac       ??_C@_1M@GHHLIKEI@?$AAe?$AAu?$AA?9?$AAe?$AAs@ 100791ac     libucrt:lcidtoname_downlevel.obj
 0002:000081b8       ??_C@_1M@PBNONODE@?$AAf?$AAa?$AA?9?$AAi?$AAr@ 100791b8     libucrt:lcidtoname_downlevel.obj
 0002:000081c4       ??_C@_1M@JEEHPMIL@?$AAf?$AAi?$AA?9?$AAf?$AAi@ 100791c4     libucrt:lcidtoname_downlevel.obj
 0002:000081d0       ??_C@_1M@LMDCNDBA@?$AAf?$AAo?$AA?9?$AAf?$AAo@ 100791d0     libucrt:lcidtoname_downlevel.obj
 0002:000081dc       ??_C@_1M@JKEOHLDK@?$AAf?$AAr?$AA?9?$AAb?$AAe@ 100791dc     libucrt:lcidtoname_downlevel.obj
 0002:000081e8       ??_C@_1M@NOHADPMI@?$AAf?$AAr?$AA?9?$AAc?$AAa@ 100791e8     libucrt:lcidtoname_downlevel.obj
 0002:000081f4       ??_C@_1M@KDHIHAEC@?$AAf?$AAr?$AA?9?$AAc?$AAh@ 100791f4     libucrt:lcidtoname_downlevel.obj
 0002:00008200       ??_C@_1M@MMBBFGAK@?$AAf?$AAr?$AA?9?$AAf?$AAr@ 10079200     libucrt:lcidtoname_downlevel.obj
 0002:0000820c       ??_C@_1M@PAFNENNF@?$AAf?$AAr?$AA?9?$AAl?$AAu@ 1007920c     libucrt:lcidtoname_downlevel.obj
 0002:00008218       ??_C@_1M@EOHDJGDD@?$AAf?$AAr?$AA?9?$AAm?$AAc@ 10079218     libucrt:lcidtoname_downlevel.obj
 0002:00008224       ??_C@_1M@FAPLLOPF@?$AAg?$AAl?$AA?9?$AAe?$AAs@ 10079224     libucrt:lcidtoname_downlevel.obj
 0002:00008230       ??_C@_1M@FOPBFLOO@?$AAg?$AAu?$AA?9?$AAi?$AAn@ 10079230     libucrt:lcidtoname_downlevel.obj
 0002:0000823c       ??_C@_1M@KBMCINPM@?$AAh?$AAe?$AA?9?$AAi?$AAl@ 1007923c     libucrt:lcidtoname_downlevel.obj
 0002:00008248       ??_C@_1M@BBPHKFPJ@?$AAh?$AAi?$AA?9?$AAi?$AAn@ 10079248     libucrt:lcidtoname_downlevel.obj
 0002:00008254       ??_C@_1M@PMBNDPHD@?$AAh?$AAr?$AA?9?$AAb?$AAa@ 10079254     libucrt:lcidtoname_downlevel.obj
 0002:00008260       ??_C@_1M@BPCKOEGE@?$AAh?$AAr?$AA?9?$AAh?$AAr@ 10079260     libucrt:lcidtoname_downlevel.obj
 0002:0000826c       ??_C@_1M@GACBMHKE@?$AAh?$AAu?$AA?9?$AAh?$AAu@ 1007926c     libucrt:lcidtoname_downlevel.obj
 0002:00008278       ??_C@_1M@MILPAJJC@?$AAh?$AAy?$AA?9?$AAa?$AAm@ 10079278     libucrt:lcidtoname_downlevel.obj
 0002:00008284       ??_C@_1M@BABBICEC@?$AAi?$AAd?$AA?9?$AAi?$AAd@ 10079284     libucrt:lcidtoname_downlevel.obj
 0002:00008290       ??_C@_1M@BIKNHHPF@?$AAi?$AAs?$AA?9?$AAi?$AAs@ 10079290     libucrt:lcidtoname_downlevel.obj
 0002:0000829c       ??_C@_1M@NMPCJPHE@?$AAi?$AAt?$AA?9?$AAc?$AAh@ 1007929c     libucrt:lcidtoname_downlevel.obj
 0002:000082a8       ??_C@_1M@GHKGFEDF@?$AAi?$AAt?$AA?9?$AAi?$AAt@ 100792a8     libucrt:lcidtoname_downlevel.obj
 0002:000082b4       ??_C@_1M@NIEJCJJA@?$AAj?$AAa?$AA?9?$AAj?$AAp@ 100792b4     libucrt:lcidtoname_downlevel.obj
 0002:000082c0       ??_C@_1M@JILFNBIM@?$AAk?$AAa?$AA?9?$AAg?$AAe@ 100792c0     libucrt:lcidtoname_downlevel.obj
 0002:000082cc       ??_C@_1M@PACPMGPH@?$AAk?$AAk?$AA?9?$AAk?$AAz@ 100792cc     libucrt:lcidtoname_downlevel.obj
 0002:000082d8       ??_C@_1M@IELFGMHA@?$AAk?$AAn?$AA?9?$AAi?$AAn@ 100792d8     libucrt:lcidtoname_downlevel.obj
 0002:000082e4       ??_C@_1O@IBBJHCH@?$AAk?$AAo?$AAk?$AA?9?$AAi?$AAn@ 100792e4     libucrt:lcidtoname_downlevel.obj
 0002:000082f4       ??_C@_1M@DMHAEOGC@?$AAk?$AAo?$AA?9?$AAk?$AAr@ 100792f4     libucrt:lcidtoname_downlevel.obj
 0002:00008300       ??_C@_1M@HBAHBIGA@?$AAk?$AAy?$AA?9?$AAk?$AAg@ 10079300     libucrt:lcidtoname_downlevel.obj
 0002:0000830c       ??_C@_1M@KPMILCJG@?$AAl?$AAt?$AA?9?$AAl?$AAt@ 1007930c     libucrt:lcidtoname_downlevel.obj
 0002:00008318       ??_C@_1M@BDEKKCA@?$AAl?$AAv?$AA?9?$AAl?$AAv@ 10079318     libucrt:lcidtoname_downlevel.obj
 0002:00008324       ??_C@_1M@ELCKCCJJ@?$AAm?$AAi?$AA?9?$AAn?$AAz@ 10079324     libucrt:lcidtoname_downlevel.obj
 0002:00008330       ??_C@_1M@CBOOLAPA@?$AAm?$AAk?$AA?9?$AAm?$AAk@ 10079330     libucrt:lcidtoname_downlevel.obj
 0002:0000833c       ??_C@_1M@GPHNBJKN@?$AAm?$AAl?$AA?9?$AAi?$AAn@ 1007933c     libucrt:lcidtoname_downlevel.obj
 0002:00008348       ??_C@_1M@PABJILIG@?$AAm?$AAn?$AA?9?$AAm?$AAn@ 10079348     libucrt:lcidtoname_downlevel.obj
 0002:00008354       ??_C@_1M@FGBKKIPG@?$AAm?$AAr?$AA?9?$AAi?$AAn@ 10079354     libucrt:lcidtoname_downlevel.obj
 0002:00008360       ??_C@_1M@NDBPDDAL@?$AAm?$AAs?$AA?9?$AAb?$AAn@ 10079360     libucrt:lcidtoname_downlevel.obj
 0002:0000836c       ??_C@_1M@OPIHOOPI@?$AAm?$AAs?$AA?9?$AAm?$AAy@ 1007936c     libucrt:lcidtoname_downlevel.obj
 0002:00008378       ??_C@_1M@PPDBCNFM@?$AAm?$AAt?$AA?9?$AAm?$AAt@ 10079378     libucrt:lcidtoname_downlevel.obj
 0002:00008384       ??_C@_1M@KDJDKMDD@?$AAn?$AAb?$AA?9?$AAn?$AAo@ 10079384     libucrt:lcidtoname_downlevel.obj
 0002:00008390       ??_C@_1M@KFCFLMJP@?$AAn?$AAl?$AA?9?$AAb?$AAe@ 10079390     libucrt:lcidtoname_downlevel.obj
 0002:0000839c       ??_C@_1M@KPOPDDGO@?$AAn?$AAl?$AA?9?$AAn?$AAl@ 1007939c     libucrt:lcidtoname_downlevel.obj
 0002:000083a8       ??_C@_1M@LJKPEMLN@?$AAn?$AAn?$AA?9?$AAn?$AAo@ 100793a8     libucrt:lcidtoname_downlevel.obj
 0002:000083b4       ??_C@_1M@BDGHHBFL@?$AAn?$AAs?$AA?9?$AAz?$AAa@ 100793b4     libucrt:lcidtoname_downlevel.obj
 0002:000083c0       ??_C@_1M@IDEHOAP@?$AAp?$AAa?$AA?9?$AAi?$AAn@ 100793c0     libucrt:lcidtoname_downlevel.obj
 0002:000083cc       ??_C@_1M@HDBKGOGH@?$AAp?$AAl?$AA?9?$AAp?$AAl@ 100793cc     libucrt:lcidtoname_downlevel.obj
 0002:000083d8       ??_C@_1M@LJLLCMEH@?$AAp?$AAt?$AA?9?$AAb?$AAr@ 100793d8     libucrt:lcidtoname_downlevel.obj
 0002:000083e4       ??_C@_1M@NCMONAAL@?$AAp?$AAt?$AA?9?$AAp?$AAt@ 100793e4     libucrt:lcidtoname_downlevel.obj
 0002:000083f0       ??_C@_1O@EAKMAJDN@?$AAq?$AAu?$AAz?$AA?9?$AAb?$AAo@ 100793f0     libucrt:lcidtoname_downlevel.obj
 0002:00008400       ??_C@_1O@BHHPIGDN@?$AAq?$AAu?$AAz?$AA?9?$AAe?$AAc@ 10079400     libucrt:lcidtoname_downlevel.obj
 0002:00008410       ??_C@_1O@GBAPEKMJ@?$AAq?$AAu?$AAz?$AA?9?$AAp?$AAe@ 10079410     libucrt:lcidtoname_downlevel.obj
 0002:00008420       ??_C@_1M@CLGLEFBO@?$AAr?$AAo?$AA?9?$AAr?$AAo@ 10079420     libucrt:lcidtoname_downlevel.obj
 0002:0000842c       ??_C@_1M@CEEDODME@?$AAr?$AAu?$AA?9?$AAr?$AAu@ 1007942c     libucrt:lcidtoname_downlevel.obj
 0002:00008438       ??_C@_1M@HPKKKMPP@?$AAs?$AAa?$AA?9?$AAi?$AAn@ 10079438     libucrt:lcidtoname_downlevel.obj
 0002:00008444       ??_C@_1M@BKMAIGOJ@?$AAs?$AAe?$AA?9?$AAf?$AAi@ 10079444     libucrt:lcidtoname_downlevel.obj
 0002:00008450       ??_C@_1M@NDPIFLFI@?$AAs?$AAe?$AA?9?$AAn?$AAo@ 10079450     libucrt:lcidtoname_downlevel.obj
 0002:0000845c       ??_C@_1M@DANKKHJ@?$AAs?$AAe?$AA?9?$AAs?$AAe@ 1007945c     libucrt:lcidtoname_downlevel.obj
 0002:00008468       ??_C@_1M@PNBLONPJ@?$AAs?$AAk?$AA?9?$AAs?$AAk@ 10079468     libucrt:lcidtoname_downlevel.obj
 0002:00008474       ??_C@_1M@LFMODOAL@?$AAs?$AAl?$AA?9?$AAs?$AAi@ 10079474     libucrt:lcidtoname_downlevel.obj
 0002:00008480       ??_C@_1O@DFKOMPG@?$AAs?$AAm?$AAa?$AA?9?$AAn?$AAo@ 10079480     libucrt:lcidtoname_downlevel.obj
 0002:00008490       ??_C@_1O@NDKPBNNH@?$AAs?$AAm?$AAa?$AA?9?$AAs?$AAe@ 10079490     libucrt:lcidtoname_downlevel.obj
 0002:000084a0       ??_C@_1O@PLLKBHAB@?$AAs?$AAm?$AAj?$AA?9?$AAn?$AAo@ 100794a0     libucrt:lcidtoname_downlevel.obj
 0002:000084b0       ??_C@_1O@CLEPOGCA@?$AAs?$AAm?$AAj?$AA?9?$AAs?$AAe@ 100794b0     libucrt:lcidtoname_downlevel.obj
 0002:000084c0       ??_C@_1O@DLGJGKMK@?$AAs?$AAm?$AAn?$AA?9?$AAf?$AAi@ 100794c0     libucrt:lcidtoname_downlevel.obj
 0002:000084d0       ??_C@_1O@OJDJGAJC@?$AAs?$AAm?$AAs?$AA?9?$AAf?$AAi@ 100794d0     libucrt:lcidtoname_downlevel.obj
 0002:000084e0       ??_C@_1M@BOFOGHPB@?$AAs?$AAq?$AA?9?$AAa?$AAl@ 100794e0     libucrt:lcidtoname_downlevel.obj
 0002:000084ec       ??_C@_1BG@LJBBIPGB@?$AAs?$AAr?$AA?9?$AAb?$AAa?$AA?9?$AAc?$AAy?$AAr?$AAl@ 100794ec     libucrt:lcidtoname_downlevel.obj
 0002:00008504       ??_C@_1BG@JLBENFOE@?$AAs?$AAr?$AA?9?$AAb?$AAa?$AA?9?$AAl?$AAa?$AAt?$AAn@ 10079504     libucrt:lcidtoname_downlevel.obj
 0002:0000851c       ??_C@_1BG@KODPNHE@?$AAs?$AAr?$AA?9?$AAs?$AAp?$AA?9?$AAc?$AAy?$AAr?$AAl@ 1007951c     libucrt:lcidtoname_downlevel.obj
 0002:00008534       ??_C@_1BG@CIOGKHPB@?$AAs?$AAr?$AA?9?$AAs?$AAp?$AA?9?$AAl?$AAa?$AAt?$AAn@ 10079534     libucrt:lcidtoname_downlevel.obj
 0002:0000854c       ??_C@_1M@NGFJLMAC@?$AAs?$AAv?$AA?9?$AAf?$AAi@ 1007954c     libucrt:lcidtoname_downlevel.obj
 0002:00008558       ??_C@_1M@MPJEJAJC@?$AAs?$AAv?$AA?9?$AAs?$AAe@ 10079558     libucrt:lcidtoname_downlevel.obj
 0002:00008564       ??_C@_1M@MPNDHLFK@?$AAs?$AAw?$AA?9?$AAk?$AAe@ 10079564     libucrt:lcidtoname_downlevel.obj
 0002:00008570       ??_C@_1O@KOHBJJI@?$AAs?$AAy?$AAr?$AA?9?$AAs?$AAy@ 10079570     libucrt:lcidtoname_downlevel.obj
 0002:00008580       ??_C@_1M@LDCEFHA@?$AAt?$AAa?$AA?9?$AAi?$AAn@ 10079580     libucrt:lcidtoname_downlevel.obj
 0002:0000858c       ??_C@_1M@CNJOFAK@?$AAt?$AAe?$AA?9?$AAi?$AAn@ 1007958c     libucrt:lcidtoname_downlevel.obj
 0002:00008598       ??_C@_1M@GNAECACD@?$AAt?$AAh?$AA?9?$AAt?$AAh@ 10079598     libucrt:lcidtoname_downlevel.obj
 0002:000085a4       ??_C@_1M@CHBIHOJO@?$AAt?$AAn?$AA?9?$AAz?$AAa@ 100795a4     libucrt:lcidtoname_downlevel.obj
 0002:000085b0       ??_C@_1M@GCCMIGPJ@?$AAt?$AAr?$AA?9?$AAt?$AAr@ 100795b0     libucrt:lcidtoname_downlevel.obj
 0002:000085bc       ??_C@_1M@CELMCNBK@?$AAt?$AAt?$AA?9?$AAr?$AAu@ 100795bc     libucrt:lcidtoname_downlevel.obj
 0002:000085c8       ??_C@_1M@KLMCELGA@?$AAu?$AAk?$AA?9?$AAu?$AAa@ 100795c8     libucrt:lcidtoname_downlevel.obj
 0002:000085d4       ??_C@_1M@EPAJJAJF@?$AAu?$AAr?$AA?9?$AAp?$AAk@ 100795d4     libucrt:lcidtoname_downlevel.obj
 0002:000085e0       ??_C@_1BG@GEGPMCDJ@?$AAu?$AAz?$AA?9?$AAu?$AAz?$AA?9?$AAc?$AAy?$AAr?$AAl@ 100795e0     libucrt:lcidtoname_downlevel.obj
 0002:000085f8       ??_C@_1BG@EGGKJILM@?$AAu?$AAz?$AA?9?$AAu?$AAz?$AA?9?$AAl?$AAa?$AAt?$AAn@ 100795f8     libucrt:lcidtoname_downlevel.obj
 0002:00008610       ??_C@_1M@GFOCLFF@?$AAv?$AAi?$AA?9?$AAv?$AAn@ 10079610     libucrt:lcidtoname_downlevel.obj
 0002:0000861c       ??_C@_1M@CPAMEDFI@?$AAx?$AAh?$AA?9?$AAz?$AAa@ 1007961c     libucrt:lcidtoname_downlevel.obj
 0002:00008628       ??_C@_1O@EBKIFIGN@?$AAz?$AAh?$AA?9?$AAc?$AAh?$AAs@ 10079628     libucrt:lcidtoname_downlevel.obj
 0002:00008638       ??_C@_1O@NMHPGANE@?$AAz?$AAh?$AA?9?$AAc?$AAh?$AAt@ 10079638     libucrt:lcidtoname_downlevel.obj
 0002:00008648       ??_C@_1M@LPINJOMC@?$AAz?$AAh?$AA?9?$AAc?$AAn@ 10079648     libucrt:lcidtoname_downlevel.obj
 0002:00008654       ??_C@_1M@OCJEJODD@?$AAz?$AAh?$AA?9?$AAh?$AAk@ 10079654     libucrt:lcidtoname_downlevel.obj
 0002:00008660       ??_C@_1M@DNDLJINH@?$AAz?$AAh?$AA?9?$AAm?$AAo@ 10079660     libucrt:lcidtoname_downlevel.obj
 0002:0000866c       ??_C@_1M@MBFDNDND@?$AAz?$AAh?$AA?9?$AAs?$AAg@ 1007966c     libucrt:lcidtoname_downlevel.obj
 0002:00008678       ??_C@_1M@IMEPLEPE@?$AAz?$AAh?$AA?9?$AAt?$AAw@ 10079678     libucrt:lcidtoname_downlevel.obj
 0002:00008684       ??_C@_1M@BBGHNHJP@?$AAz?$AAu?$AA?9?$AAz?$AAa@ 10079684     libucrt:lcidtoname_downlevel.obj
 0002:000086b8       ___acrt_pow_rcp_t1         100796b8     libucrt:pow_tables.obj
 0002:00008ad0       ___acrt_pow_log2_t1        10079ad0     libucrt:pow_tables.obj
 0002:000092e0       ___acrt_pow_rcp_t2         1007a2e0     libucrt:pow_tables.obj
 0002:000096f0       ___acrt_pow_log2_t2        1007a6f0     libucrt:pow_tables.obj
 0002:00009f00       ___acrt_pow_rcp_t3         1007af00     libucrt:pow_tables.obj
 0002:0000a710       ___acrt_pow_log2_t3        1007b710     libucrt:pow_tables.obj
 0002:0000b720       ___acrt_pow_clv            1007c720     libucrt:pow_tables.obj
 0002:0000b740       ___acrt_pow_exp2_tbl       1007c740     libucrt:pow_tables.obj
 0002:0000bf98       ??_C@_1BA@BALFACEM@?$AAC?$AAO?$AAN?$AAO?$AAU?$AAT?$AA$@ 1007cf98     libucrt:initcon.obj
 0002:0000c0b0       ___acrt_log10_table_t      1007d0b0     libucrt:log10_tables.obj
 0002:0000c4c0       ___acrt_log10_table_cb     1007d4c0     libucrt:log10_tables.obj
 0002:00046e08       ??_C@_0BC@EOODALEL@Unknown?5exception@ 100b7e08     Aimbot.obj
 0002:00046e1c       ??_C@_0BF@KINCDENJ@bad?5array?5new?5length@ 100b7e1c     Aimbot.obj
 0002:00046e34       ??_C@_0BC@KBDMBKEH@deque?$DMT?$DO?5too?5long@ 100b7e34     Aimbot.obj
 0002:00046e48       ??_C@_0BA@JFNIOLAK@string?5too?5long@ 100b7e48     Cvars.obj
 0002:00046e58       ??_C@_02LMMGGCAJ@?3?5@     100b7e58     Menu.obj
 0002:00046e5c       ??_C@_07DCLBNMLN@generic@  100b7e5c     Menu.obj
 0002:00046e64       ??_C@_06FHFOAHML@system@   100b7e64     Menu.obj
 0002:00046e70       ??_7_Generic_error_category@std@@6B@ 100b7e70     Menu.obj
 0002:00046e88       ?_Unknown_error@?4??message@_System_error_category@std@@UBE?AV?$basic_string@DU?$char_traits@D@std@@V?$allocator@D@2@@3@H@Z@4QBDB 100b7e88     Menu.obj
 0002:00046e9c       ??_7_System_error@std@@6B@ 100b7e9c     Menu.obj
 0002:00046ea8       ??_7_System_error_category@std@@6B@ 100b7ea8     Menu.obj
 0002:00046ec4       ??_7system_error@std@@6B@  100b7ec4     Menu.obj
 0002:00046ecc       ??_C@_00CNPNBAHC@@         100b7ecc     World.obj
 0002:00046ed0       ??_C@_08LLGCOLLL@iostream@ 100b7ed0     World.obj
 0002:00046edc       ??_C@_08EPJLHIJG@bad?5cast@ 100b7edc     World.obj
 0002:00046ee8       ??_C@_0BA@ELKIONDK@bad?5locale?5name@ 100b7ee8     World.obj
 0002:00046ef8       ??_C@_0BF@PHHKMMFD@ios_base?3?3badbit?5set@ 100b7ef8     World.obj
 0002:00046f10       ??_C@_0BG@FMKFHCIL@ios_base?3?3failbit?5set@ 100b7f10     World.obj
 0002:00046f28       ??_C@_0BF@OOHOMBOF@ios_base?3?3eofbit?5set@ 100b7f28     World.obj
 0002:00046f40       ??_C@_0BI@CFPLBAOH@invalid?5string?5position@ 100b7f40     World.obj
 0002:00046f5c       ??_7?$basic_streambuf@DU?$char_traits@D@std@@@std@@6B@ 100b7f5c     World.obj
 0002:00046f98       ?_Iostream_error@?4??message@_Iostream_error_category2@std@@UBE?AV?$basic_string@DU?$char_traits@D@std@@V?$allocator@D@2@@3@H@Z@4QBDB 100b7f98     World.obj
 0002:00046fb4       ??_7ios_base@std@@6B@      100b7fb4     World.obj
 0002:00046fb8       ??_8?$basic_istream@DU?$char_traits@D@std@@@std@@7B@ 100b7fb8     World.obj
 0002:00046fc4       ??_7?$basic_filebuf@DU?$char_traits@D@std@@@std@@6B@ 100b7fc4     World.obj
 0002:00047004       ??_7?$basic_ios@DU?$char_traits@D@std@@@std@@6B@ 100b8004     World.obj
 0002:0004700c       ??_7_Iostream_error_category2@std@@6B@ 100b800c     World.obj
 0002:00047024       ??_8?$basic_ifstream@DU?$char_traits@D@std@@@std@@7B@ 100b8024     World.obj
 0002:00047030       ??_7?$basic_istream@DU?$char_traits@D@std@@@std@@6B@ 100b8030     World.obj
 0002:00047038       ??_7?$basic_ifstream@DU?$char_traits@D@std@@@std@@6B@ 100b8038     World.obj
 0002:00047040       ??_7failure@ios_base@std@@6B@ 100b8040     World.obj
 0002:0004704c       ??_7configor_type_error@configor@@6B@ 100b804c     Pipi_edit.obj
 0002:00047058       ??_7?$basic_serializer@V?$basic_config@Ujson_args@configor@@@configor@@@configor@@6B@ 100b8058     Pipi_edit.obj
 0002:00047070       ??_7configor_serialization_error@configor@@6B@ 100b8070     Pipi_edit.obj
 0002:0004707c       ??_7?$fast_string_istreambuf@D@detail@configor@@6B@ 100b807c     Pipi_edit.obj
 0002:000470bc       ??_7configor_exception@configor@@6B@ 100b80bc     Pipi_edit.obj
 0002:000470c8       ?utf8_extra_bytes@?1??decode@?$utf8@D@encoding@configor@@SA_NAAV?$basic_istream@DU?$char_traits@D@std@@@std@@AAI@Z@4V?$array@E$0BAA@@6@B 100b80c8     Pipi_edit.obj
 0002:000471cc       ??_7?$basic_ofstream@DU?$char_traits@D@std@@@std@@6B@ 100b81cc     Pipi_edit.obj
 0002:000471d0       ??_8?$basic_ofstream@DU?$char_traits@D@std@@@std@@7B@ 100b81d0     Pipi_edit.obj
 0002:000471dc       ??_7?$fast_string_ostreambuf@D@detail@configor@@6B@ 100b81dc     Pipi_edit.obj
 0002:0004721c       ??_7?$fast_basic_ostringstream@D@detail@configor@@6B@ 100b821c     Pipi_edit.obj
 0002:00047220       ??_8?$basic_ostream@DU?$char_traits@D@std@@@std@@7B@ 100b8220     Pipi_edit.obj
 0002:00047228       ?_BUF_SIZE@?$basic_string@DU?$char_traits@D@std@@V?$allocator@D@2@@std@@0IB 100b8228     Pipi_edit.obj
 0002:00047230       ??_7configor_invalid_key@configor@@6B@ 100b8230     Pipi_edit.obj
 0002:0004723c       ??_7?$json_serializer@V?$basic_config@Ujson_args@configor@@@configor@@@detail@configor@@6B@ 100b823c     Pipi_edit.obj
 0002:00047254       ??_7?$basic_ostream@DU?$char_traits@D@std@@@std@@6B@ 100b8254     Pipi_edit.obj
 0002:00047258       ?utf8_offsets@?1??decode@?$utf8@D@encoding@configor@@SA_NAAV?$basic_istream@DU?$char_traits@D@std@@@std@@AAI@Z@4V?$array@I$05@6@B 100b8258     Pipi_edit.obj
 0002:00047270       ??_8?$fast_basic_ostringstream@D@detail@configor@@7B@ 100b8270     Pipi_edit.obj
 0002:00047278       ??_C@_05LAPONLG@false@     100b8278     Pipi_edit.obj
 0002:00047280       ??_C@_04LOAJBDKD@true@     100b8280     Pipi_edit.obj
 0002:00047288       ??_C@_0BB@GCADKGJO@map?1set?5too?5long@ 100b8288     Pipi_edit.obj
 0002:0004729c       ??_C@_0BE@MJELODJL@config?5type?5error?3?5@ 100b829c     Pipi_edit.obj
 0002:000472b0       ??_C@_0BL@ELAMKLNB@invalid?5config?5key?5error?3?5@ 100b82b0     Pipi_edit.obj
 0002:000472cc       ??_C@_0BN@KKJHBKHM@config?5serialization?5error?3?5@ 100b82cc     Pipi_edit.obj
 0002:000472ec       ??_C@_01GEODFPGF@?8@       100b82ec     Pipi_edit.obj
 0002:000472f0       ??_C@_02OCDGNCGI@?5?8@     100b82f0     Pipi_edit.obj
 0002:000472f4       ??_C@_0CE@FJCOPEDA@initializer_list?5is?5not?5object?5@ 100b82f4     Pipi_edit.obj
 0002:00047318       ??_C@_0BF@IPEBGEBJ@unexpected?5character@ 100b8318     Pipi_edit.obj
 0002:00047330       ??_C@_0BP@BHNJKPJG@encoding?5failed?5with?5codepoint@ 100b8330     Pipi_edit.obj
 0002:00047350       ??_C@_02BBAHNLBA@?$CFp@    100b8350     Pipi_edit.obj
 0002:00047354       ??_C@_02CLHGNPPK@Lu@       100b8354     Pipi_edit.obj
 0002:00047358       ??_C@_02HIKPPMOK@Ld@       100b8358     Pipi_edit.obj
 0002:0004735c       ??_C@_02BDDLJJBK@lu@       100b835c     Pipi_edit.obj
 0002:00047360       ??_C@_02EAOCLKAK@ld@       100b8360     Pipi_edit.obj
 0002:00047364       ??_C@_02ONCLHLPE@?40@      100b8364     Pipi_edit.obj
 0002:00047368       ??_C@_02MDKMJEGG@eE@       100b8368     Pipi_edit.obj
 0002:0004736c       ??_C@_02OOPEBDOJ@pP@       100b836c     Pipi_edit.obj
 0002:00047370       ??_C@_01LFCBOECM@?4@       100b8370     Pipi_edit.obj
 0002:00047374       ??_C@_0BA@FOIKENOD@vector?5too?5long@ 100b8374     Pipi_edit.obj
 0002:00047384       ??_C@_0CG@BNBDPOFI@operator?$FL?$FN?5called?5on?5a?5non?9arra@ 100b8384     Pipi_edit.obj
 0002:000473ac       ??_C@_0BO@PIHPJJFL@operator?$FL?$FN?5index?5out?5of?5range@ 100b83ac     Pipi_edit.obj
 0002:000473cc       ??_C@_0BJ@DHFDPMIM@invalid?5vector?5subscript@ 100b83cc     Pipi_edit.obj
 0002:000473e8       __real@00000000            100b83e8     OpenGL.obj
 0002:000473f0       __real@0000000000000000    100b83f0     OpenGL.obj
 0002:000473f8       __real@3a83126f            100b83f8     Weapons.obj
 0002:000473fc       __real@3be56042            100b83fc     Weapons.obj
 0002:00047400       __real@3c23d70a            100b8400     Weapons.obj
 0002:00047404       __real@3c8efa35            100b8404     Visuals.obj
 0002:00047408       __real@3cb851ec            100b8408     Weapons.obj
 0002:0004740c       __real@3ccccccd            100b840c     Weapons.obj
 0002:00047410       __real@3d0f5c29            100b8410     Weapons.obj
 0002:00047414       __real@3d4ccccd            100b8414     Misc.obj
 0002:00047418       __real@3d6147ae            100b8418     Weapons.obj
 0002:0004741c       __real@3d75c28f            100b841c     Visuals.obj
 0002:00047420       __real@3d99999a            100b8420     Weapons.obj
 0002:00047424       __real@3da3d70a            100b8424     Weapons.obj
 0002:00047428       __real@3dcccccd            100b8428     Weapons.obj
 0002:0004742c       __real@3e19999a            100b842c     Weapons.obj
 0002:00047430       __real@3e45798ee2308c3a    100b8430     Utils.obj
 0002:00047438       __real@3e4ccccd            100b8438     Weapons.obj
 0002:0004743c       __real@3e800000            100b843c     Weapons.obj
 0002:00047440       __real@3e8ccccd            100b8440     Weapons.obj
 0002:00047444       __real@3e99999a            100b8444     Weapons.obj
 0002:00047448       __real@3ea66666            100b8448     Weapons.obj
 0002:0004744c       __real@3eb33333            100b844c     Weapons.obj
 0002:00047450       __real@3ecccccd            100b8450     Weapons.obj
 0002:00047454       __real@3ee66666            100b8454     Weapons.obj
 0002:00047458       __real@3f000000            100b8458     Weapons.obj
 0002:0004745c       __real@3f0ccccd            100b845c     Weapons.obj
 0002:00047460       __real@3f19999a            100b8460     Weapons.obj
 0002:00047464       __real@3f266666            100b8464     Weapons.obj
 0002:00047468       __real@3f39999a            100b8468     Weapons.obj
 0002:0004746c       __real@3f400000            100b846c     Weapons.obj
 0002:00047470       __real@3f490fdb            100b8470     Misc.obj
 0002:00047474       __real@3f4a3d71            100b8474     Weapons.obj
 0002:00047478       __real@3f4ccccd            100b8478     Weapons.obj
 0002:0004747c       __real@3f4f5c29            100b847c     Weapons.obj
 0002:00047480       __real@3f50624dd2f1a9fc    100b8480     Vector.obj
 0002:00047488       __real@3f51eb85            100b8488     Weapons.obj
 0002:0004748c       __real@3f570a3d            100b848c     Weapons.obj
 0002:00047490       __real@3f59999a            100b8490     Weapons.obj
 0002:00047494       __real@3f6147ae            100b8494     Weapons.obj
 0002:00047498       __real@3f628f5c            100b8498     Weapons.obj
 0002:0004749c       __real@3f666666            100b849c     Weapons.obj
 0002:000474a0       __real@3f6b851f            100b84a0     Weapons.obj
 0002:000474a4       __real@3f733333            100b84a4     Weapons.obj
 0002:000474a8       __real@3f747ae1            100b84a8     Weapons.obj
 0002:000474ac       __real@3f75c28f            100b84ac     Weapons.obj
 0002:000474b0       __real@3f7851ec            100b84b0     Weapons.obj
 0002:000474b4       __real@3f7ae148            100b84b4     Weapons.obj
 0002:000474b8       __real@3f7d70a4            100b84b8     Weapons.obj
 0002:000474bc       __real@3f800000            100b84bc     Visuals.obj
 0002:000474c0       __real@3f91df46a2529d39    100b84c0     QAngle.obj
 0002:000474c8       __real@3f947ae147ae147b    100b84c8     Weapons.obj
 0002:000474d0       __real@3f9999999999999a    100b84d0     Weapons.obj
 0002:000474d8       __real@3f99999a            100b84d8     Systems.obj
 0002:000474e0       __real@3f9c28f5c28f5c29    100b84e0     Weapons.obj
 0002:000474e8       __real@3f9eb851eb851eb8    100b84e8     Weapons.obj
 0002:000474f0       __real@3fa00000            100b84f0     Weapons.obj
 0002:000474f8       __real@3fa1eb851eb851ec    100b84f8     Weapons.obj
 0002:00047500       __real@3fa3333333333333    100b8500     Weapons.obj
 0002:00047508       __real@3fa47ae147ae147b    100b8508     Weapons.obj
 0002:00047510       __real@3fa70a3d70a3d70a    100b8510     Weapons.obj
 0002:00047518       __real@3fa999999999999a    100b8518     Weapons.obj
 0002:00047520       __real@3fb1eb851eb851ec    100b8520     Weapons.obj
 0002:00047528       __real@3fb33333            100b8528     Weapons.obj
 0002:00047530       __real@3fb3333333333333    100b8530     Weapons.obj
 0002:00047538       __real@3fb47ae147ae147b    100b8538     Weapons.obj
 0002:00047540       __real@3fb851eb851eb852    100b8540     Weapons.obj
 0002:00047548       __real@3fb999999999999a    100b8548     Weapons.obj
 0002:00047550       __real@3fbd70a3d70a3d71    100b8550     Weapons.obj
 0002:00047558       __real@3fc0000000000000    100b8558     parsemsg.obj
 0002:00047560       __real@3fc0a3d70a3d70a4    100b8560     Weapons.obj
 0002:00047568       __real@3fc3333333333333    100b8568     Weapons.obj
 0002:00047570       __real@3fc51eb851eb851f    100b8570     Weapons.obj
 0002:00047578       __real@3fc6666666666666    100b8578     Weapons.obj
 0002:00047580       __real@3fc7ae147ae147ae    100b8580     Weapons.obj
 0002:00047588       __real@3fc999999999999a    100b8588     Weapons.obj
 0002:00047590       __real@3fcccccccccccccd    100b8590     Weapons.obj
 0002:00047598       __real@3fceb851eb851eb8    100b8598     Weapons.obj
 0002:000475a0       __real@3fd0000000000000    100b85a0     Weapons.obj
 0002:000475a8       __real@3fd051eb851eb852    100b85a8     Weapons.obj
 0002:000475b0       __real@3fd33333            100b85b0     Weapons.obj
 0002:000475b8       __real@3fd3333333333333    100b85b8     Weapons.obj
 0002:000475c0       __real@3fd8000000000000    100b85c0     Weapons.obj
 0002:000475c8       __real@3fd999999999999a    100b85c8     Weapons.obj
 0002:000475d0       __real@3fdcccccc0000000    100b85d0     Weapons.obj
 0002:000475d8       __real@3fdccccccccccccd    100b85d8     Weapons.obj
 0002:000475e0       __real@3fe00000            100b85e0     Visuals.obj
 0002:000475e8       __real@3fe0000000000000    100b85e8     Weapons.obj
 0002:000475f0       __real@3fe4cccccccccccd    100b85f0     Utils.obj
 0002:000475f8       __real@3fe6666666666666    100b85f8     Systems.obj
 0002:00047600       __real@3fe8000000000000    100b8600     Utils.obj
 0002:00047608       __real@3fec71c71c71c71c    100b8608     Visuals.obj
 0002:00047610       __real@3feccccccccccccd    100b8610     Visuals.obj
 0002:00047618       __real@3ff0000000000000    100b8618     OpenGL.obj
 0002:00047620       __real@3ff1c71c71c71c72    100b8620     Visuals.obj
 0002:00047628       __real@3ff3333333333333    100b8628     Weapons.obj
 0002:00047630       __real@3ff4cccccccccccd    100b8630     Weapons.obj
 0002:00047638       __real@3ff8000000000000    100b8638     Weapons.obj
 0002:00047640       __real@3ffb333333333333    100b8640     NoFlash.obj
 0002:00047648       __real@40000000            100b8648     OpenGL.obj
 0002:00047650       __real@4000000000000000    100b8650     NoSpread.obj
 0002:00047658       __real@4004666666666666    100b8658     Visuals.obj
 0002:00047660       __real@400921fb54442d18    100b8660     Utils.obj
 0002:00047668       __real@401921fb54442d18    100b8668     Drawing.obj
 0002:00047670       __real@4023d70a            100b8670     Systems.obj
 0002:00047678       __real@4024000000000000    100b8678     Cvars.obj
 0002:00047680       __real@402c000000000000    100b8680     World.obj
 0002:00047688       __real@40400000            100b8688     Cvars.obj
 0002:00047690       __real@4046800000000000    100b8690     NoSpread.obj
 0002:00047698       __real@4066800000000000    100b8698     World.obj
 0002:000476a0       __real@406b833333333333    100b86a0     Weapons.obj
 0002:000476a8       __real@406fe00000000000    100b86a8     Visuals.obj
 0002:000476b0       __real@40700000            100b86b0     Visuals.obj
 0002:000476b8       __real@4072c00000000000    100b86b8     Systems.obj
 0002:000476c0       __real@4076800000000000    100b86c0     Systems.obj
 0002:000476c8       __real@40800000            100b86c8     Misc.obj
 0002:000476cc       __real@40a00000            100b86cc     Misc.obj
 0002:000476d0       __real@40c00000            100b86d0     Misc.obj
 0002:000476d4       __real@40c90fdb            100b86d4     Drawing.obj
 0002:000476d8       __real@40e00000            100b86d8     Misc.obj
 0002:000476dc       __real@41000000            100b86dc     Visuals.obj
 0002:000476e0       __real@41200000            100b86e0     Weapons.obj
 0002:000476e4       __real@41400000            100b86e4     Client.obj
 0002:000476e8       __real@41500000            100b86e8     Visuals.obj
 0002:000476ec       __real@41600000            100b86ec     Visuals.obj
 0002:000476f0       __real@41700000            100b86f0     Systems.obj
 0002:000476f4       __real@41800000            100b86f4     Client.obj
 0002:000476f8       __real@41880000            100b86f8     Client.obj
 0002:000476fc       __real@41900000            100b86fc     World.obj
 0002:00047700       __real@41a00000            100b8700     World.obj
 0002:00047704       __real@41c80000            100b8704     Visuals.obj
 0002:00047708       __real@41f00000            100b8708     Visuals.obj
 0002:0004770c       __real@42000000            100b870c     Client.obj
 0002:00047710       __real@4202a05f20000000    100b8710     Pipi_edit.obj
 0002:00047718       __real@42080000            100b8718     Visuals.obj
 0002:0004771c       __real@42100000            100b871c     Client.obj
 0002:00047720       __real@42280000            100b8720     Utils.obj
 0002:00047724       __real@42340000            100b8724     Visuals.obj
 0002:00047728       __real@42480000            100b8728     Systems.obj
 0002:0004772c       __real@42580000            100b872c     Visuals.obj
 0002:00047730       __real@42652ee0            100b8730     Misc.obj
 0002:00047734       __real@42800000            100b8734     Misc.obj
 0002:00047738       __real@42820000            100b8738     Systems.obj
 0002:0004773c       __real@42aa0000            100b873c     Cvars.obj
 0002:00047740       __real@42b00000            100b8740     Misc.obj
 0002:00047744       __real@42b20000            100b8744     Utils.obj
 0002:00047748       __real@42b40000            100b8748     Visuals.obj
 0002:0004774c       __real@42c80000            100b874c     Cvars.obj
 0002:00047750       __real@42da0000            100b8750     Cvars.obj
 0002:00047754       __real@43000000            100b8754     Misc.obj
 0002:00047758       __real@430c0000            100b8758     Weapons.obj
 0002:0004775c       __real@43160000            100b875c     Menu.obj
 0002:00047760       __real@43190000            100b8760     Cvars.obj
 0002:00047764       __real@432a0000            100b8764     Weapons.obj
 0002:00047768       __real@43340000            100b8768     Aimbot.obj
 0002:0004776c       __real@43480000            100b876c     Cvars.obj
 0002:00047770       __real@437f0000            100b8770     OpenGL.obj
 0002:00047774       __real@43870000            100b8774     Utils.obj
 0002:00047778       __real@43af0000            100b8778     World.obj
 0002:0004777c       __real@43b40000            100b877c     Aimbot.obj
 0002:00047780       __real@43fa0000            100b8780     Visuals.obj
 0002:00047784       __real@44480000            100b8784     Systems.obj
 0002:00047788       __real@447a0000            100b8788     NoSpread.obj
 0002:0004778c       __real@44834000            100b878c     World.obj
 0002:00047790       __real@44c80000            100b8790     Systems.obj
 0002:00047794       __real@44dac000            100b8794     World.obj
 0002:00047798       __real@44fa0000            100b8798     Utils.obj
 0002:0004779c       __real@45000000            100b879c     World.obj
 0002:000477a0       __real@453b8000            100b87a0     Weapons.obj
 0002:000477a4       __real@453e8000            100b87a4     Weapons.obj
 0002:000477a8       __real@457a0000            100b87a8     Utils.obj
 0002:000477ac       __real@45800000            100b87ac     Weapons.obj
 0002:000477b0       __real@459c4000            100b87b0     Utils.obj
 0002:000477b4       __real@45fa0000            100b87b4     Utils.obj
 0002:000477b8       __real@46000000            100b87b8     Weapons.obj
 0002:000477bc       __real@461c3c00            100b87bc     Systems.obj
 0002:000477c0       __real@461c4000            100b87c0     Menu.obj
 0002:000477c4       __real@47800000            100b87c4     NoSpread.obj
 0002:000477c8       __real@7f7fffff            100b87c8     Utils.obj
 0002:000477cc       __real@bf000000            100b87cc     NoSpread.obj
 0002:000477d0       __real@bf800000            100b87d0     Utils.obj
 0002:000477d8       __real@bff0000000000000    100b87d8     NoSpread.obj
 0002:000477e0       __real@c024000000000000    100b87e0     Visuals.obj
 0002:000477e8       __real@c072c00000000000    100b87e8     Systems.obj
 0002:000477f0       __real@c1000000            100b87f0     Utils.obj
 0002:000477f4       __real@c1800000            100b87f4     Client.obj
 0002:000477f8       __real@c2100000            100b87f8     Client.obj
 0002:000477fc       __real@c2b00000            100b87fc     Misc.obj
 0002:00047800       __real@c2b20000            100b8800     Utils.obj
 0002:00047804       __real@c2b40000            100b8804     Utils.obj
 0002:00047808       __real@c3340000            100b8808     Aimbot.obj
 0002:0004780c       __real@c5800000            100b880c     World.obj
 0002:00047810       __real@ff7fffff            100b8810     Utils.obj
 0002:00047820       __xmm@41f00000000000000000000000000000 100b8820     NoSpread.obj
 0002:00047830       __xmm@7fffffffffffffff7fffffffffffffff 100b8830     Pipi_edit.obj
 0002:00047840       __xmm@80000000000000008000000000000000 100b8840     Cvars.obj
 0002:00047850       __xmm@80000000800000008000000080000000 100b8850     Utils.obj
 0002:00047880       __OP_FMODjmptab            100b8880     libucrt:87fmod_impl.obj
 0002:00047df0       __OP_ATAN2jmptab           100b8df0     libucrt:87triga.obj
 0002:00047e80       ___acrt_acos_asin_tbl_addr 100b8e80     libucrt:acos_asin_tbl_addr.obj
 0002:00048d80       ___acrt_acos_asin_t_table  100b9d80     libucrt:acos_asin_t_table.obj
 0002:00049590       ___acrt_cos_sin_ctable     100ba590     libucrt:cos_sin_ctable.obj
 0002:00049db0       ___acrt_tan_ctable         100badb0     libucrt:tan_tables.obj
 0002:0004b740       __load_config_used         100bc740     LIBCMT:loadcfg.obj
 0002:0004b800       __tls_used                 100bc800     LIBCMT:tlssup.obj
 0002:0004b818       ??_R4length_error@std@@6B@ 100bc818     libcpmt:xthrow.obj
 0002:0004b82c       ??_R3length_error@std@@8   100bc82c     libcpmt:xthrow.obj
 0002:0004b83c       ??_R2length_error@std@@8   100bc83c     libcpmt:xthrow.obj
 0002:0004b84c       ??_R1A@?0A@EA@length_error@std@@8 100bc84c     libcpmt:xthrow.obj
 0002:0004b868       ??_R4_Locimp@locale@std@@6B@ 100bc868     libcpmt:locale0.obj
 0002:0004b87c       ??_R3_Locimp@locale@std@@8 100bc87c     libcpmt:locale0.obj
 0002:0004b88c       ??_R2_Locimp@locale@std@@8 100bc88c     libcpmt:locale0.obj
 0002:0004b8a0       ??_R1A@?0A@EA@_Locimp@locale@std@@8 100bc8a0     libcpmt:locale0.obj
 0002:0004b8bc       ??_R4bad_exception@std@@6B@ 100bc8bc     libcpmt:excptptr.obj
 0002:0004b8d0       ??_R3bad_exception@std@@8  100bc8d0     libcpmt:excptptr.obj
 0002:0004b8e0       ??_R2bad_exception@std@@8  100bc8e0     libcpmt:excptptr.obj
 0002:0004b8ec       ??_R1A@?0A@EA@bad_exception@std@@8 100bc8ec     libcpmt:excptptr.obj
 0002:0004b908       ??_R3_Ref_count_base@std@@8 100bc908     libcpmt:excptptr.obj
 0002:0004b918       ??_R2_Ref_count_base@std@@8 100bc918     libcpmt:excptptr.obj
 0002:0004b920       ??_R1A@?0A@EA@_Ref_count_base@std@@8 100bc920     libcpmt:excptptr.obj
 0002:0004ba20       ??_R4type_info@@6B@        100bca20     LIBCMT:std_type_info_static.obj
 0002:0004ba34       ??_R3type_info@@8          100bca34     LIBCMT:std_type_info_static.obj
 0002:0004ba44       ??_R2type_info@@8          100bca44     LIBCMT:std_type_info_static.obj
 0002:0004ba4c       ??_R1A@?0A@EA@type_info@@8 100bca4c     LIBCMT:std_type_info_static.obj
 0002:0004ba68       ??_R4exception@std@@6B@    100bca68     Aimbot.obj
 0002:0004ba7c       ??_R2bad_array_new_length@std@@8 100bca7c     Aimbot.obj
 0002:0004ba8c       ??_R2bad_alloc@std@@8      100bca8c     Aimbot.obj
 0002:0004ba98       ??_R1A@?0A@EA@exception@std@@8 100bca98     Aimbot.obj
 0002:0004bab4       ??_R1A@?0A@EA@bad_alloc@std@@8 100bcab4     Aimbot.obj
 0002:0004bad0       ??_R2exception@std@@8      100bcad0     Aimbot.obj
 0002:0004bad8       ??_R3exception@std@@8      100bcad8     Aimbot.obj
 0002:0004bae8       ??_R4bad_alloc@std@@6B@    100bcae8     Aimbot.obj
 0002:0004bafc       ??_R3bad_array_new_length@std@@8 100bcafc     Aimbot.obj
 0002:0004bb0c       ??_R3bad_alloc@std@@8      100bcb0c     Aimbot.obj
 0002:0004bb1c       ??_R4bad_array_new_length@std@@6B@ 100bcb1c     Aimbot.obj
 0002:0004bb30       ??_R1A@?0A@EA@bad_array_new_length@std@@8 100bcb30     Aimbot.obj
 0002:0004bb4c       ??_R2system_error@std@@8   100bcb4c     Menu.obj
 0002:0004bb60       ??_R1A@?0A@EA@system_error@std@@8 100bcb60     Menu.obj
 0002:0004bb7c       ??_R4runtime_error@std@@6B@ 100bcb7c     Menu.obj
 0002:0004bb90       ??_R4_System_error_category@std@@6B@ 100bcb90     Menu.obj
 0002:0004bba4       ??_R4_System_error@std@@6B@ 100bcba4     Menu.obj
 0002:0004bbb8       ??_R4_Generic_error_category@std@@6B@ 100bcbb8     Menu.obj
 0002:0004bbcc       ??_R1A@?0A@EA@runtime_error@std@@8 100bcbcc     Menu.obj
 0002:0004bbe8       ??_R2_System_error@std@@8  100bcbe8     Menu.obj
 0002:0004bbf8       ??_R4system_error@std@@6B@ 100bcbf8     Menu.obj
 0002:0004bc0c       ??_R1A@?0A@EA@_Generic_error_category@std@@8 100bcc0c     Menu.obj
 0002:0004bc28       ??_R3_System_error@std@@8  100bcc28     Menu.obj
 0002:0004bc38       ??_R2_System_error_category@std@@8 100bcc38     Menu.obj
 0002:0004bc44       ??_R3_Generic_error_category@std@@8 100bcc44     Menu.obj
 0002:0004bc54       ??_R2error_category@std@@8 100bcc54     Menu.obj
 0002:0004bc5c       ??_R2_Generic_error_category@std@@8 100bcc5c     Menu.obj
 0002:0004bc68       ??_R1A@?0A@EA@_System_error@std@@8 100bcc68     Menu.obj
 0002:0004bc84       ??_R3error_category@std@@8 100bcc84     Menu.obj
 0002:0004bc94       ??_R3_System_error_category@std@@8 100bcc94     Menu.obj
 0002:0004bca4       ??_R2runtime_error@std@@8  100bcca4     Menu.obj
 0002:0004bcb0       ??_R3system_error@std@@8   100bccb0     Menu.obj
 0002:0004bcc0       ??_R1A@?0A@EA@_System_error_category@std@@8 100bccc0     Menu.obj
 0002:0004bcdc       ??_R3runtime_error@std@@8  100bccdc     Menu.obj
 0002:0004bcec       ??_R1A@?0A@EA@error_category@std@@8 100bccec     Menu.obj
 0002:0004bd08       ??_R3?$basic_istream@DU?$char_traits@D@std@@@std@@8 100bcd08     World.obj
 0002:0004bd18       ??_R4facet@locale@std@@6B@ 100bcd18     World.obj
 0002:0004bd2c       ??_R3?$ctype@D@std@@8      100bcd2c     World.obj
 0002:0004bd3c       ??_R1A@?0A@EA@?$basic_istream@DU?$char_traits@D@std@@@std@@8 100bcd3c     World.obj
 0002:0004bd58       ??_R3_Facet_base@std@@8    100bcd58     World.obj
 0002:0004bd68       ??_R1A@?0A@EA@bad_cast@std@@8 100bcd68     World.obj
 0002:0004bd84       ??_R3?$basic_ifstream@DU?$char_traits@D@std@@@std@@8 100bcd84     World.obj
 0002:0004bd94       ??_R3_Crt_new_delete@std@@8 100bcd94     World.obj
 0002:0004bda4       ??_R2?$codecvt@DDU_Mbstatet@@@std@@8 100bcda4     World.obj
 0002:0004bdbc       ??_R13?0A@EA@_Crt_new_delete@std@@8 100bcdbc     World.obj
 0002:0004bdd8       ??_R1A@?0A@EA@?$basic_ifstream@DU?$char_traits@D@std@@@std@@8 100bcdd8     World.obj
 0002:0004bdf4       ??_R17A@3EA@?$_Iosb@H@std@@8 100bcdf4     World.obj
 0002:0004be10       ??_R4ios_base@std@@6B@     100bce10     World.obj
 0002:0004be24       ??_R1A@?0A@EA@?$basic_streambuf@DU?$char_traits@D@std@@@std@@8 100bce24     World.obj
 0002:0004be40       ??_R1A@?0A@EA@_Facet_base@std@@8 100bce40     World.obj
 0002:0004be5c       ??_R2?$basic_istream@DU?$char_traits@D@std@@@std@@8 100bce5c     World.obj
 0002:0004be70       ??_R4?$basic_ios@DU?$char_traits@D@std@@@std@@6B@ 100bce70     World.obj
 0002:0004be84       ??_R2bad_cast@std@@8       100bce84     World.obj
 0002:0004be90       ??_R4failure@ios_base@std@@6B@ 100bce90     World.obj
 0002:0004bea4       ??_R3?$basic_ios@DU?$char_traits@D@std@@@std@@8 100bcea4     World.obj
 0002:0004beb4       ??_R4_Iostream_error_category2@std@@6B@ 100bceb4     World.obj
 0002:0004bec8       ??_R1A@?0A@EA@_Iostream_error_category2@std@@8 100bcec8     World.obj
 0002:0004bee4       ??_R1A@?0A@EA@facet@locale@std@@8 100bcee4     World.obj
 0002:0004bf00       ??_R2failure@ios_base@std@@8 100bcf00     World.obj
 0002:0004bf18       ??_R3failure@ios_base@std@@8 100bcf18     World.obj
 0002:0004bf28       ??_R2codecvt_base@std@@8   100bcf28     World.obj
 0002:0004bf3c       ??_R2?$ctype@D@std@@8      100bcf3c     World.obj
 0002:0004bf54       ??_R1A@?0A@EA@codecvt_base@std@@8 100bcf54     World.obj
 0002:0004bf70       ??_R4?$basic_ifstream@DU?$char_traits@D@std@@@std@@6B@ 100bcf70     World.obj
 0002:0004bf84       ??_R1A@?0A@EA@ios_base@std@@8 100bcf84     World.obj
 0002:0004bfa0       ??_R3codecvt_base@std@@8   100bcfa0     World.obj
 0002:0004bfb0       ??_R4?$basic_filebuf@DU?$char_traits@D@std@@@std@@6B@ 100bcfb0     World.obj
 0002:0004bfc4       ??_R1A@?0A@EA@failure@ios_base@std@@8 100bcfc4     World.obj
 0002:0004bfe0       ??_R2?$basic_streambuf@DU?$char_traits@D@std@@@std@@8 100bcfe0     World.obj
 0002:0004bfe8       ??_R1A@?0A@EA@?$_Iosb@H@std@@8 100bcfe8     World.obj
 0002:0004c004       ??_R3facet@locale@std@@8   100bd004     World.obj
 0002:0004c014       ??_R3ctype_base@std@@8     100bd014     World.obj
 0002:0004c024       ??_R3bad_cast@std@@8       100bd024     World.obj
 0002:0004c034       ??_R4ctype_base@std@@6B@   100bd034     World.obj
 0002:0004c048       ??_R4bad_cast@std@@6B@     100bd048     World.obj
 0002:0004c05c       ??_R1A@?0A@EA@_Crt_new_delete@std@@8 100bd05c     World.obj
 0002:0004c078       ??_R3?$codecvt@DDU_Mbstatet@@@std@@8 100bd078     World.obj
 0002:0004c088       ??_R4_Facet_base@std@@6B@  100bd088     World.obj
 0002:0004c09c       ??_R1A@?0A@EA@?$basic_filebuf@DU?$char_traits@D@std@@@std@@8 100bd09c     World.obj
 0002:0004c0b8       ??_R3_Iostream_error_category2@std@@8 100bd0b8     World.obj
 0002:0004c0c8       ??_R1A@A@3FA@?$basic_ios@DU?$char_traits@D@std@@@std@@8 100bd0c8     World.obj
 0002:0004c0e4       ??_R3?$basic_filebuf@DU?$char_traits@D@std@@@std@@8 100bd0e4     World.obj
 0002:0004c0f4       ??_R4?$basic_streambuf@DU?$char_traits@D@std@@@std@@6B@ 100bd0f4     World.obj
 0002:0004c108       ??_R2ios_base@std@@8       100bd108     World.obj
 0002:0004c114       ??_R4?$codecvt@DDU_Mbstatet@@@std@@6B@ 100bd114     World.obj
 0002:0004c128       ??_R1A@?0A@EA@ctype_base@std@@8 100bd128     World.obj
 0002:0004c144       ??_R2_Iostream_error_category2@std@@8 100bd144     World.obj
 0002:0004c150       ??_R2_Crt_new_delete@std@@8 100bd150     World.obj
 0002:0004c158       ??_R1A@?0A@EA@?$ctype@D@std@@8 100bd158     World.obj
 0002:0004c174       ??_R3ios_base@std@@8       100bd174     World.obj
 0002:0004c184       ??_R2?$basic_filebuf@DU?$char_traits@D@std@@@std@@8 100bd184     World.obj
 0002:0004c190       ??_R3?$basic_streambuf@DU?$char_traits@D@std@@@std@@8 100bd190     World.obj
 0002:0004c1a0       ??_R2?$_Iosb@H@std@@8      100bd1a0     World.obj
 0002:0004c1a8       ??_R1A@A@3EA@ios_base@std@@8 100bd1a8     World.obj
 0002:0004c1c4       ??_R1A@?0A@EA@?$basic_ios@DU?$char_traits@D@std@@@std@@8 100bd1c4     World.obj
 0002:0004c1e0       ??_R4codecvt_base@std@@6B@ 100bd1e0     World.obj
 0002:0004c1f4       ??_R2?$basic_ifstream@DU?$char_traits@D@std@@@std@@8 100bd1f4     World.obj
 0002:0004c20c       ??_R3?$_Iosb@H@std@@8      100bd20c     World.obj
 0002:0004c21c       ??_R2_Facet_base@std@@8    100bd21c     World.obj
 0002:0004c224       ??_R2facet@locale@std@@8   100bd224     World.obj
 0002:0004c234       ??_R17?0A@EA@?$_Iosb@H@std@@8 100bd234     World.obj
 0002:0004c250       ??_R4?$ctype@D@std@@6B@    100bd250     World.obj
 0002:0004c264       ??_R4?$basic_istream@DU?$char_traits@D@std@@@std@@6B@ 100bd264     World.obj
 0002:0004c278       ??_R2?$basic_ios@DU?$char_traits@D@std@@@std@@8 100bd278     World.obj
 0002:0004c288       ??_R2ctype_base@std@@8     100bd288     World.obj
 0002:0004c29c       ??_R1A@?0A@EA@?$codecvt@DDU_Mbstatet@@@std@@8 100bd29c     World.obj
 0002:0004c2b8       ??_R1A@?0A@EA@logic_error@std@@8 100bd2b8     Pipi_edit.obj
 0002:0004c2d4       ??_R3?$fast_basic_ostringstream@D@detail@configor@@8 100bd2d4     Pipi_edit.obj
 0002:0004c2e4       ??_R4?$basic_ofstream@DU?$char_traits@D@std@@@std@@6B@ 100bd2e4     Pipi_edit.obj
 0002:0004c2f8       ??_R4?$basic_ostream@DU?$char_traits@D@std@@@std@@6B@ 100bd2f8     Pipi_edit.obj
 0002:0004c30c       ??_R2?$fast_string_istreambuf@D@detail@configor@@8 100bd30c     Pipi_edit.obj
 0002:0004c318       ??_R3configor_invalid_key@configor@@8 100bd318     Pipi_edit.obj
 0002:0004c328       ??_R3?$basic_ofstream@DU?$char_traits@D@std@@@std@@8 100bd328     Pipi_edit.obj
 0002:0004c338       ??_R1A@?0A@EA@?$fast_basic_ostringstream@D@detail@configor@@8 100bd338     Pipi_edit.obj
 0002:0004c354       ??_R4?$fast_basic_ostringstream@D@detail@configor@@6B@ 100bd354     Pipi_edit.obj
 0002:0004c368       ??_R2?$num_put@DV?$ostreambuf_iterator@DU?$char_traits@D@std@@@std@@@std@@8 100bd368     Pipi_edit.obj
 0002:0004c37c       ??_R4configor_exception@configor@@6B@ 100bd37c     Pipi_edit.obj
 0002:0004c390       ??_R1A@?0A@EA@configor_invalid_key@configor@@8 100bd390     Pipi_edit.obj
 0002:0004c3ac       ??_R3configor_exception@configor@@8 100bd3ac     Pipi_edit.obj
 0002:0004c3bc       ??_R1A@?0A@EA@?$fast_string_ostreambuf@D@detail@configor@@8 100bd3bc     Pipi_edit.obj
 0002:0004c3d8       ??_R2?$json_serializer@V?$basic_config@Ujson_args@configor@@@configor@@@detail@configor@@8 100bd3d8     Pipi_edit.obj
 0002:0004c3e4       ??_R2?$basic_serializer@V?$basic_config@Ujson_args@configor@@@configor@@@configor@@8 100bd3e4     Pipi_edit.obj
 0002:0004c3ec       ??_R2?$basic_ofstream@DU?$char_traits@D@std@@@std@@8 100bd3ec     Pipi_edit.obj
 0002:0004c404       ??_R3configor_serialization_error@configor@@8 100bd404     Pipi_edit.obj
 0002:0004c414       ??_R4?$basic_serializer@V?$basic_config@Ujson_args@configor@@@configor@@@configor@@6B@ 100bd414     Pipi_edit.obj
 0002:0004c428       ??_R4?$fast_string_istreambuf@D@detail@configor@@6B@ 100bd428     Pipi_edit.obj
 0002:0004c43c       ??_R2configor_exception@configor@@8 100bd43c     Pipi_edit.obj
 0002:0004c44c       ??_R1A@?0A@EA@configor_exception@configor@@8 100bd44c     Pipi_edit.obj
 0002:0004c468       ??_R2logic_error@std@@8    100bd468     Pipi_edit.obj
 0002:0004c474       ??_R4configor_type_error@configor@@6B@ 100bd474     Pipi_edit.obj
 0002:0004c488       ??_R1A@?0A@EA@configor_type_error@configor@@8 100bd488     Pipi_edit.obj
 0002:0004c4a4       ??_R3?$json_serializer@V?$basic_config@Ujson_args@configor@@@configor@@@detail@configor@@8 100bd4a4     Pipi_edit.obj
 0002:0004c4b4       ??_R2?$fast_string_ostreambuf@D@detail@configor@@8 100bd4b4     Pipi_edit.obj
 0002:0004c4c0       ??_R4configor_serialization_error@configor@@6B@ 100bd4c0     Pipi_edit.obj
 0002:0004c4d4       ??_R2?$basic_ostream@DU?$char_traits@D@std@@@std@@8 100bd4d4     Pipi_edit.obj
 0002:0004c4e8       ??_R1A@?0A@EA@out_of_range@std@@8 100bd4e8     Pipi_edit.obj
 0002:0004c504       ??_R2?$fast_basic_ostringstream@D@detail@configor@@8 100bd504     Pipi_edit.obj
 0002:0004c51c       ??_R3configor_type_error@configor@@8 100bd51c     Pipi_edit.obj
 0002:0004c52c       ??_R4out_of_range@std@@6B@ 100bd52c     Pipi_edit.obj
 0002:0004c540       ??_R1A@?0A@EA@configor_serialization_error@configor@@8 100bd540     Pipi_edit.obj
 0002:0004c55c       ??_R3logic_error@std@@8    100bd55c     Pipi_edit.obj
 0002:0004c56c       ??_R1A@?0A@EA@?$basic_ostream@DU?$char_traits@D@std@@@std@@8 100bd56c     Pipi_edit.obj
 0002:0004c588       ??_R2configor_serialization_error@configor@@8 100bd588     Pipi_edit.obj
 0002:0004c59c       ??_R4logic_error@std@@6B@  100bd59c     Pipi_edit.obj
 0002:0004c5b0       ??_R2configor_type_error@configor@@8 100bd5b0     Pipi_edit.obj
 0002:0004c5c4       ??_R2?$numpunct@D@std@@8   100bd5c4     Pipi_edit.obj
 0002:0004c5d8       ??_R2out_of_range@std@@8   100bd5d8     Pipi_edit.obj
 0002:0004c5e8       ??_R4?$fast_string_ostreambuf@D@detail@configor@@6B@ 100bd5e8     Pipi_edit.obj
 0002:0004c5fc       ??_R1A@?0A@EA@?$json_serializer@V?$basic_config@Ujson_args@configor@@@configor@@@detail@configor@@8 100bd5fc     Pipi_edit.obj
 0002:0004c618       ??_R3out_of_range@std@@8   100bd618     Pipi_edit.obj
 0002:0004c628       ??_R1A@?0A@EA@?$basic_ofstream@DU?$char_traits@D@std@@@std@@8 100bd628     Pipi_edit.obj
 0002:0004c644       ??_R3?$numpunct@D@std@@8   100bd644     Pipi_edit.obj
 0002:0004c654       ??_R4?$numpunct@D@std@@6B@ 100bd654     Pipi_edit.obj
 0002:0004c668       ??_R1A@?0A@EA@?$num_put@DV?$ostreambuf_iterator@DU?$char_traits@D@std@@@std@@@std@@8 100bd668     Pipi_edit.obj
 0002:0004c684       ??_R4configor_invalid_key@configor@@6B@ 100bd684     Pipi_edit.obj
 0002:0004c698       ??_R3?$basic_serializer@V?$basic_config@Ujson_args@configor@@@configor@@@configor@@8 100bd698     Pipi_edit.obj
 0002:0004c6a8       ??_R3?$basic_ostream@DU?$char_traits@D@std@@@std@@8 100bd6a8     Pipi_edit.obj
 0002:0004c6b8       ??_R1A@?0A@EA@?$basic_serializer@V?$basic_config@Ujson_args@configor@@@configor@@@configor@@8 100bd6b8     Pipi_edit.obj
 0002:0004c6d4       ??_R1A@?0A@EA@?$numpunct@D@std@@8 100bd6d4     Pipi_edit.obj
 0002:0004c6f0       ??_R3?$fast_string_istreambuf@D@detail@configor@@8 100bd6f0     Pipi_edit.obj
 0002:0004c700       ??_R4?$json_serializer@V?$basic_config@Ujson_args@configor@@@configor@@@detail@configor@@6B@ 100bd700     Pipi_edit.obj
 0002:0004c714       ??_R2configor_invalid_key@configor@@8 100bd714     Pipi_edit.obj
 0002:0004c728       ??_R4?$num_put@DV?$ostreambuf_iterator@DU?$char_traits@D@std@@@std@@@std@@6B@ 100bd728     Pipi_edit.obj
 0002:0004c73c       ??_R1A@?0A@EA@?$fast_string_istreambuf@D@detail@configor@@8 100bd73c     Pipi_edit.obj
 0002:0004c758       ??_R3?$num_put@DV?$ostreambuf_iterator@DU?$char_traits@D@std@@@std@@@std@@8 100bd758     Pipi_edit.obj
 0002:0004c768       ??_R3?$fast_string_ostreambuf@D@detail@configor@@8 100bd768     Pipi_edit.obj
 0002:0004cb78       ___rtc_iaa                 100bdb78     LIBCMT:initsect.obj
 0002:0004cb7c       ___rtc_izz                 100bdb7c     LIBCMT:initsect.obj
 0002:0004cb80       ___rtc_taa                 100bdb80     LIBCMT:initsect.obj
 0002:0004cb84       ___rtc_tzz                 100bdb84     LIBCMT:initsect.obj
 0002:0004cb88       __tls_start                100bdb88     LIBCMT:tlssup.obj
 0002:0004cb8c       __Init_thread_epoch        100bdb8c     LIBCMT:thread_safe_statics.obj
 0002:0004cb90       __tls_end                  100bdb90     LIBCMT:tlssup.obj
 0002:0004ee80       __TI2?AVbad_alloc@std@@    100bfe80     libcpmt:xthrow.obj
 0002:0004ee90       __CTA2?AVbad_alloc@std@@   100bfe90     libcpmt:xthrow.obj
 0002:0004ee9c       __TI3?AVlength_error@std@@ 100bfe9c     libcpmt:xthrow.obj
 0002:0004eeac       __CTA3?AVlength_error@std@@ 100bfeac     libcpmt:xthrow.obj
 0002:0004eebc       __CT??_R0?AVlength_error@std@@@8??0length_error@std@@QAE@ABV01@@Z12 100bfebc     libcpmt:xthrow.obj
 0002:0004eed8       __TI2?AVruntime_error@std@@ 100bfed8     libcpmt:xthrow.obj
 0002:0004eee8       __CTA2?AVruntime_error@std@@ 100bfee8     libcpmt:xthrow.obj
 0002:0004f1fc       __TI2?AVbad_exception@std@@ 100c01fc     libcpmt:excptptr.obj
 0002:0004f20c       __CTA2?AVbad_exception@std@@ 100c020c     libcpmt:excptptr.obj
 0002:0004f218       __CT??_R0?AVbad_exception@std@@@8??0bad_exception@std@@QAE@ABV01@@Z12 100c0218     libcpmt:excptptr.obj
 0002:0004fb0c       __CTA3?AVbad_array_new_length@std@@ 100c0b0c     Aimbot.obj
 0002:0004fb1c       __CT??_R0?AVbad_alloc@std@@@8??0bad_alloc@std@@QAE@ABV01@@Z12 100c0b1c     Aimbot.obj
 0002:0004fb38       __CT??_R0?AVexception@std@@@8??0exception@std@@QAE@ABV01@@Z12 100c0b38     Aimbot.obj
 0002:0004fb54       __TI3?AVbad_array_new_length@std@@ 100c0b54     Aimbot.obj
 0002:0004fb64       __CT??_R0?AVbad_array_new_length@std@@@8??0bad_array_new_length@std@@QAE@ABV01@@Z12 100c0b64     Aimbot.obj
 0002:0004fb80       __TI4?AVsystem_error@std@@ 100c0b80     Menu.obj
 0002:0004fb90       __CT??_R0?AVsystem_error@std@@@8??0system_error@std@@QAE@ABV01@@Z20 100c0b90     Menu.obj
 0002:0004fbac       __CTA4?AVsystem_error@std@@ 100c0bac     Menu.obj
 0002:0004fbc0       __CT??_R0?AVruntime_error@std@@@8??0runtime_error@std@@QAE@ABV01@@Z12 100c0bc0     Menu.obj
 0002:0004fbdc       __CT??_R0?AV_System_error@std@@@8??0_System_error@std@@QAE@ABV01@@Z20 100c0bdc     Menu.obj
 0002:0004fbf8       __CTA2?AVbad_cast@std@@    100c0bf8     World.obj
 0002:0004fc04       __CT??_R0?AVbad_cast@std@@@8??0bad_cast@std@@QAE@ABV01@@Z12 100c0c04     World.obj
 0002:0004fc20       __TI2?AVbad_cast@std@@     100c0c20     World.obj
 0002:0004fc30       __TI5?AVfailure@ios_base@std@@ 100c0c30     World.obj
 0002:0004fc40       __CTA5?AVfailure@ios_base@std@@ 100c0c40     World.obj
 0002:0004fc58       __CT??_R0?AVfailure@ios_base@std@@@8??0failure@ios_base@std@@QAE@ABV012@@Z20 100c0c58     World.obj
 0002:0004fc74       __CT??_R0?AVconfigor_invalid_key@configor@@@8??0configor_invalid_key@configor@@QAE@ABV01@@Z12 100c0c74     Pipi_edit.obj
 0002:0004fc90       __CTA4?AVconfigor_invalid_key@configor@@ 100c0c90     Pipi_edit.obj
 0002:0004fca4       __CTA4?AVconfigor_type_error@configor@@ 100c0ca4     Pipi_edit.obj
 0002:0004fcb8       __TI3?AVout_of_range@std@@ 100c0cb8     Pipi_edit.obj
 0002:0004fcc8       __TI4?AVconfigor_invalid_key@configor@@ 100c0cc8     Pipi_edit.obj
 0002:0004fcd8       __CT??_R0?AVconfigor_serialization_error@configor@@@8??0configor_serialization_error@configor@@QAE@ABV01@@Z12 100c0cd8     Pipi_edit.obj
 0002:0004fcf4       __TI4?AVconfigor_type_error@configor@@ 100c0cf4     Pipi_edit.obj
 0002:0004fd04       __TI4?AVconfigor_serialization_error@configor@@ 100c0d04     Pipi_edit.obj
 0002:0004fd14       __CT??_R0?AVconfigor_type_error@configor@@@8??0configor_type_error@configor@@QAE@ABV01@@Z12 100c0d14     Pipi_edit.obj
 0002:0004fd30       __CT??_R0?AVconfigor_exception@configor@@@8??0configor_exception@configor@@QAE@ABV01@@Z12 100c0d30     Pipi_edit.obj
 0002:0004fd4c       __CT??_R0?AVout_of_range@std@@@8??0out_of_range@std@@QAE@ABV01@@Z12 100c0d4c     Pipi_edit.obj
 0002:0004fd68       __CTA4?AVconfigor_serialization_error@configor@@ 100c0d68     Pipi_edit.obj
 0002:0004fd7c       __CTA3?AVout_of_range@std@@ 100c0d7c     Pipi_edit.obj
 0002:0004fd8c       __CT??_R0?AVlogic_error@std@@@8??0logic_error@std@@QAE@ABV01@@Z12 100c0d8c     Pipi_edit.obj
 0002:0004fe04       __IMPORT_DESCRIPTOR_KERNEL32 100c0e04     kernel32:KERNEL32.dll
 0002:0004fe18       __IMPORT_DESCRIPTOR_USER32 100c0e18     user32:USER32.dll
 0002:0004fe2c       __IMPORT_DESCRIPTOR_GDI32  100c0e2c     gdi32:GDI32.dll
 0002:0004fe40       __IMPORT_DESCRIPTOR_SHELL32 100c0e40     shell32:SHELL32.dll
 0002:0004fe54       __IMPORT_DESCRIPTOR_ole32  100c0e54     ole32:ole32.dll
 0002:0004fe68       __IMPORT_DESCRIPTOR_OLEAUT32 100c0e68     oleaut32:OLEAUT32.dll
 0002:0004fe7c       __IMPORT_DESCRIPTOR_OPENGL32 100c0e7c     OpenGL32:OPENGL32.dll
 0002:0004fe90       __NULL_IMPORT_DESCRIPTOR   100c0e90     kernel32:KERNEL32.dll
 0003:000000ac       ?_Sync@ios_base@std@@0_NA  100c20ac     libcpmt:ios.obj
 0003:000000b0       ?valid@?1???$_Xfiopen@D@std@@YAPAU_iobuf@@PBDHH@Z@4QBHB 100c20b0     libcpmt:fiopen.obj
 0003:000001c4       __Init_global_epoch        100c21c4     LIBCMT:thread_safe_statics.obj
 0003:000001c8       ___scrt_native_dllmain_reason 100c21c8     LIBCMT:utility.obj
 0003:000001cc       ___security_cookie_complement 100c21cc     LIBCMT:gs_cookie.obj
 0003:000001d0       ___security_cookie         100c21d0     LIBCMT:gs_cookie.obj
 0003:000001e0       __fltused                  100c21e0     LIBCMT:fltused.obj
 0003:000001f0       ___isa_enabled             100c21f0     LIBCMT:cpu_disp.obj
 0003:00000200       __NLG_Destination          100c2200     libvcruntime:exsup.obj
 0003:00000220       __iob                      100c2220     libucrt:_file.obj
 0003:000002d0       ___acrt_lconv_c            100c22d0     libucrt:localeconv.obj
 0003:00000320       ___acrt_lconv              100c2320     libucrt:localeconv.obj
 0003:00000324       ___acrt_lconv_static_decimal 100c2324     libucrt:localeconv.obj
 0003:00000328       ___acrt_lconv_static_W_decimal 100c2328     libucrt:localeconv.obj
 0003:00000330       __pctype                   100c2330     libucrt:ctype.obj
 0003:00000334       __pwctype                  100c2334     libucrt:ctype.obj
 0003:00000338       ___abort_behavior          100c2338     libucrt:abort.obj
